(i__main__
Player
p1
(dp2
S'name'
p3
VVincent Kompany 
p4
sS'offensive_data'
p5
(lp6
(lp7
a(lp8
V2018/2019
p9
aVManchester Ci..
p10
aVEPL
p11
aV4(3)
p12
aV377
p13
aV-
aV-
aV2
aV-
aV0.1
p14
aV92.6
p15
aV2
aV-
aV6.80
p16
aa(lp17
V2018/2019
p18
aVManchester Ci..
p19
aVUCL
p20
aV1(1)
p21
aV95
p22
aV-
aV-
aV-
aV-
aV-
aV98.9
p23
aV0.5
p24
aV-
aV6.33
p25
aa(lp26
V2018/2019
p27
aVBelgium
p28
aVUNL
p29
aV4
aV354
p30
aV-
aV-
aV1
aV-
aV0.8
p31
aV90.7
p32
aV2.8
p33
aV-
aV6.98
p34
aa(lp35
V2017/2018
p36
aVManchester Ci..
p37
aVUCL
p38
aV2
aV180
p39
aV-
aV-
aV-
aV-
aV0.5
p40
aV93.7
p41
aV1
aV-
aV6.88
p42
aa(lp43
V2017/2018
p44
aVManchester Ci..
p45
aVEPL
p46
aV17
p47
aV1397
p48
aV1
aV1
aV6
aV-
aV0.5
p49
aV92.6
p50
aV2.5
p51
aV-
aV7.04
p52
aa(lp53
V2016/2017
p54
aVManchester Ci..
p55
aVEPL
p56
aV10(1)
p57
aV823
p58
aV3
aV-
aV5
aV-
aV0.8
p59
aV88
p60
aV1.7
p61
aV-
aV7.18
p62
aa(lp63
V2018
p64
aVBelgium
p65
aVWC
p66
aV4(1)
p67
aV376
p68
aV-
aV-
aV-
aV-
aV0.8
p69
aV93.1
p70
aV0.6
p71
aV-
aV6.71
p72
aa(lp73
V2015/2016
p74
aVManchester Ci..
p75
aVUCL
p76
aV6(1)
p77
aV363
p78
aV-
aV-
aV-
aV-
aV-
aV85.7
p79
aV1
aV-
aV6.82
p80
aa(lp81
V2015/2016
p82
aVManchester Ci..
p83
aVEPL
p84
aV13(1)
p85
aV1179
p86
aV2
aV-
aV5
aV-
aV0.8
p87
aV82.9
p88
aV2.5
p89
aV-
aV7.28
p90
aa(lp91
V2014/2015
p92
aVManchester Ci..
p93
aVUCL
p94
aV7
aV630
p95
aV-
aV-
aV1
aV-
aV0.4
p96
aV88.3
p97
aV0.9
p98
aV1
aV6.87
p99
aa(lp100
V2014/2015
p101
aVManchester Ci..
p102
aVEPL
p103
aV23(2)
p104
aV2034
p105
aV-
aV-
aV7
aV-
aV0.2
p106
aV87.3
p107
aV1.5
p108
aV-
aV6.86
p109
aa(lp110
V2013/2014
p111
aVManchester Ci..
p112
aVUCL
p113
aV4
aV360
p114
aV1
aV-
aV1
aV-
aV0.3
p115
aV88.8
p116
aV0.5
p117
aV-
aV7.32
p118
aa(lp119
V2013/2014
p120
aVManchester Ci..
p121
aVEPL
p122
aV28
p123
aV2365
p124
aV4
aV1
aV6
aV1
aV0.6
p125
aV88.1
p126
aV1.3
p127
aV-
aV7.18
p128
aa(lp129
V2014
p130
aVBelgium
p131
aVWC
p132
aV4
aV390
p133
aV-
aV-
aV1
aV-
aV0.8
p134
aV87.3
p135
aV1.8
p136
aV-
aV7.10
p137
aa(lp138
V2012/2013
p139
aVManchester Ci..
p140
aVUCL
p141
aV6
aV540
p142
aV-
aV-
aV2
aV-
aV0.5
p143
aV91.2
p144
aV1.5
p145
aV-
aV6.78
p146
aa(lp147
V2012/2013
p148
aVManchester Ci..
p149
aVEPL
p150
aV26
p151
aV2239
p152
aV1
aV-
aV3
aV1
aV0.6
p153
aV89.2
p154
aV1.5
p155
aV-
aV7.09
p156
aa(lp157
V2011/2012
p158
aVManchester Ci..
p159
aVUCL
p160
aV6
aV540
p161
aV-
aV-
aV1
aV-
aV0.2
p162
aV94.4
p163
aV1.2
p164
aV-
aV6.97
p165
aa(lp166
V2011/2012
p167
aVManchester Ci..
p168
aVEPL
p169
aV31
p170
aV2774
p171
aV3
aV1
aV5
aV1
aV0.6
p172
aV86.6
p173
aV1
aV2
aV7.32
p174
aa(lp175
V2010/2011
p176
aVManchester Ci..
p177
aVEPL
p178
aV37
p179
aV3330
p180
aV-
aV1
aV6
aV-
aV0.3
p181
aV85.6
p182
aV2
aV2
aV7.42
p183
aa(lp184
V2009/2010
p185
aVManchester Ci..
p186
aVEPL
p187
aV21(4)
p188
aV1913
p189
aV2
aV1
aV2
aV-
aV0.4
p190
aV81.1
p191
aV2.2
p192
aV2
aV7.26
p193
aa(lp194
VTotal / Average
p195
aV
aV
aV268
p196
aV22259
p197
aV17
p198
aV5
aV54
p199
aV3
aV0.5
p200
aV87.5
p201
aV1.6
p202
aV7
aV7.13
p203
aasS'url'
p204
S'https://www.whoscored.com/Players/10136/History/'
p205
sS'passing_data'
p206
(lp207
(lp208
a(lp209
V2018/2019
p210
aVManchester Ci..
p211
aVEPL
p212
aV4(3)
p213
aV377
p214
aV-
aV-
aV2
aV-
aV0.1
p215
aV92.6
p216
aV2
aV-
aV6.80
p217
aa(lp218
V2018/2019
p219
aVManchester Ci..
p220
aVUCL
p221
aV1(1)
p222
aV95
p223
aV-
aV-
aV-
aV-
aV-
aV98.9
p224
aV0.5
p225
aV-
aV6.33
p226
aa(lp227
V2018/2019
p228
aVBelgium
p229
aVUNL
p230
aV4
aV354
p231
aV-
aV-
aV1
aV-
aV0.8
p232
aV90.7
p233
aV2.8
p234
aV-
aV6.98
p235
aa(lp236
V2017/2018
p237
aVManchester Ci..
p238
aVUCL
p239
aV2
aV180
p240
aV-
aV-
aV-
aV-
aV0.5
p241
aV93.7
p242
aV1
aV-
aV6.88
p243
aa(lp244
V2017/2018
p245
aVManchester Ci..
p246
aVEPL
p247
aV17
p248
aV1397
p249
aV1
aV1
aV6
aV-
aV0.5
p250
aV92.6
p251
aV2.5
p252
aV-
aV7.04
p253
aa(lp254
V2016/2017
p255
aVManchester Ci..
p256
aVEPL
p257
aV10(1)
p258
aV823
p259
aV3
aV-
aV5
aV-
aV0.8
p260
aV88
p261
aV1.7
p262
aV-
aV7.18
p263
aa(lp264
V2018
p265
aVBelgium
p266
aVWC
p267
aV4(1)
p268
aV376
p269
aV-
aV-
aV-
aV-
aV0.8
p270
aV93.1
p271
aV0.6
p272
aV-
aV6.71
p273
aa(lp274
V2015/2016
p275
aVManchester Ci..
p276
aVUCL
p277
aV6(1)
p278
aV363
p279
aV-
aV-
aV-
aV-
aV-
aV85.7
p280
aV1
aV-
aV6.82
p281
aa(lp282
V2015/2016
p283
aVManchester Ci..
p284
aVEPL
p285
aV13(1)
p286
aV1179
p287
aV2
aV-
aV5
aV-
aV0.8
p288
aV82.9
p289
aV2.5
p290
aV-
aV7.28
p291
aa(lp292
V2014/2015
p293
aVManchester Ci..
p294
aVUCL
p295
aV7
aV630
p296
aV-
aV-
aV1
aV-
aV0.4
p297
aV88.3
p298
aV0.9
p299
aV1
aV6.87
p300
aa(lp301
V2014/2015
p302
aVManchester Ci..
p303
aVEPL
p304
aV23(2)
p305
aV2034
p306
aV-
aV-
aV7
aV-
aV0.2
p307
aV87.3
p308
aV1.5
p309
aV-
aV6.86
p310
aa(lp311
V2013/2014
p312
aVManchester Ci..
p313
aVUCL
p314
aV4
aV360
p315
aV1
aV-
aV1
aV-
aV0.3
p316
aV88.8
p317
aV0.5
p318
aV-
aV7.32
p319
aa(lp320
V2013/2014
p321
aVManchester Ci..
p322
aVEPL
p323
aV28
p324
aV2365
p325
aV4
aV1
aV6
aV1
aV0.6
p326
aV88.1
p327
aV1.3
p328
aV-
aV7.18
p329
aa(lp330
V2014
p331
aVBelgium
p332
aVWC
p333
aV4
aV390
p334
aV-
aV-
aV1
aV-
aV0.8
p335
aV87.3
p336
aV1.8
p337
aV-
aV7.10
p338
aa(lp339
V2012/2013
p340
aVManchester Ci..
p341
aVUCL
p342
aV6
aV540
p343
aV-
aV-
aV2
aV-
aV0.5
p344
aV91.2
p345
aV1.5
p346
aV-
aV6.78
p347
aa(lp348
V2012/2013
p349
aVManchester Ci..
p350
aVEPL
p351
aV26
p352
aV2239
p353
aV1
aV-
aV3
aV1
aV0.6
p354
aV89.2
p355
aV1.5
p356
aV-
aV7.09
p357
aa(lp358
V2011/2012
p359
aVManchester Ci..
p360
aVUCL
p361
aV6
aV540
p362
aV-
aV-
aV1
aV-
aV0.2
p363
aV94.4
p364
aV1.2
p365
aV-
aV6.97
p366
aa(lp367
V2011/2012
p368
aVManchester Ci..
p369
aVEPL
p370
aV31
p371
aV2774
p372
aV3
aV1
aV5
aV1
aV0.6
p373
aV86.6
p374
aV1
aV2
aV7.32
p375
aa(lp376
V2010/2011
p377
aVManchester Ci..
p378
aVEPL
p379
aV37
p380
aV3330
p381
aV-
aV1
aV6
aV-
aV0.3
p382
aV85.6
p383
aV2
aV2
aV7.42
p384
aa(lp385
V2009/2010
p386
aVManchester Ci..
p387
aVEPL
p388
aV21(4)
p389
aV1913
p390
aV2
aV1
aV2
aV-
aV0.4
p391
aV81.1
p392
aV2.2
p393
aV2
aV7.26
p394
aa(lp395
VTotal / Average
p396
aV
aV
aV268
p397
aV22259
p398
aV17
p399
aV5
aV54
p400
aV3
aV0.5
p401
aV87.5
p402
aV1.6
p403
aV7
aV7.13
p404
aasS'defensive_data'
p405
(lp406
(lp407
a(lp408
V2018/2019
p409
aVManchester Ci..
p410
aVEPL
p411
aV4(3)
p412
aV377
p413
aV-
aV-
aV2
aV-
aV0.1
p414
aV92.6
p415
aV2
aV-
aV6.80
p416
aa(lp417
V2018/2019
p418
aVManchester Ci..
p419
aVUCL
p420
aV1(1)
p421
aV95
p422
aV-
aV-
aV-
aV-
aV-
aV98.9
p423
aV0.5
p424
aV-
aV6.33
p425
aa(lp426
V2018/2019
p427
aVBelgium
p428
aVUNL
p429
aV4
aV354
p430
aV-
aV-
aV1
aV-
aV0.8
p431
aV90.7
p432
aV2.8
p433
aV-
aV6.98
p434
aa(lp435
V2017/2018
p436
aVManchester Ci..
p437
aVUCL
p438
aV2
aV180
p439
aV-
aV-
aV-
aV-
aV0.5
p440
aV93.7
p441
aV1
aV-
aV6.88
p442
aa(lp443
V2017/2018
p444
aVManchester Ci..
p445
aVEPL
p446
aV17
p447
aV1397
p448
aV1
aV1
aV6
aV-
aV0.5
p449
aV92.6
p450
aV2.5
p451
aV-
aV7.04
p452
aa(lp453
V2016/2017
p454
aVManchester Ci..
p455
aVEPL
p456
aV10(1)
p457
aV823
p458
aV3
aV-
aV5
aV-
aV0.8
p459
aV88
p460
aV1.7
p461
aV-
aV7.18
p462
aa(lp463
V2018
p464
aVBelgium
p465
aVWC
p466
aV4(1)
p467
aV376
p468
aV-
aV-
aV-
aV-
aV0.8
p469
aV93.1
p470
aV0.6
p471
aV-
aV6.71
p472
aa(lp473
V2015/2016
p474
aVManchester Ci..
p475
aVUCL
p476
aV6(1)
p477
aV363
p478
aV-
aV-
aV-
aV-
aV-
aV85.7
p479
aV1
aV-
aV6.82
p480
aa(lp481
V2015/2016
p482
aVManchester Ci..
p483
aVEPL
p484
aV13(1)
p485
aV1179
p486
aV2
aV-
aV5
aV-
aV0.8
p487
aV82.9
p488
aV2.5
p489
aV-
aV7.28
p490
aa(lp491
V2014/2015
p492
aVManchester Ci..
p493
aVUCL
p494
aV7
aV630
p495
aV-
aV-
aV1
aV-
aV0.4
p496
aV88.3
p497
aV0.9
p498
aV1
aV6.87
p499
aa(lp500
V2014/2015
p501
aVManchester Ci..
p502
aVEPL
p503
aV23(2)
p504
aV2034
p505
aV-
aV-
aV7
aV-
aV0.2
p506
aV87.3
p507
aV1.5
p508
aV-
aV6.86
p509
aa(lp510
V2013/2014
p511
aVManchester Ci..
p512
aVUCL
p513
aV4
aV360
p514
aV1
aV-
aV1
aV-
aV0.3
p515
aV88.8
p516
aV0.5
p517
aV-
aV7.32
p518
aa(lp519
V2013/2014
p520
aVManchester Ci..
p521
aVEPL
p522
aV28
p523
aV2365
p524
aV4
aV1
aV6
aV1
aV0.6
p525
aV88.1
p526
aV1.3
p527
aV-
aV7.18
p528
aa(lp529
V2014
p530
aVBelgium
p531
aVWC
p532
aV4
aV390
p533
aV-
aV-
aV1
aV-
aV0.8
p534
aV87.3
p535
aV1.8
p536
aV-
aV7.10
p537
aa(lp538
V2012/2013
p539
aVManchester Ci..
p540
aVUCL
p541
aV6
aV540
p542
aV-
aV-
aV2
aV-
aV0.5
p543
aV91.2
p544
aV1.5
p545
aV-
aV6.78
p546
aa(lp547
V2012/2013
p548
aVManchester Ci..
p549
aVEPL
p550
aV26
p551
aV2239
p552
aV1
aV-
aV3
aV1
aV0.6
p553
aV89.2
p554
aV1.5
p555
aV-
aV7.09
p556
aa(lp557
V2011/2012
p558
aVManchester Ci..
p559
aVUCL
p560
aV6
aV540
p561
aV-
aV-
aV1
aV-
aV0.2
p562
aV94.4
p563
aV1.2
p564
aV-
aV6.97
p565
aa(lp566
V2011/2012
p567
aVManchester Ci..
p568
aVEPL
p569
aV31
p570
aV2774
p571
aV3
aV1
aV5
aV1
aV0.6
p572
aV86.6
p573
aV1
aV2
aV7.32
p574
aa(lp575
V2010/2011
p576
aVManchester Ci..
p577
aVEPL
p578
aV37
p579
aV3330
p580
aV-
aV1
aV6
aV-
aV0.3
p581
aV85.6
p582
aV2
aV2
aV7.42
p583
aa(lp584
V2009/2010
p585
aVManchester Ci..
p586
aVEPL
p587
aV21(4)
p588
aV1913
p589
aV2
aV1
aV2
aV-
aV0.4
p590
aV81.1
p591
aV2.2
p592
aV2
aV7.26
p593
aa(lp594
VTotal / Average
p595
aV
aV
aV268
p596
aV22259
p597
aV17
p598
aV5
aV54
p599
aV3
aV0.5
p600
aV87.5
p601
aV1.6
p602
aV7
aV7.13
p603
aasS'sumary_data'
p604
(lp605
(lp606
a(lp607
V2018/2019
p608
aVManchester Ci..
p609
aVEPL
p610
aV4(3)
p611
aV377
p612
aV-
aV-
aV2
aV-
aV0.1
p613
aV92.6
p614
aV2
aV-
aV6.80
p615
aa(lp616
V2018/2019
p617
aVManchester Ci..
p618
aVUCL
p619
aV1(1)
p620
aV95
p621
aV-
aV-
aV-
aV-
aV-
aV98.9
p622
aV0.5
p623
aV-
aV6.33
p624
aa(lp625
V2018/2019
p626
aVBelgium
p627
aVUNL
p628
aV4
aV354
p629
aV-
aV-
aV1
aV-
aV0.8
p630
aV90.7
p631
aV2.8
p632
aV-
aV6.98
p633
aa(lp634
V2017/2018
p635
aVManchester Ci..
p636
aVUCL
p637
aV2
aV180
p638
aV-
aV-
aV-
aV-
aV0.5
p639
aV93.7
p640
aV1
aV-
aV6.88
p641
aa(lp642
V2017/2018
p643
aVManchester Ci..
p644
aVEPL
p645
aV17
p646
aV1397
p647
aV1
aV1
aV6
aV-
aV0.5
p648
aV92.6
p649
aV2.5
p650
aV-
aV7.04
p651
aa(lp652
V2016/2017
p653
aVManchester Ci..
p654
aVEPL
p655
aV10(1)
p656
aV823
p657
aV3
aV-
aV5
aV-
aV0.8
p658
aV88
p659
aV1.7
p660
aV-
aV7.18
p661
aa(lp662
V2018
p663
aVBelgium
p664
aVWC
p665
aV4(1)
p666
aV376
p667
aV-
aV-
aV-
aV-
aV0.8
p668
aV93.1
p669
aV0.6
p670
aV-
aV6.71
p671
aa(lp672
V2015/2016
p673
aVManchester Ci..
p674
aVUCL
p675
aV6(1)
p676
aV363
p677
aV-
aV-
aV-
aV-
aV-
aV85.7
p678
aV1
aV-
aV6.82
p679
aa(lp680
V2015/2016
p681
aVManchester Ci..
p682
aVEPL
p683
aV13(1)
p684
aV1179
p685
aV2
aV-
aV5
aV-
aV0.8
p686
aV82.9
p687
aV2.5
p688
aV-
aV7.28
p689
aa(lp690
V2014/2015
p691
aVManchester Ci..
p692
aVUCL
p693
aV7
aV630
p694
aV-
aV-
aV1
aV-
aV0.4
p695
aV88.3
p696
aV0.9
p697
aV1
aV6.87
p698
aa(lp699
V2014/2015
p700
aVManchester Ci..
p701
aVEPL
p702
aV23(2)
p703
aV2034
p704
aV-
aV-
aV7
aV-
aV0.2
p705
aV87.3
p706
aV1.5
p707
aV-
aV6.86
p708
aa(lp709
V2013/2014
p710
aVManchester Ci..
p711
aVUCL
p712
aV4
aV360
p713
aV1
aV-
aV1
aV-
aV0.3
p714
aV88.8
p715
aV0.5
p716
aV-
aV7.32
p717
aa(lp718
V2013/2014
p719
aVManchester Ci..
p720
aVEPL
p721
aV28
p722
aV2365
p723
aV4
aV1
aV6
aV1
aV0.6
p724
aV88.1
p725
aV1.3
p726
aV-
aV7.18
p727
aa(lp728
V2014
p729
aVBelgium
p730
aVWC
p731
aV4
aV390
p732
aV-
aV-
aV1
aV-
aV0.8
p733
aV87.3
p734
aV1.8
p735
aV-
aV7.10
p736
aa(lp737
V2012/2013
p738
aVManchester Ci..
p739
aVUCL
p740
aV6
aV540
p741
aV-
aV-
aV2
aV-
aV0.5
p742
aV91.2
p743
aV1.5
p744
aV-
aV6.78
p745
aa(lp746
V2012/2013
p747
aVManchester Ci..
p748
aVEPL
p749
aV26
p750
aV2239
p751
aV1
aV-
aV3
aV1
aV0.6
p752
aV89.2
p753
aV1.5
p754
aV-
aV7.09
p755
aa(lp756
V2011/2012
p757
aVManchester Ci..
p758
aVUCL
p759
aV6
aV540
p760
aV-
aV-
aV1
aV-
aV0.2
p761
aV94.4
p762
aV1.2
p763
aV-
aV6.97
p764
aa(lp765
V2011/2012
p766
aVManchester Ci..
p767
aVEPL
p768
aV31
p769
aV2774
p770
aV3
aV1
aV5
aV1
aV0.6
p771
aV86.6
p772
aV1
aV2
aV7.32
p773
aa(lp774
V2010/2011
p775
aVManchester Ci..
p776
aVEPL
p777
aV37
p778
aV3330
p779
aV-
aV1
aV6
aV-
aV0.3
p780
aV85.6
p781
aV2
aV2
aV7.42
p782
aa(lp783
V2009/2010
p784
aVManchester Ci..
p785
aVEPL
p786
aV21(4)
p787
aV1913
p788
aV2
aV1
aV2
aV-
aV0.4
p789
aV81.1
p790
aV2.2
p791
aV2
aV7.26
p792
aa(lp793
VTotal / Average
p794
aV
aV
aV268
p795
aV22259
p796
aV17
p797
aV5
aV54
p798
aV3
aV0.5
p799
aV87.5
p800
aV1.6
p801
aV7
aV7.13
p802
aasS'id'
p803
V10136
p804
sb.