(i__main__
Player
p1
(dp2
S'name'
p3
VJohn Stones 
p4
sS'offensive_data'
p5
(lp6
(lp7
a(lp8
V2018/2019
p9
aVManchester Ci..
p10
aVEPL
p11
aV10(1)
p12
aV894
p13
aV-
aV-
aV-
aV-
aV0.4
p14
aV94.6
p15
aV2.5
p16
aV-
aV6.97
p17
aa(lp18
V2018/2019
p19
aVManchester Ci..
p20
aVUCL
p21
aV5(1)
p22
aV422
p23
aV-
aV-
aV-
aV-
aV0.3
p24
aV95.7
p25
aV2
aV-
aV6.85
p26
aa(lp27
V2018/2019
p28
aVEngland
p29
aVUNL
p30
aV3
aV270
p31
aV-
aV-
aV2
aV-
aV1.3
p32
aV92.2
p33
aV2
aV-
aV6.88
p34
aa(lp35
V2017/2018
p36
aVManchester Ci..
p37
aVUCL
p38
aV5
aV450
p39
aV3
aV-
aV-
aV-
aV0.8
p40
aV95.5
p41
aV2
aV1
aV7.87
p42
aa(lp43
V2017/2018
p44
aVManchester Ci..
p45
aVEPL
p46
aV16(2)
p47
aV1306
p48
aV-
aV-
aV-
aV-
aV0.6
p49
aV95.8
p50
aV1.8
p51
aV-
aV6.89
p52
aa(lp53
V2016/2017
p54
aVManchester Ci..
p55
aVUCL
p56
aV6(1)
p57
aV557
p58
aV1
aV-
aV-
aV-
aV0.4
p59
aV93.6
p60
aV1
aV-
aV6.66
p61
aa(lp62
V2016/2017
p63
aVManchester Ci..
p64
aVEPL
p65
aV23(4)
p66
aV2013
p67
aV-
aV-
aV1
aV-
aV0.5
p68
aV91.7
p69
aV1.8
p70
aV1
aV6.78
p71
aa(lp72
V2018
p73
aVEngland
p74
aVWC
p75
aV7
aV646
p76
aV2
aV-
aV1
aV-
aV0.9
p77
aV94.8
p78
aV3.1
p79
aV-
aV7.28
p80
aa(lp81
V2015/2016
p82
aVEverton
p83
aVEPL
p84
aV31(2)
p85
aV2780
p86
aV-
aV-
aV3
aV-
aV0.2
p87
aV88.7
p88
aV1.6
p89
aV-
aV6.85
p90
aa(lp91
V2015
p92
aVEngland U21
p93
aVIEU
p94
aV1
aV90
p95
aV-
aV-
aV-
aV-
aV-
aV91.9
p96
aV-
aV-
aV6.64
p97
aa(lp98
V2014/2015
p99
aVEverton
p100
aVUEL
p101
aV3
aV242
p102
aV-
aV-
aV-
aV1
aV0.3
p103
aV88.4
p104
aV1.3
p105
aV-
aV5.96
p106
aa(lp107
V2014/2015
p108
aVEverton
p109
aVEPL
p110
aV23
p111
aV2044
p112
aV1
aV-
aV1
aV-
aV0.3
p113
aV89.5
p114
aV2.6
p115
aV1
aV7.17
p116
aa(lp117
V2013/2014
p118
aVEverton
p119
aVEPL
p120
aV15(6)
p121
aV1368
p122
aV-
aV-
aV1
aV-
aV-
aV89.8
p123
aV1.5
p124
aV1
aV6.84
p125
aa(lp126
VTotal / Average
p127
aV
aV
aV165
p128
aV13082
p129
aV7
aV0
aV9
aV1
aV0.4
p130
aV91.6
p131
aV1.9
p132
aV4
aV6.92
p133
aasS'url'
p134
S'https://www.whoscored.com/Players/101374/History/'
p135
sS'passing_data'
p136
(lp137
(lp138
a(lp139
V2018/2019
p140
aVManchester Ci..
p141
aVEPL
p142
aV10(1)
p143
aV894
p144
aV-
aV-
aV-
aV-
aV0.4
p145
aV94.6
p146
aV2.5
p147
aV-
aV6.97
p148
aa(lp149
V2018/2019
p150
aVManchester Ci..
p151
aVUCL
p152
aV5(1)
p153
aV422
p154
aV-
aV-
aV-
aV-
aV0.3
p155
aV95.7
p156
aV2
aV-
aV6.85
p157
aa(lp158
V2018/2019
p159
aVEngland
p160
aVUNL
p161
aV3
aV270
p162
aV-
aV-
aV2
aV-
aV1.3
p163
aV92.2
p164
aV2
aV-
aV6.88
p165
aa(lp166
V2017/2018
p167
aVManchester Ci..
p168
aVUCL
p169
aV5
aV450
p170
aV3
aV-
aV-
aV-
aV0.8
p171
aV95.5
p172
aV2
aV1
aV7.87
p173
aa(lp174
V2017/2018
p175
aVManchester Ci..
p176
aVEPL
p177
aV16(2)
p178
aV1306
p179
aV-
aV-
aV-
aV-
aV0.6
p180
aV95.8
p181
aV1.8
p182
aV-
aV6.89
p183
aa(lp184
V2016/2017
p185
aVManchester Ci..
p186
aVUCL
p187
aV6(1)
p188
aV557
p189
aV1
aV-
aV-
aV-
aV0.4
p190
aV93.6
p191
aV1
aV-
aV6.66
p192
aa(lp193
V2016/2017
p194
aVManchester Ci..
p195
aVEPL
p196
aV23(4)
p197
aV2013
p198
aV-
aV-
aV1
aV-
aV0.5
p199
aV91.7
p200
aV1.8
p201
aV1
aV6.78
p202
aa(lp203
V2018
p204
aVEngland
p205
aVWC
p206
aV7
aV646
p207
aV2
aV-
aV1
aV-
aV0.9
p208
aV94.8
p209
aV3.1
p210
aV-
aV7.28
p211
aa(lp212
V2015/2016
p213
aVEverton
p214
aVEPL
p215
aV31(2)
p216
aV2780
p217
aV-
aV-
aV3
aV-
aV0.2
p218
aV88.7
p219
aV1.6
p220
aV-
aV6.85
p221
aa(lp222
V2015
p223
aVEngland U21
p224
aVIEU
p225
aV1
aV90
p226
aV-
aV-
aV-
aV-
aV-
aV91.9
p227
aV-
aV-
aV6.64
p228
aa(lp229
V2014/2015
p230
aVEverton
p231
aVUEL
p232
aV3
aV242
p233
aV-
aV-
aV-
aV1
aV0.3
p234
aV88.4
p235
aV1.3
p236
aV-
aV5.96
p237
aa(lp238
V2014/2015
p239
aVEverton
p240
aVEPL
p241
aV23
p242
aV2044
p243
aV1
aV-
aV1
aV-
aV0.3
p244
aV89.5
p245
aV2.6
p246
aV1
aV7.17
p247
aa(lp248
V2013/2014
p249
aVEverton
p250
aVEPL
p251
aV15(6)
p252
aV1368
p253
aV-
aV-
aV1
aV-
aV-
aV89.8
p254
aV1.5
p255
aV1
aV6.84
p256
aa(lp257
VTotal / Average
p258
aV
aV
aV165
p259
aV13082
p260
aV7
aV0
aV9
aV1
aV0.4
p261
aV91.6
p262
aV1.9
p263
aV4
aV6.92
p264
aasS'defensive_data'
p265
(lp266
(lp267
a(lp268
V2018/2019
p269
aVManchester Ci..
p270
aVEPL
p271
aV10(1)
p272
aV894
p273
aV-
aV-
aV-
aV-
aV0.4
p274
aV94.6
p275
aV2.5
p276
aV-
aV6.97
p277
aa(lp278
V2018/2019
p279
aVManchester Ci..
p280
aVUCL
p281
aV5(1)
p282
aV422
p283
aV-
aV-
aV-
aV-
aV0.3
p284
aV95.7
p285
aV2
aV-
aV6.85
p286
aa(lp287
V2018/2019
p288
aVEngland
p289
aVUNL
p290
aV3
aV270
p291
aV-
aV-
aV2
aV-
aV1.3
p292
aV92.2
p293
aV2
aV-
aV6.88
p294
aa(lp295
V2017/2018
p296
aVManchester Ci..
p297
aVUCL
p298
aV5
aV450
p299
aV3
aV-
aV-
aV-
aV0.8
p300
aV95.5
p301
aV2
aV1
aV7.87
p302
aa(lp303
V2017/2018
p304
aVManchester Ci..
p305
aVEPL
p306
aV16(2)
p307
aV1306
p308
aV-
aV-
aV-
aV-
aV0.6
p309
aV95.8
p310
aV1.8
p311
aV-
aV6.89
p312
aa(lp313
V2016/2017
p314
aVManchester Ci..
p315
aVUCL
p316
aV6(1)
p317
aV557
p318
aV1
aV-
aV-
aV-
aV0.4
p319
aV93.6
p320
aV1
aV-
aV6.66
p321
aa(lp322
V2016/2017
p323
aVManchester Ci..
p324
aVEPL
p325
aV23(4)
p326
aV2013
p327
aV-
aV-
aV1
aV-
aV0.5
p328
aV91.7
p329
aV1.8
p330
aV1
aV6.78
p331
aa(lp332
V2018
p333
aVEngland
p334
aVWC
p335
aV7
aV646
p336
aV2
aV-
aV1
aV-
aV0.9
p337
aV94.8
p338
aV3.1
p339
aV-
aV7.28
p340
aa(lp341
V2015/2016
p342
aVEverton
p343
aVEPL
p344
aV31(2)
p345
aV2780
p346
aV-
aV-
aV3
aV-
aV0.2
p347
aV88.7
p348
aV1.6
p349
aV-
aV6.85
p350
aa(lp351
V2015
p352
aVEngland U21
p353
aVIEU
p354
aV1
aV90
p355
aV-
aV-
aV-
aV-
aV-
aV91.9
p356
aV-
aV-
aV6.64
p357
aa(lp358
V2014/2015
p359
aVEverton
p360
aVUEL
p361
aV3
aV242
p362
aV-
aV-
aV-
aV1
aV0.3
p363
aV88.4
p364
aV1.3
p365
aV-
aV5.96
p366
aa(lp367
V2014/2015
p368
aVEverton
p369
aVEPL
p370
aV23
p371
aV2044
p372
aV1
aV-
aV1
aV-
aV0.3
p373
aV89.5
p374
aV2.6
p375
aV1
aV7.17
p376
aa(lp377
V2013/2014
p378
aVEverton
p379
aVEPL
p380
aV15(6)
p381
aV1368
p382
aV-
aV-
aV1
aV-
aV-
aV89.8
p383
aV1.5
p384
aV1
aV6.84
p385
aa(lp386
VTotal / Average
p387
aV
aV
aV165
p388
aV13082
p389
aV7
aV0
aV9
aV1
aV0.4
p390
aV91.6
p391
aV1.9
p392
aV4
aV6.92
p393
aasS'sumary_data'
p394
(lp395
(lp396
a(lp397
V2018/2019
p398
aVManchester Ci..
p399
aVEPL
p400
aV10(1)
p401
aV894
p402
aV-
aV-
aV-
aV-
aV0.4
p403
aV94.6
p404
aV2.5
p405
aV-
aV6.97
p406
aa(lp407
V2018/2019
p408
aVManchester Ci..
p409
aVUCL
p410
aV5(1)
p411
aV422
p412
aV-
aV-
aV-
aV-
aV0.3
p413
aV95.7
p414
aV2
aV-
aV6.85
p415
aa(lp416
V2018/2019
p417
aVEngland
p418
aVUNL
p419
aV3
aV270
p420
aV-
aV-
aV2
aV-
aV1.3
p421
aV92.2
p422
aV2
aV-
aV6.88
p423
aa(lp424
V2017/2018
p425
aVManchester Ci..
p426
aVUCL
p427
aV5
aV450
p428
aV3
aV-
aV-
aV-
aV0.8
p429
aV95.5
p430
aV2
aV1
aV7.87
p431
aa(lp432
V2017/2018
p433
aVManchester Ci..
p434
aVEPL
p435
aV16(2)
p436
aV1306
p437
aV-
aV-
aV-
aV-
aV0.6
p438
aV95.8
p439
aV1.8
p440
aV-
aV6.89
p441
aa(lp442
V2016/2017
p443
aVManchester Ci..
p444
aVUCL
p445
aV6(1)
p446
aV557
p447
aV1
aV-
aV-
aV-
aV0.4
p448
aV93.6
p449
aV1
aV-
aV6.66
p450
aa(lp451
V2016/2017
p452
aVManchester Ci..
p453
aVEPL
p454
aV23(4)
p455
aV2013
p456
aV-
aV-
aV1
aV-
aV0.5
p457
aV91.7
p458
aV1.8
p459
aV1
aV6.78
p460
aa(lp461
V2018
p462
aVEngland
p463
aVWC
p464
aV7
aV646
p465
aV2
aV-
aV1
aV-
aV0.9
p466
aV94.8
p467
aV3.1
p468
aV-
aV7.28
p469
aa(lp470
V2015/2016
p471
aVEverton
p472
aVEPL
p473
aV31(2)
p474
aV2780
p475
aV-
aV-
aV3
aV-
aV0.2
p476
aV88.7
p477
aV1.6
p478
aV-
aV6.85
p479
aa(lp480
V2015
p481
aVEngland U21
p482
aVIEU
p483
aV1
aV90
p484
aV-
aV-
aV-
aV-
aV-
aV91.9
p485
aV-
aV-
aV6.64
p486
aa(lp487
V2014/2015
p488
aVEverton
p489
aVUEL
p490
aV3
aV242
p491
aV-
aV-
aV-
aV1
aV0.3
p492
aV88.4
p493
aV1.3
p494
aV-
aV5.96
p495
aa(lp496
V2014/2015
p497
aVEverton
p498
aVEPL
p499
aV23
p500
aV2044
p501
aV1
aV-
aV1
aV-
aV0.3
p502
aV89.5
p503
aV2.6
p504
aV1
aV7.17
p505
aa(lp506
V2013/2014
p507
aVEverton
p508
aVEPL
p509
aV15(6)
p510
aV1368
p511
aV-
aV-
aV1
aV-
aV-
aV89.8
p512
aV1.5
p513
aV1
aV6.84
p514
aa(lp515
VTotal / Average
p516
aV
aV
aV165
p517
aV13082
p518
aV7
aV0
aV9
aV1
aV0.4
p519
aV91.6
p520
aV1.9
p521
aV4
aV6.92
p522
aasS'id'
p523
V101374
p524
sb.