(i__main__
Player
p1
(dp2
S'name'
p3
VBernard 
p4
sS'offensive_data'
p5
(lp6
(lp7
a(lp8
V2018/2019
p9
aVEverton
p10
aVEPL
p11
aV9(5)
p12
aV732
p13
aV-
aV1
aV2
aV-
aV0.3
p14
aV77.5
p15
aV-
aV-
aV6.51
p16
aa(lp17
V2017/2018
p18
aVShakhtar Done..
p19
aVUCL
p20
aV8
aV681
p21
aV3
aV-
aV-
aV-
aV0.8
p22
aV82.3
p23
aV-
aV-
aV7.09
p24
aa(lp25
V2016/2017
p26
aVShakhtar Done..
p27
aVUEL
p28
aV5(3)
p29
aV486
p30
aV2
aV1
aV-
aV-
aV1.4
p31
aV87
p32
aV-
aV-
aV6.91
p33
aa(lp34
V2015/2016
p35
aVShakhtar Done..
p36
aVUEL
p37
aV0(5)
p38
aV66
p39
aV-
aV1
aV-
aV-
aV0.2
p40
aV64.1
p41
aV-
aV-
aV6.23
p42
aa(lp43
V2015/2016
p44
aVShakhtar Done..
p45
aVUCL
p46
aV3(3)
p47
aV304
p48
aV-
aV1
aV-
aV-
aV1.2
p49
aV90.7
p50
aV0.2
p51
aV-
aV6.77
p52
aa(lp53
V2014/2015
p54
aVShakhtar Done..
p55
aVUCL
p56
aV1(4)
p57
aV159
p58
aV-
aV2
aV-
aV-
aV0.6
p59
aV86.4
p60
aV-
aV-
aV6.89
p61
aa(lp62
V2013/2014
p63
aVShakhtar Done..
p64
aVUCL
p65
aV2(4)
p66
aV218
p67
aV-
aV-
aV-
aV-
aV0.5
p68
aV80.8
p69
aV0.2
p70
aV-
aV6.55
p71
aa(lp72
V2013/2014
p73
aVShakhtar Done..
p74
aVUEL
p75
aV1(1)
p76
aV90
p77
aV-
aV-
aV-
aV-
aV1
aV82.9
p78
aV-
aV-
aV6.35
p79
aa(lp80
V2014
p81
aVBrazil
p82
aVWC
p83
aV1(2)
p84
aV157
p85
aV-
aV-
aV-
aV-
aV0.3
p86
aV87.9
p87
aV0.3
p88
aV-
aV6.19
p89
aa(lp90
V2013
p91
aVAtletico MG
p92
aVBSA
p93
aV3
aV247
p94
aV1
aV1
aV-
aV1
aV2
aV84
p95
aV-
aV-
aV7.16
p96
aa(lp97
V2013
p98
aVBrazil
p99
aVICC
p100
aV0(2)
p101
aV47
p102
aV-
aV-
aV-
aV-
aV-
aV91.7
p103
aV-
aV-
aV6.28
p104
aa(lp105
VTotal / Average
p106
aV
aV
aV62
p107
aV3187
p108
aV6
aV7
aV2
aV1
aV0.7
p109
aV82
p110
aV0
aV0
aV6.68
p111
aasS'url'
p112
S'https://www.whoscored.com/Players/101642/History/'
p113
sS'passing_data'
p114
(lp115
(lp116
a(lp117
V2018/2019
p118
aVEverton
p119
aVEPL
p120
aV9(5)
p121
aV732
p122
aV-
aV1
aV2
aV-
aV0.3
p123
aV77.5
p124
aV-
aV-
aV6.51
p125
aa(lp126
V2017/2018
p127
aVShakhtar Done..
p128
aVUCL
p129
aV8
aV681
p130
aV3
aV-
aV-
aV-
aV0.8
p131
aV82.3
p132
aV-
aV-
aV7.09
p133
aa(lp134
V2016/2017
p135
aVShakhtar Done..
p136
aVUEL
p137
aV5(3)
p138
aV486
p139
aV2
aV1
aV-
aV-
aV1.4
p140
aV87
p141
aV-
aV-
aV6.91
p142
aa(lp143
V2015/2016
p144
aVShakhtar Done..
p145
aVUEL
p146
aV0(5)
p147
aV66
p148
aV-
aV1
aV-
aV-
aV0.2
p149
aV64.1
p150
aV-
aV-
aV6.23
p151
aa(lp152
V2015/2016
p153
aVShakhtar Done..
p154
aVUCL
p155
aV3(3)
p156
aV304
p157
aV-
aV1
aV-
aV-
aV1.2
p158
aV90.7
p159
aV0.2
p160
aV-
aV6.77
p161
aa(lp162
V2014/2015
p163
aVShakhtar Done..
p164
aVUCL
p165
aV1(4)
p166
aV159
p167
aV-
aV2
aV-
aV-
aV0.6
p168
aV86.4
p169
aV-
aV-
aV6.89
p170
aa(lp171
V2013/2014
p172
aVShakhtar Done..
p173
aVUCL
p174
aV2(4)
p175
aV218
p176
aV-
aV-
aV-
aV-
aV0.5
p177
aV80.8
p178
aV0.2
p179
aV-
aV6.55
p180
aa(lp181
V2013/2014
p182
aVShakhtar Done..
p183
aVUEL
p184
aV1(1)
p185
aV90
p186
aV-
aV-
aV-
aV-
aV1
aV82.9
p187
aV-
aV-
aV6.35
p188
aa(lp189
V2014
p190
aVBrazil
p191
aVWC
p192
aV1(2)
p193
aV157
p194
aV-
aV-
aV-
aV-
aV0.3
p195
aV87.9
p196
aV0.3
p197
aV-
aV6.19
p198
aa(lp199
V2013
p200
aVAtletico MG
p201
aVBSA
p202
aV3
aV247
p203
aV1
aV1
aV-
aV1
aV2
aV84
p204
aV-
aV-
aV7.16
p205
aa(lp206
V2013
p207
aVBrazil
p208
aVICC
p209
aV0(2)
p210
aV47
p211
aV-
aV-
aV-
aV-
aV-
aV91.7
p212
aV-
aV-
aV6.28
p213
aa(lp214
VTotal / Average
p215
aV
aV
aV62
p216
aV3187
p217
aV6
aV7
aV2
aV1
aV0.7
p218
aV82
p219
aV0
aV0
aV6.68
p220
aasS'defensive_data'
p221
(lp222
(lp223
a(lp224
V2018/2019
p225
aVEverton
p226
aVEPL
p227
aV9(5)
p228
aV732
p229
aV-
aV1
aV2
aV-
aV0.3
p230
aV77.5
p231
aV-
aV-
aV6.51
p232
aa(lp233
V2017/2018
p234
aVShakhtar Done..
p235
aVUCL
p236
aV8
aV681
p237
aV3
aV-
aV-
aV-
aV0.8
p238
aV82.3
p239
aV-
aV-
aV7.09
p240
aa(lp241
V2016/2017
p242
aVShakhtar Done..
p243
aVUEL
p244
aV5(3)
p245
aV486
p246
aV2
aV1
aV-
aV-
aV1.4
p247
aV87
p248
aV-
aV-
aV6.91
p249
aa(lp250
V2015/2016
p251
aVShakhtar Done..
p252
aVUEL
p253
aV0(5)
p254
aV66
p255
aV-
aV1
aV-
aV-
aV0.2
p256
aV64.1
p257
aV-
aV-
aV6.23
p258
aa(lp259
V2015/2016
p260
aVShakhtar Done..
p261
aVUCL
p262
aV3(3)
p263
aV304
p264
aV-
aV1
aV-
aV-
aV1.2
p265
aV90.7
p266
aV0.2
p267
aV-
aV6.77
p268
aa(lp269
V2014/2015
p270
aVShakhtar Done..
p271
aVUCL
p272
aV1(4)
p273
aV159
p274
aV-
aV2
aV-
aV-
aV0.6
p275
aV86.4
p276
aV-
aV-
aV6.89
p277
aa(lp278
V2013/2014
p279
aVShakhtar Done..
p280
aVUCL
p281
aV2(4)
p282
aV218
p283
aV-
aV-
aV-
aV-
aV0.5
p284
aV80.8
p285
aV0.2
p286
aV-
aV6.55
p287
aa(lp288
V2013/2014
p289
aVShakhtar Done..
p290
aVUEL
p291
aV1(1)
p292
aV90
p293
aV-
aV-
aV-
aV-
aV1
aV82.9
p294
aV-
aV-
aV6.35
p295
aa(lp296
V2014
p297
aVBrazil
p298
aVWC
p299
aV1(2)
p300
aV157
p301
aV-
aV-
aV-
aV-
aV0.3
p302
aV87.9
p303
aV0.3
p304
aV-
aV6.19
p305
aa(lp306
V2013
p307
aVAtletico MG
p308
aVBSA
p309
aV3
aV247
p310
aV1
aV1
aV-
aV1
aV2
aV84
p311
aV-
aV-
aV7.16
p312
aa(lp313
V2013
p314
aVBrazil
p315
aVICC
p316
aV0(2)
p317
aV47
p318
aV-
aV-
aV-
aV-
aV-
aV91.7
p319
aV-
aV-
aV6.28
p320
aa(lp321
VTotal / Average
p322
aV
aV
aV62
p323
aV3187
p324
aV6
aV7
aV2
aV1
aV0.7
p325
aV82
p326
aV0
aV0
aV6.68
p327
aasS'sumary_data'
p328
(lp329
(lp330
a(lp331
V2018/2019
p332
aVEverton
p333
aVEPL
p334
aV9(5)
p335
aV732
p336
aV-
aV1
aV2
aV-
aV0.3
p337
aV77.5
p338
aV-
aV-
aV6.51
p339
aa(lp340
V2017/2018
p341
aVShakhtar Done..
p342
aVUCL
p343
aV8
aV681
p344
aV3
aV-
aV-
aV-
aV0.8
p345
aV82.3
p346
aV-
aV-
aV7.09
p347
aa(lp348
V2016/2017
p349
aVShakhtar Done..
p350
aVUEL
p351
aV5(3)
p352
aV486
p353
aV2
aV1
aV-
aV-
aV1.4
p354
aV87
p355
aV-
aV-
aV6.91
p356
aa(lp357
V2015/2016
p358
aVShakhtar Done..
p359
aVUEL
p360
aV0(5)
p361
aV66
p362
aV-
aV1
aV-
aV-
aV0.2
p363
aV64.1
p364
aV-
aV-
aV6.23
p365
aa(lp366
V2015/2016
p367
aVShakhtar Done..
p368
aVUCL
p369
aV3(3)
p370
aV304
p371
aV-
aV1
aV-
aV-
aV1.2
p372
aV90.7
p373
aV0.2
p374
aV-
aV6.77
p375
aa(lp376
V2014/2015
p377
aVShakhtar Done..
p378
aVUCL
p379
aV1(4)
p380
aV159
p381
aV-
aV2
aV-
aV-
aV0.6
p382
aV86.4
p383
aV-
aV-
aV6.89
p384
aa(lp385
V2013/2014
p386
aVShakhtar Done..
p387
aVUCL
p388
aV2(4)
p389
aV218
p390
aV-
aV-
aV-
aV-
aV0.5
p391
aV80.8
p392
aV0.2
p393
aV-
aV6.55
p394
aa(lp395
V2013/2014
p396
aVShakhtar Done..
p397
aVUEL
p398
aV1(1)
p399
aV90
p400
aV-
aV-
aV-
aV-
aV1
aV82.9
p401
aV-
aV-
aV6.35
p402
aa(lp403
V2014
p404
aVBrazil
p405
aVWC
p406
aV1(2)
p407
aV157
p408
aV-
aV-
aV-
aV-
aV0.3
p409
aV87.9
p410
aV0.3
p411
aV-
aV6.19
p412
aa(lp413
V2013
p414
aVAtletico MG
p415
aVBSA
p416
aV3
aV247
p417
aV1
aV1
aV-
aV1
aV2
aV84
p418
aV-
aV-
aV7.16
p419
aa(lp420
V2013
p421
aVBrazil
p422
aVICC
p423
aV0(2)
p424
aV47
p425
aV-
aV-
aV-
aV-
aV-
aV91.7
p426
aV-
aV-
aV6.28
p427
aa(lp428
VTotal / Average
p429
aV
aV
aV62
p430
aV3187
p431
aV6
aV7
aV2
aV1
aV0.7
p432
aV82
p433
aV0
aV0
aV6.68
p434
aasS'id'
p435
V101642
p436
sb.