(i__main__
Player
p1
(dp2
S'name'
p3
VBen Davies 
p4
sS'offensive_data'
p5
(lp6
(lp7
a(lp8
V2018/2019
p9
aVTottenham
p10
aVEPL
p11
aV11(2)
p12
aV991
p13
aV-
aV-
aV1
aV-
aV0.6
p14
aV81.1
p15
aV2.1
p16
aV1
aV6.87
p17
aa(lp18
V2018/2019
p19
aVTottenham
p20
aVUCL
p21
aV5
aV450
p22
aV-
aV1
aV-
aV-
aV1
aV81.6
p23
aV2.2
p24
aV-
aV6.78
p25
aa(lp26
V2018/2019
p27
aVWales
p28
aVUNL
p29
aV3
aV261
p30
aV-
aV1
aV2
aV-
aV-
aV77.2
p31
aV2.7
p32
aV-
aV6.78
p33
aa(lp34
V2017/2018
p35
aVTottenham
p36
aVUCL
p37
aV5
aV450
p38
aV-
aV-
aV1
aV-
aV0.2
p39
aV76.7
p40
aV1.4
p41
aV-
aV6.77
p42
aa(lp43
V2017/2018
p44
aVTottenham
p45
aVEPL
p46
aV26(3)
p47
aV2325
p48
aV2
aV6
aV3
aV-
aV0.6
p49
aV80.1
p50
aV1.6
p51
aV1
aV7.08
p52
aa(lp53
V2016/2017
p54
aVTottenham
p55
aVUCL
p56
aV3
aV270
p57
aV-
aV-
aV-
aV-
aV1
aV80
p58
aV4.3
p59
aV-
aV6.95
p60
aa(lp61
V2016/2017
p62
aVTottenham
p63
aVEPL
p64
aV18(5)
p65
aV1735
p66
aV1
aV3
aV1
aV-
aV0.6
p67
aV79.3
p68
aV2.1
p69
aV-
aV7.12
p70
aa(lp71
V2016/2017
p72
aVTottenham
p73
aVUEL
p74
aV2
aV148
p75
aV-
aV-
aV-
aV-
aV0.5
p76
aV83.8
p77
aV1.5
p78
aV-
aV6.87
p79
aa(lp80
V2015/2016
p81
aVTottenham
p82
aVUEL
p83
aV8
aV643
p84
aV-
aV1
aV2
aV-
aV0.3
p85
aV78.8
p86
aV0.4
p87
aV-
aV7.02
p88
aa(lp89
V2015/2016
p90
aVTottenham
p91
aVEPL
p92
aV14(3)
p93
aV1288
p94
aV-
aV2
aV3
aV-
aV0.5
p95
aV76.2
p96
aV1.5
p97
aV-
aV6.88
p98
aa(lp99
V2014/2015
p100
aVTottenham
p101
aVUEL
p102
aV7
aV630
p103
aV-
aV-
aV3
aV-
aV0.1
p104
aV81.1
p105
aV1.4
p106
aV-
aV7.02
p107
aa(lp108
V2014/2015
p109
aVTottenham
p110
aVEPL
p111
aV9(5)
p112
aV891
p113
aV-
aV1
aV3
aV-
aV0.1
p114
aV80
p115
aV1.4
p116
aV-
aV6.69
p117
aa(lp118
V2016
p119
aVWales
p120
aVUEC
p121
aV5
aV450
p122
aV-
aV-
aV2
aV-
aV-
aV79.5
p123
aV2
aV-
aV7.43
p124
aa(lp125
V2013/2014
p126
aVSwansea
p127
aVUEL
p128
aV4(1)
p129
aV394
p130
aV-
aV-
aV1
aV-
aV-
aV87.5
p131
aV1.6
p132
aV-
aV7.43
p133
aa(lp134
V2013/2014
p135
aVSwansea
p136
aVEPL
p137
aV32(2)
p138
aV2874
p139
aV2
aV1
aV3
aV-
aV0.3
p140
aV84.3
p141
aV1.6
p142
aV-
aV6.91
p143
aa(lp144
V2012/2013
p145
aVSwansea
p146
aVEPL
p147
aV33(4)
p148
aV3049
p149
aV1
aV2
aV5
aV-
aV0.2
p150
aV83.1
p151
aV1.5
p152
aV1
aV6.95
p153
aa(lp154
VTotal / Average
p155
aV
aV
aV210
p156
aV16849
p157
aV6
aV18
p158
aV30
p159
aV0
aV0.4
p160
aV81
p161
aV1.7
p162
aV3
aV6.97
p163
aasS'url'
p164
S'https://www.whoscored.com/Players/103837/History/'
p165
sS'passing_data'
p166
(lp167
(lp168
a(lp169
V2018/2019
p170
aVTottenham
p171
aVEPL
p172
aV11(2)
p173
aV991
p174
aV-
aV-
aV1
aV-
aV0.6
p175
aV81.1
p176
aV2.1
p177
aV1
aV6.87
p178
aa(lp179
V2018/2019
p180
aVTottenham
p181
aVUCL
p182
aV5
aV450
p183
aV-
aV1
aV-
aV-
aV1
aV81.6
p184
aV2.2
p185
aV-
aV6.78
p186
aa(lp187
V2018/2019
p188
aVWales
p189
aVUNL
p190
aV3
aV261
p191
aV-
aV1
aV2
aV-
aV-
aV77.2
p192
aV2.7
p193
aV-
aV6.78
p194
aa(lp195
V2017/2018
p196
aVTottenham
p197
aVUCL
p198
aV5
aV450
p199
aV-
aV-
aV1
aV-
aV0.2
p200
aV76.7
p201
aV1.4
p202
aV-
aV6.77
p203
aa(lp204
V2017/2018
p205
aVTottenham
p206
aVEPL
p207
aV26(3)
p208
aV2325
p209
aV2
aV6
aV3
aV-
aV0.6
p210
aV80.1
p211
aV1.6
p212
aV1
aV7.08
p213
aa(lp214
V2016/2017
p215
aVTottenham
p216
aVUCL
p217
aV3
aV270
p218
aV-
aV-
aV-
aV-
aV1
aV80
p219
aV4.3
p220
aV-
aV6.95
p221
aa(lp222
V2016/2017
p223
aVTottenham
p224
aVEPL
p225
aV18(5)
p226
aV1735
p227
aV1
aV3
aV1
aV-
aV0.6
p228
aV79.3
p229
aV2.1
p230
aV-
aV7.12
p231
aa(lp232
V2016/2017
p233
aVTottenham
p234
aVUEL
p235
aV2
aV148
p236
aV-
aV-
aV-
aV-
aV0.5
p237
aV83.8
p238
aV1.5
p239
aV-
aV6.87
p240
aa(lp241
V2015/2016
p242
aVTottenham
p243
aVUEL
p244
aV8
aV643
p245
aV-
aV1
aV2
aV-
aV0.3
p246
aV78.8
p247
aV0.4
p248
aV-
aV7.02
p249
aa(lp250
V2015/2016
p251
aVTottenham
p252
aVEPL
p253
aV14(3)
p254
aV1288
p255
aV-
aV2
aV3
aV-
aV0.5
p256
aV76.2
p257
aV1.5
p258
aV-
aV6.88
p259
aa(lp260
V2014/2015
p261
aVTottenham
p262
aVUEL
p263
aV7
aV630
p264
aV-
aV-
aV3
aV-
aV0.1
p265
aV81.1
p266
aV1.4
p267
aV-
aV7.02
p268
aa(lp269
V2014/2015
p270
aVTottenham
p271
aVEPL
p272
aV9(5)
p273
aV891
p274
aV-
aV1
aV3
aV-
aV0.1
p275
aV80
p276
aV1.4
p277
aV-
aV6.69
p278
aa(lp279
V2016
p280
aVWales
p281
aVUEC
p282
aV5
aV450
p283
aV-
aV-
aV2
aV-
aV-
aV79.5
p284
aV2
aV-
aV7.43
p285
aa(lp286
V2013/2014
p287
aVSwansea
p288
aVUEL
p289
aV4(1)
p290
aV394
p291
aV-
aV-
aV1
aV-
aV-
aV87.5
p292
aV1.6
p293
aV-
aV7.43
p294
aa(lp295
V2013/2014
p296
aVSwansea
p297
aVEPL
p298
aV32(2)
p299
aV2874
p300
aV2
aV1
aV3
aV-
aV0.3
p301
aV84.3
p302
aV1.6
p303
aV-
aV6.91
p304
aa(lp305
V2012/2013
p306
aVSwansea
p307
aVEPL
p308
aV33(4)
p309
aV3049
p310
aV1
aV2
aV5
aV-
aV0.2
p311
aV83.1
p312
aV1.5
p313
aV1
aV6.95
p314
aa(lp315
VTotal / Average
p316
aV
aV
aV210
p317
aV16849
p318
aV6
aV18
p319
aV30
p320
aV0
aV0.4
p321
aV81
p322
aV1.7
p323
aV3
aV6.97
p324
aasS'defensive_data'
p325
(lp326
(lp327
a(lp328
V2018/2019
p329
aVTottenham
p330
aVEPL
p331
aV11(2)
p332
aV991
p333
aV-
aV-
aV1
aV-
aV0.6
p334
aV81.1
p335
aV2.1
p336
aV1
aV6.87
p337
aa(lp338
V2018/2019
p339
aVTottenham
p340
aVUCL
p341
aV5
aV450
p342
aV-
aV1
aV-
aV-
aV1
aV81.6
p343
aV2.2
p344
aV-
aV6.78
p345
aa(lp346
V2018/2019
p347
aVWales
p348
aVUNL
p349
aV3
aV261
p350
aV-
aV1
aV2
aV-
aV-
aV77.2
p351
aV2.7
p352
aV-
aV6.78
p353
aa(lp354
V2017/2018
p355
aVTottenham
p356
aVUCL
p357
aV5
aV450
p358
aV-
aV-
aV1
aV-
aV0.2
p359
aV76.7
p360
aV1.4
p361
aV-
aV6.77
p362
aa(lp363
V2017/2018
p364
aVTottenham
p365
aVEPL
p366
aV26(3)
p367
aV2325
p368
aV2
aV6
aV3
aV-
aV0.6
p369
aV80.1
p370
aV1.6
p371
aV1
aV7.08
p372
aa(lp373
V2016/2017
p374
aVTottenham
p375
aVUCL
p376
aV3
aV270
p377
aV-
aV-
aV-
aV-
aV1
aV80
p378
aV4.3
p379
aV-
aV6.95
p380
aa(lp381
V2016/2017
p382
aVTottenham
p383
aVEPL
p384
aV18(5)
p385
aV1735
p386
aV1
aV3
aV1
aV-
aV0.6
p387
aV79.3
p388
aV2.1
p389
aV-
aV7.12
p390
aa(lp391
V2016/2017
p392
aVTottenham
p393
aVUEL
p394
aV2
aV148
p395
aV-
aV-
aV-
aV-
aV0.5
p396
aV83.8
p397
aV1.5
p398
aV-
aV6.87
p399
aa(lp400
V2015/2016
p401
aVTottenham
p402
aVUEL
p403
aV8
aV643
p404
aV-
aV1
aV2
aV-
aV0.3
p405
aV78.8
p406
aV0.4
p407
aV-
aV7.02
p408
aa(lp409
V2015/2016
p410
aVTottenham
p411
aVEPL
p412
aV14(3)
p413
aV1288
p414
aV-
aV2
aV3
aV-
aV0.5
p415
aV76.2
p416
aV1.5
p417
aV-
aV6.88
p418
aa(lp419
V2014/2015
p420
aVTottenham
p421
aVUEL
p422
aV7
aV630
p423
aV-
aV-
aV3
aV-
aV0.1
p424
aV81.1
p425
aV1.4
p426
aV-
aV7.02
p427
aa(lp428
V2014/2015
p429
aVTottenham
p430
aVEPL
p431
aV9(5)
p432
aV891
p433
aV-
aV1
aV3
aV-
aV0.1
p434
aV80
p435
aV1.4
p436
aV-
aV6.69
p437
aa(lp438
V2016
p439
aVWales
p440
aVUEC
p441
aV5
aV450
p442
aV-
aV-
aV2
aV-
aV-
aV79.5
p443
aV2
aV-
aV7.43
p444
aa(lp445
V2013/2014
p446
aVSwansea
p447
aVUEL
p448
aV4(1)
p449
aV394
p450
aV-
aV-
aV1
aV-
aV-
aV87.5
p451
aV1.6
p452
aV-
aV7.43
p453
aa(lp454
V2013/2014
p455
aVSwansea
p456
aVEPL
p457
aV32(2)
p458
aV2874
p459
aV2
aV1
aV3
aV-
aV0.3
p460
aV84.3
p461
aV1.6
p462
aV-
aV6.91
p463
aa(lp464
V2012/2013
p465
aVSwansea
p466
aVEPL
p467
aV33(4)
p468
aV3049
p469
aV1
aV2
aV5
aV-
aV0.2
p470
aV83.1
p471
aV1.5
p472
aV1
aV6.95
p473
aa(lp474
VTotal / Average
p475
aV
aV
aV210
p476
aV16849
p477
aV6
aV18
p478
aV30
p479
aV0
aV0.4
p480
aV81
p481
aV1.7
p482
aV3
aV6.97
p483
aasS'sumary_data'
p484
(lp485
(lp486
a(lp487
V2018/2019
p488
aVTottenham
p489
aVEPL
p490
aV11(2)
p491
aV991
p492
aV-
aV-
aV1
aV-
aV0.6
p493
aV81.1
p494
aV2.1
p495
aV1
aV6.87
p496
aa(lp497
V2018/2019
p498
aVTottenham
p499
aVUCL
p500
aV5
aV450
p501
aV-
aV1
aV-
aV-
aV1
aV81.6
p502
aV2.2
p503
aV-
aV6.78
p504
aa(lp505
V2018/2019
p506
aVWales
p507
aVUNL
p508
aV3
aV261
p509
aV-
aV1
aV2
aV-
aV-
aV77.2
p510
aV2.7
p511
aV-
aV6.78
p512
aa(lp513
V2017/2018
p514
aVTottenham
p515
aVUCL
p516
aV5
aV450
p517
aV-
aV-
aV1
aV-
aV0.2
p518
aV76.7
p519
aV1.4
p520
aV-
aV6.77
p521
aa(lp522
V2017/2018
p523
aVTottenham
p524
aVEPL
p525
aV26(3)
p526
aV2325
p527
aV2
aV6
aV3
aV-
aV0.6
p528
aV80.1
p529
aV1.6
p530
aV1
aV7.08
p531
aa(lp532
V2016/2017
p533
aVTottenham
p534
aVUCL
p535
aV3
aV270
p536
aV-
aV-
aV-
aV-
aV1
aV80
p537
aV4.3
p538
aV-
aV6.95
p539
aa(lp540
V2016/2017
p541
aVTottenham
p542
aVEPL
p543
aV18(5)
p544
aV1735
p545
aV1
aV3
aV1
aV-
aV0.6
p546
aV79.3
p547
aV2.1
p548
aV-
aV7.12
p549
aa(lp550
V2016/2017
p551
aVTottenham
p552
aVUEL
p553
aV2
aV148
p554
aV-
aV-
aV-
aV-
aV0.5
p555
aV83.8
p556
aV1.5
p557
aV-
aV6.87
p558
aa(lp559
V2015/2016
p560
aVTottenham
p561
aVUEL
p562
aV8
aV643
p563
aV-
aV1
aV2
aV-
aV0.3
p564
aV78.8
p565
aV0.4
p566
aV-
aV7.02
p567
aa(lp568
V2015/2016
p569
aVTottenham
p570
aVEPL
p571
aV14(3)
p572
aV1288
p573
aV-
aV2
aV3
aV-
aV0.5
p574
aV76.2
p575
aV1.5
p576
aV-
aV6.88
p577
aa(lp578
V2014/2015
p579
aVTottenham
p580
aVUEL
p581
aV7
aV630
p582
aV-
aV-
aV3
aV-
aV0.1
p583
aV81.1
p584
aV1.4
p585
aV-
aV7.02
p586
aa(lp587
V2014/2015
p588
aVTottenham
p589
aVEPL
p590
aV9(5)
p591
aV891
p592
aV-
aV1
aV3
aV-
aV0.1
p593
aV80
p594
aV1.4
p595
aV-
aV6.69
p596
aa(lp597
V2016
p598
aVWales
p599
aVUEC
p600
aV5
aV450
p601
aV-
aV-
aV2
aV-
aV-
aV79.5
p602
aV2
aV-
aV7.43
p603
aa(lp604
V2013/2014
p605
aVSwansea
p606
aVUEL
p607
aV4(1)
p608
aV394
p609
aV-
aV-
aV1
aV-
aV-
aV87.5
p610
aV1.6
p611
aV-
aV7.43
p612
aa(lp613
V2013/2014
p614
aVSwansea
p615
aVEPL
p616
aV32(2)
p617
aV2874
p618
aV2
aV1
aV3
aV-
aV0.3
p619
aV84.3
p620
aV1.6
p621
aV-
aV6.91
p622
aa(lp623
V2012/2013
p624
aVSwansea
p625
aVEPL
p626
aV33(4)
p627
aV3049
p628
aV1
aV2
aV5
aV-
aV0.2
p629
aV83.1
p630
aV1.5
p631
aV1
aV6.95
p632
aa(lp633
VTotal / Average
p634
aV
aV
aV210
p635
aV16849
p636
aV6
aV18
p637
aV30
p638
aV0
aV0.4
p639
aV81
p640
aV1.7
p641
aV3
aV6.97
p642
aasS'id'
p643
V103837
p644
sb.