(i__main__
Player
p1
(dp2
S'name'
p3
VPaulo Gazzaniga 
p4
sS'offensive_data'
p5
(lp6
(lp7
a(lp8
V2018/2019
p9
aVTottenham
p10
aVEPL
p11
aV2
aV180
p12
aV-
aV-
aV-
aV-
aV-
aV71.9
p13
aV-
aV-
aV7.57
p14
aa(lp15
V2018/2019
p16
aVTottenham
p17
aVUCL
p18
aV1
aV90
p19
aV-
aV-
aV-
aV-
aV-
aV81.8
p20
aV-
aV-
aV7.34
p21
aa(lp22
V2017/2018
p23
aVTottenham
p24
aVEPL
p25
aV1
aV90
p26
aV-
aV-
aV-
aV-
aV-
aV77.3
p27
aV1
aV-
aV7.52
p28
aa(lp29
V2015/2016
p30
aVSouthampton
p31
aVEPL
p32
aV2
aV180
p33
aV-
aV-
aV-
aV-
aV-
aV57.4
p34
aV-
aV-
aV6.59
p35
aa(lp36
V2014/2015
p37
aVSouthampton
p38
aVEPL
p39
aV2
aV180
p40
aV-
aV-
aV-
aV-
aV-
aV55.3
p41
aV0.5
p42
aV-
aV6.21
p43
aa(lp44
V2013/2014
p45
aVSouthampton
p46
aVEPL
p47
aV7(1)
p48
aV662
p49
aV-
aV-
aV-
aV-
aV-
aV62.9
p50
aV0.3
p51
aV-
aV6.19
p52
aa(lp53
V2012/2013
p54
aVSouthampton
p55
aVEPL
p56
aV9
aV810
p57
aV-
aV-
aV-
aV-
aV-
aV53.3
p58
aV0.3
p59
aV-
aV6.58
p60
aa(lp61
VTotal / Average
p62
aV
aV
aV25
p63
aV2192
p64
aV0
aV0
aV0
aV0
aV0
aV60.4
p65
aV0.3
p66
aV0
aV6.57
p67
aasS'url'
p68
S'https://www.whoscored.com/Players/104732/History/'
p69
sS'passing_data'
p70
(lp71
(lp72
a(lp73
V2018/2019
p74
aVTottenham
p75
aVEPL
p76
aV2
aV180
p77
aV-
aV-
aV-
aV-
aV-
aV71.9
p78
aV-
aV-
aV7.57
p79
aa(lp80
V2018/2019
p81
aVTottenham
p82
aVUCL
p83
aV1
aV90
p84
aV-
aV-
aV-
aV-
aV-
aV81.8
p85
aV-
aV-
aV7.34
p86
aa(lp87
V2017/2018
p88
aVTottenham
p89
aVEPL
p90
aV1
aV90
p91
aV-
aV-
aV-
aV-
aV-
aV77.3
p92
aV1
aV-
aV7.52
p93
aa(lp94
V2015/2016
p95
aVSouthampton
p96
aVEPL
p97
aV2
aV180
p98
aV-
aV-
aV-
aV-
aV-
aV57.4
p99
aV-
aV-
aV6.59
p100
aa(lp101
V2014/2015
p102
aVSouthampton
p103
aVEPL
p104
aV2
aV180
p105
aV-
aV-
aV-
aV-
aV-
aV55.3
p106
aV0.5
p107
aV-
aV6.21
p108
aa(lp109
V2013/2014
p110
aVSouthampton
p111
aVEPL
p112
aV7(1)
p113
aV662
p114
aV-
aV-
aV-
aV-
aV-
aV62.9
p115
aV0.3
p116
aV-
aV6.19
p117
aa(lp118
V2012/2013
p119
aVSouthampton
p120
aVEPL
p121
aV9
aV810
p122
aV-
aV-
aV-
aV-
aV-
aV53.3
p123
aV0.3
p124
aV-
aV6.58
p125
aa(lp126
VTotal / Average
p127
aV
aV
aV25
p128
aV2192
p129
aV0
aV0
aV0
aV0
aV0
aV60.4
p130
aV0.3
p131
aV0
aV6.57
p132
aasS'defensive_data'
p133
(lp134
(lp135
a(lp136
V2018/2019
p137
aVTottenham
p138
aVEPL
p139
aV2
aV180
p140
aV-
aV-
aV-
aV-
aV-
aV71.9
p141
aV-
aV-
aV7.57
p142
aa(lp143
V2018/2019
p144
aVTottenham
p145
aVUCL
p146
aV1
aV90
p147
aV-
aV-
aV-
aV-
aV-
aV81.8
p148
aV-
aV-
aV7.34
p149
aa(lp150
V2017/2018
p151
aVTottenham
p152
aVEPL
p153
aV1
aV90
p154
aV-
aV-
aV-
aV-
aV-
aV77.3
p155
aV1
aV-
aV7.52
p156
aa(lp157
V2015/2016
p158
aVSouthampton
p159
aVEPL
p160
aV2
aV180
p161
aV-
aV-
aV-
aV-
aV-
aV57.4
p162
aV-
aV-
aV6.59
p163
aa(lp164
V2014/2015
p165
aVSouthampton
p166
aVEPL
p167
aV2
aV180
p168
aV-
aV-
aV-
aV-
aV-
aV55.3
p169
aV0.5
p170
aV-
aV6.21
p171
aa(lp172
V2013/2014
p173
aVSouthampton
p174
aVEPL
p175
aV7(1)
p176
aV662
p177
aV-
aV-
aV-
aV-
aV-
aV62.9
p178
aV0.3
p179
aV-
aV6.19
p180
aa(lp181
V2012/2013
p182
aVSouthampton
p183
aVEPL
p184
aV9
aV810
p185
aV-
aV-
aV-
aV-
aV-
aV53.3
p186
aV0.3
p187
aV-
aV6.58
p188
aa(lp189
VTotal / Average
p190
aV
aV
aV25
p191
aV2192
p192
aV0
aV0
aV0
aV0
aV0
aV60.4
p193
aV0.3
p194
aV0
aV6.57
p195
aasS'sumary_data'
p196
(lp197
(lp198
a(lp199
V2018/2019
p200
aVTottenham
p201
aVEPL
p202
aV2
aV180
p203
aV-
aV-
aV-
aV-
aV-
aV71.9
p204
aV-
aV-
aV7.57
p205
aa(lp206
V2018/2019
p207
aVTottenham
p208
aVUCL
p209
aV1
aV90
p210
aV-
aV-
aV-
aV-
aV-
aV81.8
p211
aV-
aV-
aV7.34
p212
aa(lp213
V2017/2018
p214
aVTottenham
p215
aVEPL
p216
aV1
aV90
p217
aV-
aV-
aV-
aV-
aV-
aV77.3
p218
aV1
aV-
aV7.52
p219
aa(lp220
V2015/2016
p221
aVSouthampton
p222
aVEPL
p223
aV2
aV180
p224
aV-
aV-
aV-
aV-
aV-
aV57.4
p225
aV-
aV-
aV6.59
p226
aa(lp227
V2014/2015
p228
aVSouthampton
p229
aVEPL
p230
aV2
aV180
p231
aV-
aV-
aV-
aV-
aV-
aV55.3
p232
aV0.5
p233
aV-
aV6.21
p234
aa(lp235
V2013/2014
p236
aVSouthampton
p237
aVEPL
p238
aV7(1)
p239
aV662
p240
aV-
aV-
aV-
aV-
aV-
aV62.9
p241
aV0.3
p242
aV-
aV6.19
p243
aa(lp244
V2012/2013
p245
aVSouthampton
p246
aVEPL
p247
aV9
aV810
p248
aV-
aV-
aV-
aV-
aV-
aV53.3
p249
aV0.3
p250
aV-
aV6.58
p251
aa(lp252
VTotal / Average
p253
aV
aV
aV25
p254
aV2192
p255
aV0
aV0
aV0
aV0
aV0
aV60.4
p256
aV0.3
p257
aV0
aV6.57
p258
aasS'id'
p259
V104732
p260
sb.