(i__main__
Player
p1
(dp2
S'name'
p3
VRiyad Mahrez 
p4
sS'offensive_data'
p5
(lp6
(lp7
a(lp8
V2018/2019
p9
aVManchester Ci..
p10
aVEPL
p11
aV9(7)
p12
aV831
p13
aV5
aV2
aV-
aV-
aV2
aV86.6
p14
aV0.4
p15
aV2
aV6.95
p16
aa(lp17
V2018/2019
p18
aVManchester Ci..
p19
aVUCL
p20
aV3(2)
p21
aV300
p22
aV1
aV4
aV-
aV-
aV2.2
p23
aV86.6
p24
aV0.6
p25
aV1
aV7.61
p26
aa(lp27
V2017/2018
p28
aVLeicester
p29
aVEPL
p30
aV34(2)
p31
aV2961
p32
aV12
p33
aV10
p34
aV2
aV-
aV2
aV79.6
p35
aV0.8
p36
aV5
aV7.28
p37
aa(lp38
V2016/2017
p39
aVLeicester
p40
aVUCL
p41
aV9
aV776
p42
aV4
aV2
aV1
aV-
aV1.7
p43
aV73.3
p44
aV0.7
p45
aV3
aV7.41
p46
aa(lp47
V2016/2017
p48
aVLeicester
p49
aVEPL
p50
aV33(3)
p51
aV2837
p52
aV6
aV3
aV4
aV-
aV2.1
p53
aV77.6
p54
aV0.6
p55
aV2
aV6.91
p56
aa(lp57
V2015/2016
p58
aVLeicester
p59
aVEPL
p60
aV36(1)
p61
aV3058
p62
aV17
p63
aV11
p64
aV1
aV-
aV2.3
p65
aV73.6
p66
aV0.9
p67
aV10
p68
aV7.84
p69
aa(lp70
V2015
p71
aVAlgeria
p72
aVACoN
p73
aV3(1)
p74
aV241
p75
aV1
aV1
aV-
aV-
aV1
aV67.9
p76
aV0.5
p77
aV-
aV6.57
p78
aa(lp79
V2014/2015
p80
aVLeicester
p81
aVEPL
p82
aV25(5)
p83
aV2084
p84
aV4
aV3
aV-
aV-
aV2.1
p85
aV73.3
p86
aV0.7
p87
aV2
aV7.16
p88
aa(lp89
V2013/2014
p90
aVLeicester
p91
aVEC
p92
aV12(7)
p93
aV1163
p94
aV3
aV4
aV-
aV-
aV2.7
p95
aV80.3
p96
aV0.7
p97
aV1
aV7.21
p98
aa(lp99
V2014
p100
aVAlgeria
p101
aVWC
p102
aV1
aV71
p103
aV-
aV-
aV-
aV-
aV1
aV72.2
p104
aV2
aV-
aV6.49
p105
aa(lp106
VTotal / Average
p107
aV
aV
aV193
p108
aV14322
p109
aV53
p110
aV40
p111
aV8
aV0
aV2.1
p112
aV77.3
p113
aV0.7
p114
aV26
p115
aV7.26
p116
aasS'url'
p117
S'https://www.whoscored.com/Players/104749/History/'
p118
sS'passing_data'
p119
(lp120
(lp121
a(lp122
V2018/2019
p123
aVManchester Ci..
p124
aVEPL
p125
aV9(7)
p126
aV831
p127
aV5
aV2
aV-
aV-
aV2
aV86.6
p128
aV0.4
p129
aV2
aV6.95
p130
aa(lp131
V2018/2019
p132
aVManchester Ci..
p133
aVUCL
p134
aV3(2)
p135
aV300
p136
aV1
aV4
aV-
aV-
aV2.2
p137
aV86.6
p138
aV0.6
p139
aV1
aV7.61
p140
aa(lp141
V2017/2018
p142
aVLeicester
p143
aVEPL
p144
aV34(2)
p145
aV2961
p146
aV12
p147
aV10
p148
aV2
aV-
aV2
aV79.6
p149
aV0.8
p150
aV5
aV7.28
p151
aa(lp152
V2016/2017
p153
aVLeicester
p154
aVUCL
p155
aV9
aV776
p156
aV4
aV2
aV1
aV-
aV1.7
p157
aV73.3
p158
aV0.7
p159
aV3
aV7.41
p160
aa(lp161
V2016/2017
p162
aVLeicester
p163
aVEPL
p164
aV33(3)
p165
aV2837
p166
aV6
aV3
aV4
aV-
aV2.1
p167
aV77.6
p168
aV0.6
p169
aV2
aV6.91
p170
aa(lp171
V2015/2016
p172
aVLeicester
p173
aVEPL
p174
aV36(1)
p175
aV3058
p176
aV17
p177
aV11
p178
aV1
aV-
aV2.3
p179
aV73.6
p180
aV0.9
p181
aV10
p182
aV7.84
p183
aa(lp184
V2015
p185
aVAlgeria
p186
aVACoN
p187
aV3(1)
p188
aV241
p189
aV1
aV1
aV-
aV-
aV1
aV67.9
p190
aV0.5
p191
aV-
aV6.57
p192
aa(lp193
V2014/2015
p194
aVLeicester
p195
aVEPL
p196
aV25(5)
p197
aV2084
p198
aV4
aV3
aV-
aV-
aV2.1
p199
aV73.3
p200
aV0.7
p201
aV2
aV7.16
p202
aa(lp203
V2013/2014
p204
aVLeicester
p205
aVEC
p206
aV12(7)
p207
aV1163
p208
aV3
aV4
aV-
aV-
aV2.7
p209
aV80.3
p210
aV0.7
p211
aV1
aV7.21
p212
aa(lp213
V2014
p214
aVAlgeria
p215
aVWC
p216
aV1
aV71
p217
aV-
aV-
aV-
aV-
aV1
aV72.2
p218
aV2
aV-
aV6.49
p219
aa(lp220
VTotal / Average
p221
aV
aV
aV193
p222
aV14322
p223
aV53
p224
aV40
p225
aV8
aV0
aV2.1
p226
aV77.3
p227
aV0.7
p228
aV26
p229
aV7.26
p230
aasS'defensive_data'
p231
(lp232
(lp233
a(lp234
V2018/2019
p235
aVManchester Ci..
p236
aVEPL
p237
aV9(7)
p238
aV831
p239
aV5
aV2
aV-
aV-
aV2
aV86.6
p240
aV0.4
p241
aV2
aV6.95
p242
aa(lp243
V2018/2019
p244
aVManchester Ci..
p245
aVUCL
p246
aV3(2)
p247
aV300
p248
aV1
aV4
aV-
aV-
aV2.2
p249
aV86.6
p250
aV0.6
p251
aV1
aV7.61
p252
aa(lp253
V2017/2018
p254
aVLeicester
p255
aVEPL
p256
aV34(2)
p257
aV2961
p258
aV12
p259
aV10
p260
aV2
aV-
aV2
aV79.6
p261
aV0.8
p262
aV5
aV7.28
p263
aa(lp264
V2016/2017
p265
aVLeicester
p266
aVUCL
p267
aV9
aV776
p268
aV4
aV2
aV1
aV-
aV1.7
p269
aV73.3
p270
aV0.7
p271
aV3
aV7.41
p272
aa(lp273
V2016/2017
p274
aVLeicester
p275
aVEPL
p276
aV33(3)
p277
aV2837
p278
aV6
aV3
aV4
aV-
aV2.1
p279
aV77.6
p280
aV0.6
p281
aV2
aV6.91
p282
aa(lp283
V2015/2016
p284
aVLeicester
p285
aVEPL
p286
aV36(1)
p287
aV3058
p288
aV17
p289
aV11
p290
aV1
aV-
aV2.3
p291
aV73.6
p292
aV0.9
p293
aV10
p294
aV7.84
p295
aa(lp296
V2015
p297
aVAlgeria
p298
aVACoN
p299
aV3(1)
p300
aV241
p301
aV1
aV1
aV-
aV-
aV1
aV67.9
p302
aV0.5
p303
aV-
aV6.57
p304
aa(lp305
V2014/2015
p306
aVLeicester
p307
aVEPL
p308
aV25(5)
p309
aV2084
p310
aV4
aV3
aV-
aV-
aV2.1
p311
aV73.3
p312
aV0.7
p313
aV2
aV7.16
p314
aa(lp315
V2013/2014
p316
aVLeicester
p317
aVEC
p318
aV12(7)
p319
aV1163
p320
aV3
aV4
aV-
aV-
aV2.7
p321
aV80.3
p322
aV0.7
p323
aV1
aV7.21
p324
aa(lp325
V2014
p326
aVAlgeria
p327
aVWC
p328
aV1
aV71
p329
aV-
aV-
aV-
aV-
aV1
aV72.2
p330
aV2
aV-
aV6.49
p331
aa(lp332
VTotal / Average
p333
aV
aV
aV193
p334
aV14322
p335
aV53
p336
aV40
p337
aV8
aV0
aV2.1
p338
aV77.3
p339
aV0.7
p340
aV26
p341
aV7.26
p342
aasS'sumary_data'
p343
(lp344
(lp345
a(lp346
V2018/2019
p347
aVManchester Ci..
p348
aVEPL
p349
aV9(7)
p350
aV831
p351
aV5
aV2
aV-
aV-
aV2
aV86.6
p352
aV0.4
p353
aV2
aV6.95
p354
aa(lp355
V2018/2019
p356
aVManchester Ci..
p357
aVUCL
p358
aV3(2)
p359
aV300
p360
aV1
aV4
aV-
aV-
aV2.2
p361
aV86.6
p362
aV0.6
p363
aV1
aV7.61
p364
aa(lp365
V2017/2018
p366
aVLeicester
p367
aVEPL
p368
aV34(2)
p369
aV2961
p370
aV12
p371
aV10
p372
aV2
aV-
aV2
aV79.6
p373
aV0.8
p374
aV5
aV7.28
p375
aa(lp376
V2016/2017
p377
aVLeicester
p378
aVUCL
p379
aV9
aV776
p380
aV4
aV2
aV1
aV-
aV1.7
p381
aV73.3
p382
aV0.7
p383
aV3
aV7.41
p384
aa(lp385
V2016/2017
p386
aVLeicester
p387
aVEPL
p388
aV33(3)
p389
aV2837
p390
aV6
aV3
aV4
aV-
aV2.1
p391
aV77.6
p392
aV0.6
p393
aV2
aV6.91
p394
aa(lp395
V2015/2016
p396
aVLeicester
p397
aVEPL
p398
aV36(1)
p399
aV3058
p400
aV17
p401
aV11
p402
aV1
aV-
aV2.3
p403
aV73.6
p404
aV0.9
p405
aV10
p406
aV7.84
p407
aa(lp408
V2015
p409
aVAlgeria
p410
aVACoN
p411
aV3(1)
p412
aV241
p413
aV1
aV1
aV-
aV-
aV1
aV67.9
p414
aV0.5
p415
aV-
aV6.57
p416
aa(lp417
V2014/2015
p418
aVLeicester
p419
aVEPL
p420
aV25(5)
p421
aV2084
p422
aV4
aV3
aV-
aV-
aV2.1
p423
aV73.3
p424
aV0.7
p425
aV2
aV7.16
p426
aa(lp427
V2013/2014
p428
aVLeicester
p429
aVEC
p430
aV12(7)
p431
aV1163
p432
aV3
aV4
aV-
aV-
aV2.7
p433
aV80.3
p434
aV0.7
p435
aV1
aV7.21
p436
aa(lp437
V2014
p438
aVAlgeria
p439
aVWC
p440
aV1
aV71
p441
aV-
aV-
aV-
aV-
aV1
aV72.2
p442
aV2
aV-
aV6.49
p443
aa(lp444
VTotal / Average
p445
aV
aV
aV193
p446
aV14322
p447
aV53
p448
aV40
p449
aV8
aV0
aV2.1
p450
aV77.3
p451
aV0.7
p452
aV26
p453
aV7.26
p454
aasS'id'
p455
V104749
p456
sb.