(i__main__
Player
p1
(dp2
S'name'
p3
VJames Ward-Prowse 
p4
sS'offensive_data'
p5
(lp6
(lp7
a(lp8
V2018/2019
p9
aVSouthampton
p10
aVEPL
p11
aV3(4)
p12
aV299
p13
aV-
aV-
aV1
aV-
aV0.7
p14
aV74.4
p15
aV0.7
p16
aV-
aV6.35
p17
aa(lp18
V2017/2018
p19
aVSouthampton
p20
aVEPL
p21
aV20(10)
p22
aV1717
p23
aV3
aV3
aV3
aV-
aV0.9
p24
aV78.8
p25
aV0.7
p26
aV1
aV6.58
p27
aa(lp28
V2016/2017
p29
aVSouthampton
p30
aVEPL
p31
aV22(8)
p32
aV1885
p33
aV4
aV4
aV4
aV-
aV1.4
p34
aV83.1
p35
aV0.7
p36
aV-
aV6.69
p37
aa(lp38
V2016/2017
p39
aVSouthampton
p40
aVUEL
p41
aV5(1)
p42
aV458
p43
aV-
aV-
aV1
aV-
aV1.8
p44
aV90.8
p45
aV1.3
p46
aV1
aV7.21
p47
aa(lp48
V2015/2016
p49
aVSouthampton
p50
aVEPL
p51
aV14(19)
p52
aV1534
p53
aV2
aV4
aV5
aV-
aV0.8
p54
aV83.5
p55
aV0.3
p56
aV-
aV6.55
p57
aa(lp58
V2015
p59
aVEngland U21
p60
aVIEU
p61
aV1
aV54
p62
aV-
aV-
aV-
aV-
aV2
aV87.1
p63
aV2
aV-
aV7.12
p64
aa(lp65
V2014/2015
p66
aVSouthampton
p67
aVEPL
p68
aV16(9)
p69
aV1478
p70
aV1
aV6
aV-
aV1
aV1.2
p71
aV87.3
p72
aV0.4
p73
aV-
aV6.65
p74
aa(lp75
V2013/2014
p76
aVSouthampton
p77
aVEPL
p78
aV16(18)
p79
aV1604
p80
aV-
aV2
aV3
aV-
aV0.6
p81
aV87.3
p82
aV0.4
p83
aV1
aV6.62
p84
aa(lp85
V2012/2013
p86
aVSouthampton
p87
aVEPL
p88
aV4(11)
p89
aV483
p90
aV-
aV-
aV-
aV-
aV0.5
p91
aV85.3
p92
aV0.4
p93
aV-
aV6.30
p94
aa(lp95
VTotal / Average
p96
aV
aV
aV181
p97
aV9512
p98
aV10
p99
aV19
p100
aV17
p101
aV1
aV1
aV84
p102
aV0.5
p103
aV3
aV6.60
p104
aasS'url'
p105
S'https://www.whoscored.com/Players/105172/History/'
p106
sS'passing_data'
p107
(lp108
(lp109
a(lp110
V2018/2019
p111
aVSouthampton
p112
aVEPL
p113
aV3(4)
p114
aV299
p115
aV-
aV-
aV1
aV-
aV0.7
p116
aV74.4
p117
aV0.7
p118
aV-
aV6.35
p119
aa(lp120
V2017/2018
p121
aVSouthampton
p122
aVEPL
p123
aV20(10)
p124
aV1717
p125
aV3
aV3
aV3
aV-
aV0.9
p126
aV78.8
p127
aV0.7
p128
aV1
aV6.58
p129
aa(lp130
V2016/2017
p131
aVSouthampton
p132
aVEPL
p133
aV22(8)
p134
aV1885
p135
aV4
aV4
aV4
aV-
aV1.4
p136
aV83.1
p137
aV0.7
p138
aV-
aV6.69
p139
aa(lp140
V2016/2017
p141
aVSouthampton
p142
aVUEL
p143
aV5(1)
p144
aV458
p145
aV-
aV-
aV1
aV-
aV1.8
p146
aV90.8
p147
aV1.3
p148
aV1
aV7.21
p149
aa(lp150
V2015/2016
p151
aVSouthampton
p152
aVEPL
p153
aV14(19)
p154
aV1534
p155
aV2
aV4
aV5
aV-
aV0.8
p156
aV83.5
p157
aV0.3
p158
aV-
aV6.55
p159
aa(lp160
V2015
p161
aVEngland U21
p162
aVIEU
p163
aV1
aV54
p164
aV-
aV-
aV-
aV-
aV2
aV87.1
p165
aV2
aV-
aV7.12
p166
aa(lp167
V2014/2015
p168
aVSouthampton
p169
aVEPL
p170
aV16(9)
p171
aV1478
p172
aV1
aV6
aV-
aV1
aV1.2
p173
aV87.3
p174
aV0.4
p175
aV-
aV6.65
p176
aa(lp177
V2013/2014
p178
aVSouthampton
p179
aVEPL
p180
aV16(18)
p181
aV1604
p182
aV-
aV2
aV3
aV-
aV0.6
p183
aV87.3
p184
aV0.4
p185
aV1
aV6.62
p186
aa(lp187
V2012/2013
p188
aVSouthampton
p189
aVEPL
p190
aV4(11)
p191
aV483
p192
aV-
aV-
aV-
aV-
aV0.5
p193
aV85.3
p194
aV0.4
p195
aV-
aV6.30
p196
aa(lp197
VTotal / Average
p198
aV
aV
aV181
p199
aV9512
p200
aV10
p201
aV19
p202
aV17
p203
aV1
aV1
aV84
p204
aV0.5
p205
aV3
aV6.60
p206
aasS'defensive_data'
p207
(lp208
(lp209
a(lp210
V2018/2019
p211
aVSouthampton
p212
aVEPL
p213
aV3(4)
p214
aV299
p215
aV-
aV-
aV1
aV-
aV0.7
p216
aV74.4
p217
aV0.7
p218
aV-
aV6.35
p219
aa(lp220
V2017/2018
p221
aVSouthampton
p222
aVEPL
p223
aV20(10)
p224
aV1717
p225
aV3
aV3
aV3
aV-
aV0.9
p226
aV78.8
p227
aV0.7
p228
aV1
aV6.58
p229
aa(lp230
V2016/2017
p231
aVSouthampton
p232
aVEPL
p233
aV22(8)
p234
aV1885
p235
aV4
aV4
aV4
aV-
aV1.4
p236
aV83.1
p237
aV0.7
p238
aV-
aV6.69
p239
aa(lp240
V2016/2017
p241
aVSouthampton
p242
aVUEL
p243
aV5(1)
p244
aV458
p245
aV-
aV-
aV1
aV-
aV1.8
p246
aV90.8
p247
aV1.3
p248
aV1
aV7.21
p249
aa(lp250
V2015/2016
p251
aVSouthampton
p252
aVEPL
p253
aV14(19)
p254
aV1534
p255
aV2
aV4
aV5
aV-
aV0.8
p256
aV83.5
p257
aV0.3
p258
aV-
aV6.55
p259
aa(lp260
V2015
p261
aVEngland U21
p262
aVIEU
p263
aV1
aV54
p264
aV-
aV-
aV-
aV-
aV2
aV87.1
p265
aV2
aV-
aV7.12
p266
aa(lp267
V2014/2015
p268
aVSouthampton
p269
aVEPL
p270
aV16(9)
p271
aV1478
p272
aV1
aV6
aV-
aV1
aV1.2
p273
aV87.3
p274
aV0.4
p275
aV-
aV6.65
p276
aa(lp277
V2013/2014
p278
aVSouthampton
p279
aVEPL
p280
aV16(18)
p281
aV1604
p282
aV-
aV2
aV3
aV-
aV0.6
p283
aV87.3
p284
aV0.4
p285
aV1
aV6.62
p286
aa(lp287
V2012/2013
p288
aVSouthampton
p289
aVEPL
p290
aV4(11)
p291
aV483
p292
aV-
aV-
aV-
aV-
aV0.5
p293
aV85.3
p294
aV0.4
p295
aV-
aV6.30
p296
aa(lp297
VTotal / Average
p298
aV
aV
aV181
p299
aV9512
p300
aV10
p301
aV19
p302
aV17
p303
aV1
aV1
aV84
p304
aV0.5
p305
aV3
aV6.60
p306
aasS'sumary_data'
p307
(lp308
(lp309
a(lp310
V2018/2019
p311
aVSouthampton
p312
aVEPL
p313
aV3(4)
p314
aV299
p315
aV-
aV-
aV1
aV-
aV0.7
p316
aV74.4
p317
aV0.7
p318
aV-
aV6.35
p319
aa(lp320
V2017/2018
p321
aVSouthampton
p322
aVEPL
p323
aV20(10)
p324
aV1717
p325
aV3
aV3
aV3
aV-
aV0.9
p326
aV78.8
p327
aV0.7
p328
aV1
aV6.58
p329
aa(lp330
V2016/2017
p331
aVSouthampton
p332
aVEPL
p333
aV22(8)
p334
aV1885
p335
aV4
aV4
aV4
aV-
aV1.4
p336
aV83.1
p337
aV0.7
p338
aV-
aV6.69
p339
aa(lp340
V2016/2017
p341
aVSouthampton
p342
aVUEL
p343
aV5(1)
p344
aV458
p345
aV-
aV-
aV1
aV-
aV1.8
p346
aV90.8
p347
aV1.3
p348
aV1
aV7.21
p349
aa(lp350
V2015/2016
p351
aVSouthampton
p352
aVEPL
p353
aV14(19)
p354
aV1534
p355
aV2
aV4
aV5
aV-
aV0.8
p356
aV83.5
p357
aV0.3
p358
aV-
aV6.55
p359
aa(lp360
V2015
p361
aVEngland U21
p362
aVIEU
p363
aV1
aV54
p364
aV-
aV-
aV-
aV-
aV2
aV87.1
p365
aV2
aV-
aV7.12
p366
aa(lp367
V2014/2015
p368
aVSouthampton
p369
aVEPL
p370
aV16(9)
p371
aV1478
p372
aV1
aV6
aV-
aV1
aV1.2
p373
aV87.3
p374
aV0.4
p375
aV-
aV6.65
p376
aa(lp377
V2013/2014
p378
aVSouthampton
p379
aVEPL
p380
aV16(18)
p381
aV1604
p382
aV-
aV2
aV3
aV-
aV0.6
p383
aV87.3
p384
aV0.4
p385
aV1
aV6.62
p386
aa(lp387
V2012/2013
p388
aVSouthampton
p389
aVEPL
p390
aV4(11)
p391
aV483
p392
aV-
aV-
aV-
aV-
aV0.5
p393
aV85.3
p394
aV0.4
p395
aV-
aV6.30
p396
aa(lp397
VTotal / Average
p398
aV
aV
aV181
p399
aV9512
p400
aV10
p401
aV19
p402
aV17
p403
aV1
aV1
aV84
p404
aV0.5
p405
aV3
aV6.60
p406
aasS'id'
p407
V105172
p408
sb.