(i__main__
Player
p1
(dp2
S'name'
p3
VJamaal Lascelles 
p4
sS'offensive_data'
p5
(lp6
(lp7
a(lp8
V2018/2019
p9
aVNewcastle Uni..
p10
aVEPL
p11
aV13
p12
aV1082
p13
aV-
aV-
aV1
aV-
aV0.5
p14
aV73.2
p15
aV3.6
p16
aV-
aV6.87
p17
aa(lp18
V2017/2018
p19
aVNewcastle Uni..
p20
aVEPL
p21
aV32(1)
p22
aV2928
p23
aV3
aV-
aV5
aV-
aV0.4
p24
aV77.1
p25
aV3.9
p26
aV1
aV7.04
p27
aa(lp28
V2016/2017
p29
aVNewcastle Uni..
p30
aVEC
p31
aV41(2)
p32
aV3675
p33
aV3
aV1
aV6
aV-
aV0.6
p34
aV84.2
p35
aV4
aV7
aV7.12
p36
aa(lp37
V2015/2016
p38
aVNewcastle Uni..
p39
aVEPL
p40
aV10(8)
p41
aV1149
p42
aV2
aV-
aV1
aV1
aV0.2
p43
aV79.8
p44
aV2.4
p45
aV-
aV6.61
p46
aa(lp47
V2014/2015
p48
aVNottingham Fo..
p49
aVEC
p50
aV20(6)
p51
aV1885
p52
aV1
aV-
aV6
aV-
aV0.6
p53
aV77.6
p54
aV3.4
p55
aV1
aV6.93
p56
aa(lp57
V2013/2014
p58
aVNottingham Fo..
p59
aVEC
p60
aV29
p61
aV2541
p62
aV2
aV-
aV8
aV-
aV0.8
p63
aV75.2
p64
aV4.9
p65
aV3
aV7.17
p66
aa(lp67
VTotal / Average
p68
aV
aV
aV162
p69
aV13260
p70
aV11
p71
aV1
aV27
p72
aV1
aV0.5
p73
aV78.7
p74
aV3.8
p75
aV12
p76
aV7.01
p77
aasS'url'
p78
S'https://www.whoscored.com/Players/105171/History/'
p79
sS'passing_data'
p80
(lp81
(lp82
a(lp83
V2018/2019
p84
aVNewcastle Uni..
p85
aVEPL
p86
aV13
p87
aV1082
p88
aV-
aV-
aV1
aV-
aV0.5
p89
aV73.2
p90
aV3.6
p91
aV-
aV6.87
p92
aa(lp93
V2017/2018
p94
aVNewcastle Uni..
p95
aVEPL
p96
aV32(1)
p97
aV2928
p98
aV3
aV-
aV5
aV-
aV0.4
p99
aV77.1
p100
aV3.9
p101
aV1
aV7.04
p102
aa(lp103
V2016/2017
p104
aVNewcastle Uni..
p105
aVEC
p106
aV41(2)
p107
aV3675
p108
aV3
aV1
aV6
aV-
aV0.6
p109
aV84.2
p110
aV4
aV7
aV7.12
p111
aa(lp112
V2015/2016
p113
aVNewcastle Uni..
p114
aVEPL
p115
aV10(8)
p116
aV1149
p117
aV2
aV-
aV1
aV1
aV0.2
p118
aV79.8
p119
aV2.4
p120
aV-
aV6.61
p121
aa(lp122
V2014/2015
p123
aVNottingham Fo..
p124
aVEC
p125
aV20(6)
p126
aV1885
p127
aV1
aV-
aV6
aV-
aV0.6
p128
aV77.6
p129
aV3.4
p130
aV1
aV6.93
p131
aa(lp132
V2013/2014
p133
aVNottingham Fo..
p134
aVEC
p135
aV29
p136
aV2541
p137
aV2
aV-
aV8
aV-
aV0.8
p138
aV75.2
p139
aV4.9
p140
aV3
aV7.17
p141
aa(lp142
VTotal / Average
p143
aV
aV
aV162
p144
aV13260
p145
aV11
p146
aV1
aV27
p147
aV1
aV0.5
p148
aV78.7
p149
aV3.8
p150
aV12
p151
aV7.01
p152
aasS'defensive_data'
p153
(lp154
(lp155
a(lp156
V2018/2019
p157
aVNewcastle Uni..
p158
aVEPL
p159
aV13
p160
aV1082
p161
aV-
aV-
aV1
aV-
aV0.5
p162
aV73.2
p163
aV3.6
p164
aV-
aV6.87
p165
aa(lp166
V2017/2018
p167
aVNewcastle Uni..
p168
aVEPL
p169
aV32(1)
p170
aV2928
p171
aV3
aV-
aV5
aV-
aV0.4
p172
aV77.1
p173
aV3.9
p174
aV1
aV7.04
p175
aa(lp176
V2016/2017
p177
aVNewcastle Uni..
p178
aVEC
p179
aV41(2)
p180
aV3675
p181
aV3
aV1
aV6
aV-
aV0.6
p182
aV84.2
p183
aV4
aV7
aV7.12
p184
aa(lp185
V2015/2016
p186
aVNewcastle Uni..
p187
aVEPL
p188
aV10(8)
p189
aV1149
p190
aV2
aV-
aV1
aV1
aV0.2
p191
aV79.8
p192
aV2.4
p193
aV-
aV6.61
p194
aa(lp195
V2014/2015
p196
aVNottingham Fo..
p197
aVEC
p198
aV20(6)
p199
aV1885
p200
aV1
aV-
aV6
aV-
aV0.6
p201
aV77.6
p202
aV3.4
p203
aV1
aV6.93
p204
aa(lp205
V2013/2014
p206
aVNottingham Fo..
p207
aVEC
p208
aV29
p209
aV2541
p210
aV2
aV-
aV8
aV-
aV0.8
p211
aV75.2
p212
aV4.9
p213
aV3
aV7.17
p214
aa(lp215
VTotal / Average
p216
aV
aV
aV162
p217
aV13260
p218
aV11
p219
aV1
aV27
p220
aV1
aV0.5
p221
aV78.7
p222
aV3.8
p223
aV12
p224
aV7.01
p225
aasS'sumary_data'
p226
(lp227
(lp228
a(lp229
V2018/2019
p230
aVNewcastle Uni..
p231
aVEPL
p232
aV13
p233
aV1082
p234
aV-
aV-
aV1
aV-
aV0.5
p235
aV73.2
p236
aV3.6
p237
aV-
aV6.87
p238
aa(lp239
V2017/2018
p240
aVNewcastle Uni..
p241
aVEPL
p242
aV32(1)
p243
aV2928
p244
aV3
aV-
aV5
aV-
aV0.4
p245
aV77.1
p246
aV3.9
p247
aV1
aV7.04
p248
aa(lp249
V2016/2017
p250
aVNewcastle Uni..
p251
aVEC
p252
aV41(2)
p253
aV3675
p254
aV3
aV1
aV6
aV-
aV0.6
p255
aV84.2
p256
aV4
aV7
aV7.12
p257
aa(lp258
V2015/2016
p259
aVNewcastle Uni..
p260
aVEPL
p261
aV10(8)
p262
aV1149
p263
aV2
aV-
aV1
aV1
aV0.2
p264
aV79.8
p265
aV2.4
p266
aV-
aV6.61
p267
aa(lp268
V2014/2015
p269
aVNottingham Fo..
p270
aVEC
p271
aV20(6)
p272
aV1885
p273
aV1
aV-
aV6
aV-
aV0.6
p274
aV77.6
p275
aV3.4
p276
aV1
aV6.93
p277
aa(lp278
V2013/2014
p279
aVNottingham Fo..
p280
aVEC
p281
aV29
p282
aV2541
p283
aV2
aV-
aV8
aV-
aV0.8
p284
aV75.2
p285
aV4.9
p286
aV3
aV7.17
p287
aa(lp288
VTotal / Average
p289
aV
aV
aV162
p290
aV13260
p291
aV11
p292
aV1
aV27
p293
aV1
aV0.5
p294
aV78.7
p295
aV3.8
p296
aV12
p297
aV7.01
p298
aasS'id'
p299
V105171
p300
sb.