(i__main__
Player
p1
(dp2
S'name'
p3
VJordon Ibe 
p4
sS'offensive_data'
p5
(lp6
(lp7
a(lp8
V2018/2019
p9
aVBournemouth
p10
aVEPL
p11
aV2(4)
p12
aV205
p13
aV-
aV-
aV-
aV-
aV0.5
p14
aV75
p15
aV0.2
p16
aV-
aV6.17
p17
aa(lp18
V2017/2018
p19
aVBournemouth
p20
aVEPL
p21
aV22(10)
p22
aV2002
p23
aV2
aV6
aV1
aV-
aV1.7
p24
aV80.4
p25
aV0.1
p26
aV2
aV6.65
p27
aa(lp28
V2016/2017
p29
aVBournemouth
p30
aVEPL
p31
aV13(12)
p32
aV1059
p33
aV-
aV-
aV-
aV-
aV0.6
p34
aV82.5
p35
aV-
aV-
aV6.36
p36
aa(lp37
V2015/2016
p38
aVLiverpool
p39
aVUEL
p40
aV4(2)
p41
aV414
p42
aV1
aV-
aV1
aV-
aV1.5
p43
aV85.8
p44
aV0.2
p45
aV1
aV6.98
p46
aa(lp47
V2015/2016
p48
aVLiverpool
p49
aVEPL
p50
aV12(15)
p51
aV1172
p52
aV1
aV2
aV-
aV-
aV1.1
p53
aV84.8
p54
aV0.1
p55
aV1
aV6.59
p56
aa(lp57
V2014/2015
p58
aVLiverpool
p59
aVUEL
p60
aV2
aV166
p61
aV-
aV-
aV-
aV-
aV-
aV69
p62
aV-
aV1
aV7.35
p63
aa(lp64
V2014/2015
p65
aVDerby
p66
aVEC
p67
aV13(7)
p68
aV1142
p69
aV5
aV1
aV2
aV-
aV1.6
p70
aV86.7
p71
aV0.2
p72
aV1
aV6.89
p73
aa(lp74
V2014/2015
p75
aVLiverpool
p76
aVEPL
p77
aV7(5)
p78
aV618
p79
aV-
aV-
aV-
aV-
aV0.8
p80
aV87.4
p81
aV0.3
p82
aV-
aV6.63
p83
aa(lp84
V2013/2014
p85
aVBirmingham
p86
aVEC
p87
aV4(7)
p88
aV529
p89
aV1
aV1
aV1
aV-
aV1.6
p90
aV78.1
p91
aV-
aV1
aV6.57
p92
aa(lp93
V2013/2014
p94
aVLiverpool
p95
aVEPL
p96
aV0(1)
p97
aV14
p98
aV-
aV-
aV-
aV-
aV1
aV100
p99
aV-
aV-
aV6.15
p100
aa(lp101
V2012/2013
p102
aVLiverpool
p103
aVEPL
p104
aV1
aV64
p105
aV-
aV1
aV-
aV-
aV1
aV90.9
p106
aV-
aV-
aV6.87
p107
aa(lp108
VTotal / Average
p109
aV
aV
aV143
p110
aV7385
p111
aV10
p112
aV11
p113
aV5
aV0
aV1.2
p114
aV83
p115
aV0.1
p116
aV7
aV6.62
p117
aasS'url'
p118
S'https://www.whoscored.com/Players/105797/History/'
p119
sS'passing_data'
p120
(lp121
(lp122
a(lp123
V2018/2019
p124
aVBournemouth
p125
aVEPL
p126
aV2(4)
p127
aV205
p128
aV-
aV-
aV-
aV-
aV0.5
p129
aV75
p130
aV0.2
p131
aV-
aV6.17
p132
aa(lp133
V2017/2018
p134
aVBournemouth
p135
aVEPL
p136
aV22(10)
p137
aV2002
p138
aV2
aV6
aV1
aV-
aV1.7
p139
aV80.4
p140
aV0.1
p141
aV2
aV6.65
p142
aa(lp143
V2016/2017
p144
aVBournemouth
p145
aVEPL
p146
aV13(12)
p147
aV1059
p148
aV-
aV-
aV-
aV-
aV0.6
p149
aV82.5
p150
aV-
aV-
aV6.36
p151
aa(lp152
V2015/2016
p153
aVLiverpool
p154
aVUEL
p155
aV4(2)
p156
aV414
p157
aV1
aV-
aV1
aV-
aV1.5
p158
aV85.8
p159
aV0.2
p160
aV1
aV6.98
p161
aa(lp162
V2015/2016
p163
aVLiverpool
p164
aVEPL
p165
aV12(15)
p166
aV1172
p167
aV1
aV2
aV-
aV-
aV1.1
p168
aV84.8
p169
aV0.1
p170
aV1
aV6.59
p171
aa(lp172
V2014/2015
p173
aVLiverpool
p174
aVUEL
p175
aV2
aV166
p176
aV-
aV-
aV-
aV-
aV-
aV69
p177
aV-
aV1
aV7.35
p178
aa(lp179
V2014/2015
p180
aVDerby
p181
aVEC
p182
aV13(7)
p183
aV1142
p184
aV5
aV1
aV2
aV-
aV1.6
p185
aV86.7
p186
aV0.2
p187
aV1
aV6.89
p188
aa(lp189
V2014/2015
p190
aVLiverpool
p191
aVEPL
p192
aV7(5)
p193
aV618
p194
aV-
aV-
aV-
aV-
aV0.8
p195
aV87.4
p196
aV0.3
p197
aV-
aV6.63
p198
aa(lp199
V2013/2014
p200
aVBirmingham
p201
aVEC
p202
aV4(7)
p203
aV529
p204
aV1
aV1
aV1
aV-
aV1.6
p205
aV78.1
p206
aV-
aV1
aV6.57
p207
aa(lp208
V2013/2014
p209
aVLiverpool
p210
aVEPL
p211
aV0(1)
p212
aV14
p213
aV-
aV-
aV-
aV-
aV1
aV100
p214
aV-
aV-
aV6.15
p215
aa(lp216
V2012/2013
p217
aVLiverpool
p218
aVEPL
p219
aV1
aV64
p220
aV-
aV1
aV-
aV-
aV1
aV90.9
p221
aV-
aV-
aV6.87
p222
aa(lp223
VTotal / Average
p224
aV
aV
aV143
p225
aV7385
p226
aV10
p227
aV11
p228
aV5
aV0
aV1.2
p229
aV83
p230
aV0.1
p231
aV7
aV6.62
p232
aasS'defensive_data'
p233
(lp234
(lp235
a(lp236
V2018/2019
p237
aVBournemouth
p238
aVEPL
p239
aV2(4)
p240
aV205
p241
aV-
aV-
aV-
aV-
aV0.5
p242
aV75
p243
aV0.2
p244
aV-
aV6.17
p245
aa(lp246
V2017/2018
p247
aVBournemouth
p248
aVEPL
p249
aV22(10)
p250
aV2002
p251
aV2
aV6
aV1
aV-
aV1.7
p252
aV80.4
p253
aV0.1
p254
aV2
aV6.65
p255
aa(lp256
V2016/2017
p257
aVBournemouth
p258
aVEPL
p259
aV13(12)
p260
aV1059
p261
aV-
aV-
aV-
aV-
aV0.6
p262
aV82.5
p263
aV-
aV-
aV6.36
p264
aa(lp265
V2015/2016
p266
aVLiverpool
p267
aVUEL
p268
aV4(2)
p269
aV414
p270
aV1
aV-
aV1
aV-
aV1.5
p271
aV85.8
p272
aV0.2
p273
aV1
aV6.98
p274
aa(lp275
V2015/2016
p276
aVLiverpool
p277
aVEPL
p278
aV12(15)
p279
aV1172
p280
aV1
aV2
aV-
aV-
aV1.1
p281
aV84.8
p282
aV0.1
p283
aV1
aV6.59
p284
aa(lp285
V2014/2015
p286
aVLiverpool
p287
aVUEL
p288
aV2
aV166
p289
aV-
aV-
aV-
aV-
aV-
aV69
p290
aV-
aV1
aV7.35
p291
aa(lp292
V2014/2015
p293
aVDerby
p294
aVEC
p295
aV13(7)
p296
aV1142
p297
aV5
aV1
aV2
aV-
aV1.6
p298
aV86.7
p299
aV0.2
p300
aV1
aV6.89
p301
aa(lp302
V2014/2015
p303
aVLiverpool
p304
aVEPL
p305
aV7(5)
p306
aV618
p307
aV-
aV-
aV-
aV-
aV0.8
p308
aV87.4
p309
aV0.3
p310
aV-
aV6.63
p311
aa(lp312
V2013/2014
p313
aVBirmingham
p314
aVEC
p315
aV4(7)
p316
aV529
p317
aV1
aV1
aV1
aV-
aV1.6
p318
aV78.1
p319
aV-
aV1
aV6.57
p320
aa(lp321
V2013/2014
p322
aVLiverpool
p323
aVEPL
p324
aV0(1)
p325
aV14
p326
aV-
aV-
aV-
aV-
aV1
aV100
p327
aV-
aV-
aV6.15
p328
aa(lp329
V2012/2013
p330
aVLiverpool
p331
aVEPL
p332
aV1
aV64
p333
aV-
aV1
aV-
aV-
aV1
aV90.9
p334
aV-
aV-
aV6.87
p335
aa(lp336
VTotal / Average
p337
aV
aV
aV143
p338
aV7385
p339
aV10
p340
aV11
p341
aV5
aV0
aV1.2
p342
aV83
p343
aV0.1
p344
aV7
aV6.62
p345
aasS'sumary_data'
p346
(lp347
(lp348
a(lp349
V2018/2019
p350
aVBournemouth
p351
aVEPL
p352
aV2(4)
p353
aV205
p354
aV-
aV-
aV-
aV-
aV0.5
p355
aV75
p356
aV0.2
p357
aV-
aV6.17
p358
aa(lp359
V2017/2018
p360
aVBournemouth
p361
aVEPL
p362
aV22(10)
p363
aV2002
p364
aV2
aV6
aV1
aV-
aV1.7
p365
aV80.4
p366
aV0.1
p367
aV2
aV6.65
p368
aa(lp369
V2016/2017
p370
aVBournemouth
p371
aVEPL
p372
aV13(12)
p373
aV1059
p374
aV-
aV-
aV-
aV-
aV0.6
p375
aV82.5
p376
aV-
aV-
aV6.36
p377
aa(lp378
V2015/2016
p379
aVLiverpool
p380
aVUEL
p381
aV4(2)
p382
aV414
p383
aV1
aV-
aV1
aV-
aV1.5
p384
aV85.8
p385
aV0.2
p386
aV1
aV6.98
p387
aa(lp388
V2015/2016
p389
aVLiverpool
p390
aVEPL
p391
aV12(15)
p392
aV1172
p393
aV1
aV2
aV-
aV-
aV1.1
p394
aV84.8
p395
aV0.1
p396
aV1
aV6.59
p397
aa(lp398
V2014/2015
p399
aVLiverpool
p400
aVUEL
p401
aV2
aV166
p402
aV-
aV-
aV-
aV-
aV-
aV69
p403
aV-
aV1
aV7.35
p404
aa(lp405
V2014/2015
p406
aVDerby
p407
aVEC
p408
aV13(7)
p409
aV1142
p410
aV5
aV1
aV2
aV-
aV1.6
p411
aV86.7
p412
aV0.2
p413
aV1
aV6.89
p414
aa(lp415
V2014/2015
p416
aVLiverpool
p417
aVEPL
p418
aV7(5)
p419
aV618
p420
aV-
aV-
aV-
aV-
aV0.8
p421
aV87.4
p422
aV0.3
p423
aV-
aV6.63
p424
aa(lp425
V2013/2014
p426
aVBirmingham
p427
aVEC
p428
aV4(7)
p429
aV529
p430
aV1
aV1
aV1
aV-
aV1.6
p431
aV78.1
p432
aV-
aV1
aV6.57
p433
aa(lp434
V2013/2014
p435
aVLiverpool
p436
aVEPL
p437
aV0(1)
p438
aV14
p439
aV-
aV-
aV-
aV-
aV1
aV100
p440
aV-
aV-
aV6.15
p441
aa(lp442
V2012/2013
p443
aVLiverpool
p444
aVEPL
p445
aV1
aV64
p446
aV-
aV1
aV-
aV-
aV1
aV90.9
p447
aV-
aV-
aV6.87
p448
aa(lp449
VTotal / Average
p450
aV
aV
aV143
p451
aV7385
p452
aV10
p453
aV11
p454
aV5
aV0
aV1.2
p455
aV83
p456
aV0.1
p457
aV7
aV6.62
p458
aasS'id'
p459
V105797
p460
sb.