(i__main__
Player
p1
(dp2
S'name'
p3
VBenjamin Mendy 
p4
sS'offensive_data'
p5
(lp6
(lp7
a(lp8
V2018/2019
p9
aVManchester Ci..
p10
aVEPL
p11
aV9
aV810
p12
aV-
aV5
aV1
aV-
aV0.7
p13
aV87.4
p14
aV0.9
p15
aV-
aV7.31
p16
aa(lp17
V2018/2019
p18
aVManchester Ci..
p19
aVUCL
p20
aV1
aV90
p21
aV-
aV-
aV-
aV-
aV2
aV89.2
p22
aV-
aV-
aV7.76
p23
aa(lp24
V2018/2019
p25
aVFrance
p26
aVUNL
p27
aV0(1)
p28
aV28
p29
aV-
aV1
aV-
aV-
aV-
aV63.6
p30
aV-
aV-
aV6.92
p31
aa(lp32
V2017/2018
p33
aVManchester Ci..
p34
aVUCL
p35
aV1
aV90
p36
aV-
aV-
aV-
aV-
aV1
aV76.3
p37
aV-
aV-
aV6.84
p38
aa(lp39
V2017/2018
p40
aVManchester Ci..
p41
aVEPL
p42
aV4(3)
p43
aV362
p44
aV-
aV1
aV2
aV-
aV0.7
p45
aV85.6
p46
aV0.7
p47
aV-
aV6.87
p48
aa(lp49
V2016/2017
p50
aVMonaco
p51
aVUCL
p52
aV6(1)
p53
aV525
p54
aV-
aV3
aV1
aV-
aV0.9
p55
aV79.1
p56
aV1.3
p57
aV3
aV7.52
p58
aa(lp59
V2016/2017
p60
aVMonaco
p61
aVFL1
p62
aV24(1)
p63
aV2060
p64
aV-
aV5
aV6
aV1
aV0.6
p65
aV76
p66
aV1.6
p67
aV2
aV7.25
p68
aa(lp69
V2018
p70
aVFrance
p71
aVWC
p72
aV0(1)
p73
aV40
p74
aV-
aV-
aV-
aV-
aV-
aV88.5
p75
aV-
aV-
aV6.18
p76
aa(lp77
V2015/2016
p78
aVMarseille
p79
aVUEL
p80
aV7
aV606
p81
aV-
aV2
aV2
aV-
aV0.9
p82
aV81.4
p83
aV1.3
p84
aV-
aV7.42
p85
aa(lp86
V2015/2016
p87
aVMarseille
p88
aVFL1
p89
aV22(2)
p90
aV1953
p91
aV1
aV1
aV7
aV1
aV0.3
p92
aV80.1
p93
aV1.6
p94
aV-
aV7.14
p95
aa(lp96
V2014/2015
p97
aVMarseille
p98
aVFL1
p99
aV33
p100
aV2921
p101
aV-
aV3
aV8
aV-
aV0.7
p102
aV79.2
p103
aV1.8
p104
aV1
aV7.20
p105
aa(lp106
V2013/2014
p107
aVMarseille
p108
aVUCL
p109
aV2
aV180
p110
aV-
aV-
aV-
aV-
aV0.5
p111
aV77.2
p112
aV1.5
p113
aV-
aV6.77
p114
aa(lp115
V2013/2014
p116
aVMarseille
p117
aVFL1
p118
aV18(6)
p119
aV1730
p120
aV1
aV4
aV4
aV-
aV0.4
p121
aV80.1
p122
aV1.2
p123
aV3
aV6.97
p124
aa(lp125
VTotal / Average
p126
aV
aV
aV142
p127
aV11395
p128
aV2
aV25
p129
aV31
p130
aV2
aV0.6
p131
aV79.9
p132
aV1.4
p133
aV9
aV7.16
p134
aasS'url'
p135
S'https://www.whoscored.com/Players/105962/History/'
p136
sS'passing_data'
p137
(lp138
(lp139
a(lp140
V2018/2019
p141
aVManchester Ci..
p142
aVEPL
p143
aV9
aV810
p144
aV-
aV5
aV1
aV-
aV0.7
p145
aV87.4
p146
aV0.9
p147
aV-
aV7.31
p148
aa(lp149
V2018/2019
p150
aVManchester Ci..
p151
aVUCL
p152
aV1
aV90
p153
aV-
aV-
aV-
aV-
aV2
aV89.2
p154
aV-
aV-
aV7.76
p155
aa(lp156
V2018/2019
p157
aVFrance
p158
aVUNL
p159
aV0(1)
p160
aV28
p161
aV-
aV1
aV-
aV-
aV-
aV63.6
p162
aV-
aV-
aV6.92
p163
aa(lp164
V2017/2018
p165
aVManchester Ci..
p166
aVUCL
p167
aV1
aV90
p168
aV-
aV-
aV-
aV-
aV1
aV76.3
p169
aV-
aV-
aV6.84
p170
aa(lp171
V2017/2018
p172
aVManchester Ci..
p173
aVEPL
p174
aV4(3)
p175
aV362
p176
aV-
aV1
aV2
aV-
aV0.7
p177
aV85.6
p178
aV0.7
p179
aV-
aV6.87
p180
aa(lp181
V2016/2017
p182
aVMonaco
p183
aVUCL
p184
aV6(1)
p185
aV525
p186
aV-
aV3
aV1
aV-
aV0.9
p187
aV79.1
p188
aV1.3
p189
aV3
aV7.52
p190
aa(lp191
V2016/2017
p192
aVMonaco
p193
aVFL1
p194
aV24(1)
p195
aV2060
p196
aV-
aV5
aV6
aV1
aV0.6
p197
aV76
p198
aV1.6
p199
aV2
aV7.25
p200
aa(lp201
V2018
p202
aVFrance
p203
aVWC
p204
aV0(1)
p205
aV40
p206
aV-
aV-
aV-
aV-
aV-
aV88.5
p207
aV-
aV-
aV6.18
p208
aa(lp209
V2015/2016
p210
aVMarseille
p211
aVUEL
p212
aV7
aV606
p213
aV-
aV2
aV2
aV-
aV0.9
p214
aV81.4
p215
aV1.3
p216
aV-
aV7.42
p217
aa(lp218
V2015/2016
p219
aVMarseille
p220
aVFL1
p221
aV22(2)
p222
aV1953
p223
aV1
aV1
aV7
aV1
aV0.3
p224
aV80.1
p225
aV1.6
p226
aV-
aV7.14
p227
aa(lp228
V2014/2015
p229
aVMarseille
p230
aVFL1
p231
aV33
p232
aV2921
p233
aV-
aV3
aV8
aV-
aV0.7
p234
aV79.2
p235
aV1.8
p236
aV1
aV7.20
p237
aa(lp238
V2013/2014
p239
aVMarseille
p240
aVUCL
p241
aV2
aV180
p242
aV-
aV-
aV-
aV-
aV0.5
p243
aV77.2
p244
aV1.5
p245
aV-
aV6.77
p246
aa(lp247
V2013/2014
p248
aVMarseille
p249
aVFL1
p250
aV18(6)
p251
aV1730
p252
aV1
aV4
aV4
aV-
aV0.4
p253
aV80.1
p254
aV1.2
p255
aV3
aV6.97
p256
aa(lp257
VTotal / Average
p258
aV
aV
aV142
p259
aV11395
p260
aV2
aV25
p261
aV31
p262
aV2
aV0.6
p263
aV79.9
p264
aV1.4
p265
aV9
aV7.16
p266
aasS'defensive_data'
p267
(lp268
(lp269
a(lp270
V2018/2019
p271
aVManchester Ci..
p272
aVEPL
p273
aV9
aV810
p274
aV-
aV5
aV1
aV-
aV0.7
p275
aV87.4
p276
aV0.9
p277
aV-
aV7.31
p278
aa(lp279
V2018/2019
p280
aVManchester Ci..
p281
aVUCL
p282
aV1
aV90
p283
aV-
aV-
aV-
aV-
aV2
aV89.2
p284
aV-
aV-
aV7.76
p285
aa(lp286
V2018/2019
p287
aVFrance
p288
aVUNL
p289
aV0(1)
p290
aV28
p291
aV-
aV1
aV-
aV-
aV-
aV63.6
p292
aV-
aV-
aV6.92
p293
aa(lp294
V2017/2018
p295
aVManchester Ci..
p296
aVUCL
p297
aV1
aV90
p298
aV-
aV-
aV-
aV-
aV1
aV76.3
p299
aV-
aV-
aV6.84
p300
aa(lp301
V2017/2018
p302
aVManchester Ci..
p303
aVEPL
p304
aV4(3)
p305
aV362
p306
aV-
aV1
aV2
aV-
aV0.7
p307
aV85.6
p308
aV0.7
p309
aV-
aV6.87
p310
aa(lp311
V2016/2017
p312
aVMonaco
p313
aVUCL
p314
aV6(1)
p315
aV525
p316
aV-
aV3
aV1
aV-
aV0.9
p317
aV79.1
p318
aV1.3
p319
aV3
aV7.52
p320
aa(lp321
V2016/2017
p322
aVMonaco
p323
aVFL1
p324
aV24(1)
p325
aV2060
p326
aV-
aV5
aV6
aV1
aV0.6
p327
aV76
p328
aV1.6
p329
aV2
aV7.25
p330
aa(lp331
V2018
p332
aVFrance
p333
aVWC
p334
aV0(1)
p335
aV40
p336
aV-
aV-
aV-
aV-
aV-
aV88.5
p337
aV-
aV-
aV6.18
p338
aa(lp339
V2015/2016
p340
aVMarseille
p341
aVUEL
p342
aV7
aV606
p343
aV-
aV2
aV2
aV-
aV0.9
p344
aV81.4
p345
aV1.3
p346
aV-
aV7.42
p347
aa(lp348
V2015/2016
p349
aVMarseille
p350
aVFL1
p351
aV22(2)
p352
aV1953
p353
aV1
aV1
aV7
aV1
aV0.3
p354
aV80.1
p355
aV1.6
p356
aV-
aV7.14
p357
aa(lp358
V2014/2015
p359
aVMarseille
p360
aVFL1
p361
aV33
p362
aV2921
p363
aV-
aV3
aV8
aV-
aV0.7
p364
aV79.2
p365
aV1.8
p366
aV1
aV7.20
p367
aa(lp368
V2013/2014
p369
aVMarseille
p370
aVUCL
p371
aV2
aV180
p372
aV-
aV-
aV-
aV-
aV0.5
p373
aV77.2
p374
aV1.5
p375
aV-
aV6.77
p376
aa(lp377
V2013/2014
p378
aVMarseille
p379
aVFL1
p380
aV18(6)
p381
aV1730
p382
aV1
aV4
aV4
aV-
aV0.4
p383
aV80.1
p384
aV1.2
p385
aV3
aV6.97
p386
aa(lp387
VTotal / Average
p388
aV
aV
aV142
p389
aV11395
p390
aV2
aV25
p391
aV31
p392
aV2
aV0.6
p393
aV79.9
p394
aV1.4
p395
aV9
aV7.16
p396
aasS'sumary_data'
p397
(lp398
(lp399
a(lp400
V2018/2019
p401
aVManchester Ci..
p402
aVEPL
p403
aV9
aV810
p404
aV-
aV5
aV1
aV-
aV0.7
p405
aV87.4
p406
aV0.9
p407
aV-
aV7.31
p408
aa(lp409
V2018/2019
p410
aVManchester Ci..
p411
aVUCL
p412
aV1
aV90
p413
aV-
aV-
aV-
aV-
aV2
aV89.2
p414
aV-
aV-
aV7.76
p415
aa(lp416
V2018/2019
p417
aVFrance
p418
aVUNL
p419
aV0(1)
p420
aV28
p421
aV-
aV1
aV-
aV-
aV-
aV63.6
p422
aV-
aV-
aV6.92
p423
aa(lp424
V2017/2018
p425
aVManchester Ci..
p426
aVUCL
p427
aV1
aV90
p428
aV-
aV-
aV-
aV-
aV1
aV76.3
p429
aV-
aV-
aV6.84
p430
aa(lp431
V2017/2018
p432
aVManchester Ci..
p433
aVEPL
p434
aV4(3)
p435
aV362
p436
aV-
aV1
aV2
aV-
aV0.7
p437
aV85.6
p438
aV0.7
p439
aV-
aV6.87
p440
aa(lp441
V2016/2017
p442
aVMonaco
p443
aVUCL
p444
aV6(1)
p445
aV525
p446
aV-
aV3
aV1
aV-
aV0.9
p447
aV79.1
p448
aV1.3
p449
aV3
aV7.52
p450
aa(lp451
V2016/2017
p452
aVMonaco
p453
aVFL1
p454
aV24(1)
p455
aV2060
p456
aV-
aV5
aV6
aV1
aV0.6
p457
aV76
p458
aV1.6
p459
aV2
aV7.25
p460
aa(lp461
V2018
p462
aVFrance
p463
aVWC
p464
aV0(1)
p465
aV40
p466
aV-
aV-
aV-
aV-
aV-
aV88.5
p467
aV-
aV-
aV6.18
p468
aa(lp469
V2015/2016
p470
aVMarseille
p471
aVUEL
p472
aV7
aV606
p473
aV-
aV2
aV2
aV-
aV0.9
p474
aV81.4
p475
aV1.3
p476
aV-
aV7.42
p477
aa(lp478
V2015/2016
p479
aVMarseille
p480
aVFL1
p481
aV22(2)
p482
aV1953
p483
aV1
aV1
aV7
aV1
aV0.3
p484
aV80.1
p485
aV1.6
p486
aV-
aV7.14
p487
aa(lp488
V2014/2015
p489
aVMarseille
p490
aVFL1
p491
aV33
p492
aV2921
p493
aV-
aV3
aV8
aV-
aV0.7
p494
aV79.2
p495
aV1.8
p496
aV1
aV7.20
p497
aa(lp498
V2013/2014
p499
aVMarseille
p500
aVUCL
p501
aV2
aV180
p502
aV-
aV-
aV-
aV-
aV0.5
p503
aV77.2
p504
aV1.5
p505
aV-
aV6.77
p506
aa(lp507
V2013/2014
p508
aVMarseille
p509
aVFL1
p510
aV18(6)
p511
aV1730
p512
aV1
aV4
aV4
aV-
aV0.4
p513
aV80.1
p514
aV1.2
p515
aV3
aV6.97
p516
aa(lp517
VTotal / Average
p518
aV
aV
aV142
p519
aV11395
p520
aV2
aV25
p521
aV31
p522
aV2
aV0.6
p523
aV79.9
p524
aV1.4
p525
aV9
aV7.16
p526
aasS'id'
p527
V105962
p528
sb.