(i__main__
Player
p1
(dp2
S'name'
p3
VKurt Zouma 
p4
sS'offensive_data'
p5
(lp6
(lp7
a(lp8
V2018/2019
p9
aVEverton
p10
aVEPL
p11
aV10(3)
p12
aV903
p13
aV-
aV1
aV-
aV-
aV0.6
p14
aV87.9
p15
aV1.6
p16
aV-
aV6.54
p17
aa(lp18
V2017/2018
p19
aVStoke
p20
aVEPL
p21
aV32(2)
p22
aV2888
p23
aV1
aV-
aV1
aV-
aV0.6
p24
aV78.3
p25
aV3.2
p26
aV3
aV7.12
p27
aa(lp28
V2016/2017
p29
aVChelsea
p30
aVEPL
p31
aV3(6)
p32
aV247
p33
aV-
aV1
aV-
aV-
aV0.1
p34
aV80.5
p35
aV0.6
p36
aV-
aV6.23
p37
aa(lp38
V2015/2016
p39
aVChelsea
p40
aVUCL
p41
aV5(1)
p42
aV468
p43
aV1
aV-
aV1
aV-
aV0.3
p44
aV78.8
p45
aV2
aV-
aV7.16
p46
aa(lp47
V2015/2016
p48
aVChelsea
p49
aVEPL
p50
aV21(2)
p51
aV1918
p52
aV1
aV1
aV-
aV-
aV0.7
p53
aV80.4
p54
aV2.9
p55
aV-
aV6.87
p56
aa(lp57
V2014/2015
p58
aVChelsea
p59
aVUCL
p60
aV3(1)
p61
aV306
p62
aV-
aV-
aV-
aV-
aV0.5
p63
aV91
p64
aV1.3
p65
aV-
aV7.02
p66
aa(lp67
V2014/2015
p68
aVChelsea
p69
aVEPL
p70
aV7(8)
p71
aV644
p72
aV-
aV-
aV-
aV-
aV0.1
p73
aV80.6
p74
aV1.5
p75
aV-
aV6.60
p76
aa(lp77
V2013/2014
p78
aVSaint-Etienne
p79
aVFL1
p80
aV17(7)
p81
aV1580
p82
aV-
aV1
aV-
aV1
aV0.4
p83
aV83.4
p84
aV2.3
p85
aV3
aV6.79
p86
aa(lp87
V2012/2013
p88
aVSaint-Etienne
p89
aVFL1
p90
aV18
p91
aV1550
p92
aV2
aV-
aV1
aV-
aV0.8
p93
aV86.1
p94
aV2.4
p95
aV-
aV7.05
p96
aa(lp97
V2011/2012
p98
aVSaint-Etienne
p99
aVFL1
p100
aV14(7)
p101
aV1469
p102
aV2
aV-
aV3
aV-
aV0.3
p103
aV83.7
p104
aV1.5
p105
aV1
aV6.69
p106
aa(lp107
VTotal / Average
p108
aV
aV
aV167
p109
aV11973
p110
aV7
aV4
aV6
aV1
aV0.5
p111
aV82.2
p112
aV2.2
p113
aV7
aV6.84
p114
aasS'url'
p115
S'https://www.whoscored.com/Players/106086/History/'
p116
sS'passing_data'
p117
(lp118
(lp119
a(lp120
V2018/2019
p121
aVEverton
p122
aVEPL
p123
aV10(3)
p124
aV903
p125
aV-
aV1
aV-
aV-
aV0.6
p126
aV87.9
p127
aV1.6
p128
aV-
aV6.54
p129
aa(lp130
V2017/2018
p131
aVStoke
p132
aVEPL
p133
aV32(2)
p134
aV2888
p135
aV1
aV-
aV1
aV-
aV0.6
p136
aV78.3
p137
aV3.2
p138
aV3
aV7.12
p139
aa(lp140
V2016/2017
p141
aVChelsea
p142
aVEPL
p143
aV3(6)
p144
aV247
p145
aV-
aV1
aV-
aV-
aV0.1
p146
aV80.5
p147
aV0.6
p148
aV-
aV6.23
p149
aa(lp150
V2015/2016
p151
aVChelsea
p152
aVUCL
p153
aV5(1)
p154
aV468
p155
aV1
aV-
aV1
aV-
aV0.3
p156
aV78.8
p157
aV2
aV-
aV7.16
p158
aa(lp159
V2015/2016
p160
aVChelsea
p161
aVEPL
p162
aV21(2)
p163
aV1918
p164
aV1
aV1
aV-
aV-
aV0.7
p165
aV80.4
p166
aV2.9
p167
aV-
aV6.87
p168
aa(lp169
V2014/2015
p170
aVChelsea
p171
aVUCL
p172
aV3(1)
p173
aV306
p174
aV-
aV-
aV-
aV-
aV0.5
p175
aV91
p176
aV1.3
p177
aV-
aV7.02
p178
aa(lp179
V2014/2015
p180
aVChelsea
p181
aVEPL
p182
aV7(8)
p183
aV644
p184
aV-
aV-
aV-
aV-
aV0.1
p185
aV80.6
p186
aV1.5
p187
aV-
aV6.60
p188
aa(lp189
V2013/2014
p190
aVSaint-Etienne
p191
aVFL1
p192
aV17(7)
p193
aV1580
p194
aV-
aV1
aV-
aV1
aV0.4
p195
aV83.4
p196
aV2.3
p197
aV3
aV6.79
p198
aa(lp199
V2012/2013
p200
aVSaint-Etienne
p201
aVFL1
p202
aV18
p203
aV1550
p204
aV2
aV-
aV1
aV-
aV0.8
p205
aV86.1
p206
aV2.4
p207
aV-
aV7.05
p208
aa(lp209
V2011/2012
p210
aVSaint-Etienne
p211
aVFL1
p212
aV14(7)
p213
aV1469
p214
aV2
aV-
aV3
aV-
aV0.3
p215
aV83.7
p216
aV1.5
p217
aV1
aV6.69
p218
aa(lp219
VTotal / Average
p220
aV
aV
aV167
p221
aV11973
p222
aV7
aV4
aV6
aV1
aV0.5
p223
aV82.2
p224
aV2.2
p225
aV7
aV6.84
p226
aasS'defensive_data'
p227
(lp228
(lp229
a(lp230
V2018/2019
p231
aVEverton
p232
aVEPL
p233
aV10(3)
p234
aV903
p235
aV-
aV1
aV-
aV-
aV0.6
p236
aV87.9
p237
aV1.6
p238
aV-
aV6.54
p239
aa(lp240
V2017/2018
p241
aVStoke
p242
aVEPL
p243
aV32(2)
p244
aV2888
p245
aV1
aV-
aV1
aV-
aV0.6
p246
aV78.3
p247
aV3.2
p248
aV3
aV7.12
p249
aa(lp250
V2016/2017
p251
aVChelsea
p252
aVEPL
p253
aV3(6)
p254
aV247
p255
aV-
aV1
aV-
aV-
aV0.1
p256
aV80.5
p257
aV0.6
p258
aV-
aV6.23
p259
aa(lp260
V2015/2016
p261
aVChelsea
p262
aVUCL
p263
aV5(1)
p264
aV468
p265
aV1
aV-
aV1
aV-
aV0.3
p266
aV78.8
p267
aV2
aV-
aV7.16
p268
aa(lp269
V2015/2016
p270
aVChelsea
p271
aVEPL
p272
aV21(2)
p273
aV1918
p274
aV1
aV1
aV-
aV-
aV0.7
p275
aV80.4
p276
aV2.9
p277
aV-
aV6.87
p278
aa(lp279
V2014/2015
p280
aVChelsea
p281
aVUCL
p282
aV3(1)
p283
aV306
p284
aV-
aV-
aV-
aV-
aV0.5
p285
aV91
p286
aV1.3
p287
aV-
aV7.02
p288
aa(lp289
V2014/2015
p290
aVChelsea
p291
aVEPL
p292
aV7(8)
p293
aV644
p294
aV-
aV-
aV-
aV-
aV0.1
p295
aV80.6
p296
aV1.5
p297
aV-
aV6.60
p298
aa(lp299
V2013/2014
p300
aVSaint-Etienne
p301
aVFL1
p302
aV17(7)
p303
aV1580
p304
aV-
aV1
aV-
aV1
aV0.4
p305
aV83.4
p306
aV2.3
p307
aV3
aV6.79
p308
aa(lp309
V2012/2013
p310
aVSaint-Etienne
p311
aVFL1
p312
aV18
p313
aV1550
p314
aV2
aV-
aV1
aV-
aV0.8
p315
aV86.1
p316
aV2.4
p317
aV-
aV7.05
p318
aa(lp319
V2011/2012
p320
aVSaint-Etienne
p321
aVFL1
p322
aV14(7)
p323
aV1469
p324
aV2
aV-
aV3
aV-
aV0.3
p325
aV83.7
p326
aV1.5
p327
aV1
aV6.69
p328
aa(lp329
VTotal / Average
p330
aV
aV
aV167
p331
aV11973
p332
aV7
aV4
aV6
aV1
aV0.5
p333
aV82.2
p334
aV2.2
p335
aV7
aV6.84
p336
aasS'sumary_data'
p337
(lp338
(lp339
a(lp340
V2018/2019
p341
aVEverton
p342
aVEPL
p343
aV10(3)
p344
aV903
p345
aV-
aV1
aV-
aV-
aV0.6
p346
aV87.9
p347
aV1.6
p348
aV-
aV6.54
p349
aa(lp350
V2017/2018
p351
aVStoke
p352
aVEPL
p353
aV32(2)
p354
aV2888
p355
aV1
aV-
aV1
aV-
aV0.6
p356
aV78.3
p357
aV3.2
p358
aV3
aV7.12
p359
aa(lp360
V2016/2017
p361
aVChelsea
p362
aVEPL
p363
aV3(6)
p364
aV247
p365
aV-
aV1
aV-
aV-
aV0.1
p366
aV80.5
p367
aV0.6
p368
aV-
aV6.23
p369
aa(lp370
V2015/2016
p371
aVChelsea
p372
aVUCL
p373
aV5(1)
p374
aV468
p375
aV1
aV-
aV1
aV-
aV0.3
p376
aV78.8
p377
aV2
aV-
aV7.16
p378
aa(lp379
V2015/2016
p380
aVChelsea
p381
aVEPL
p382
aV21(2)
p383
aV1918
p384
aV1
aV1
aV-
aV-
aV0.7
p385
aV80.4
p386
aV2.9
p387
aV-
aV6.87
p388
aa(lp389
V2014/2015
p390
aVChelsea
p391
aVUCL
p392
aV3(1)
p393
aV306
p394
aV-
aV-
aV-
aV-
aV0.5
p395
aV91
p396
aV1.3
p397
aV-
aV7.02
p398
aa(lp399
V2014/2015
p400
aVChelsea
p401
aVEPL
p402
aV7(8)
p403
aV644
p404
aV-
aV-
aV-
aV-
aV0.1
p405
aV80.6
p406
aV1.5
p407
aV-
aV6.60
p408
aa(lp409
V2013/2014
p410
aVSaint-Etienne
p411
aVFL1
p412
aV17(7)
p413
aV1580
p414
aV-
aV1
aV-
aV1
aV0.4
p415
aV83.4
p416
aV2.3
p417
aV3
aV6.79
p418
aa(lp419
V2012/2013
p420
aVSaint-Etienne
p421
aVFL1
p422
aV18
p423
aV1550
p424
aV2
aV-
aV1
aV-
aV0.8
p425
aV86.1
p426
aV2.4
p427
aV-
aV7.05
p428
aa(lp429
V2011/2012
p430
aVSaint-Etienne
p431
aVFL1
p432
aV14(7)
p433
aV1469
p434
aV2
aV-
aV3
aV-
aV0.3
p435
aV83.7
p436
aV1.5
p437
aV1
aV6.69
p438
aa(lp439
VTotal / Average
p440
aV
aV
aV167
p441
aV11973
p442
aV7
aV4
aV6
aV1
aV0.5
p443
aV82.2
p444
aV2.2
p445
aV7
aV6.84
p446
aasS'id'
p447
V106086
p448
sb.