(i__main__
Player
p1
(dp2
S'name'
p3
VLaurent Depoitre 
p4
sS'offensive_data'
p5
(lp6
(lp7
a(lp8
V2018/2019
p9
aVHuddersfield
p10
aVEPL
p11
aV8(8)
p12
aV851
p13
aV-
aV1
aV1
aV-
aV1.5
p14
aV62.9
p15
aV4.1
p16
aV-
aV6.24
p17
aa(lp18
V2017/2018
p19
aVHuddersfield
p20
aVEPL
p21
aV18(15)
p22
aV1811
p23
aV6
aV1
aV1
aV-
aV0.8
p24
aV57.1
p25
aV3.8
p26
aV4
aV6.58
p27
aa(lp28
V2016/2017
p29
aVFC Porto
p30
aVPLN
p31
aV2(5)
p32
aV245
p33
aV1
aV1
aV-
aV-
aV0.6
p34
aV67.7
p35
aV1.4
p36
aV-
aV6.48
p37
aa(lp38
V2016/2017
p39
aVFC Porto
p40
aVUCL
p41
aV0(1)
p42
aV28
p43
aV-
aV-
aV-
aV-
aV1
aV62.5
p44
aV-
aV-
aV6.11
p45
aa(lp46
V2015/2016
p47
aVGent
p48
aVUCL
p49
aV7
aV620
p50
aV1
aV-
aV2
aV-
aV1.7
p51
aV69.6
p52
aV2.6
p53
aV-
aV6.76
p54
aa(lp55
VTotal / Average
p56
aV
aV
aV64
p57
aV3555
p58
aV8
aV3
aV4
aV0
aV1
aV61.2
p59
aV3.4
p60
aV4
aV6.49
p61
aasS'url'
p62
S'https://www.whoscored.com/Players/106880/History/'
p63
sS'passing_data'
p64
(lp65
(lp66
a(lp67
V2018/2019
p68
aVHuddersfield
p69
aVEPL
p70
aV8(8)
p71
aV851
p72
aV-
aV1
aV1
aV-
aV1.5
p73
aV62.9
p74
aV4.1
p75
aV-
aV6.24
p76
aa(lp77
V2017/2018
p78
aVHuddersfield
p79
aVEPL
p80
aV18(15)
p81
aV1811
p82
aV6
aV1
aV1
aV-
aV0.8
p83
aV57.1
p84
aV3.8
p85
aV4
aV6.58
p86
aa(lp87
V2016/2017
p88
aVFC Porto
p89
aVPLN
p90
aV2(5)
p91
aV245
p92
aV1
aV1
aV-
aV-
aV0.6
p93
aV67.7
p94
aV1.4
p95
aV-
aV6.48
p96
aa(lp97
V2016/2017
p98
aVFC Porto
p99
aVUCL
p100
aV0(1)
p101
aV28
p102
aV-
aV-
aV-
aV-
aV1
aV62.5
p103
aV-
aV-
aV6.11
p104
aa(lp105
V2015/2016
p106
aVGent
p107
aVUCL
p108
aV7
aV620
p109
aV1
aV-
aV2
aV-
aV1.7
p110
aV69.6
p111
aV2.6
p112
aV-
aV6.76
p113
aa(lp114
VTotal / Average
p115
aV
aV
aV64
p116
aV3555
p117
aV8
aV3
aV4
aV0
aV1
aV61.2
p118
aV3.4
p119
aV4
aV6.49
p120
aasS'defensive_data'
p121
(lp122
(lp123
a(lp124
V2018/2019
p125
aVHuddersfield
p126
aVEPL
p127
aV8(8)
p128
aV851
p129
aV-
aV1
aV1
aV-
aV1.5
p130
aV62.9
p131
aV4.1
p132
aV-
aV6.24
p133
aa(lp134
V2017/2018
p135
aVHuddersfield
p136
aVEPL
p137
aV18(15)
p138
aV1811
p139
aV6
aV1
aV1
aV-
aV0.8
p140
aV57.1
p141
aV3.8
p142
aV4
aV6.58
p143
aa(lp144
V2016/2017
p145
aVFC Porto
p146
aVPLN
p147
aV2(5)
p148
aV245
p149
aV1
aV1
aV-
aV-
aV0.6
p150
aV67.7
p151
aV1.4
p152
aV-
aV6.48
p153
aa(lp154
V2016/2017
p155
aVFC Porto
p156
aVUCL
p157
aV0(1)
p158
aV28
p159
aV-
aV-
aV-
aV-
aV1
aV62.5
p160
aV-
aV-
aV6.11
p161
aa(lp162
V2015/2016
p163
aVGent
p164
aVUCL
p165
aV7
aV620
p166
aV1
aV-
aV2
aV-
aV1.7
p167
aV69.6
p168
aV2.6
p169
aV-
aV6.76
p170
aa(lp171
VTotal / Average
p172
aV
aV
aV64
p173
aV3555
p174
aV8
aV3
aV4
aV0
aV1
aV61.2
p175
aV3.4
p176
aV4
aV6.49
p177
aasS'sumary_data'
p178
(lp179
(lp180
a(lp181
V2018/2019
p182
aVHuddersfield
p183
aVEPL
p184
aV8(8)
p185
aV851
p186
aV-
aV1
aV1
aV-
aV1.5
p187
aV62.9
p188
aV4.1
p189
aV-
aV6.24
p190
aa(lp191
V2017/2018
p192
aVHuddersfield
p193
aVEPL
p194
aV18(15)
p195
aV1811
p196
aV6
aV1
aV1
aV-
aV0.8
p197
aV57.1
p198
aV3.8
p199
aV4
aV6.58
p200
aa(lp201
V2016/2017
p202
aVFC Porto
p203
aVPLN
p204
aV2(5)
p205
aV245
p206
aV1
aV1
aV-
aV-
aV0.6
p207
aV67.7
p208
aV1.4
p209
aV-
aV6.48
p210
aa(lp211
V2016/2017
p212
aVFC Porto
p213
aVUCL
p214
aV0(1)
p215
aV28
p216
aV-
aV-
aV-
aV-
aV1
aV62.5
p217
aV-
aV-
aV6.11
p218
aa(lp219
V2015/2016
p220
aVGent
p221
aVUCL
p222
aV7
aV620
p223
aV1
aV-
aV2
aV-
aV1.7
p224
aV69.6
p225
aV2.6
p226
aV-
aV6.76
p227
aa(lp228
VTotal / Average
p229
aV
aV
aV64
p230
aV3555
p231
aV8
aV3
aV4
aV0
aV1
aV61.2
p232
aV3.4
p233
aV4
aV6.49
p234
aasS'id'
p235
V106880
p236
sb.