(i__main__
Player
p1
(dp2
S'name'
p3
VJamie Vardy 
p4
sS'offensive_data'
p5
(lp6
(lp7
a(lp8
V2018/2019
p9
aVLeicester
p10
aVEPL
p11
aV10(3)
p12
aV939
p13
aV5
aV1
aV-
aV1
aV2.2
p14
aV57.6
p15
aV2.2
p16
aV1
aV6.69
p17
aa(lp18
V2017/2018
p19
aVLeicester
p20
aVEPL
p21
aV37
p22
aV3258
p23
aV20
p24
aV1
aV3
aV-
aV1.9
p25
aV60.5
p26
aV2.1
p27
aV-
aV6.98
p28
aa(lp29
V2016/2017
p30
aVLeicester
p31
aVUCL
p32
aV9
aV772
p33
aV2
aV-
aV2
aV-
aV1.8
p34
aV61
p35
aV2.4
p36
aV-
aV6.87
p37
aa(lp38
V2016/2017
p39
aVLeicester
p40
aVEPL
p41
aV33(2)
p42
aV2810
p43
aV13
p44
aV5
aV2
aV1
aV1.5
p45
aV62.5
p46
aV2.6
p47
aV3
aV6.83
p48
aa(lp49
V2018
p50
aVEngland
p51
aVWC
p52
aV1(3)
p53
aV157
p54
aV-
aV-
aV-
aV-
aV0.5
p55
aV65
p56
aV1.5
p57
aV-
aV6.17
p58
aa(lp59
V2015/2016
p60
aVLeicester
p61
aVEPL
p62
aV36
p63
aV3140
p64
aV24
p65
aV6
aV5
aV1
aV3.2
p66
aV65.8
p67
aV2.6
p68
aV3
aV7.51
p69
aa(lp70
V2014/2015
p71
aVLeicester
p72
aVEPL
p73
aV26(8)
p74
aV2247
p75
aV5
aV8
aV5
aV-
aV1.4
p76
aV64.3
p77
aV1.9
p78
aV2
aV6.80
p79
aa(lp80
V2016
p81
aVEngland
p82
aVUEC
p83
aV1(2)
p84
aV166
p85
aV1
aV-
aV-
aV-
aV1.7
p86
aV69.2
p87
aV1.7
p88
aV-
aV6.61
p89
aa(lp90
V2013/2014
p91
aVLeicester
p92
aVEC
p93
aV36(1)
p94
aV2924
p95
aV16
p96
aV4
aV8
aV-
aV2.2
p97
aV68.6
p98
aV1.6
p99
aV3
aV7.15
p100
aa(lp101
VTotal / Average
p102
aV
aV
aV208
p103
aV16413
p104
aV86
p105
aV25
p106
aV25
p107
aV3
aV2
aV63.8
p108
aV2.1
p109
aV12
p110
aV7.00
p111
aasS'url'
p112
S'https://www.whoscored.com/Players/106981/History/'
p113
sS'passing_data'
p114
(lp115
(lp116
a(lp117
V2018/2019
p118
aVLeicester
p119
aVEPL
p120
aV10(3)
p121
aV939
p122
aV5
aV1
aV-
aV1
aV2.2
p123
aV57.6
p124
aV2.2
p125
aV1
aV6.69
p126
aa(lp127
V2017/2018
p128
aVLeicester
p129
aVEPL
p130
aV37
p131
aV3258
p132
aV20
p133
aV1
aV3
aV-
aV1.9
p134
aV60.5
p135
aV2.1
p136
aV-
aV6.98
p137
aa(lp138
V2016/2017
p139
aVLeicester
p140
aVUCL
p141
aV9
aV772
p142
aV2
aV-
aV2
aV-
aV1.8
p143
aV61
p144
aV2.4
p145
aV-
aV6.87
p146
aa(lp147
V2016/2017
p148
aVLeicester
p149
aVEPL
p150
aV33(2)
p151
aV2810
p152
aV13
p153
aV5
aV2
aV1
aV1.5
p154
aV62.5
p155
aV2.6
p156
aV3
aV6.83
p157
aa(lp158
V2018
p159
aVEngland
p160
aVWC
p161
aV1(3)
p162
aV157
p163
aV-
aV-
aV-
aV-
aV0.5
p164
aV65
p165
aV1.5
p166
aV-
aV6.17
p167
aa(lp168
V2015/2016
p169
aVLeicester
p170
aVEPL
p171
aV36
p172
aV3140
p173
aV24
p174
aV6
aV5
aV1
aV3.2
p175
aV65.8
p176
aV2.6
p177
aV3
aV7.51
p178
aa(lp179
V2014/2015
p180
aVLeicester
p181
aVEPL
p182
aV26(8)
p183
aV2247
p184
aV5
aV8
aV5
aV-
aV1.4
p185
aV64.3
p186
aV1.9
p187
aV2
aV6.80
p188
aa(lp189
V2016
p190
aVEngland
p191
aVUEC
p192
aV1(2)
p193
aV166
p194
aV1
aV-
aV-
aV-
aV1.7
p195
aV69.2
p196
aV1.7
p197
aV-
aV6.61
p198
aa(lp199
V2013/2014
p200
aVLeicester
p201
aVEC
p202
aV36(1)
p203
aV2924
p204
aV16
p205
aV4
aV8
aV-
aV2.2
p206
aV68.6
p207
aV1.6
p208
aV3
aV7.15
p209
aa(lp210
VTotal / Average
p211
aV
aV
aV208
p212
aV16413
p213
aV86
p214
aV25
p215
aV25
p216
aV3
aV2
aV63.8
p217
aV2.1
p218
aV12
p219
aV7.00
p220
aasS'defensive_data'
p221
(lp222
(lp223
a(lp224
V2018/2019
p225
aVLeicester
p226
aVEPL
p227
aV10(3)
p228
aV939
p229
aV5
aV1
aV-
aV1
aV2.2
p230
aV57.6
p231
aV2.2
p232
aV1
aV6.69
p233
aa(lp234
V2017/2018
p235
aVLeicester
p236
aVEPL
p237
aV37
p238
aV3258
p239
aV20
p240
aV1
aV3
aV-
aV1.9
p241
aV60.5
p242
aV2.1
p243
aV-
aV6.98
p244
aa(lp245
V2016/2017
p246
aVLeicester
p247
aVUCL
p248
aV9
aV772
p249
aV2
aV-
aV2
aV-
aV1.8
p250
aV61
p251
aV2.4
p252
aV-
aV6.87
p253
aa(lp254
V2016/2017
p255
aVLeicester
p256
aVEPL
p257
aV33(2)
p258
aV2810
p259
aV13
p260
aV5
aV2
aV1
aV1.5
p261
aV62.5
p262
aV2.6
p263
aV3
aV6.83
p264
aa(lp265
V2018
p266
aVEngland
p267
aVWC
p268
aV1(3)
p269
aV157
p270
aV-
aV-
aV-
aV-
aV0.5
p271
aV65
p272
aV1.5
p273
aV-
aV6.17
p274
aa(lp275
V2015/2016
p276
aVLeicester
p277
aVEPL
p278
aV36
p279
aV3140
p280
aV24
p281
aV6
aV5
aV1
aV3.2
p282
aV65.8
p283
aV2.6
p284
aV3
aV7.51
p285
aa(lp286
V2014/2015
p287
aVLeicester
p288
aVEPL
p289
aV26(8)
p290
aV2247
p291
aV5
aV8
aV5
aV-
aV1.4
p292
aV64.3
p293
aV1.9
p294
aV2
aV6.80
p295
aa(lp296
V2016
p297
aVEngland
p298
aVUEC
p299
aV1(2)
p300
aV166
p301
aV1
aV-
aV-
aV-
aV1.7
p302
aV69.2
p303
aV1.7
p304
aV-
aV6.61
p305
aa(lp306
V2013/2014
p307
aVLeicester
p308
aVEC
p309
aV36(1)
p310
aV2924
p311
aV16
p312
aV4
aV8
aV-
aV2.2
p313
aV68.6
p314
aV1.6
p315
aV3
aV7.15
p316
aa(lp317
VTotal / Average
p318
aV
aV
aV208
p319
aV16413
p320
aV86
p321
aV25
p322
aV25
p323
aV3
aV2
aV63.8
p324
aV2.1
p325
aV12
p326
aV7.00
p327
aasS'sumary_data'
p328
(lp329
(lp330
a(lp331
V2018/2019
p332
aVLeicester
p333
aVEPL
p334
aV10(3)
p335
aV939
p336
aV5
aV1
aV-
aV1
aV2.2
p337
aV57.6
p338
aV2.2
p339
aV1
aV6.69
p340
aa(lp341
V2017/2018
p342
aVLeicester
p343
aVEPL
p344
aV37
p345
aV3258
p346
aV20
p347
aV1
aV3
aV-
aV1.9
p348
aV60.5
p349
aV2.1
p350
aV-
aV6.98
p351
aa(lp352
V2016/2017
p353
aVLeicester
p354
aVUCL
p355
aV9
aV772
p356
aV2
aV-
aV2
aV-
aV1.8
p357
aV61
p358
aV2.4
p359
aV-
aV6.87
p360
aa(lp361
V2016/2017
p362
aVLeicester
p363
aVEPL
p364
aV33(2)
p365
aV2810
p366
aV13
p367
aV5
aV2
aV1
aV1.5
p368
aV62.5
p369
aV2.6
p370
aV3
aV6.83
p371
aa(lp372
V2018
p373
aVEngland
p374
aVWC
p375
aV1(3)
p376
aV157
p377
aV-
aV-
aV-
aV-
aV0.5
p378
aV65
p379
aV1.5
p380
aV-
aV6.17
p381
aa(lp382
V2015/2016
p383
aVLeicester
p384
aVEPL
p385
aV36
p386
aV3140
p387
aV24
p388
aV6
aV5
aV1
aV3.2
p389
aV65.8
p390
aV2.6
p391
aV3
aV7.51
p392
aa(lp393
V2014/2015
p394
aVLeicester
p395
aVEPL
p396
aV26(8)
p397
aV2247
p398
aV5
aV8
aV5
aV-
aV1.4
p399
aV64.3
p400
aV1.9
p401
aV2
aV6.80
p402
aa(lp403
V2016
p404
aVEngland
p405
aVUEC
p406
aV1(2)
p407
aV166
p408
aV1
aV-
aV-
aV-
aV1.7
p409
aV69.2
p410
aV1.7
p411
aV-
aV6.61
p412
aa(lp413
V2013/2014
p414
aVLeicester
p415
aVEC
p416
aV36(1)
p417
aV2924
p418
aV16
p419
aV4
aV8
aV-
aV2.2
p420
aV68.6
p421
aV1.6
p422
aV3
aV7.15
p423
aa(lp424
VTotal / Average
p425
aV
aV
aV208
p426
aV16413
p427
aV86
p428
aV25
p429
aV25
p430
aV3
aV2
aV63.8
p431
aV2.1
p432
aV12
p433
aV7.00
p434
aasS'id'
p435
V106981
p436
sb.