(i__main__
Player
p1
(dp2
S'name'
p3
VJorginho 
p4
sS'offensive_data'
p5
(lp6
(lp7
a(lp8
V2018/2019
p9
aVChelsea
p10
aVEPL
p11
aV16
p12
aV1392
p13
aV1
aV-
aV3
aV-
aV0.3
p14
aV91
p15
aV0.3
p16
aV-
aV6.79
p17
aa(lp18
V2018/2019
p19
aVChelsea
p20
aVUEL
p21
aV2
aV155
p22
aV-
aV-
aV-
aV-
aV0.5
p23
aV89.4
p24
aV-
aV-
aV6.99
p25
aa(lp26
V2018/2019
p27
aVItaly
p28
aVUNL
p29
aV4
aV360
p30
aV1
aV-
aV2
aV-
aV1.3
p31
aV89.3
p32
aV0.3
p33
aV-
aV7.13
p34
aa(lp35
V2017/2018
p36
aVNapoli
p37
aVISA
p38
aV33
p39
aV2665
p40
aV2
aV4
aV5
aV-
aV0.5
p41
aV89.5
p42
aV0.5
p43
aV-
aV7.02
p44
aa(lp45
V2017/2018
p46
aVNapoli
p47
aVUEL
p48
aV0(1)
p49
aV8
aV-
aV-
aV-
aV-
aV-
aV92.3
p50
aV-
aV-
aV6.42
p51
aa(lp52
V2017/2018
p53
aVNapoli
p54
aVUCL
p55
aV2
aV162
p56
aV1
aV-
aV-
aV-
aV1
aV84.9
p57
aV-
aV-
aV7.38
p58
aa(lp59
V2016/2017
p60
aVNapoli
p61
aVISA
p62
aV27
p63
aV2148
p64
aV-
aV3
aV3
aV-
aV0.9
p65
aV90.5
p66
aV0.5
p67
aV1
aV7.24
p68
aa(lp69
V2016/2017
p70
aVNapoli
p71
aVUCL
p72
aV4
aV329
p73
aV-
aV-
aV1
aV-
aV0.3
p74
aV91.1
p75
aV0.5
p76
aV-
aV6.34
p77
aa(lp78
V2015/2016
p79
aVNapoli
p80
aVISA
p81
aV32(3)
p82
aV2913
p83
aV-
aV4
aV10
p84
aV1
aV0.2
p85
aV90.9
p86
aV0.6
p87
aV1
aV7.22
p88
aa(lp89
V2015/2016
p90
aVNapoli
p91
aVUEL
p92
aV1(1)
p93
aV106
p94
aV-
aV2
aV1
aV-
aV0.5
p95
aV94.8
p96
aV-
aV-
aV7.29
p97
aa(lp98
V2014/2015
p99
aVNapoli
p100
aVISA
p101
aV14(9)
p102
aV1284
p103
aV-
aV-
aV5
aV-
aV0.3
p104
aV89.2
p105
aV0.3
p106
aV-
aV6.55
p107
aa(lp108
V2014/2015
p109
aVNapoli
p110
aVUEL
p111
aV6
aV511
p112
aV-
aV-
aV1
aV-
aV0.3
p113
aV86.4
p114
aV0.3
p115
aV-
aV6.91
p116
aa(lp117
V2013/2014
p118
aVVerona
p119
aVISA
p120
aV18
p121
aV1611
p122
aV7
aV3
aV3
aV-
aV0.7
p123
aV86.1
p124
aV0.7
p125
aV-
aV7.28
p126
aa(lp127
V2013/2014
p128
aVNapoli
p129
aVISA
p130
aV12(3)
p131
aV1124
p132
aV-
aV1
aV4
aV-
aV0.3
p133
aV89.6
p134
aV0.1
p135
aV-
aV6.85
p136
aa(lp137
VTotal / Average
p138
aV
aV
aV188
p139
aV14768
p140
aV12
p141
aV17
p142
aV38
p143
aV1
aV0.5
p144
aV89.6
p145
aV0.4
p146
aV2
aV7.01
p147
aasS'url'
p148
S'https://www.whoscored.com/Players/106968/History/'
p149
sS'passing_data'
p150
(lp151
(lp152
a(lp153
V2018/2019
p154
aVChelsea
p155
aVEPL
p156
aV16
p157
aV1392
p158
aV1
aV-
aV3
aV-
aV0.3
p159
aV91
p160
aV0.3
p161
aV-
aV6.79
p162
aa(lp163
V2018/2019
p164
aVChelsea
p165
aVUEL
p166
aV2
aV155
p167
aV-
aV-
aV-
aV-
aV0.5
p168
aV89.4
p169
aV-
aV-
aV6.99
p170
aa(lp171
V2018/2019
p172
aVItaly
p173
aVUNL
p174
aV4
aV360
p175
aV1
aV-
aV2
aV-
aV1.3
p176
aV89.3
p177
aV0.3
p178
aV-
aV7.13
p179
aa(lp180
V2017/2018
p181
aVNapoli
p182
aVISA
p183
aV33
p184
aV2665
p185
aV2
aV4
aV5
aV-
aV0.5
p186
aV89.5
p187
aV0.5
p188
aV-
aV7.02
p189
aa(lp190
V2017/2018
p191
aVNapoli
p192
aVUEL
p193
aV0(1)
p194
aV8
aV-
aV-
aV-
aV-
aV-
aV92.3
p195
aV-
aV-
aV6.42
p196
aa(lp197
V2017/2018
p198
aVNapoli
p199
aVUCL
p200
aV2
aV162
p201
aV1
aV-
aV-
aV-
aV1
aV84.9
p202
aV-
aV-
aV7.38
p203
aa(lp204
V2016/2017
p205
aVNapoli
p206
aVISA
p207
aV27
p208
aV2148
p209
aV-
aV3
aV3
aV-
aV0.9
p210
aV90.5
p211
aV0.5
p212
aV1
aV7.24
p213
aa(lp214
V2016/2017
p215
aVNapoli
p216
aVUCL
p217
aV4
aV329
p218
aV-
aV-
aV1
aV-
aV0.3
p219
aV91.1
p220
aV0.5
p221
aV-
aV6.34
p222
aa(lp223
V2015/2016
p224
aVNapoli
p225
aVISA
p226
aV32(3)
p227
aV2913
p228
aV-
aV4
aV10
p229
aV1
aV0.2
p230
aV90.9
p231
aV0.6
p232
aV1
aV7.22
p233
aa(lp234
V2015/2016
p235
aVNapoli
p236
aVUEL
p237
aV1(1)
p238
aV106
p239
aV-
aV2
aV1
aV-
aV0.5
p240
aV94.8
p241
aV-
aV-
aV7.29
p242
aa(lp243
V2014/2015
p244
aVNapoli
p245
aVISA
p246
aV14(9)
p247
aV1284
p248
aV-
aV-
aV5
aV-
aV0.3
p249
aV89.2
p250
aV0.3
p251
aV-
aV6.55
p252
aa(lp253
V2014/2015
p254
aVNapoli
p255
aVUEL
p256
aV6
aV511
p257
aV-
aV-
aV1
aV-
aV0.3
p258
aV86.4
p259
aV0.3
p260
aV-
aV6.91
p261
aa(lp262
V2013/2014
p263
aVVerona
p264
aVISA
p265
aV18
p266
aV1611
p267
aV7
aV3
aV3
aV-
aV0.7
p268
aV86.1
p269
aV0.7
p270
aV-
aV7.28
p271
aa(lp272
V2013/2014
p273
aVNapoli
p274
aVISA
p275
aV12(3)
p276
aV1124
p277
aV-
aV1
aV4
aV-
aV0.3
p278
aV89.6
p279
aV0.1
p280
aV-
aV6.85
p281
aa(lp282
VTotal / Average
p283
aV
aV
aV188
p284
aV14768
p285
aV12
p286
aV17
p287
aV38
p288
aV1
aV0.5
p289
aV89.6
p290
aV0.4
p291
aV2
aV7.01
p292
aasS'defensive_data'
p293
(lp294
(lp295
a(lp296
V2018/2019
p297
aVChelsea
p298
aVEPL
p299
aV16
p300
aV1392
p301
aV1
aV-
aV3
aV-
aV0.3
p302
aV91
p303
aV0.3
p304
aV-
aV6.79
p305
aa(lp306
V2018/2019
p307
aVChelsea
p308
aVUEL
p309
aV2
aV155
p310
aV-
aV-
aV-
aV-
aV0.5
p311
aV89.4
p312
aV-
aV-
aV6.99
p313
aa(lp314
V2018/2019
p315
aVItaly
p316
aVUNL
p317
aV4
aV360
p318
aV1
aV-
aV2
aV-
aV1.3
p319
aV89.3
p320
aV0.3
p321
aV-
aV7.13
p322
aa(lp323
V2017/2018
p324
aVNapoli
p325
aVISA
p326
aV33
p327
aV2665
p328
aV2
aV4
aV5
aV-
aV0.5
p329
aV89.5
p330
aV0.5
p331
aV-
aV7.02
p332
aa(lp333
V2017/2018
p334
aVNapoli
p335
aVUEL
p336
aV0(1)
p337
aV8
aV-
aV-
aV-
aV-
aV-
aV92.3
p338
aV-
aV-
aV6.42
p339
aa(lp340
V2017/2018
p341
aVNapoli
p342
aVUCL
p343
aV2
aV162
p344
aV1
aV-
aV-
aV-
aV1
aV84.9
p345
aV-
aV-
aV7.38
p346
aa(lp347
V2016/2017
p348
aVNapoli
p349
aVISA
p350
aV27
p351
aV2148
p352
aV-
aV3
aV3
aV-
aV0.9
p353
aV90.5
p354
aV0.5
p355
aV1
aV7.24
p356
aa(lp357
V2016/2017
p358
aVNapoli
p359
aVUCL
p360
aV4
aV329
p361
aV-
aV-
aV1
aV-
aV0.3
p362
aV91.1
p363
aV0.5
p364
aV-
aV6.34
p365
aa(lp366
V2015/2016
p367
aVNapoli
p368
aVISA
p369
aV32(3)
p370
aV2913
p371
aV-
aV4
aV10
p372
aV1
aV0.2
p373
aV90.9
p374
aV0.6
p375
aV1
aV7.22
p376
aa(lp377
V2015/2016
p378
aVNapoli
p379
aVUEL
p380
aV1(1)
p381
aV106
p382
aV-
aV2
aV1
aV-
aV0.5
p383
aV94.8
p384
aV-
aV-
aV7.29
p385
aa(lp386
V2014/2015
p387
aVNapoli
p388
aVISA
p389
aV14(9)
p390
aV1284
p391
aV-
aV-
aV5
aV-
aV0.3
p392
aV89.2
p393
aV0.3
p394
aV-
aV6.55
p395
aa(lp396
V2014/2015
p397
aVNapoli
p398
aVUEL
p399
aV6
aV511
p400
aV-
aV-
aV1
aV-
aV0.3
p401
aV86.4
p402
aV0.3
p403
aV-
aV6.91
p404
aa(lp405
V2013/2014
p406
aVVerona
p407
aVISA
p408
aV18
p409
aV1611
p410
aV7
aV3
aV3
aV-
aV0.7
p411
aV86.1
p412
aV0.7
p413
aV-
aV7.28
p414
aa(lp415
V2013/2014
p416
aVNapoli
p417
aVISA
p418
aV12(3)
p419
aV1124
p420
aV-
aV1
aV4
aV-
aV0.3
p421
aV89.6
p422
aV0.1
p423
aV-
aV6.85
p424
aa(lp425
VTotal / Average
p426
aV
aV
aV188
p427
aV14768
p428
aV12
p429
aV17
p430
aV38
p431
aV1
aV0.5
p432
aV89.6
p433
aV0.4
p434
aV2
aV7.01
p435
aasS'sumary_data'
p436
(lp437
(lp438
a(lp439
V2018/2019
p440
aVChelsea
p441
aVEPL
p442
aV16
p443
aV1392
p444
aV1
aV-
aV3
aV-
aV0.3
p445
aV91
p446
aV0.3
p447
aV-
aV6.79
p448
aa(lp449
V2018/2019
p450
aVChelsea
p451
aVUEL
p452
aV2
aV155
p453
aV-
aV-
aV-
aV-
aV0.5
p454
aV89.4
p455
aV-
aV-
aV6.99
p456
aa(lp457
V2018/2019
p458
aVItaly
p459
aVUNL
p460
aV4
aV360
p461
aV1
aV-
aV2
aV-
aV1.3
p462
aV89.3
p463
aV0.3
p464
aV-
aV7.13
p465
aa(lp466
V2017/2018
p467
aVNapoli
p468
aVISA
p469
aV33
p470
aV2665
p471
aV2
aV4
aV5
aV-
aV0.5
p472
aV89.5
p473
aV0.5
p474
aV-
aV7.02
p475
aa(lp476
V2017/2018
p477
aVNapoli
p478
aVUEL
p479
aV0(1)
p480
aV8
aV-
aV-
aV-
aV-
aV-
aV92.3
p481
aV-
aV-
aV6.42
p482
aa(lp483
V2017/2018
p484
aVNapoli
p485
aVUCL
p486
aV2
aV162
p487
aV1
aV-
aV-
aV-
aV1
aV84.9
p488
aV-
aV-
aV7.38
p489
aa(lp490
V2016/2017
p491
aVNapoli
p492
aVISA
p493
aV27
p494
aV2148
p495
aV-
aV3
aV3
aV-
aV0.9
p496
aV90.5
p497
aV0.5
p498
aV1
aV7.24
p499
aa(lp500
V2016/2017
p501
aVNapoli
p502
aVUCL
p503
aV4
aV329
p504
aV-
aV-
aV1
aV-
aV0.3
p505
aV91.1
p506
aV0.5
p507
aV-
aV6.34
p508
aa(lp509
V2015/2016
p510
aVNapoli
p511
aVISA
p512
aV32(3)
p513
aV2913
p514
aV-
aV4
aV10
p515
aV1
aV0.2
p516
aV90.9
p517
aV0.6
p518
aV1
aV7.22
p519
aa(lp520
V2015/2016
p521
aVNapoli
p522
aVUEL
p523
aV1(1)
p524
aV106
p525
aV-
aV2
aV1
aV-
aV0.5
p526
aV94.8
p527
aV-
aV-
aV7.29
p528
aa(lp529
V2014/2015
p530
aVNapoli
p531
aVISA
p532
aV14(9)
p533
aV1284
p534
aV-
aV-
aV5
aV-
aV0.3
p535
aV89.2
p536
aV0.3
p537
aV-
aV6.55
p538
aa(lp539
V2014/2015
p540
aVNapoli
p541
aVUEL
p542
aV6
aV511
p543
aV-
aV-
aV1
aV-
aV0.3
p544
aV86.4
p545
aV0.3
p546
aV-
aV6.91
p547
aa(lp548
V2013/2014
p549
aVVerona
p550
aVISA
p551
aV18
p552
aV1611
p553
aV7
aV3
aV3
aV-
aV0.7
p554
aV86.1
p555
aV0.7
p556
aV-
aV7.28
p557
aa(lp558
V2013/2014
p559
aVNapoli
p560
aVISA
p561
aV12(3)
p562
aV1124
p563
aV-
aV1
aV4
aV-
aV0.3
p564
aV89.6
p565
aV0.1
p566
aV-
aV6.85
p567
aa(lp568
VTotal / Average
p569
aV
aV
aV188
p570
aV14768
p571
aV12
p572
aV17
p573
aV38
p574
aV1
aV0.5
p575
aV89.6
p576
aV0.4
p577
aV2
aV7.01
p578
aasS'id'
p579
V106968
p580
sb.