(i__main__
Player
p1
(dp2
S'name'
p3
VCharlie Taylor 
p4
sS'offensive_data'
p5
(lp6
(lp7
a(lp8
V2018/2019
p9
aVBurnley
p10
aVEPL
p11
aV14(3)
p12
aV1350
p13
aV-
aV-
aV1
aV-
aV0.1
p14
aV73.5
p15
aV1.7
p16
aV-
aV6.65
p17
aa(lp18
V2017/2018
p19
aVBurnley
p20
aVEPL
p21
aV10(1)
p22
aV949
p23
aV-
aV-
aV3
aV-
aV-
aV66.9
p24
aV2.1
p25
aV-
aV6.75
p26
aa(lp27
V2016/2017
p28
aVLeeds
p29
aVEC
p30
aV26(3)
p31
aV2349
p32
aV-
aV3
aV4
aV-
aV0.2
p33
aV77.1
p34
aV1.6
p35
aV1
aV6.86
p36
aa(lp37
V2015/2016
p38
aVLeeds
p39
aVEC
p40
aV39
p41
aV3510
p42
aV1
aV4
aV3
aV-
aV0.4
p43
aV73.8
p44
aV1.7
p45
aV5
aV7.26
p46
aa(lp47
V2014/2015
p48
aVLeeds
p49
aVEC
p50
aV22(1)
p51
aV1948
p52
aV2
aV1
aV2
aV-
aV0.6
p53
aV67.2
p54
aV1.4
p55
aV2
aV7.13
p56
aa(lp57
VTotal / Average
p58
aV
aV
aV119
p59
aV10106
p60
aV3
aV8
aV13
p61
aV0
aV0.3
p62
aV72.6
p63
aV1.7
p64
aV8
aV7.00
p65
aasS'url'
p66
S'https://www.whoscored.com/Players/107462/History/'
p67
sS'passing_data'
p68
(lp69
(lp70
a(lp71
V2018/2019
p72
aVBurnley
p73
aVEPL
p74
aV14(3)
p75
aV1350
p76
aV-
aV-
aV1
aV-
aV0.1
p77
aV73.5
p78
aV1.7
p79
aV-
aV6.65
p80
aa(lp81
V2017/2018
p82
aVBurnley
p83
aVEPL
p84
aV10(1)
p85
aV949
p86
aV-
aV-
aV3
aV-
aV-
aV66.9
p87
aV2.1
p88
aV-
aV6.75
p89
aa(lp90
V2016/2017
p91
aVLeeds
p92
aVEC
p93
aV26(3)
p94
aV2349
p95
aV-
aV3
aV4
aV-
aV0.2
p96
aV77.1
p97
aV1.6
p98
aV1
aV6.86
p99
aa(lp100
V2015/2016
p101
aVLeeds
p102
aVEC
p103
aV39
p104
aV3510
p105
aV1
aV4
aV3
aV-
aV0.4
p106
aV73.8
p107
aV1.7
p108
aV5
aV7.26
p109
aa(lp110
V2014/2015
p111
aVLeeds
p112
aVEC
p113
aV22(1)
p114
aV1948
p115
aV2
aV1
aV2
aV-
aV0.6
p116
aV67.2
p117
aV1.4
p118
aV2
aV7.13
p119
aa(lp120
VTotal / Average
p121
aV
aV
aV119
p122
aV10106
p123
aV3
aV8
aV13
p124
aV0
aV0.3
p125
aV72.6
p126
aV1.7
p127
aV8
aV7.00
p128
aasS'defensive_data'
p129
(lp130
(lp131
a(lp132
V2018/2019
p133
aVBurnley
p134
aVEPL
p135
aV14(3)
p136
aV1350
p137
aV-
aV-
aV1
aV-
aV0.1
p138
aV73.5
p139
aV1.7
p140
aV-
aV6.65
p141
aa(lp142
V2017/2018
p143
aVBurnley
p144
aVEPL
p145
aV10(1)
p146
aV949
p147
aV-
aV-
aV3
aV-
aV-
aV66.9
p148
aV2.1
p149
aV-
aV6.75
p150
aa(lp151
V2016/2017
p152
aVLeeds
p153
aVEC
p154
aV26(3)
p155
aV2349
p156
aV-
aV3
aV4
aV-
aV0.2
p157
aV77.1
p158
aV1.6
p159
aV1
aV6.86
p160
aa(lp161
V2015/2016
p162
aVLeeds
p163
aVEC
p164
aV39
p165
aV3510
p166
aV1
aV4
aV3
aV-
aV0.4
p167
aV73.8
p168
aV1.7
p169
aV5
aV7.26
p170
aa(lp171
V2014/2015
p172
aVLeeds
p173
aVEC
p174
aV22(1)
p175
aV1948
p176
aV2
aV1
aV2
aV-
aV0.6
p177
aV67.2
p178
aV1.4
p179
aV2
aV7.13
p180
aa(lp181
VTotal / Average
p182
aV
aV
aV119
p183
aV10106
p184
aV3
aV8
aV13
p185
aV0
aV0.3
p186
aV72.6
p187
aV1.7
p188
aV8
aV7.00
p189
aasS'sumary_data'
p190
(lp191
(lp192
a(lp193
V2018/2019
p194
aVBurnley
p195
aVEPL
p196
aV14(3)
p197
aV1350
p198
aV-
aV-
aV1
aV-
aV0.1
p199
aV73.5
p200
aV1.7
p201
aV-
aV6.65
p202
aa(lp203
V2017/2018
p204
aVBurnley
p205
aVEPL
p206
aV10(1)
p207
aV949
p208
aV-
aV-
aV3
aV-
aV-
aV66.9
p209
aV2.1
p210
aV-
aV6.75
p211
aa(lp212
V2016/2017
p213
aVLeeds
p214
aVEC
p215
aV26(3)
p216
aV2349
p217
aV-
aV3
aV4
aV-
aV0.2
p218
aV77.1
p219
aV1.6
p220
aV1
aV6.86
p221
aa(lp222
V2015/2016
p223
aVLeeds
p224
aVEC
p225
aV39
p226
aV3510
p227
aV1
aV4
aV3
aV-
aV0.4
p228
aV73.8
p229
aV1.7
p230
aV5
aV7.26
p231
aa(lp232
V2014/2015
p233
aVLeeds
p234
aVEC
p235
aV22(1)
p236
aV1948
p237
aV2
aV1
aV2
aV-
aV0.6
p238
aV67.2
p239
aV1.4
p240
aV2
aV7.13
p241
aa(lp242
VTotal / Average
p243
aV
aV
aV119
p244
aV10106
p245
aV3
aV8
aV13
p246
aV0
aV0.3
p247
aV72.6
p248
aV1.7
p249
aV8
aV7.00
p250
aasS'id'
p251
V107462
p252
sb.