(i__main__
Player
p1
(dp2
S'name'
p3
VAlex Pritchard 
p4
sS'offensive_data'
p5
(lp6
(lp7
a(lp8
V2018/2019
p9
aVHuddersfield
p10
aVEPL
p11
aV13(1)
p12
aV1043
p13
aV1
aV-
aV1
aV-
aV2.1
p14
aV77
p15
aV0.5
p16
aV-
aV6.39
p17
aa(lp18
V2017/2018
p19
aVNorwich
p20
aVEC
p21
aV5(3)
p22
aV473
p23
aV1
aV2
aV1
aV-
aV3.3
p24
aV78.7
p25
aV0.4
p26
aV1
aV7.10
p27
aa(lp28
V2017/2018
p29
aVHuddersfield
p30
aVEPL
p31
aV12(2)
p32
aV1003
p33
aV1
aV1
aV1
aV-
aV1.4
p34
aV71.5
p35
aV0.1
p36
aV-
aV6.70
p37
aa(lp38
V2016/2017
p39
aVNorwich
p40
aVEC
p41
aV19(11)
p42
aV1729
p43
aV6
aV7
aV1
aV-
aV2
aV78.5
p44
aV0.3
p45
aV4
aV7.00
p46
aa(lp47
V2015/2016
p48
aVWest Bromwich..
p49
aVEPL
p50
aV0(2)
p51
aV62
p52
aV-
aV-
aV-
aV-
aV1
aV81.8
p53
aV-
aV-
aV6.39
p54
aa(lp55
V2015/2016
p56
aVTottenham
p57
aVEPL
p58
aV0(1)
p59
aV5
aV-
aV-
aV-
aV-
aV-
aV100
p60
aV-
aV-
aV6.03
p61
aa(lp62
V2015
p63
aVEngland U21
p64
aVIEU
p65
aV1(1)
p66
aV66
p67
aV-
aV-
aV-
aV-
aV2
aV88.6
p68
aV-
aV-
aV6.62
p69
aa(lp70
V2014/2015
p71
aVBrentford
p72
aVEC
p73
aV45(2)
p74
aV3869
p75
aV12
p76
aV7
aV2
aV-
aV3
aV76.9
p77
aV0.1
p78
aV5
aV7.21
p79
aa(lp80
V2013/2014
p81
aVTottenham
p82
aVEPL
p83
aV0(1)
p84
aV7
aV-
aV-
aV-
aV-
aV-
aV100
p85
aV-
aV-
aV6.04
p86
aa(lp87
VTotal / Average
p88
aV
aV
aV119
p89
aV8257
p90
aV21
p91
aV17
p92
aV6
aV0
aV2.4
p93
aV77.5
p94
aV0.2
p95
aV10
p96
aV6.95
p97
aasS'url'
p98
S'https://www.whoscored.com/Players/107848/History/'
p99
sS'passing_data'
p100
(lp101
(lp102
a(lp103
V2018/2019
p104
aVHuddersfield
p105
aVEPL
p106
aV13(1)
p107
aV1043
p108
aV1
aV-
aV1
aV-
aV2.1
p109
aV77
p110
aV0.5
p111
aV-
aV6.39
p112
aa(lp113
V2017/2018
p114
aVNorwich
p115
aVEC
p116
aV5(3)
p117
aV473
p118
aV1
aV2
aV1
aV-
aV3.3
p119
aV78.7
p120
aV0.4
p121
aV1
aV7.10
p122
aa(lp123
V2017/2018
p124
aVHuddersfield
p125
aVEPL
p126
aV12(2)
p127
aV1003
p128
aV1
aV1
aV1
aV-
aV1.4
p129
aV71.5
p130
aV0.1
p131
aV-
aV6.70
p132
aa(lp133
V2016/2017
p134
aVNorwich
p135
aVEC
p136
aV19(11)
p137
aV1729
p138
aV6
aV7
aV1
aV-
aV2
aV78.5
p139
aV0.3
p140
aV4
aV7.00
p141
aa(lp142
V2015/2016
p143
aVWest Bromwich..
p144
aVEPL
p145
aV0(2)
p146
aV62
p147
aV-
aV-
aV-
aV-
aV1
aV81.8
p148
aV-
aV-
aV6.39
p149
aa(lp150
V2015/2016
p151
aVTottenham
p152
aVEPL
p153
aV0(1)
p154
aV5
aV-
aV-
aV-
aV-
aV-
aV100
p155
aV-
aV-
aV6.03
p156
aa(lp157
V2015
p158
aVEngland U21
p159
aVIEU
p160
aV1(1)
p161
aV66
p162
aV-
aV-
aV-
aV-
aV2
aV88.6
p163
aV-
aV-
aV6.62
p164
aa(lp165
V2014/2015
p166
aVBrentford
p167
aVEC
p168
aV45(2)
p169
aV3869
p170
aV12
p171
aV7
aV2
aV-
aV3
aV76.9
p172
aV0.1
p173
aV5
aV7.21
p174
aa(lp175
V2013/2014
p176
aVTottenham
p177
aVEPL
p178
aV0(1)
p179
aV7
aV-
aV-
aV-
aV-
aV-
aV100
p180
aV-
aV-
aV6.04
p181
aa(lp182
VTotal / Average
p183
aV
aV
aV119
p184
aV8257
p185
aV21
p186
aV17
p187
aV6
aV0
aV2.4
p188
aV77.5
p189
aV0.2
p190
aV10
p191
aV6.95
p192
aasS'defensive_data'
p193
(lp194
(lp195
a(lp196
V2018/2019
p197
aVHuddersfield
p198
aVEPL
p199
aV13(1)
p200
aV1043
p201
aV1
aV-
aV1
aV-
aV2.1
p202
aV77
p203
aV0.5
p204
aV-
aV6.39
p205
aa(lp206
V2017/2018
p207
aVNorwich
p208
aVEC
p209
aV5(3)
p210
aV473
p211
aV1
aV2
aV1
aV-
aV3.3
p212
aV78.7
p213
aV0.4
p214
aV1
aV7.10
p215
aa(lp216
V2017/2018
p217
aVHuddersfield
p218
aVEPL
p219
aV12(2)
p220
aV1003
p221
aV1
aV1
aV1
aV-
aV1.4
p222
aV71.5
p223
aV0.1
p224
aV-
aV6.70
p225
aa(lp226
V2016/2017
p227
aVNorwich
p228
aVEC
p229
aV19(11)
p230
aV1729
p231
aV6
aV7
aV1
aV-
aV2
aV78.5
p232
aV0.3
p233
aV4
aV7.00
p234
aa(lp235
V2015/2016
p236
aVWest Bromwich..
p237
aVEPL
p238
aV0(2)
p239
aV62
p240
aV-
aV-
aV-
aV-
aV1
aV81.8
p241
aV-
aV-
aV6.39
p242
aa(lp243
V2015/2016
p244
aVTottenham
p245
aVEPL
p246
aV0(1)
p247
aV5
aV-
aV-
aV-
aV-
aV-
aV100
p248
aV-
aV-
aV6.03
p249
aa(lp250
V2015
p251
aVEngland U21
p252
aVIEU
p253
aV1(1)
p254
aV66
p255
aV-
aV-
aV-
aV-
aV2
aV88.6
p256
aV-
aV-
aV6.62
p257
aa(lp258
V2014/2015
p259
aVBrentford
p260
aVEC
p261
aV45(2)
p262
aV3869
p263
aV12
p264
aV7
aV2
aV-
aV3
aV76.9
p265
aV0.1
p266
aV5
aV7.21
p267
aa(lp268
V2013/2014
p269
aVTottenham
p270
aVEPL
p271
aV0(1)
p272
aV7
aV-
aV-
aV-
aV-
aV-
aV100
p273
aV-
aV-
aV6.04
p274
aa(lp275
VTotal / Average
p276
aV
aV
aV119
p277
aV8257
p278
aV21
p279
aV17
p280
aV6
aV0
aV2.4
p281
aV77.5
p282
aV0.2
p283
aV10
p284
aV6.95
p285
aasS'sumary_data'
p286
(lp287
(lp288
a(lp289
V2018/2019
p290
aVHuddersfield
p291
aVEPL
p292
aV13(1)
p293
aV1043
p294
aV1
aV-
aV1
aV-
aV2.1
p295
aV77
p296
aV0.5
p297
aV-
aV6.39
p298
aa(lp299
V2017/2018
p300
aVNorwich
p301
aVEC
p302
aV5(3)
p303
aV473
p304
aV1
aV2
aV1
aV-
aV3.3
p305
aV78.7
p306
aV0.4
p307
aV1
aV7.10
p308
aa(lp309
V2017/2018
p310
aVHuddersfield
p311
aVEPL
p312
aV12(2)
p313
aV1003
p314
aV1
aV1
aV1
aV-
aV1.4
p315
aV71.5
p316
aV0.1
p317
aV-
aV6.70
p318
aa(lp319
V2016/2017
p320
aVNorwich
p321
aVEC
p322
aV19(11)
p323
aV1729
p324
aV6
aV7
aV1
aV-
aV2
aV78.5
p325
aV0.3
p326
aV4
aV7.00
p327
aa(lp328
V2015/2016
p329
aVWest Bromwich..
p330
aVEPL
p331
aV0(2)
p332
aV62
p333
aV-
aV-
aV-
aV-
aV1
aV81.8
p334
aV-
aV-
aV6.39
p335
aa(lp336
V2015/2016
p337
aVTottenham
p338
aVEPL
p339
aV0(1)
p340
aV5
aV-
aV-
aV-
aV-
aV-
aV100
p341
aV-
aV-
aV6.03
p342
aa(lp343
V2015
p344
aVEngland U21
p345
aVIEU
p346
aV1(1)
p347
aV66
p348
aV-
aV-
aV-
aV-
aV2
aV88.6
p349
aV-
aV-
aV6.62
p350
aa(lp351
V2014/2015
p352
aVBrentford
p353
aVEC
p354
aV45(2)
p355
aV3869
p356
aV12
p357
aV7
aV2
aV-
aV3
aV76.9
p358
aV0.1
p359
aV5
aV7.21
p360
aa(lp361
V2013/2014
p362
aVTottenham
p363
aVEPL
p364
aV0(1)
p365
aV7
aV-
aV-
aV-
aV-
aV-
aV100
p366
aV-
aV-
aV6.04
p367
aa(lp368
VTotal / Average
p369
aV
aV
aV119
p370
aV8257
p371
aV21
p372
aV17
p373
aV6
aV0
aV2.4
p374
aV77.5
p375
aV0.2
p376
aV10
p377
aV6.95
p378
aasS'id'
p379
V107848
p380
sb.