(i__main__
Player
p1
(dp2
S'name'
p3
VMichael Keane 
p4
sS'offensive_data'
p5
(lp6
(lp7
a(lp8
V2018/2019
p9
aVEverton
p10
aVEPL
p11
aV14
p12
aV1260
p13
aV1
aV2
aV-
aV-
aV1.4
p14
aV81.7
p15
aV5.5
p16
aV2
aV7.16
p17
aa(lp18
V2017/2018
p19
aVEverton
p20
aVUEL
p21
aV3
aV270
p22
aV-
aV-
aV-
aV-
aV1
aV75.3
p23
aV2.3
p24
aV-
aV5.94
p25
aa(lp26
V2017/2018
p27
aVEverton
p28
aVEPL
p29
aV29(1)
p30
aV2561
p31
aV-
aV1
aV3
aV-
aV0.5
p32
aV77.8
p33
aV4.3
p34
aV-
aV6.94
p35
aa(lp36
V2016/2017
p37
aVBurnley
p38
aVEPL
p39
aV35
p40
aV3150
p41
aV2
aV1
aV4
aV-
aV0.7
p42
aV72.8
p43
aV4.3
p44
aV2
aV7.13
p45
aa(lp46
V2015/2016
p47
aVBurnley
p48
aVEC
p49
aV44
p50
aV3897
p51
aV5
aV1
aV3
aV-
aV0.8
p52
aV78.8
p53
aV3.5
p54
aV2
aV7.13
p55
aa(lp56
V2014/2015
p57
aVBurnley
p58
aVEPL
p59
aV17(4)
p60
aV1595
p61
aV-
aV1
aV1
aV-
aV0.5
p62
aV77.5
p63
aV3.7
p64
aV-
aV7.04
p65
aa(lp66
V2014/2015
p67
aVManchester Un..
p68
aVEPL
p69
aV0(1)
p70
aV46
p71
aV-
aV-
aV-
aV-
aV1
aV94.1
p72
aV2
aV-
aV6.69
p73
aa(lp74
V2013/2014
p75
aVDerby
p76
aVEC
p77
aV4(3)
p78
aV444
p79
aV-
aV-
aV-
aV-
aV0.7
p80
aV83.6
p81
aV2
aV-
aV6.75
p82
aa(lp83
V2013/2014
p84
aVBlackburn
p85
aVEC
p86
aV13
p87
aV1170
p88
aV3
aV-
aV-
aV-
aV1.1
p89
aV73.1
p90
aV3.3
p91
aV-
aV7.42
p92
aa(lp93
VTotal / Average
p94
aV
aV
aV168
p95
aV14393
p96
aV11
p97
aV6
aV11
p98
aV0
aV0.8
p99
aV77.2
p100
aV3.9
p101
aV6
aV7.07
p102
aasS'url'
p103
S'https://www.whoscored.com/Players/107941/History/'
p104
sS'passing_data'
p105
(lp106
(lp107
a(lp108
V2018/2019
p109
aVEverton
p110
aVEPL
p111
aV14
p112
aV1260
p113
aV1
aV2
aV-
aV-
aV1.4
p114
aV81.7
p115
aV5.5
p116
aV2
aV7.16
p117
aa(lp118
V2017/2018
p119
aVEverton
p120
aVUEL
p121
aV3
aV270
p122
aV-
aV-
aV-
aV-
aV1
aV75.3
p123
aV2.3
p124
aV-
aV5.94
p125
aa(lp126
V2017/2018
p127
aVEverton
p128
aVEPL
p129
aV29(1)
p130
aV2561
p131
aV-
aV1
aV3
aV-
aV0.5
p132
aV77.8
p133
aV4.3
p134
aV-
aV6.94
p135
aa(lp136
V2016/2017
p137
aVBurnley
p138
aVEPL
p139
aV35
p140
aV3150
p141
aV2
aV1
aV4
aV-
aV0.7
p142
aV72.8
p143
aV4.3
p144
aV2
aV7.13
p145
aa(lp146
V2015/2016
p147
aVBurnley
p148
aVEC
p149
aV44
p150
aV3897
p151
aV5
aV1
aV3
aV-
aV0.8
p152
aV78.8
p153
aV3.5
p154
aV2
aV7.13
p155
aa(lp156
V2014/2015
p157
aVBurnley
p158
aVEPL
p159
aV17(4)
p160
aV1595
p161
aV-
aV1
aV1
aV-
aV0.5
p162
aV77.5
p163
aV3.7
p164
aV-
aV7.04
p165
aa(lp166
V2014/2015
p167
aVManchester Un..
p168
aVEPL
p169
aV0(1)
p170
aV46
p171
aV-
aV-
aV-
aV-
aV1
aV94.1
p172
aV2
aV-
aV6.69
p173
aa(lp174
V2013/2014
p175
aVDerby
p176
aVEC
p177
aV4(3)
p178
aV444
p179
aV-
aV-
aV-
aV-
aV0.7
p180
aV83.6
p181
aV2
aV-
aV6.75
p182
aa(lp183
V2013/2014
p184
aVBlackburn
p185
aVEC
p186
aV13
p187
aV1170
p188
aV3
aV-
aV-
aV-
aV1.1
p189
aV73.1
p190
aV3.3
p191
aV-
aV7.42
p192
aa(lp193
VTotal / Average
p194
aV
aV
aV168
p195
aV14393
p196
aV11
p197
aV6
aV11
p198
aV0
aV0.8
p199
aV77.2
p200
aV3.9
p201
aV6
aV7.07
p202
aasS'defensive_data'
p203
(lp204
(lp205
a(lp206
V2018/2019
p207
aVEverton
p208
aVEPL
p209
aV14
p210
aV1260
p211
aV1
aV2
aV-
aV-
aV1.4
p212
aV81.7
p213
aV5.5
p214
aV2
aV7.16
p215
aa(lp216
V2017/2018
p217
aVEverton
p218
aVUEL
p219
aV3
aV270
p220
aV-
aV-
aV-
aV-
aV1
aV75.3
p221
aV2.3
p222
aV-
aV5.94
p223
aa(lp224
V2017/2018
p225
aVEverton
p226
aVEPL
p227
aV29(1)
p228
aV2561
p229
aV-
aV1
aV3
aV-
aV0.5
p230
aV77.8
p231
aV4.3
p232
aV-
aV6.94
p233
aa(lp234
V2016/2017
p235
aVBurnley
p236
aVEPL
p237
aV35
p238
aV3150
p239
aV2
aV1
aV4
aV-
aV0.7
p240
aV72.8
p241
aV4.3
p242
aV2
aV7.13
p243
aa(lp244
V2015/2016
p245
aVBurnley
p246
aVEC
p247
aV44
p248
aV3897
p249
aV5
aV1
aV3
aV-
aV0.8
p250
aV78.8
p251
aV3.5
p252
aV2
aV7.13
p253
aa(lp254
V2014/2015
p255
aVBurnley
p256
aVEPL
p257
aV17(4)
p258
aV1595
p259
aV-
aV1
aV1
aV-
aV0.5
p260
aV77.5
p261
aV3.7
p262
aV-
aV7.04
p263
aa(lp264
V2014/2015
p265
aVManchester Un..
p266
aVEPL
p267
aV0(1)
p268
aV46
p269
aV-
aV-
aV-
aV-
aV1
aV94.1
p270
aV2
aV-
aV6.69
p271
aa(lp272
V2013/2014
p273
aVDerby
p274
aVEC
p275
aV4(3)
p276
aV444
p277
aV-
aV-
aV-
aV-
aV0.7
p278
aV83.6
p279
aV2
aV-
aV6.75
p280
aa(lp281
V2013/2014
p282
aVBlackburn
p283
aVEC
p284
aV13
p285
aV1170
p286
aV3
aV-
aV-
aV-
aV1.1
p287
aV73.1
p288
aV3.3
p289
aV-
aV7.42
p290
aa(lp291
VTotal / Average
p292
aV
aV
aV168
p293
aV14393
p294
aV11
p295
aV6
aV11
p296
aV0
aV0.8
p297
aV77.2
p298
aV3.9
p299
aV6
aV7.07
p300
aasS'sumary_data'
p301
(lp302
(lp303
a(lp304
V2018/2019
p305
aVEverton
p306
aVEPL
p307
aV14
p308
aV1260
p309
aV1
aV2
aV-
aV-
aV1.4
p310
aV81.7
p311
aV5.5
p312
aV2
aV7.16
p313
aa(lp314
V2017/2018
p315
aVEverton
p316
aVUEL
p317
aV3
aV270
p318
aV-
aV-
aV-
aV-
aV1
aV75.3
p319
aV2.3
p320
aV-
aV5.94
p321
aa(lp322
V2017/2018
p323
aVEverton
p324
aVEPL
p325
aV29(1)
p326
aV2561
p327
aV-
aV1
aV3
aV-
aV0.5
p328
aV77.8
p329
aV4.3
p330
aV-
aV6.94
p331
aa(lp332
V2016/2017
p333
aVBurnley
p334
aVEPL
p335
aV35
p336
aV3150
p337
aV2
aV1
aV4
aV-
aV0.7
p338
aV72.8
p339
aV4.3
p340
aV2
aV7.13
p341
aa(lp342
V2015/2016
p343
aVBurnley
p344
aVEC
p345
aV44
p346
aV3897
p347
aV5
aV1
aV3
aV-
aV0.8
p348
aV78.8
p349
aV3.5
p350
aV2
aV7.13
p351
aa(lp352
V2014/2015
p353
aVBurnley
p354
aVEPL
p355
aV17(4)
p356
aV1595
p357
aV-
aV1
aV1
aV-
aV0.5
p358
aV77.5
p359
aV3.7
p360
aV-
aV7.04
p361
aa(lp362
V2014/2015
p363
aVManchester Un..
p364
aVEPL
p365
aV0(1)
p366
aV46
p367
aV-
aV-
aV-
aV-
aV1
aV94.1
p368
aV2
aV-
aV6.69
p369
aa(lp370
V2013/2014
p371
aVDerby
p372
aVEC
p373
aV4(3)
p374
aV444
p375
aV-
aV-
aV-
aV-
aV0.7
p376
aV83.6
p377
aV2
aV-
aV6.75
p378
aa(lp379
V2013/2014
p380
aVBlackburn
p381
aVEC
p382
aV13
p383
aV1170
p384
aV3
aV-
aV-
aV-
aV1.1
p385
aV73.1
p386
aV3.3
p387
aV-
aV7.42
p388
aa(lp389
VTotal / Average
p390
aV
aV
aV168
p391
aV14393
p392
aV11
p393
aV6
aV11
p394
aV0
aV0.8
p395
aV77.2
p396
aV3.9
p397
aV6
aV7.07
p398
aasS'id'
p399
V107941
p400
sb.