(i__main__
Player
p1
(dp2
S'name'
p3
VJoe Ralls 
p4
sS'offensive_data'
p5
(lp6
(lp7
a(lp8
V2018/2019
p9
aVCardiff
p10
aVEPL
p11
aV12(1)
p12
aV998
p13
aV-
aV-
aV2
aV1
aV1
aV66.3
p14
aV1.5
p15
aV-
aV6.45
p16
aa(lp17
V2017/2018
p18
aVCardiff
p19
aVEC
p20
aV37
p21
aV3321
p22
aV7
aV4
aV8
aV-
aV1.5
p23
aV66.9
p24
aV1.9
p25
aV2
aV7.29
p26
aa(lp27
V2016/2017
p28
aVCardiff
p29
aVEC
p30
aV39(3)
p31
aV3378
p32
aV6
aV1
aV4
aV-
aV1.2
p33
aV74.4
p34
aV1.2
p35
aV1
aV6.77
p36
aa(lp37
V2015/2016
p38
aVCardiff
p39
aVEC
p40
aV42(1)
p41
aV3719
p42
aV1
aV7
aV5
aV-
aV1.2
p43
aV79.9
p44
aV1.1
p45
aV1
aV6.99
p46
aa(lp47
V2014/2015
p48
aVCardiff
p49
aVEC
p50
aV15(13)
p51
aV1505
p52
aV2
aV2
aV2
aV-
aV0.5
p53
aV75.4
p54
aV0.4
p55
aV-
aV6.59
p56
aa(lp57
V2013/2014
p58
aVYeovil
p59
aVEC
p60
aV33(4)
p61
aV2976
p62
aV3
aV2
aV10
p63
aV1
aV1.6
p64
aV70.8
p65
aV0.3
p66
aV1
aV6.72
p67
aa(lp68
VTotal / Average
p69
aV
aV
aV200
p70
aV15897
p71
aV19
p72
aV16
p73
aV31
p74
aV2
aV1.2
p75
aV73.1
p76
aV1
aV5
aV6.86
p77
aasS'url'
p78
S'https://www.whoscored.com/Players/108093/History/'
p79
sS'passing_data'
p80
(lp81
(lp82
a(lp83
V2018/2019
p84
aVCardiff
p85
aVEPL
p86
aV12(1)
p87
aV998
p88
aV-
aV-
aV2
aV1
aV1
aV66.3
p89
aV1.5
p90
aV-
aV6.45
p91
aa(lp92
V2017/2018
p93
aVCardiff
p94
aVEC
p95
aV37
p96
aV3321
p97
aV7
aV4
aV8
aV-
aV1.5
p98
aV66.9
p99
aV1.9
p100
aV2
aV7.29
p101
aa(lp102
V2016/2017
p103
aVCardiff
p104
aVEC
p105
aV39(3)
p106
aV3378
p107
aV6
aV1
aV4
aV-
aV1.2
p108
aV74.4
p109
aV1.2
p110
aV1
aV6.77
p111
aa(lp112
V2015/2016
p113
aVCardiff
p114
aVEC
p115
aV42(1)
p116
aV3719
p117
aV1
aV7
aV5
aV-
aV1.2
p118
aV79.9
p119
aV1.1
p120
aV1
aV6.99
p121
aa(lp122
V2014/2015
p123
aVCardiff
p124
aVEC
p125
aV15(13)
p126
aV1505
p127
aV2
aV2
aV2
aV-
aV0.5
p128
aV75.4
p129
aV0.4
p130
aV-
aV6.59
p131
aa(lp132
V2013/2014
p133
aVYeovil
p134
aVEC
p135
aV33(4)
p136
aV2976
p137
aV3
aV2
aV10
p138
aV1
aV1.6
p139
aV70.8
p140
aV0.3
p141
aV1
aV6.72
p142
aa(lp143
VTotal / Average
p144
aV
aV
aV200
p145
aV15897
p146
aV19
p147
aV16
p148
aV31
p149
aV2
aV1.2
p150
aV73.1
p151
aV1
aV5
aV6.86
p152
aasS'defensive_data'
p153
(lp154
(lp155
a(lp156
V2018/2019
p157
aVCardiff
p158
aVEPL
p159
aV12(1)
p160
aV998
p161
aV-
aV-
aV2
aV1
aV1
aV66.3
p162
aV1.5
p163
aV-
aV6.45
p164
aa(lp165
V2017/2018
p166
aVCardiff
p167
aVEC
p168
aV37
p169
aV3321
p170
aV7
aV4
aV8
aV-
aV1.5
p171
aV66.9
p172
aV1.9
p173
aV2
aV7.29
p174
aa(lp175
V2016/2017
p176
aVCardiff
p177
aVEC
p178
aV39(3)
p179
aV3378
p180
aV6
aV1
aV4
aV-
aV1.2
p181
aV74.4
p182
aV1.2
p183
aV1
aV6.77
p184
aa(lp185
V2015/2016
p186
aVCardiff
p187
aVEC
p188
aV42(1)
p189
aV3719
p190
aV1
aV7
aV5
aV-
aV1.2
p191
aV79.9
p192
aV1.1
p193
aV1
aV6.99
p194
aa(lp195
V2014/2015
p196
aVCardiff
p197
aVEC
p198
aV15(13)
p199
aV1505
p200
aV2
aV2
aV2
aV-
aV0.5
p201
aV75.4
p202
aV0.4
p203
aV-
aV6.59
p204
aa(lp205
V2013/2014
p206
aVYeovil
p207
aVEC
p208
aV33(4)
p209
aV2976
p210
aV3
aV2
aV10
p211
aV1
aV1.6
p212
aV70.8
p213
aV0.3
p214
aV1
aV6.72
p215
aa(lp216
VTotal / Average
p217
aV
aV
aV200
p218
aV15897
p219
aV19
p220
aV16
p221
aV31
p222
aV2
aV1.2
p223
aV73.1
p224
aV1
aV5
aV6.86
p225
aasS'sumary_data'
p226
(lp227
(lp228
a(lp229
V2018/2019
p230
aVCardiff
p231
aVEPL
p232
aV12(1)
p233
aV998
p234
aV-
aV-
aV2
aV1
aV1
aV66.3
p235
aV1.5
p236
aV-
aV6.45
p237
aa(lp238
V2017/2018
p239
aVCardiff
p240
aVEC
p241
aV37
p242
aV3321
p243
aV7
aV4
aV8
aV-
aV1.5
p244
aV66.9
p245
aV1.9
p246
aV2
aV7.29
p247
aa(lp248
V2016/2017
p249
aVCardiff
p250
aVEC
p251
aV39(3)
p252
aV3378
p253
aV6
aV1
aV4
aV-
aV1.2
p254
aV74.4
p255
aV1.2
p256
aV1
aV6.77
p257
aa(lp258
V2015/2016
p259
aVCardiff
p260
aVEC
p261
aV42(1)
p262
aV3719
p263
aV1
aV7
aV5
aV-
aV1.2
p264
aV79.9
p265
aV1.1
p266
aV1
aV6.99
p267
aa(lp268
V2014/2015
p269
aVCardiff
p270
aVEC
p271
aV15(13)
p272
aV1505
p273
aV2
aV2
aV2
aV-
aV0.5
p274
aV75.4
p275
aV0.4
p276
aV-
aV6.59
p277
aa(lp278
V2013/2014
p279
aVYeovil
p280
aVEC
p281
aV33(4)
p282
aV2976
p283
aV3
aV2
aV10
p284
aV1
aV1.6
p285
aV70.8
p286
aV0.3
p287
aV1
aV6.72
p288
aa(lp289
VTotal / Average
p290
aV
aV
aV200
p291
aV15897
p292
aV19
p293
aV16
p294
aV31
p295
aV2
aV1.2
p296
aV73.1
p297
aV1
aV5
aV6.86
p298
aasS'id'
p299
V108093
p300
sb.