(i__main__
Player
p1
(dp2
S'name'
p3
VMohamed Salah 
p4
sS'offensive_data'
p5
(lp6
(lp7
a(lp8
V2018/2019
p9
aVLiverpool
p10
aVEPL
p11
aV16(1)
p12
aV1400
p13
aV10
p14
aV4
aV-
aV-
aV3.5
p15
aV76.3
p16
aV0.5
p17
aV2
aV7.61
p18
aa(lp19
V2018/2019
p20
aVLiverpool
p21
aVUCL
p22
aV6
aV518
p23
aV3
aV-
aV1
aV-
aV4
aV70.8
p24
aV0.5
p25
aV-
aV6.77
p26
aa(lp27
V2017/2018
p28
aVLiverpool
p29
aVUCL
p30
aV12(1)
p31
aV931
p32
aV10
p33
aV4
aV-
aV-
aV3.3
p34
aV74.7
p35
aV0.2
p36
aV1
aV7.97
p37
aa(lp38
V2017/2018
p39
aVLiverpool
p40
aVEPL
p41
aV34(2)
p42
aV2922
p43
aV32
p44
aV10
p45
aV1
aV-
aV4
aV76.7
p46
aV0.4
p47
aV8
aV7.69
p48
aa(lp49
V2016/2017
p50
aVRoma
p51
aVISA
p52
aV29(2)
p53
aV2487
p54
aV15
p55
aV11
p56
aV2
aV-
aV2.6
p57
aV80.4
p58
aV0.3
p59
aV4
aV7.48
p60
aa(lp61
V2016/2017
p62
aVRoma
p63
aVUEL
p64
aV4(2)
p65
aV373
p66
aV2
aV1
aV-
aV-
aV2.3
p67
aV83.1
p68
aV0.2
p69
aV-
aV7.02
p70
aa(lp71
V2015/2016
p72
aVRoma
p73
aVISA
p74
aV32(2)
p75
aV2739
p76
aV14
p77
aV6
aV1
aV1
aV2.1
p78
aV82.9
p79
aV0.2
p80
aV4
aV7.20
p81
aa(lp82
V2018
p83
aVEgypt
p84
aVWC
p85
aV2
aV180
p86
aV2
aV-
aV-
aV-
aV3
aV78.4
p87
aV-
aV-
aV6.98
p88
aa(lp89
V2015/2016
p90
aVRoma
p91
aVUCL
p92
aV6(1)
p93
aV543
p94
aV1
aV-
aV-
aV-
aV1.9
p95
aV79
p96
aV0.1
p97
aV-
aV6.97
p98
aa(lp99
V2014/2015
p100
aVFiorentina
p101
aVISA
p102
aV10(6)
p103
aV912
p104
aV6
aV3
aV-
aV-
aV1.8
p105
aV86.3
p106
aV0.3
p107
aV1
aV7.17
p108
aa(lp109
V2014/2015
p110
aVChelsea
p111
aVUCL
p112
aV1(1)
p113
aV77
p114
aV-
aV-
aV-
aV-
aV2.5
p115
aV72.7
p116
aV-
aV-
aV6.65
p117
aa(lp118
V2014/2015
p119
aVFiorentina
p120
aVUEL
p121
aV8
aV718
p122
aV1
aV1
aV1
aV-
aV3.3
p123
aV87.1
p124
aV0.4
p125
aV1
aV7.34
p126
aa(lp127
V2014/2015
p128
aVChelsea
p129
aVEPL
p130
aV0(3)
p131
aV30
p132
aV-
aV-
aV-
aV-
aV0.7
p133
aV78.3
p134
aV-
aV-
aV5.97
p135
aa(lp136
V2013/2014
p137
aVFC Basel 1893
p138
aVUCL
p139
aV6
aV532
p140
aV2
aV-
aV-
aV-
aV1.7
p141
aV77.1
p142
aV-
aV-
aV6.81
p143
aa(lp144
V2013/2014
p145
aVChelsea
p146
aVEPL
p147
aV6(4)
p148
aV501
p149
aV2
aV1
aV1
aV-
aV2.1
p150
aV82.3
p151
aV0.2
p152
aV2
aV6.88
p153
aa(lp154
V2012/2013
p155
aVFC Basel 1893
p156
aVUEL
p157
aV10(4)
p158
aV948
p159
aV2
aV3
aV-
aV-
aV1.8
p160
aV78.9
p161
aV0.1
p162
aV-
aV6.63
p163
aa(lp164
VTotal / Average
p165
aV
aV
aV211
p166
aV15811
p167
aV102
p168
aV44
p169
aV7
aV1
aV2.7
p170
aV79.7
p171
aV0.3
p172
aV23
p173
aV7.29
p174
aasS'url'
p175
S'https://www.whoscored.com/Players/108226/History/'
p176
sS'passing_data'
p177
(lp178
(lp179
a(lp180
V2018/2019
p181
aVLiverpool
p182
aVEPL
p183
aV16(1)
p184
aV1400
p185
aV10
p186
aV4
aV-
aV-
aV3.5
p187
aV76.3
p188
aV0.5
p189
aV2
aV7.61
p190
aa(lp191
V2018/2019
p192
aVLiverpool
p193
aVUCL
p194
aV6
aV518
p195
aV3
aV-
aV1
aV-
aV4
aV70.8
p196
aV0.5
p197
aV-
aV6.77
p198
aa(lp199
V2017/2018
p200
aVLiverpool
p201
aVUCL
p202
aV12(1)
p203
aV931
p204
aV10
p205
aV4
aV-
aV-
aV3.3
p206
aV74.7
p207
aV0.2
p208
aV1
aV7.97
p209
aa(lp210
V2017/2018
p211
aVLiverpool
p212
aVEPL
p213
aV34(2)
p214
aV2922
p215
aV32
p216
aV10
p217
aV1
aV-
aV4
aV76.7
p218
aV0.4
p219
aV8
aV7.69
p220
aa(lp221
V2016/2017
p222
aVRoma
p223
aVISA
p224
aV29(2)
p225
aV2487
p226
aV15
p227
aV11
p228
aV2
aV-
aV2.6
p229
aV80.4
p230
aV0.3
p231
aV4
aV7.48
p232
aa(lp233
V2016/2017
p234
aVRoma
p235
aVUEL
p236
aV4(2)
p237
aV373
p238
aV2
aV1
aV-
aV-
aV2.3
p239
aV83.1
p240
aV0.2
p241
aV-
aV7.02
p242
aa(lp243
V2015/2016
p244
aVRoma
p245
aVISA
p246
aV32(2)
p247
aV2739
p248
aV14
p249
aV6
aV1
aV1
aV2.1
p250
aV82.9
p251
aV0.2
p252
aV4
aV7.20
p253
aa(lp254
V2018
p255
aVEgypt
p256
aVWC
p257
aV2
aV180
p258
aV2
aV-
aV-
aV-
aV3
aV78.4
p259
aV-
aV-
aV6.98
p260
aa(lp261
V2015/2016
p262
aVRoma
p263
aVUCL
p264
aV6(1)
p265
aV543
p266
aV1
aV-
aV-
aV-
aV1.9
p267
aV79
p268
aV0.1
p269
aV-
aV6.97
p270
aa(lp271
V2014/2015
p272
aVFiorentina
p273
aVISA
p274
aV10(6)
p275
aV912
p276
aV6
aV3
aV-
aV-
aV1.8
p277
aV86.3
p278
aV0.3
p279
aV1
aV7.17
p280
aa(lp281
V2014/2015
p282
aVChelsea
p283
aVUCL
p284
aV1(1)
p285
aV77
p286
aV-
aV-
aV-
aV-
aV2.5
p287
aV72.7
p288
aV-
aV-
aV6.65
p289
aa(lp290
V2014/2015
p291
aVFiorentina
p292
aVUEL
p293
aV8
aV718
p294
aV1
aV1
aV1
aV-
aV3.3
p295
aV87.1
p296
aV0.4
p297
aV1
aV7.34
p298
aa(lp299
V2014/2015
p300
aVChelsea
p301
aVEPL
p302
aV0(3)
p303
aV30
p304
aV-
aV-
aV-
aV-
aV0.7
p305
aV78.3
p306
aV-
aV-
aV5.97
p307
aa(lp308
V2013/2014
p309
aVFC Basel 1893
p310
aVUCL
p311
aV6
aV532
p312
aV2
aV-
aV-
aV-
aV1.7
p313
aV77.1
p314
aV-
aV-
aV6.81
p315
aa(lp316
V2013/2014
p317
aVChelsea
p318
aVEPL
p319
aV6(4)
p320
aV501
p321
aV2
aV1
aV1
aV-
aV2.1
p322
aV82.3
p323
aV0.2
p324
aV2
aV6.88
p325
aa(lp326
V2012/2013
p327
aVFC Basel 1893
p328
aVUEL
p329
aV10(4)
p330
aV948
p331
aV2
aV3
aV-
aV-
aV1.8
p332
aV78.9
p333
aV0.1
p334
aV-
aV6.63
p335
aa(lp336
VTotal / Average
p337
aV
aV
aV211
p338
aV15811
p339
aV102
p340
aV44
p341
aV7
aV1
aV2.7
p342
aV79.7
p343
aV0.3
p344
aV23
p345
aV7.29
p346
aasS'defensive_data'
p347
(lp348
(lp349
a(lp350
V2018/2019
p351
aVLiverpool
p352
aVEPL
p353
aV16(1)
p354
aV1400
p355
aV10
p356
aV4
aV-
aV-
aV3.5
p357
aV76.3
p358
aV0.5
p359
aV2
aV7.61
p360
aa(lp361
V2018/2019
p362
aVLiverpool
p363
aVUCL
p364
aV6
aV518
p365
aV3
aV-
aV1
aV-
aV4
aV70.8
p366
aV0.5
p367
aV-
aV6.77
p368
aa(lp369
V2017/2018
p370
aVLiverpool
p371
aVUCL
p372
aV12(1)
p373
aV931
p374
aV10
p375
aV4
aV-
aV-
aV3.3
p376
aV74.7
p377
aV0.2
p378
aV1
aV7.97
p379
aa(lp380
V2017/2018
p381
aVLiverpool
p382
aVEPL
p383
aV34(2)
p384
aV2922
p385
aV32
p386
aV10
p387
aV1
aV-
aV4
aV76.7
p388
aV0.4
p389
aV8
aV7.69
p390
aa(lp391
V2016/2017
p392
aVRoma
p393
aVISA
p394
aV29(2)
p395
aV2487
p396
aV15
p397
aV11
p398
aV2
aV-
aV2.6
p399
aV80.4
p400
aV0.3
p401
aV4
aV7.48
p402
aa(lp403
V2016/2017
p404
aVRoma
p405
aVUEL
p406
aV4(2)
p407
aV373
p408
aV2
aV1
aV-
aV-
aV2.3
p409
aV83.1
p410
aV0.2
p411
aV-
aV7.02
p412
aa(lp413
V2015/2016
p414
aVRoma
p415
aVISA
p416
aV32(2)
p417
aV2739
p418
aV14
p419
aV6
aV1
aV1
aV2.1
p420
aV82.9
p421
aV0.2
p422
aV4
aV7.20
p423
aa(lp424
V2018
p425
aVEgypt
p426
aVWC
p427
aV2
aV180
p428
aV2
aV-
aV-
aV-
aV3
aV78.4
p429
aV-
aV-
aV6.98
p430
aa(lp431
V2015/2016
p432
aVRoma
p433
aVUCL
p434
aV6(1)
p435
aV543
p436
aV1
aV-
aV-
aV-
aV1.9
p437
aV79
p438
aV0.1
p439
aV-
aV6.97
p440
aa(lp441
V2014/2015
p442
aVFiorentina
p443
aVISA
p444
aV10(6)
p445
aV912
p446
aV6
aV3
aV-
aV-
aV1.8
p447
aV86.3
p448
aV0.3
p449
aV1
aV7.17
p450
aa(lp451
V2014/2015
p452
aVChelsea
p453
aVUCL
p454
aV1(1)
p455
aV77
p456
aV-
aV-
aV-
aV-
aV2.5
p457
aV72.7
p458
aV-
aV-
aV6.65
p459
aa(lp460
V2014/2015
p461
aVFiorentina
p462
aVUEL
p463
aV8
aV718
p464
aV1
aV1
aV1
aV-
aV3.3
p465
aV87.1
p466
aV0.4
p467
aV1
aV7.34
p468
aa(lp469
V2014/2015
p470
aVChelsea
p471
aVEPL
p472
aV0(3)
p473
aV30
p474
aV-
aV-
aV-
aV-
aV0.7
p475
aV78.3
p476
aV-
aV-
aV5.97
p477
aa(lp478
V2013/2014
p479
aVFC Basel 1893
p480
aVUCL
p481
aV6
aV532
p482
aV2
aV-
aV-
aV-
aV1.7
p483
aV77.1
p484
aV-
aV-
aV6.81
p485
aa(lp486
V2013/2014
p487
aVChelsea
p488
aVEPL
p489
aV6(4)
p490
aV501
p491
aV2
aV1
aV1
aV-
aV2.1
p492
aV82.3
p493
aV0.2
p494
aV2
aV6.88
p495
aa(lp496
V2012/2013
p497
aVFC Basel 1893
p498
aVUEL
p499
aV10(4)
p500
aV948
p501
aV2
aV3
aV-
aV-
aV1.8
p502
aV78.9
p503
aV0.1
p504
aV-
aV6.63
p505
aa(lp506
VTotal / Average
p507
aV
aV
aV211
p508
aV15811
p509
aV102
p510
aV44
p511
aV7
aV1
aV2.7
p512
aV79.7
p513
aV0.3
p514
aV23
p515
aV7.29
p516
aasS'sumary_data'
p517
(lp518
(lp519
a(lp520
V2018/2019
p521
aVLiverpool
p522
aVEPL
p523
aV16(1)
p524
aV1400
p525
aV10
p526
aV4
aV-
aV-
aV3.5
p527
aV76.3
p528
aV0.5
p529
aV2
aV7.61
p530
aa(lp531
V2018/2019
p532
aVLiverpool
p533
aVUCL
p534
aV6
aV518
p535
aV3
aV-
aV1
aV-
aV4
aV70.8
p536
aV0.5
p537
aV-
aV6.77
p538
aa(lp539
V2017/2018
p540
aVLiverpool
p541
aVUCL
p542
aV12(1)
p543
aV931
p544
aV10
p545
aV4
aV-
aV-
aV3.3
p546
aV74.7
p547
aV0.2
p548
aV1
aV7.97
p549
aa(lp550
V2017/2018
p551
aVLiverpool
p552
aVEPL
p553
aV34(2)
p554
aV2922
p555
aV32
p556
aV10
p557
aV1
aV-
aV4
aV76.7
p558
aV0.4
p559
aV8
aV7.69
p560
aa(lp561
V2016/2017
p562
aVRoma
p563
aVISA
p564
aV29(2)
p565
aV2487
p566
aV15
p567
aV11
p568
aV2
aV-
aV2.6
p569
aV80.4
p570
aV0.3
p571
aV4
aV7.48
p572
aa(lp573
V2016/2017
p574
aVRoma
p575
aVUEL
p576
aV4(2)
p577
aV373
p578
aV2
aV1
aV-
aV-
aV2.3
p579
aV83.1
p580
aV0.2
p581
aV-
aV7.02
p582
aa(lp583
V2015/2016
p584
aVRoma
p585
aVISA
p586
aV32(2)
p587
aV2739
p588
aV14
p589
aV6
aV1
aV1
aV2.1
p590
aV82.9
p591
aV0.2
p592
aV4
aV7.20
p593
aa(lp594
V2018
p595
aVEgypt
p596
aVWC
p597
aV2
aV180
p598
aV2
aV-
aV-
aV-
aV3
aV78.4
p599
aV-
aV-
aV6.98
p600
aa(lp601
V2015/2016
p602
aVRoma
p603
aVUCL
p604
aV6(1)
p605
aV543
p606
aV1
aV-
aV-
aV-
aV1.9
p607
aV79
p608
aV0.1
p609
aV-
aV6.97
p610
aa(lp611
V2014/2015
p612
aVFiorentina
p613
aVISA
p614
aV10(6)
p615
aV912
p616
aV6
aV3
aV-
aV-
aV1.8
p617
aV86.3
p618
aV0.3
p619
aV1
aV7.17
p620
aa(lp621
V2014/2015
p622
aVChelsea
p623
aVUCL
p624
aV1(1)
p625
aV77
p626
aV-
aV-
aV-
aV-
aV2.5
p627
aV72.7
p628
aV-
aV-
aV6.65
p629
aa(lp630
V2014/2015
p631
aVFiorentina
p632
aVUEL
p633
aV8
aV718
p634
aV1
aV1
aV1
aV-
aV3.3
p635
aV87.1
p636
aV0.4
p637
aV1
aV7.34
p638
aa(lp639
V2014/2015
p640
aVChelsea
p641
aVEPL
p642
aV0(3)
p643
aV30
p644
aV-
aV-
aV-
aV-
aV0.7
p645
aV78.3
p646
aV-
aV-
aV5.97
p647
aa(lp648
V2013/2014
p649
aVFC Basel 1893
p650
aVUCL
p651
aV6
aV532
p652
aV2
aV-
aV-
aV-
aV1.7
p653
aV77.1
p654
aV-
aV-
aV6.81
p655
aa(lp656
V2013/2014
p657
aVChelsea
p658
aVEPL
p659
aV6(4)
p660
aV501
p661
aV2
aV1
aV1
aV-
aV2.1
p662
aV82.3
p663
aV0.2
p664
aV2
aV6.88
p665
aa(lp666
V2012/2013
p667
aVFC Basel 1893
p668
aVUEL
p669
aV10(4)
p670
aV948
p671
aV2
aV3
aV-
aV-
aV1.8
p672
aV78.9
p673
aV0.1
p674
aV-
aV6.63
p675
aa(lp676
VTotal / Average
p677
aV
aV
aV211
p678
aV15811
p679
aV102
p680
aV44
p681
aV7
aV1
aV2.7
p682
aV79.7
p683
aV0.3
p684
aV23
p685
aV7.29
p686
aasS'id'
p687
V108226
p688
sb.