(i__main__
Player
p1
(dp2
S'name'
p3
VWill Hughes 
p4
sS'offensive_data'
p5
(lp6
(lp7
a(lp8
V2018/2019
p9
aVWatford
p10
aVEPL
p11
aV15
p12
aV1145
p13
aV1
aV1
aV3
aV-
aV0.9
p14
aV72.3
p15
aV0.6
p16
aV-
aV6.70
p17
aa(lp18
V2017/2018
p19
aVWatford
p20
aVEPL
p21
aV11(4)
p22
aV995
p23
aV2
aV3
aV-
aV-
aV0.8
p24
aV79.7
p25
aV0.2
p26
aV1
aV6.74
p27
aa(lp28
V2016/2017
p29
aVDerby
p30
aVEC
p31
aV28(10)
p32
aV2664
p33
aV2
aV3
aV10
p34
aV-
aV0.9
p35
aV82.9
p36
aV0.6
p37
aV1
aV6.87
p38
aa(lp39
V2015/2016
p40
aVDerby
p41
aVEC
p42
aV6(2)
p43
aV474
p44
aV-
aV-
aV1
aV-
aV0.8
p45
aV84.3
p46
aV0.6
p47
aV2
aV7.05
p48
aa(lp49
V2015
p50
aVEngland U21
p51
aVIEU
p52
aV1(1)
p53
aV82
p54
aV-
aV-
aV-
aV-
aV0.5
p55
aV90.5
p56
aV-
aV-
aV6.40
p57
aa(lp58
V2014/2015
p59
aVDerby
p60
aVEC
p61
aV37(5)
p62
aV3201
p63
aV2
aV5
aV9
aV-
aV0.9
p64
aV85.8
p65
aV0.3
p66
aV-
aV6.87
p67
aa(lp68
V2013/2014
p69
aVDerby
p70
aVEC
p71
aV39(5)
p72
aV3341
p73
aV4
aV6
aV5
aV-
aV0.9
p74
aV86.8
p75
aV0.3
p76
aV-
aV7.01
p77
aa(lp78
VTotal / Average
p79
aV
aV
aV164
p80
aV11902
p81
aV11
p82
aV18
p83
aV28
p84
aV0
aV0.9
p85
aV83.6
p86
aV0.4
p87
aV4
aV6.88
p88
aasS'url'
p89
S'https://www.whoscored.com/Players/108638/History/'
p90
sS'passing_data'
p91
(lp92
(lp93
a(lp94
V2018/2019
p95
aVWatford
p96
aVEPL
p97
aV15
p98
aV1145
p99
aV1
aV1
aV3
aV-
aV0.9
p100
aV72.3
p101
aV0.6
p102
aV-
aV6.70
p103
aa(lp104
V2017/2018
p105
aVWatford
p106
aVEPL
p107
aV11(4)
p108
aV995
p109
aV2
aV3
aV-
aV-
aV0.8
p110
aV79.7
p111
aV0.2
p112
aV1
aV6.74
p113
aa(lp114
V2016/2017
p115
aVDerby
p116
aVEC
p117
aV28(10)
p118
aV2664
p119
aV2
aV3
aV10
p120
aV-
aV0.9
p121
aV82.9
p122
aV0.6
p123
aV1
aV6.87
p124
aa(lp125
V2015/2016
p126
aVDerby
p127
aVEC
p128
aV6(2)
p129
aV474
p130
aV-
aV-
aV1
aV-
aV0.8
p131
aV84.3
p132
aV0.6
p133
aV2
aV7.05
p134
aa(lp135
V2015
p136
aVEngland U21
p137
aVIEU
p138
aV1(1)
p139
aV82
p140
aV-
aV-
aV-
aV-
aV0.5
p141
aV90.5
p142
aV-
aV-
aV6.40
p143
aa(lp144
V2014/2015
p145
aVDerby
p146
aVEC
p147
aV37(5)
p148
aV3201
p149
aV2
aV5
aV9
aV-
aV0.9
p150
aV85.8
p151
aV0.3
p152
aV-
aV6.87
p153
aa(lp154
V2013/2014
p155
aVDerby
p156
aVEC
p157
aV39(5)
p158
aV3341
p159
aV4
aV6
aV5
aV-
aV0.9
p160
aV86.8
p161
aV0.3
p162
aV-
aV7.01
p163
aa(lp164
VTotal / Average
p165
aV
aV
aV164
p166
aV11902
p167
aV11
p168
aV18
p169
aV28
p170
aV0
aV0.9
p171
aV83.6
p172
aV0.4
p173
aV4
aV6.88
p174
aasS'defensive_data'
p175
(lp176
(lp177
a(lp178
V2018/2019
p179
aVWatford
p180
aVEPL
p181
aV15
p182
aV1145
p183
aV1
aV1
aV3
aV-
aV0.9
p184
aV72.3
p185
aV0.6
p186
aV-
aV6.70
p187
aa(lp188
V2017/2018
p189
aVWatford
p190
aVEPL
p191
aV11(4)
p192
aV995
p193
aV2
aV3
aV-
aV-
aV0.8
p194
aV79.7
p195
aV0.2
p196
aV1
aV6.74
p197
aa(lp198
V2016/2017
p199
aVDerby
p200
aVEC
p201
aV28(10)
p202
aV2664
p203
aV2
aV3
aV10
p204
aV-
aV0.9
p205
aV82.9
p206
aV0.6
p207
aV1
aV6.87
p208
aa(lp209
V2015/2016
p210
aVDerby
p211
aVEC
p212
aV6(2)
p213
aV474
p214
aV-
aV-
aV1
aV-
aV0.8
p215
aV84.3
p216
aV0.6
p217
aV2
aV7.05
p218
aa(lp219
V2015
p220
aVEngland U21
p221
aVIEU
p222
aV1(1)
p223
aV82
p224
aV-
aV-
aV-
aV-
aV0.5
p225
aV90.5
p226
aV-
aV-
aV6.40
p227
aa(lp228
V2014/2015
p229
aVDerby
p230
aVEC
p231
aV37(5)
p232
aV3201
p233
aV2
aV5
aV9
aV-
aV0.9
p234
aV85.8
p235
aV0.3
p236
aV-
aV6.87
p237
aa(lp238
V2013/2014
p239
aVDerby
p240
aVEC
p241
aV39(5)
p242
aV3341
p243
aV4
aV6
aV5
aV-
aV0.9
p244
aV86.8
p245
aV0.3
p246
aV-
aV7.01
p247
aa(lp248
VTotal / Average
p249
aV
aV
aV164
p250
aV11902
p251
aV11
p252
aV18
p253
aV28
p254
aV0
aV0.9
p255
aV83.6
p256
aV0.4
p257
aV4
aV6.88
p258
aasS'sumary_data'
p259
(lp260
(lp261
a(lp262
V2018/2019
p263
aVWatford
p264
aVEPL
p265
aV15
p266
aV1145
p267
aV1
aV1
aV3
aV-
aV0.9
p268
aV72.3
p269
aV0.6
p270
aV-
aV6.70
p271
aa(lp272
V2017/2018
p273
aVWatford
p274
aVEPL
p275
aV11(4)
p276
aV995
p277
aV2
aV3
aV-
aV-
aV0.8
p278
aV79.7
p279
aV0.2
p280
aV1
aV6.74
p281
aa(lp282
V2016/2017
p283
aVDerby
p284
aVEC
p285
aV28(10)
p286
aV2664
p287
aV2
aV3
aV10
p288
aV-
aV0.9
p289
aV82.9
p290
aV0.6
p291
aV1
aV6.87
p292
aa(lp293
V2015/2016
p294
aVDerby
p295
aVEC
p296
aV6(2)
p297
aV474
p298
aV-
aV-
aV1
aV-
aV0.8
p299
aV84.3
p300
aV0.6
p301
aV2
aV7.05
p302
aa(lp303
V2015
p304
aVEngland U21
p305
aVIEU
p306
aV1(1)
p307
aV82
p308
aV-
aV-
aV-
aV-
aV0.5
p309
aV90.5
p310
aV-
aV-
aV6.40
p311
aa(lp312
V2014/2015
p313
aVDerby
p314
aVEC
p315
aV37(5)
p316
aV3201
p317
aV2
aV5
aV9
aV-
aV0.9
p318
aV85.8
p319
aV0.3
p320
aV-
aV6.87
p321
aa(lp322
V2013/2014
p323
aVDerby
p324
aVEC
p325
aV39(5)
p326
aV3341
p327
aV4
aV6
aV5
aV-
aV0.9
p328
aV86.8
p329
aV0.3
p330
aV-
aV7.01
p331
aa(lp332
VTotal / Average
p333
aV
aV
aV164
p334
aV11902
p335
aV11
p336
aV18
p337
aV28
p338
aV0
aV0.9
p339
aV83.6
p340
aV0.4
p341
aV4
aV6.88
p342
aasS'id'
p343
V108638
p344
sb.