(i__main__
Player
p1
(dp2
S'name'
p3
VJesse Lingard 
p4
sS'offensive_data'
p5
(lp6
(lp7
a(lp8
V2018/2019
p9
aVManchester Un..
p10
aVEPL
p11
aV9(4)
p12
aV724
p13
aV2
aV-
aV1
aV-
aV1.3
p14
aV84.3
p15
aV0.2
p16
aV-
aV6.48
p17
aa(lp18
V2018/2019
p19
aVManchester Un..
p20
aVUCL
p21
aV2(1)
p22
aV155
p23
aV-
aV-
aV-
aV-
aV0.7
p24
aV89.5
p25
aV-
aV-
aV6.29
p26
aa(lp27
V2018/2019
p28
aVEngland
p29
aVUNL
p30
aV1(1)
p31
aV107
p32
aV1
aV-
aV-
aV-
aV1
aV84.4
p33
aV-
aV-
aV7.09
p34
aa(lp35
V2017/2018
p36
aVManchester Un..
p37
aVUCL
p38
aV3(3)
p39
aV246
p40
aV-
aV-
aV2
aV-
aV0.7
p41
aV91.6
p42
aV0.3
p43
aV-
aV6.23
p44
aa(lp45
V2017/2018
p46
aVManchester Un..
p47
aVEPL
p48
aV20(13)
p49
aV1823
p50
aV8
aV5
aV2
aV-
aV1.7
p51
aV87.8
p52
aV0.2
p53
aV1
aV6.82
p54
aa(lp55
V2016/2017
p56
aVManchester Un..
p57
aVEPL
p58
aV18(7)
p59
aV1369
p60
aV1
aV2
aV3
aV-
aV1.5
p61
aV87.9
p62
aV0.2
p63
aV1
aV6.69
p64
aa(lp65
V2016/2017
p66
aVManchester Un..
p67
aVUEL
p68
aV6(4)
p69
aV526
p70
aV2
aV1
aV1
aV-
aV1.7
p71
aV87
p72
aV0.4
p73
aV-
aV6.71
p74
aa(lp75
V2018
p76
aVEngland
p77
aVWC
p78
aV5(1)
p79
aV528
p80
aV1
aV1
aV1
aV-
aV2.8
p81
aV92.1
p82
aV0.2
p83
aV-
aV6.93
p84
aa(lp85
V2015/2016
p86
aVManchester Un..
p87
aVUEL
p88
aV3
aV266
p89
aV-
aV1
aV2
aV-
aV3.3
p90
aV85.8
p91
aV0.3
p92
aV-
aV7.03
p93
aa(lp94
V2015/2016
p95
aVManchester Un..
p96
aVUCL
p97
aV4
aV350
p98
aV-
aV1
aV1
aV-
aV2.8
p99
aV86
p100
aV0.8
p101
aV-
aV7.18
p102
aa(lp103
V2015/2016
p104
aVManchester Un..
p105
aVEPL
p106
aV19(6)
p107
aV1635
p108
aV4
aV1
aV4
aV-
aV1.2
p109
aV84.7
p110
aV0.1
p111
aV1
aV6.71
p112
aa(lp113
V2015
p114
aVEngland U21
p115
aVIEU
p116
aV2(1)
p117
aV199
p118
aV1
aV-
aV-
aV-
aV2.3
p119
aV89.3
p120
aV0.3
p121
aV-
aV6.79
p122
aa(lp123
V2014/2015
p124
aVDerby
p125
aVEC
p126
aV6(8)
p127
aV658
p128
aV2
aV1
aV1
aV-
aV1.4
p129
aV89.1
p130
aV0.2
p131
aV-
aV6.59
p132
aa(lp133
V2014/2015
p134
aVManchester Un..
p135
aVEPL
p136
aV1
aV24
p137
aV-
aV-
aV-
aV-
aV-
aV69.2
p138
aV-
aV-
aV6.32
p139
aa(lp140
V2013/2014
p141
aVBrighton
p142
aVEC
p143
aV17
p144
aV1399
p145
aV4
aV3
aV1
aV-
aV1.9
p146
aV84.4
p147
aV0.2
p148
aV2
aV7.09
p149
aa(lp150
V2013/2014
p151
aVBirmingham
p152
aVEC
p153
aV13
p154
aV1086
p155
aV6
aV3
aV-
aV1
aV2.3
p156
aV80.1
p157
aV-
aV1
aV7.22
p158
aa(lp159
VTotal / Average
p160
aV
aV
aV178
p161
aV11095
p162
aV32
p163
aV19
p164
aV19
p165
aV1
aV1.7
p166
aV86.4
p167
aV0.2
p168
aV6
aV6.78
p169
aasS'url'
p170
S'https://www.whoscored.com/Players/109000/History/'
p171
sS'passing_data'
p172
(lp173
(lp174
a(lp175
V2018/2019
p176
aVManchester Un..
p177
aVEPL
p178
aV9(4)
p179
aV724
p180
aV2
aV-
aV1
aV-
aV1.3
p181
aV84.3
p182
aV0.2
p183
aV-
aV6.48
p184
aa(lp185
V2018/2019
p186
aVManchester Un..
p187
aVUCL
p188
aV2(1)
p189
aV155
p190
aV-
aV-
aV-
aV-
aV0.7
p191
aV89.5
p192
aV-
aV-
aV6.29
p193
aa(lp194
V2018/2019
p195
aVEngland
p196
aVUNL
p197
aV1(1)
p198
aV107
p199
aV1
aV-
aV-
aV-
aV1
aV84.4
p200
aV-
aV-
aV7.09
p201
aa(lp202
V2017/2018
p203
aVManchester Un..
p204
aVUCL
p205
aV3(3)
p206
aV246
p207
aV-
aV-
aV2
aV-
aV0.7
p208
aV91.6
p209
aV0.3
p210
aV-
aV6.23
p211
aa(lp212
V2017/2018
p213
aVManchester Un..
p214
aVEPL
p215
aV20(13)
p216
aV1823
p217
aV8
aV5
aV2
aV-
aV1.7
p218
aV87.8
p219
aV0.2
p220
aV1
aV6.82
p221
aa(lp222
V2016/2017
p223
aVManchester Un..
p224
aVEPL
p225
aV18(7)
p226
aV1369
p227
aV1
aV2
aV3
aV-
aV1.5
p228
aV87.9
p229
aV0.2
p230
aV1
aV6.69
p231
aa(lp232
V2016/2017
p233
aVManchester Un..
p234
aVUEL
p235
aV6(4)
p236
aV526
p237
aV2
aV1
aV1
aV-
aV1.7
p238
aV87
p239
aV0.4
p240
aV-
aV6.71
p241
aa(lp242
V2018
p243
aVEngland
p244
aVWC
p245
aV5(1)
p246
aV528
p247
aV1
aV1
aV1
aV-
aV2.8
p248
aV92.1
p249
aV0.2
p250
aV-
aV6.93
p251
aa(lp252
V2015/2016
p253
aVManchester Un..
p254
aVUEL
p255
aV3
aV266
p256
aV-
aV1
aV2
aV-
aV3.3
p257
aV85.8
p258
aV0.3
p259
aV-
aV7.03
p260
aa(lp261
V2015/2016
p262
aVManchester Un..
p263
aVUCL
p264
aV4
aV350
p265
aV-
aV1
aV1
aV-
aV2.8
p266
aV86
p267
aV0.8
p268
aV-
aV7.18
p269
aa(lp270
V2015/2016
p271
aVManchester Un..
p272
aVEPL
p273
aV19(6)
p274
aV1635
p275
aV4
aV1
aV4
aV-
aV1.2
p276
aV84.7
p277
aV0.1
p278
aV1
aV6.71
p279
aa(lp280
V2015
p281
aVEngland U21
p282
aVIEU
p283
aV2(1)
p284
aV199
p285
aV1
aV-
aV-
aV-
aV2.3
p286
aV89.3
p287
aV0.3
p288
aV-
aV6.79
p289
aa(lp290
V2014/2015
p291
aVDerby
p292
aVEC
p293
aV6(8)
p294
aV658
p295
aV2
aV1
aV1
aV-
aV1.4
p296
aV89.1
p297
aV0.2
p298
aV-
aV6.59
p299
aa(lp300
V2014/2015
p301
aVManchester Un..
p302
aVEPL
p303
aV1
aV24
p304
aV-
aV-
aV-
aV-
aV-
aV69.2
p305
aV-
aV-
aV6.32
p306
aa(lp307
V2013/2014
p308
aVBrighton
p309
aVEC
p310
aV17
p311
aV1399
p312
aV4
aV3
aV1
aV-
aV1.9
p313
aV84.4
p314
aV0.2
p315
aV2
aV7.09
p316
aa(lp317
V2013/2014
p318
aVBirmingham
p319
aVEC
p320
aV13
p321
aV1086
p322
aV6
aV3
aV-
aV1
aV2.3
p323
aV80.1
p324
aV-
aV1
aV7.22
p325
aa(lp326
VTotal / Average
p327
aV
aV
aV178
p328
aV11095
p329
aV32
p330
aV19
p331
aV19
p332
aV1
aV1.7
p333
aV86.4
p334
aV0.2
p335
aV6
aV6.78
p336
aasS'defensive_data'
p337
(lp338
(lp339
a(lp340
V2018/2019
p341
aVManchester Un..
p342
aVEPL
p343
aV9(4)
p344
aV724
p345
aV2
aV-
aV1
aV-
aV1.3
p346
aV84.3
p347
aV0.2
p348
aV-
aV6.48
p349
aa(lp350
V2018/2019
p351
aVManchester Un..
p352
aVUCL
p353
aV2(1)
p354
aV155
p355
aV-
aV-
aV-
aV-
aV0.7
p356
aV89.5
p357
aV-
aV-
aV6.29
p358
aa(lp359
V2018/2019
p360
aVEngland
p361
aVUNL
p362
aV1(1)
p363
aV107
p364
aV1
aV-
aV-
aV-
aV1
aV84.4
p365
aV-
aV-
aV7.09
p366
aa(lp367
V2017/2018
p368
aVManchester Un..
p369
aVUCL
p370
aV3(3)
p371
aV246
p372
aV-
aV-
aV2
aV-
aV0.7
p373
aV91.6
p374
aV0.3
p375
aV-
aV6.23
p376
aa(lp377
V2017/2018
p378
aVManchester Un..
p379
aVEPL
p380
aV20(13)
p381
aV1823
p382
aV8
aV5
aV2
aV-
aV1.7
p383
aV87.8
p384
aV0.2
p385
aV1
aV6.82
p386
aa(lp387
V2016/2017
p388
aVManchester Un..
p389
aVEPL
p390
aV18(7)
p391
aV1369
p392
aV1
aV2
aV3
aV-
aV1.5
p393
aV87.9
p394
aV0.2
p395
aV1
aV6.69
p396
aa(lp397
V2016/2017
p398
aVManchester Un..
p399
aVUEL
p400
aV6(4)
p401
aV526
p402
aV2
aV1
aV1
aV-
aV1.7
p403
aV87
p404
aV0.4
p405
aV-
aV6.71
p406
aa(lp407
V2018
p408
aVEngland
p409
aVWC
p410
aV5(1)
p411
aV528
p412
aV1
aV1
aV1
aV-
aV2.8
p413
aV92.1
p414
aV0.2
p415
aV-
aV6.93
p416
aa(lp417
V2015/2016
p418
aVManchester Un..
p419
aVUEL
p420
aV3
aV266
p421
aV-
aV1
aV2
aV-
aV3.3
p422
aV85.8
p423
aV0.3
p424
aV-
aV7.03
p425
aa(lp426
V2015/2016
p427
aVManchester Un..
p428
aVUCL
p429
aV4
aV350
p430
aV-
aV1
aV1
aV-
aV2.8
p431
aV86
p432
aV0.8
p433
aV-
aV7.18
p434
aa(lp435
V2015/2016
p436
aVManchester Un..
p437
aVEPL
p438
aV19(6)
p439
aV1635
p440
aV4
aV1
aV4
aV-
aV1.2
p441
aV84.7
p442
aV0.1
p443
aV1
aV6.71
p444
aa(lp445
V2015
p446
aVEngland U21
p447
aVIEU
p448
aV2(1)
p449
aV199
p450
aV1
aV-
aV-
aV-
aV2.3
p451
aV89.3
p452
aV0.3
p453
aV-
aV6.79
p454
aa(lp455
V2014/2015
p456
aVDerby
p457
aVEC
p458
aV6(8)
p459
aV658
p460
aV2
aV1
aV1
aV-
aV1.4
p461
aV89.1
p462
aV0.2
p463
aV-
aV6.59
p464
aa(lp465
V2014/2015
p466
aVManchester Un..
p467
aVEPL
p468
aV1
aV24
p469
aV-
aV-
aV-
aV-
aV-
aV69.2
p470
aV-
aV-
aV6.32
p471
aa(lp472
V2013/2014
p473
aVBrighton
p474
aVEC
p475
aV17
p476
aV1399
p477
aV4
aV3
aV1
aV-
aV1.9
p478
aV84.4
p479
aV0.2
p480
aV2
aV7.09
p481
aa(lp482
V2013/2014
p483
aVBirmingham
p484
aVEC
p485
aV13
p486
aV1086
p487
aV6
aV3
aV-
aV1
aV2.3
p488
aV80.1
p489
aV-
aV1
aV7.22
p490
aa(lp491
VTotal / Average
p492
aV
aV
aV178
p493
aV11095
p494
aV32
p495
aV19
p496
aV19
p497
aV1
aV1.7
p498
aV86.4
p499
aV0.2
p500
aV6
aV6.78
p501
aasS'sumary_data'
p502
(lp503
(lp504
a(lp505
V2018/2019
p506
aVManchester Un..
p507
aVEPL
p508
aV9(4)
p509
aV724
p510
aV2
aV-
aV1
aV-
aV1.3
p511
aV84.3
p512
aV0.2
p513
aV-
aV6.48
p514
aa(lp515
V2018/2019
p516
aVManchester Un..
p517
aVUCL
p518
aV2(1)
p519
aV155
p520
aV-
aV-
aV-
aV-
aV0.7
p521
aV89.5
p522
aV-
aV-
aV6.29
p523
aa(lp524
V2018/2019
p525
aVEngland
p526
aVUNL
p527
aV1(1)
p528
aV107
p529
aV1
aV-
aV-
aV-
aV1
aV84.4
p530
aV-
aV-
aV7.09
p531
aa(lp532
V2017/2018
p533
aVManchester Un..
p534
aVUCL
p535
aV3(3)
p536
aV246
p537
aV-
aV-
aV2
aV-
aV0.7
p538
aV91.6
p539
aV0.3
p540
aV-
aV6.23
p541
aa(lp542
V2017/2018
p543
aVManchester Un..
p544
aVEPL
p545
aV20(13)
p546
aV1823
p547
aV8
aV5
aV2
aV-
aV1.7
p548
aV87.8
p549
aV0.2
p550
aV1
aV6.82
p551
aa(lp552
V2016/2017
p553
aVManchester Un..
p554
aVEPL
p555
aV18(7)
p556
aV1369
p557
aV1
aV2
aV3
aV-
aV1.5
p558
aV87.9
p559
aV0.2
p560
aV1
aV6.69
p561
aa(lp562
V2016/2017
p563
aVManchester Un..
p564
aVUEL
p565
aV6(4)
p566
aV526
p567
aV2
aV1
aV1
aV-
aV1.7
p568
aV87
p569
aV0.4
p570
aV-
aV6.71
p571
aa(lp572
V2018
p573
aVEngland
p574
aVWC
p575
aV5(1)
p576
aV528
p577
aV1
aV1
aV1
aV-
aV2.8
p578
aV92.1
p579
aV0.2
p580
aV-
aV6.93
p581
aa(lp582
V2015/2016
p583
aVManchester Un..
p584
aVUEL
p585
aV3
aV266
p586
aV-
aV1
aV2
aV-
aV3.3
p587
aV85.8
p588
aV0.3
p589
aV-
aV7.03
p590
aa(lp591
V2015/2016
p592
aVManchester Un..
p593
aVUCL
p594
aV4
aV350
p595
aV-
aV1
aV1
aV-
aV2.8
p596
aV86
p597
aV0.8
p598
aV-
aV7.18
p599
aa(lp600
V2015/2016
p601
aVManchester Un..
p602
aVEPL
p603
aV19(6)
p604
aV1635
p605
aV4
aV1
aV4
aV-
aV1.2
p606
aV84.7
p607
aV0.1
p608
aV1
aV6.71
p609
aa(lp610
V2015
p611
aVEngland U21
p612
aVIEU
p613
aV2(1)
p614
aV199
p615
aV1
aV-
aV-
aV-
aV2.3
p616
aV89.3
p617
aV0.3
p618
aV-
aV6.79
p619
aa(lp620
V2014/2015
p621
aVDerby
p622
aVEC
p623
aV6(8)
p624
aV658
p625
aV2
aV1
aV1
aV-
aV1.4
p626
aV89.1
p627
aV0.2
p628
aV-
aV6.59
p629
aa(lp630
V2014/2015
p631
aVManchester Un..
p632
aVEPL
p633
aV1
aV24
p634
aV-
aV-
aV-
aV-
aV-
aV69.2
p635
aV-
aV-
aV6.32
p636
aa(lp637
V2013/2014
p638
aVBrighton
p639
aVEC
p640
aV17
p641
aV1399
p642
aV4
aV3
aV1
aV-
aV1.9
p643
aV84.4
p644
aV0.2
p645
aV2
aV7.09
p646
aa(lp647
V2013/2014
p648
aVBirmingham
p649
aVEC
p650
aV13
p651
aV1086
p652
aV6
aV3
aV-
aV1
aV2.3
p653
aV80.1
p654
aV-
aV1
aV7.22
p655
aa(lp656
VTotal / Average
p657
aV
aV
aV178
p658
aV11095
p659
aV32
p660
aV19
p661
aV19
p662
aV1
aV1.7
p663
aV86.4
p664
aV0.2
p665
aV6
aV6.78
p666
aasS'id'
p667
V109000
p668
sb.