(i__main__
Player
p1
(dp2
S'name'
p3
VTerence Kongolo 
p4
sS'offensive_data'
p5
(lp6
(lp7
a(lp8
V2018/2019
p9
aVHuddersfield
p10
aVEPL
p11
aV14
p12
aV1136
p13
aV1
aV-
aV2
aV-
aV0.6
p14
aV77.9
p15
aV2.4
p16
aV-
aV6.76
p17
aa(lp18
V2017/2018
p19
aVMonaco
p20
aVUCL
p21
aV1
aV90
p22
aV-
aV-
aV-
aV-
aV-
aV83.3
p23
aV-
aV-
aV6.78
p24
aa(lp25
V2017/2018
p26
aVMonaco
p27
aVFL1
p28
aV3
aV258
p29
aV-
aV-
aV-
aV-
aV0.3
p30
aV77.1
p31
aV1.3
p32
aV-
aV6.89
p33
aa(lp34
V2017/2018
p35
aVHuddersfield
p36
aVEPL
p37
aV11(2)
p38
aV1047
p39
aV-
aV-
aV-
aV-
aV0.2
p40
aV71.4
p41
aV2.2
p42
aV1
aV7.02
p43
aa(lp44
V2016/2017
p45
aVFeyenoord
p46
aVNE
p47
aV22(1)
p48
aV1824
p49
aV1
aV2
aV2
aV-
aV0.2
p50
aV82.3
p51
aV2.5
p52
aV1
aV7.21
p53
aa(lp54
V2016/2017
p55
aVFeyenoord
p56
aVUEL
p57
aV4
aV360
p58
aV-
aV-
aV1
aV-
aV0.5
p59
aV77.2
p60
aV1
aV1
aV7.10
p61
aa(lp62
V2015/2016
p63
aVFeyenoord
p64
aVNE
p65
aV29
p66
aV2526
p67
aV-
aV1
aV7
aV-
aV0.3
p68
aV82.1
p69
aV2.1
p70
aV2
aV7.17
p71
aa(lp72
V2014/2015
p73
aVFeyenoord
p74
aVUEL
p75
aV7
aV607
p76
aV-
aV-
aV-
aV-
aV0.4
p77
aV87.8
p78
aV2
aV-
aV6.87
p79
aa(lp80
V2014/2015
p81
aVFeyenoord
p82
aVNE
p83
aV32(1)
p84
aV2894
p85
aV-
aV1
aV5
aV-
aV0.8
p86
aV87.3
p87
aV2.7
p88
aV2
aV7.29
p89
aa(lp90
V2013/2014
p91
aVFeyenoord
p92
aVNE
p93
aV15(2)
p94
aV1348
p95
aV-
aV1
aV2
aV-
aV0.1
p96
aV80.2
p97
aV1
aV-
aV7.07
p98
aa(lp99
V2014
p100
aVNetherlands
p101
aVWC
p102
aV0(1)
p103
aV1
aV-
aV-
aV-
aV-
aV-
aV-
aV-
aV-
aV6.13
p104
aa(lp105
VTotal / Average
p106
aV
aV
aV145
p107
aV12091
p108
aV2
aV5
aV19
p109
aV0
aV0.4
p110
aV81.2
p111
aV2.1
p112
aV7
aV7.11
p113
aasS'url'
p114
S'https://www.whoscored.com/Players/109117/History/'
p115
sS'passing_data'
p116
(lp117
(lp118
a(lp119
V2018/2019
p120
aVHuddersfield
p121
aVEPL
p122
aV14
p123
aV1136
p124
aV1
aV-
aV2
aV-
aV0.6
p125
aV77.9
p126
aV2.4
p127
aV-
aV6.76
p128
aa(lp129
V2017/2018
p130
aVMonaco
p131
aVUCL
p132
aV1
aV90
p133
aV-
aV-
aV-
aV-
aV-
aV83.3
p134
aV-
aV-
aV6.78
p135
aa(lp136
V2017/2018
p137
aVMonaco
p138
aVFL1
p139
aV3
aV258
p140
aV-
aV-
aV-
aV-
aV0.3
p141
aV77.1
p142
aV1.3
p143
aV-
aV6.89
p144
aa(lp145
V2017/2018
p146
aVHuddersfield
p147
aVEPL
p148
aV11(2)
p149
aV1047
p150
aV-
aV-
aV-
aV-
aV0.2
p151
aV71.4
p152
aV2.2
p153
aV1
aV7.02
p154
aa(lp155
V2016/2017
p156
aVFeyenoord
p157
aVNE
p158
aV22(1)
p159
aV1824
p160
aV1
aV2
aV2
aV-
aV0.2
p161
aV82.3
p162
aV2.5
p163
aV1
aV7.21
p164
aa(lp165
V2016/2017
p166
aVFeyenoord
p167
aVUEL
p168
aV4
aV360
p169
aV-
aV-
aV1
aV-
aV0.5
p170
aV77.2
p171
aV1
aV1
aV7.10
p172
aa(lp173
V2015/2016
p174
aVFeyenoord
p175
aVNE
p176
aV29
p177
aV2526
p178
aV-
aV1
aV7
aV-
aV0.3
p179
aV82.1
p180
aV2.1
p181
aV2
aV7.17
p182
aa(lp183
V2014/2015
p184
aVFeyenoord
p185
aVUEL
p186
aV7
aV607
p187
aV-
aV-
aV-
aV-
aV0.4
p188
aV87.8
p189
aV2
aV-
aV6.87
p190
aa(lp191
V2014/2015
p192
aVFeyenoord
p193
aVNE
p194
aV32(1)
p195
aV2894
p196
aV-
aV1
aV5
aV-
aV0.8
p197
aV87.3
p198
aV2.7
p199
aV2
aV7.29
p200
aa(lp201
V2013/2014
p202
aVFeyenoord
p203
aVNE
p204
aV15(2)
p205
aV1348
p206
aV-
aV1
aV2
aV-
aV0.1
p207
aV80.2
p208
aV1
aV-
aV7.07
p209
aa(lp210
V2014
p211
aVNetherlands
p212
aVWC
p213
aV0(1)
p214
aV1
aV-
aV-
aV-
aV-
aV-
aV-
aV-
aV-
aV6.13
p215
aa(lp216
VTotal / Average
p217
aV
aV
aV145
p218
aV12091
p219
aV2
aV5
aV19
p220
aV0
aV0.4
p221
aV81.2
p222
aV2.1
p223
aV7
aV7.11
p224
aasS'defensive_data'
p225
(lp226
(lp227
a(lp228
V2018/2019
p229
aVHuddersfield
p230
aVEPL
p231
aV14
p232
aV1136
p233
aV1
aV-
aV2
aV-
aV0.6
p234
aV77.9
p235
aV2.4
p236
aV-
aV6.76
p237
aa(lp238
V2017/2018
p239
aVMonaco
p240
aVUCL
p241
aV1
aV90
p242
aV-
aV-
aV-
aV-
aV-
aV83.3
p243
aV-
aV-
aV6.78
p244
aa(lp245
V2017/2018
p246
aVMonaco
p247
aVFL1
p248
aV3
aV258
p249
aV-
aV-
aV-
aV-
aV0.3
p250
aV77.1
p251
aV1.3
p252
aV-
aV6.89
p253
aa(lp254
V2017/2018
p255
aVHuddersfield
p256
aVEPL
p257
aV11(2)
p258
aV1047
p259
aV-
aV-
aV-
aV-
aV0.2
p260
aV71.4
p261
aV2.2
p262
aV1
aV7.02
p263
aa(lp264
V2016/2017
p265
aVFeyenoord
p266
aVNE
p267
aV22(1)
p268
aV1824
p269
aV1
aV2
aV2
aV-
aV0.2
p270
aV82.3
p271
aV2.5
p272
aV1
aV7.21
p273
aa(lp274
V2016/2017
p275
aVFeyenoord
p276
aVUEL
p277
aV4
aV360
p278
aV-
aV-
aV1
aV-
aV0.5
p279
aV77.2
p280
aV1
aV1
aV7.10
p281
aa(lp282
V2015/2016
p283
aVFeyenoord
p284
aVNE
p285
aV29
p286
aV2526
p287
aV-
aV1
aV7
aV-
aV0.3
p288
aV82.1
p289
aV2.1
p290
aV2
aV7.17
p291
aa(lp292
V2014/2015
p293
aVFeyenoord
p294
aVUEL
p295
aV7
aV607
p296
aV-
aV-
aV-
aV-
aV0.4
p297
aV87.8
p298
aV2
aV-
aV6.87
p299
aa(lp300
V2014/2015
p301
aVFeyenoord
p302
aVNE
p303
aV32(1)
p304
aV2894
p305
aV-
aV1
aV5
aV-
aV0.8
p306
aV87.3
p307
aV2.7
p308
aV2
aV7.29
p309
aa(lp310
V2013/2014
p311
aVFeyenoord
p312
aVNE
p313
aV15(2)
p314
aV1348
p315
aV-
aV1
aV2
aV-
aV0.1
p316
aV80.2
p317
aV1
aV-
aV7.07
p318
aa(lp319
V2014
p320
aVNetherlands
p321
aVWC
p322
aV0(1)
p323
aV1
aV-
aV-
aV-
aV-
aV-
aV-
aV-
aV-
aV6.13
p324
aa(lp325
VTotal / Average
p326
aV
aV
aV145
p327
aV12091
p328
aV2
aV5
aV19
p329
aV0
aV0.4
p330
aV81.2
p331
aV2.1
p332
aV7
aV7.11
p333
aasS'sumary_data'
p334
(lp335
(lp336
a(lp337
V2018/2019
p338
aVHuddersfield
p339
aVEPL
p340
aV14
p341
aV1136
p342
aV1
aV-
aV2
aV-
aV0.6
p343
aV77.9
p344
aV2.4
p345
aV-
aV6.76
p346
aa(lp347
V2017/2018
p348
aVMonaco
p349
aVUCL
p350
aV1
aV90
p351
aV-
aV-
aV-
aV-
aV-
aV83.3
p352
aV-
aV-
aV6.78
p353
aa(lp354
V2017/2018
p355
aVMonaco
p356
aVFL1
p357
aV3
aV258
p358
aV-
aV-
aV-
aV-
aV0.3
p359
aV77.1
p360
aV1.3
p361
aV-
aV6.89
p362
aa(lp363
V2017/2018
p364
aVHuddersfield
p365
aVEPL
p366
aV11(2)
p367
aV1047
p368
aV-
aV-
aV-
aV-
aV0.2
p369
aV71.4
p370
aV2.2
p371
aV1
aV7.02
p372
aa(lp373
V2016/2017
p374
aVFeyenoord
p375
aVNE
p376
aV22(1)
p377
aV1824
p378
aV1
aV2
aV2
aV-
aV0.2
p379
aV82.3
p380
aV2.5
p381
aV1
aV7.21
p382
aa(lp383
V2016/2017
p384
aVFeyenoord
p385
aVUEL
p386
aV4
aV360
p387
aV-
aV-
aV1
aV-
aV0.5
p388
aV77.2
p389
aV1
aV1
aV7.10
p390
aa(lp391
V2015/2016
p392
aVFeyenoord
p393
aVNE
p394
aV29
p395
aV2526
p396
aV-
aV1
aV7
aV-
aV0.3
p397
aV82.1
p398
aV2.1
p399
aV2
aV7.17
p400
aa(lp401
V2014/2015
p402
aVFeyenoord
p403
aVUEL
p404
aV7
aV607
p405
aV-
aV-
aV-
aV-
aV0.4
p406
aV87.8
p407
aV2
aV-
aV6.87
p408
aa(lp409
V2014/2015
p410
aVFeyenoord
p411
aVNE
p412
aV32(1)
p413
aV2894
p414
aV-
aV1
aV5
aV-
aV0.8
p415
aV87.3
p416
aV2.7
p417
aV2
aV7.29
p418
aa(lp419
V2013/2014
p420
aVFeyenoord
p421
aVNE
p422
aV15(2)
p423
aV1348
p424
aV-
aV1
aV2
aV-
aV0.1
p425
aV80.2
p426
aV1
aV-
aV7.07
p427
aa(lp428
V2014
p429
aVNetherlands
p430
aVWC
p431
aV0(1)
p432
aV1
aV-
aV-
aV-
aV-
aV-
aV-
aV-
aV-
aV6.13
p433
aa(lp434
VTotal / Average
p435
aV
aV
aV145
p436
aV12091
p437
aV2
aV5
aV19
p438
aV0
aV0.4
p439
aV81.2
p440
aV2.1
p441
aV7
aV7.11
p442
aasS'id'
p443
V109117
p444
sb.