(i__main__
Player
p1
(dp2
S'name'
p3
VJavier Manquillo 
p4
sS'offensive_data'
p5
(lp6
(lp7
a(lp8
V2018/2019
p9
aVNewcastle Uni..
p10
aVEPL
p11
aV5(2)
p12
aV461
p13
aV-
aV1
aV1
aV-
aV-
aV65.9
p14
aV1.6
p15
aV-
aV6.61
p16
aa(lp17
V2017/2018
p18
aVNewcastle Uni..
p19
aVEPL
p20
aV20(1)
p21
aV1759
p22
aV-
aV1
aV2
aV-
aV0.1
p23
aV75
p24
aV1
aV-
aV6.49
p25
aa(lp26
V2016/2017
p27
aVSunderland
p28
aVEPL
p29
aV15(5)
p30
aV1428
p31
aV1
aV-
aV2
aV-
aV0.2
p32
aV77.8
p33
aV0.9
p34
aV-
aV6.51
p35
aa(lp36
V2015/2016
p37
aVMarseille
p38
aVUEL
p39
aV3(1)
p40
aV265
p41
aV-
aV1
aV-
aV-
aV0.3
p42
aV74.2
p43
aV1.3
p44
aV-
aV6.93
p45
aa(lp46
V2015/2016
p47
aVMarseille
p48
aVFL1
p49
aV31
p50
aV2673
p51
aV-
aV1
aV2
aV-
aV0.2
p52
aV82.5
p53
aV1.6
p54
aV-
aV7.06
p55
aa(lp56
V2014/2015
p57
aVLiverpool
p58
aVUCL
p59
aV4
aV360
p60
aV-
aV-
aV-
aV-
aV0.8
p61
aV78
p62
aV1.5
p63
aV-
aV7.14
p64
aa(lp65
V2014/2015
p66
aVLiverpool
p67
aVUEL
p68
aV0(1)
p69
aV44
p70
aV-
aV-
aV-
aV-
aV-
aV77.3
p71
aV-
aV-
aV6.38
p72
aa(lp73
V2014/2015
p74
aVLiverpool
p75
aVEPL
p76
aV10
p77
aV762
p78
aV-
aV-
aV3
aV-
aV0.2
p79
aV82.8
p80
aV1.2
p81
aV-
aV6.87
p82
aa(lp83
V2013/2014
p84
aVAtletico Madr..
p85
aVSLL
p86
aV3
aV270
p87
aV-
aV-
aV1
aV-
aV0.3
p88
aV72.6
p89
aV3.7
p90
aV-
aV7.30
p91
aa(lp92
V2013/2014
p93
aVAtletico Madr..
p94
aVUCL
p95
aV1
aV90
p96
aV-
aV-
aV-
aV-
aV1
aV72.2
p97
aV2
aV-
aV7.74
p98
aa(lp99
V2012/2013
p100
aVAtletico Madr..
p101
aVSLL
p102
aV2(1)
p103
aV196
p104
aV-
aV1
aV-
aV-
aV-
aV70.7
p105
aV0.3
p106
aV-
aV6.97
p107
aa(lp108
V2012/2013
p109
aVAtletico Madr..
p110
aVUEL
p111
aV2
aV178
p112
aV-
aV-
aV1
aV-
aV1
aV85.7
p113
aV0.5
p114
aV-
aV6.72
p115
aa(lp116
VTotal / Average
p117
aV
aV
aV107
p118
aV8486
p119
aV1
aV5
aV12
p120
aV0
aV0.2
p121
aV77.9
p122
aV1.3
p123
aV0
aV6.80
p124
aasS'url'
p125
S'https://www.whoscored.com/Players/109227/History/'
p126
sS'passing_data'
p127
(lp128
(lp129
a(lp130
V2018/2019
p131
aVNewcastle Uni..
p132
aVEPL
p133
aV5(2)
p134
aV461
p135
aV-
aV1
aV1
aV-
aV-
aV65.9
p136
aV1.6
p137
aV-
aV6.61
p138
aa(lp139
V2017/2018
p140
aVNewcastle Uni..
p141
aVEPL
p142
aV20(1)
p143
aV1759
p144
aV-
aV1
aV2
aV-
aV0.1
p145
aV75
p146
aV1
aV-
aV6.49
p147
aa(lp148
V2016/2017
p149
aVSunderland
p150
aVEPL
p151
aV15(5)
p152
aV1428
p153
aV1
aV-
aV2
aV-
aV0.2
p154
aV77.8
p155
aV0.9
p156
aV-
aV6.51
p157
aa(lp158
V2015/2016
p159
aVMarseille
p160
aVUEL
p161
aV3(1)
p162
aV265
p163
aV-
aV1
aV-
aV-
aV0.3
p164
aV74.2
p165
aV1.3
p166
aV-
aV6.93
p167
aa(lp168
V2015/2016
p169
aVMarseille
p170
aVFL1
p171
aV31
p172
aV2673
p173
aV-
aV1
aV2
aV-
aV0.2
p174
aV82.5
p175
aV1.6
p176
aV-
aV7.06
p177
aa(lp178
V2014/2015
p179
aVLiverpool
p180
aVUCL
p181
aV4
aV360
p182
aV-
aV-
aV-
aV-
aV0.8
p183
aV78
p184
aV1.5
p185
aV-
aV7.14
p186
aa(lp187
V2014/2015
p188
aVLiverpool
p189
aVUEL
p190
aV0(1)
p191
aV44
p192
aV-
aV-
aV-
aV-
aV-
aV77.3
p193
aV-
aV-
aV6.38
p194
aa(lp195
V2014/2015
p196
aVLiverpool
p197
aVEPL
p198
aV10
p199
aV762
p200
aV-
aV-
aV3
aV-
aV0.2
p201
aV82.8
p202
aV1.2
p203
aV-
aV6.87
p204
aa(lp205
V2013/2014
p206
aVAtletico Madr..
p207
aVSLL
p208
aV3
aV270
p209
aV-
aV-
aV1
aV-
aV0.3
p210
aV72.6
p211
aV3.7
p212
aV-
aV7.30
p213
aa(lp214
V2013/2014
p215
aVAtletico Madr..
p216
aVUCL
p217
aV1
aV90
p218
aV-
aV-
aV-
aV-
aV1
aV72.2
p219
aV2
aV-
aV7.74
p220
aa(lp221
V2012/2013
p222
aVAtletico Madr..
p223
aVSLL
p224
aV2(1)
p225
aV196
p226
aV-
aV1
aV-
aV-
aV-
aV70.7
p227
aV0.3
p228
aV-
aV6.97
p229
aa(lp230
V2012/2013
p231
aVAtletico Madr..
p232
aVUEL
p233
aV2
aV178
p234
aV-
aV-
aV1
aV-
aV1
aV85.7
p235
aV0.5
p236
aV-
aV6.72
p237
aa(lp238
VTotal / Average
p239
aV
aV
aV107
p240
aV8486
p241
aV1
aV5
aV12
p242
aV0
aV0.2
p243
aV77.9
p244
aV1.3
p245
aV0
aV6.80
p246
aasS'defensive_data'
p247
(lp248
(lp249
a(lp250
V2018/2019
p251
aVNewcastle Uni..
p252
aVEPL
p253
aV5(2)
p254
aV461
p255
aV-
aV1
aV1
aV-
aV-
aV65.9
p256
aV1.6
p257
aV-
aV6.61
p258
aa(lp259
V2017/2018
p260
aVNewcastle Uni..
p261
aVEPL
p262
aV20(1)
p263
aV1759
p264
aV-
aV1
aV2
aV-
aV0.1
p265
aV75
p266
aV1
aV-
aV6.49
p267
aa(lp268
V2016/2017
p269
aVSunderland
p270
aVEPL
p271
aV15(5)
p272
aV1428
p273
aV1
aV-
aV2
aV-
aV0.2
p274
aV77.8
p275
aV0.9
p276
aV-
aV6.51
p277
aa(lp278
V2015/2016
p279
aVMarseille
p280
aVUEL
p281
aV3(1)
p282
aV265
p283
aV-
aV1
aV-
aV-
aV0.3
p284
aV74.2
p285
aV1.3
p286
aV-
aV6.93
p287
aa(lp288
V2015/2016
p289
aVMarseille
p290
aVFL1
p291
aV31
p292
aV2673
p293
aV-
aV1
aV2
aV-
aV0.2
p294
aV82.5
p295
aV1.6
p296
aV-
aV7.06
p297
aa(lp298
V2014/2015
p299
aVLiverpool
p300
aVUCL
p301
aV4
aV360
p302
aV-
aV-
aV-
aV-
aV0.8
p303
aV78
p304
aV1.5
p305
aV-
aV7.14
p306
aa(lp307
V2014/2015
p308
aVLiverpool
p309
aVUEL
p310
aV0(1)
p311
aV44
p312
aV-
aV-
aV-
aV-
aV-
aV77.3
p313
aV-
aV-
aV6.38
p314
aa(lp315
V2014/2015
p316
aVLiverpool
p317
aVEPL
p318
aV10
p319
aV762
p320
aV-
aV-
aV3
aV-
aV0.2
p321
aV82.8
p322
aV1.2
p323
aV-
aV6.87
p324
aa(lp325
V2013/2014
p326
aVAtletico Madr..
p327
aVSLL
p328
aV3
aV270
p329
aV-
aV-
aV1
aV-
aV0.3
p330
aV72.6
p331
aV3.7
p332
aV-
aV7.30
p333
aa(lp334
V2013/2014
p335
aVAtletico Madr..
p336
aVUCL
p337
aV1
aV90
p338
aV-
aV-
aV-
aV-
aV1
aV72.2
p339
aV2
aV-
aV7.74
p340
aa(lp341
V2012/2013
p342
aVAtletico Madr..
p343
aVSLL
p344
aV2(1)
p345
aV196
p346
aV-
aV1
aV-
aV-
aV-
aV70.7
p347
aV0.3
p348
aV-
aV6.97
p349
aa(lp350
V2012/2013
p351
aVAtletico Madr..
p352
aVUEL
p353
aV2
aV178
p354
aV-
aV-
aV1
aV-
aV1
aV85.7
p355
aV0.5
p356
aV-
aV6.72
p357
aa(lp358
VTotal / Average
p359
aV
aV
aV107
p360
aV8486
p361
aV1
aV5
aV12
p362
aV0
aV0.2
p363
aV77.9
p364
aV1.3
p365
aV0
aV6.80
p366
aasS'sumary_data'
p367
(lp368
(lp369
a(lp370
V2018/2019
p371
aVNewcastle Uni..
p372
aVEPL
p373
aV5(2)
p374
aV461
p375
aV-
aV1
aV1
aV-
aV-
aV65.9
p376
aV1.6
p377
aV-
aV6.61
p378
aa(lp379
V2017/2018
p380
aVNewcastle Uni..
p381
aVEPL
p382
aV20(1)
p383
aV1759
p384
aV-
aV1
aV2
aV-
aV0.1
p385
aV75
p386
aV1
aV-
aV6.49
p387
aa(lp388
V2016/2017
p389
aVSunderland
p390
aVEPL
p391
aV15(5)
p392
aV1428
p393
aV1
aV-
aV2
aV-
aV0.2
p394
aV77.8
p395
aV0.9
p396
aV-
aV6.51
p397
aa(lp398
V2015/2016
p399
aVMarseille
p400
aVUEL
p401
aV3(1)
p402
aV265
p403
aV-
aV1
aV-
aV-
aV0.3
p404
aV74.2
p405
aV1.3
p406
aV-
aV6.93
p407
aa(lp408
V2015/2016
p409
aVMarseille
p410
aVFL1
p411
aV31
p412
aV2673
p413
aV-
aV1
aV2
aV-
aV0.2
p414
aV82.5
p415
aV1.6
p416
aV-
aV7.06
p417
aa(lp418
V2014/2015
p419
aVLiverpool
p420
aVUCL
p421
aV4
aV360
p422
aV-
aV-
aV-
aV-
aV0.8
p423
aV78
p424
aV1.5
p425
aV-
aV7.14
p426
aa(lp427
V2014/2015
p428
aVLiverpool
p429
aVUEL
p430
aV0(1)
p431
aV44
p432
aV-
aV-
aV-
aV-
aV-
aV77.3
p433
aV-
aV-
aV6.38
p434
aa(lp435
V2014/2015
p436
aVLiverpool
p437
aVEPL
p438
aV10
p439
aV762
p440
aV-
aV-
aV3
aV-
aV0.2
p441
aV82.8
p442
aV1.2
p443
aV-
aV6.87
p444
aa(lp445
V2013/2014
p446
aVAtletico Madr..
p447
aVSLL
p448
aV3
aV270
p449
aV-
aV-
aV1
aV-
aV0.3
p450
aV72.6
p451
aV3.7
p452
aV-
aV7.30
p453
aa(lp454
V2013/2014
p455
aVAtletico Madr..
p456
aVUCL
p457
aV1
aV90
p458
aV-
aV-
aV-
aV-
aV1
aV72.2
p459
aV2
aV-
aV7.74
p460
aa(lp461
V2012/2013
p462
aVAtletico Madr..
p463
aVSLL
p464
aV2(1)
p465
aV196
p466
aV-
aV1
aV-
aV-
aV-
aV70.7
p467
aV0.3
p468
aV-
aV6.97
p469
aa(lp470
V2012/2013
p471
aVAtletico Madr..
p472
aVUEL
p473
aV2
aV178
p474
aV-
aV-
aV1
aV-
aV1
aV85.7
p475
aV0.5
p476
aV-
aV6.72
p477
aa(lp478
VTotal / Average
p479
aV
aV
aV107
p480
aV8486
p481
aV1
aV5
aV12
p482
aV0
aV0.2
p483
aV77.9
p484
aV1.3
p485
aV0
aV6.80
p486
aasS'id'
p487
V109227
p488
sb.