(i__main__
Player
p1
(dp2
S'name'
p3
VSergio Rico 
p4
sS'offensive_data'
p5
(lp6
(lp7
a(lp8
V2018/2019
p9
aVFulham
p10
aVEPL
p11
aV8
aV720
p12
aV-
aV-
aV-
aV-
aV-
aV50.2
p13
aV0.8
p14
aV-
aV6.52
p15
aa(lp16
V2017/2018
p17
aVSevilla
p18
aVSLL
p19
aV23(1)
p20
aV2155
p21
aV-
aV-
aV2
aV-
aV-
aV60.1
p22
aV0.5
p23
aV1
aV6.50
p24
aa(lp25
V2017/2018
p26
aVSevilla
p27
aVUCL
p28
aV8
aV720
p29
aV-
aV-
aV-
aV-
aV-
aV64.7
p30
aV-
aV-
aV6.38
p31
aa(lp32
V2016/2017
p33
aVSevilla
p34
aVSLL
p35
aV35
p36
aV3150
p37
aV-
aV-
aV-
aV-
aV-
aV60.5
p38
aV0.3
p39
aV2
aV6.82
p40
aa(lp41
V2016/2017
p42
aVSevilla
p43
aVUCL
p44
aV8
aV720
p45
aV-
aV-
aV-
aV-
aV-
aV61
p46
aV0.1
p47
aV1
aV6.80
p48
aa(lp49
V2015/2016
p50
aVSevilla
p51
aVSLL
p52
aV34
p53
aV3060
p54
aV-
aV-
aV2
aV-
aV-
aV60.8
p55
aV0.4
p56
aV2
aV6.80
p57
aa(lp58
V2015/2016
p59
aVSevilla
p60
aVUCL
p61
aV6
aV540
p62
aV-
aV-
aV-
aV-
aV-
aV72
p63
aV0.3
p64
aV1
aV7.25
p65
aa(lp66
V2014/2015
p67
aVSevilla
p68
aVSLL
p69
aV19(2)
p70
aV1810
p71
aV-
aV-
aV2
aV-
aV-
aV51.6
p72
aV0.7
p73
aV-
aV6.86
p74
aa(lp75
V2014/2015
p76
aVSevilla
p77
aVUEL
p78
aV10(1)
p79
aV945
p80
aV-
aV-
aV1
aV-
aV-
aV47.4
p81
aV0.5
p82
aV1
aV7.18
p83
aa(lp84
VTotal / Average
p85
aV
aV
aV155
p86
aV13820
p87
aV0
aV0
aV7
aV0
aV0
aV58.5
p88
aV0.5
p89
aV8
aV6.78
p90
aasS'url'
p91
S'https://www.whoscored.com/Players/109338/History/'
p92
sS'passing_data'
p93
(lp94
(lp95
a(lp96
V2018/2019
p97
aVFulham
p98
aVEPL
p99
aV8
aV720
p100
aV-
aV-
aV-
aV-
aV-
aV50.2
p101
aV0.8
p102
aV-
aV6.52
p103
aa(lp104
V2017/2018
p105
aVSevilla
p106
aVSLL
p107
aV23(1)
p108
aV2155
p109
aV-
aV-
aV2
aV-
aV-
aV60.1
p110
aV0.5
p111
aV1
aV6.50
p112
aa(lp113
V2017/2018
p114
aVSevilla
p115
aVUCL
p116
aV8
aV720
p117
aV-
aV-
aV-
aV-
aV-
aV64.7
p118
aV-
aV-
aV6.38
p119
aa(lp120
V2016/2017
p121
aVSevilla
p122
aVSLL
p123
aV35
p124
aV3150
p125
aV-
aV-
aV-
aV-
aV-
aV60.5
p126
aV0.3
p127
aV2
aV6.82
p128
aa(lp129
V2016/2017
p130
aVSevilla
p131
aVUCL
p132
aV8
aV720
p133
aV-
aV-
aV-
aV-
aV-
aV61
p134
aV0.1
p135
aV1
aV6.80
p136
aa(lp137
V2015/2016
p138
aVSevilla
p139
aVSLL
p140
aV34
p141
aV3060
p142
aV-
aV-
aV2
aV-
aV-
aV60.8
p143
aV0.4
p144
aV2
aV6.80
p145
aa(lp146
V2015/2016
p147
aVSevilla
p148
aVUCL
p149
aV6
aV540
p150
aV-
aV-
aV-
aV-
aV-
aV72
p151
aV0.3
p152
aV1
aV7.25
p153
aa(lp154
V2014/2015
p155
aVSevilla
p156
aVSLL
p157
aV19(2)
p158
aV1810
p159
aV-
aV-
aV2
aV-
aV-
aV51.6
p160
aV0.7
p161
aV-
aV6.86
p162
aa(lp163
V2014/2015
p164
aVSevilla
p165
aVUEL
p166
aV10(1)
p167
aV945
p168
aV-
aV-
aV1
aV-
aV-
aV47.4
p169
aV0.5
p170
aV1
aV7.18
p171
aa(lp172
VTotal / Average
p173
aV
aV
aV155
p174
aV13820
p175
aV0
aV0
aV7
aV0
aV0
aV58.5
p176
aV0.5
p177
aV8
aV6.78
p178
aasS'defensive_data'
p179
(lp180
(lp181
a(lp182
V2018/2019
p183
aVFulham
p184
aVEPL
p185
aV8
aV720
p186
aV-
aV-
aV-
aV-
aV-
aV50.2
p187
aV0.8
p188
aV-
aV6.52
p189
aa(lp190
V2017/2018
p191
aVSevilla
p192
aVSLL
p193
aV23(1)
p194
aV2155
p195
aV-
aV-
aV2
aV-
aV-
aV60.1
p196
aV0.5
p197
aV1
aV6.50
p198
aa(lp199
V2017/2018
p200
aVSevilla
p201
aVUCL
p202
aV8
aV720
p203
aV-
aV-
aV-
aV-
aV-
aV64.7
p204
aV-
aV-
aV6.38
p205
aa(lp206
V2016/2017
p207
aVSevilla
p208
aVSLL
p209
aV35
p210
aV3150
p211
aV-
aV-
aV-
aV-
aV-
aV60.5
p212
aV0.3
p213
aV2
aV6.82
p214
aa(lp215
V2016/2017
p216
aVSevilla
p217
aVUCL
p218
aV8
aV720
p219
aV-
aV-
aV-
aV-
aV-
aV61
p220
aV0.1
p221
aV1
aV6.80
p222
aa(lp223
V2015/2016
p224
aVSevilla
p225
aVSLL
p226
aV34
p227
aV3060
p228
aV-
aV-
aV2
aV-
aV-
aV60.8
p229
aV0.4
p230
aV2
aV6.80
p231
aa(lp232
V2015/2016
p233
aVSevilla
p234
aVUCL
p235
aV6
aV540
p236
aV-
aV-
aV-
aV-
aV-
aV72
p237
aV0.3
p238
aV1
aV7.25
p239
aa(lp240
V2014/2015
p241
aVSevilla
p242
aVSLL
p243
aV19(2)
p244
aV1810
p245
aV-
aV-
aV2
aV-
aV-
aV51.6
p246
aV0.7
p247
aV-
aV6.86
p248
aa(lp249
V2014/2015
p250
aVSevilla
p251
aVUEL
p252
aV10(1)
p253
aV945
p254
aV-
aV-
aV1
aV-
aV-
aV47.4
p255
aV0.5
p256
aV1
aV7.18
p257
aa(lp258
VTotal / Average
p259
aV
aV
aV155
p260
aV13820
p261
aV0
aV0
aV7
aV0
aV0
aV58.5
p262
aV0.5
p263
aV8
aV6.78
p264
aasS'sumary_data'
p265
(lp266
(lp267
a(lp268
V2018/2019
p269
aVFulham
p270
aVEPL
p271
aV8
aV720
p272
aV-
aV-
aV-
aV-
aV-
aV50.2
p273
aV0.8
p274
aV-
aV6.52
p275
aa(lp276
V2017/2018
p277
aVSevilla
p278
aVSLL
p279
aV23(1)
p280
aV2155
p281
aV-
aV-
aV2
aV-
aV-
aV60.1
p282
aV0.5
p283
aV1
aV6.50
p284
aa(lp285
V2017/2018
p286
aVSevilla
p287
aVUCL
p288
aV8
aV720
p289
aV-
aV-
aV-
aV-
aV-
aV64.7
p290
aV-
aV-
aV6.38
p291
aa(lp292
V2016/2017
p293
aVSevilla
p294
aVSLL
p295
aV35
p296
aV3150
p297
aV-
aV-
aV-
aV-
aV-
aV60.5
p298
aV0.3
p299
aV2
aV6.82
p300
aa(lp301
V2016/2017
p302
aVSevilla
p303
aVUCL
p304
aV8
aV720
p305
aV-
aV-
aV-
aV-
aV-
aV61
p306
aV0.1
p307
aV1
aV6.80
p308
aa(lp309
V2015/2016
p310
aVSevilla
p311
aVSLL
p312
aV34
p313
aV3060
p314
aV-
aV-
aV2
aV-
aV-
aV60.8
p315
aV0.4
p316
aV2
aV6.80
p317
aa(lp318
V2015/2016
p319
aVSevilla
p320
aVUCL
p321
aV6
aV540
p322
aV-
aV-
aV-
aV-
aV-
aV72
p323
aV0.3
p324
aV1
aV7.25
p325
aa(lp326
V2014/2015
p327
aVSevilla
p328
aVSLL
p329
aV19(2)
p330
aV1810
p331
aV-
aV-
aV2
aV-
aV-
aV51.6
p332
aV0.7
p333
aV-
aV6.86
p334
aa(lp335
V2014/2015
p336
aVSevilla
p337
aVUEL
p338
aV10(1)
p339
aV945
p340
aV-
aV-
aV1
aV-
aV-
aV47.4
p341
aV0.5
p342
aV1
aV7.18
p343
aa(lp344
VTotal / Average
p345
aV
aV
aV155
p346
aV13820
p347
aV0
aV0
aV7
aV0
aV0
aV58.5
p348
aV0.5
p349
aV8
aV6.78
p350
aasS'id'
p351
V109338
p352
sb.