(i__main__
Player
p1
(dp2
S'name'
p3
VJordan Pickford 
p4
sS'offensive_data'
p5
(lp6
(lp7
a(lp8
V2018/2019
p9
aVEverton
p10
aVEPL
p11
aV17
p12
aV1530
p13
aV-
aV-
aV1
aV-
aV-
aV55.2
p14
aV0.4
p15
aV1
aV6.54
p16
aa(lp17
V2018/2019
p18
aVEngland
p19
aVUNL
p20
aV4
aV360
p21
aV-
aV-
aV-
aV-
aV-
aV72.5
p22
aV-
aV-
aV6.40
p23
aa(lp24
V2017/2018
p25
aVEverton
p26
aVUEL
p27
aV3
aV270
p28
aV-
aV-
aV-
aV-
aV-
aV41.6
p29
aV-
aV-
aV6.47
p30
aa(lp31
V2017/2018
p32
aVEverton
p33
aVEPL
p34
aV38
p35
aV3420
p36
aV-
aV-
aV-
aV-
aV-
aV44.5
p37
aV0.5
p38
aV-
aV6.63
p39
aa(lp40
V2016/2017
p41
aVSunderland
p42
aVEPL
p43
aV29
p44
aV2610
p45
aV-
aV-
aV-
aV-
aV-
aV46.2
p46
aV0.4
p47
aV3
aV7.04
p48
aa(lp49
V2018
p50
aVEngland
p51
aVWC
p52
aV7
aV690
p53
aV-
aV-
aV-
aV-
aV-
aV66.4
p54
aV0.7
p55
aV-
aV6.54
p56
aa(lp57
V2015/2016
p58
aVPreston
p59
aVEC
p60
aV24
p61
aV2101
p62
aV-
aV-
aV2
aV1
aV-
aV34.9
p63
aV0.8
p64
aV3
aV6.95
p65
aa(lp66
V2015/2016
p67
aVSunderland
p68
aVEPL
p69
aV2
aV180
p70
aV-
aV-
aV-
aV-
aV-
aV31.4
p71
aV0.5
p72
aV-
aV7.02
p73
aa(lp74
VTotal / Average
p75
aV
aV
aV124
p76
aV11161
p77
aV0
aV0
aV3
aV1
aV0
aV46.4
p78
aV0.5
p79
aV7
aV6.77
p80
aasS'url'
p81
S'https://www.whoscored.com/Players/110189/History/'
p82
sS'passing_data'
p83
(lp84
(lp85
a(lp86
V2018/2019
p87
aVEverton
p88
aVEPL
p89
aV17
p90
aV1530
p91
aV-
aV-
aV1
aV-
aV-
aV55.2
p92
aV0.4
p93
aV1
aV6.54
p94
aa(lp95
V2018/2019
p96
aVEngland
p97
aVUNL
p98
aV4
aV360
p99
aV-
aV-
aV-
aV-
aV-
aV72.5
p100
aV-
aV-
aV6.40
p101
aa(lp102
V2017/2018
p103
aVEverton
p104
aVUEL
p105
aV3
aV270
p106
aV-
aV-
aV-
aV-
aV-
aV41.6
p107
aV-
aV-
aV6.47
p108
aa(lp109
V2017/2018
p110
aVEverton
p111
aVEPL
p112
aV38
p113
aV3420
p114
aV-
aV-
aV-
aV-
aV-
aV44.5
p115
aV0.5
p116
aV-
aV6.63
p117
aa(lp118
V2016/2017
p119
aVSunderland
p120
aVEPL
p121
aV29
p122
aV2610
p123
aV-
aV-
aV-
aV-
aV-
aV46.2
p124
aV0.4
p125
aV3
aV7.04
p126
aa(lp127
V2018
p128
aVEngland
p129
aVWC
p130
aV7
aV690
p131
aV-
aV-
aV-
aV-
aV-
aV66.4
p132
aV0.7
p133
aV-
aV6.54
p134
aa(lp135
V2015/2016
p136
aVPreston
p137
aVEC
p138
aV24
p139
aV2101
p140
aV-
aV-
aV2
aV1
aV-
aV34.9
p141
aV0.8
p142
aV3
aV6.95
p143
aa(lp144
V2015/2016
p145
aVSunderland
p146
aVEPL
p147
aV2
aV180
p148
aV-
aV-
aV-
aV-
aV-
aV31.4
p149
aV0.5
p150
aV-
aV7.02
p151
aa(lp152
VTotal / Average
p153
aV
aV
aV124
p154
aV11161
p155
aV0
aV0
aV3
aV1
aV0
aV46.4
p156
aV0.5
p157
aV7
aV6.77
p158
aasS'defensive_data'
p159
(lp160
(lp161
a(lp162
V2018/2019
p163
aVEverton
p164
aVEPL
p165
aV17
p166
aV1530
p167
aV-
aV-
aV1
aV-
aV-
aV55.2
p168
aV0.4
p169
aV1
aV6.54
p170
aa(lp171
V2018/2019
p172
aVEngland
p173
aVUNL
p174
aV4
aV360
p175
aV-
aV-
aV-
aV-
aV-
aV72.5
p176
aV-
aV-
aV6.40
p177
aa(lp178
V2017/2018
p179
aVEverton
p180
aVUEL
p181
aV3
aV270
p182
aV-
aV-
aV-
aV-
aV-
aV41.6
p183
aV-
aV-
aV6.47
p184
aa(lp185
V2017/2018
p186
aVEverton
p187
aVEPL
p188
aV38
p189
aV3420
p190
aV-
aV-
aV-
aV-
aV-
aV44.5
p191
aV0.5
p192
aV-
aV6.63
p193
aa(lp194
V2016/2017
p195
aVSunderland
p196
aVEPL
p197
aV29
p198
aV2610
p199
aV-
aV-
aV-
aV-
aV-
aV46.2
p200
aV0.4
p201
aV3
aV7.04
p202
aa(lp203
V2018
p204
aVEngland
p205
aVWC
p206
aV7
aV690
p207
aV-
aV-
aV-
aV-
aV-
aV66.4
p208
aV0.7
p209
aV-
aV6.54
p210
aa(lp211
V2015/2016
p212
aVPreston
p213
aVEC
p214
aV24
p215
aV2101
p216
aV-
aV-
aV2
aV1
aV-
aV34.9
p217
aV0.8
p218
aV3
aV6.95
p219
aa(lp220
V2015/2016
p221
aVSunderland
p222
aVEPL
p223
aV2
aV180
p224
aV-
aV-
aV-
aV-
aV-
aV31.4
p225
aV0.5
p226
aV-
aV7.02
p227
aa(lp228
VTotal / Average
p229
aV
aV
aV124
p230
aV11161
p231
aV0
aV0
aV3
aV1
aV0
aV46.4
p232
aV0.5
p233
aV7
aV6.77
p234
aasS'sumary_data'
p235
(lp236
(lp237
a(lp238
V2018/2019
p239
aVEverton
p240
aVEPL
p241
aV17
p242
aV1530
p243
aV-
aV-
aV1
aV-
aV-
aV55.2
p244
aV0.4
p245
aV1
aV6.54
p246
aa(lp247
V2018/2019
p248
aVEngland
p249
aVUNL
p250
aV4
aV360
p251
aV-
aV-
aV-
aV-
aV-
aV72.5
p252
aV-
aV-
aV6.40
p253
aa(lp254
V2017/2018
p255
aVEverton
p256
aVUEL
p257
aV3
aV270
p258
aV-
aV-
aV-
aV-
aV-
aV41.6
p259
aV-
aV-
aV6.47
p260
aa(lp261
V2017/2018
p262
aVEverton
p263
aVEPL
p264
aV38
p265
aV3420
p266
aV-
aV-
aV-
aV-
aV-
aV44.5
p267
aV0.5
p268
aV-
aV6.63
p269
aa(lp270
V2016/2017
p271
aVSunderland
p272
aVEPL
p273
aV29
p274
aV2610
p275
aV-
aV-
aV-
aV-
aV-
aV46.2
p276
aV0.4
p277
aV3
aV7.04
p278
aa(lp279
V2018
p280
aVEngland
p281
aVWC
p282
aV7
aV690
p283
aV-
aV-
aV-
aV-
aV-
aV66.4
p284
aV0.7
p285
aV-
aV6.54
p286
aa(lp287
V2015/2016
p288
aVPreston
p289
aVEC
p290
aV24
p291
aV2101
p292
aV-
aV-
aV2
aV1
aV-
aV34.9
p293
aV0.8
p294
aV3
aV6.95
p295
aa(lp296
V2015/2016
p297
aVSunderland
p298
aVEPL
p299
aV2
aV180
p300
aV-
aV-
aV-
aV-
aV-
aV31.4
p301
aV0.5
p302
aV-
aV7.02
p303
aa(lp304
VTotal / Average
p305
aV
aV
aV124
p306
aV11161
p307
aV0
aV0
aV3
aV1
aV0
aV46.4
p308
aV0.5
p309
aV7
aV6.77
p310
aasS'id'
p311
V110189
p312
sb.