(i__main__
Player
p1
(dp2
S'name'
p3
VSead Kolasinac 
p4
sS'offensive_data'
p5
(lp6
(lp7
a(lp8
V2018/2019
p9
aVArsenal
p10
aVEPL
p11
aV6
aV517
p12
aV-
aV1
aV-
aV-
aV0.3
p13
aV74.8
p14
aV0.3
p15
aV-
aV6.42
p16
aa(lp17
V2018/2019
p18
aVArsenal
p19
aVUEL
p20
aV1(1)
p21
aV121
p22
aV-
aV-
aV-
aV-
aV-
aV78.8
p23
aV0.5
p24
aV-
aV7.02
p25
aa(lp26
V2017/2018
p27
aVArsenal
p28
aVUEL
p29
aV2(3)
p30
aV225
p31
aV2
aV-
aV1
aV-
aV0.4
p32
aV85.4
p33
aV0.2
p34
aV-
aV6.80
p35
aa(lp36
V2017/2018
p37
aVArsenal
p38
aVEPL
p39
aV25(2)
p40
aV2152
p41
aV2
aV4
aV3
aV-
aV0.8
p42
aV80.1
p43
aV1.7
p44
aV1
aV6.92
p45
aa(lp46
V2016/2017
p47
aVSchalke 04
p48
aVGB
p49
aV24(1)
p50
aV2070
p51
aV3
aV5
aV5
aV-
aV0.7
p52
aV71.7
p53
aV1.8
p54
aV2
aV7.32
p55
aa(lp56
V2016/2017
p57
aVSchalke 04
p58
aVUEL
p59
aV6(2)
p60
aV582
p61
aV-
aV2
aV2
aV-
aV0.3
p62
aV84.8
p63
aV0.6
p64
aV-
aV7.11
p65
aa(lp66
V2015/2016
p67
aVSchalke 04
p68
aVGB
p69
aV18(5)
p70
aV1571
p71
aV1
aV-
aV5
aV-
aV0.5
p72
aV73.1
p73
aV2.2
p74
aV-
aV6.76
p75
aa(lp76
V2015/2016
p77
aVSchalke 04
p78
aVUEL
p79
aV5(1)
p80
aV403
p81
aV-
aV1
aV-
aV-
aV0.5
p82
aV80.5
p83
aV2.8
p84
aV-
aV7.19
p85
aa(lp86
V2014/2015
p87
aVSchalke 04
p88
aVGB
p89
aV6
aV454
p90
aV-
aV-
aV2
aV-
aV0.7
p91
aV79.3
p92
aV2.8
p93
aV-
aV7.04
p94
aa(lp95
V2013/2014
p96
aVSchalke 04
p97
aVUCL
p98
aV3(3)
p99
aV301
p100
aV-
aV-
aV1
aV-
aV0.2
p101
aV84.7
p102
aV0.3
p103
aV-
aV6.52
p104
aa(lp105
V2013/2014
p106
aVSchalke 04
p107
aVGB
p108
aV21(3)
p109
aV1860
p110
aV-
aV2
aV5
aV-
aV0.5
p111
aV77.6
p112
aV1.7
p113
aV1
aV7.05
p114
aa(lp115
V2014
p116
aVBosnia and He..
p117
aVWC
p118
aV2
aV180
p119
aV-
aV-
aV-
aV-
aV-
aV84.7
p120
aV-
aV-
aV6.79
p121
aa(lp122
V2012/2013
p123
aVSchalke 04
p124
aVGB
p125
aV12(4)
p126
aV1108
p127
aV-
aV1
aV2
aV-
aV0.3
p128
aV74.1
p129
aV1
aV1
aV6.79
p130
aa(lp131
V2012/2013
p132
aVSchalke 04
p133
aVUCL
p134
aV3
aV270
p135
aV-
aV-
aV2
aV-
aV0.7
p136
aV74.8
p137
aV1.7
p138
aV-
aV6.50
p139
aa(lp140
VTotal / Average
p141
aV
aV
aV159
p142
aV11814
p143
aV8
aV16
p144
aV28
p145
aV0
aV0.5
p146
aV77.1
p147
aV1.6
p148
aV5
aV6.94
p149
aasS'url'
p150
S'https://www.whoscored.com/Players/110260/History/'
p151
sS'passing_data'
p152
(lp153
(lp154
a(lp155
V2018/2019
p156
aVArsenal
p157
aVEPL
p158
aV6
aV517
p159
aV-
aV1
aV-
aV-
aV0.3
p160
aV74.8
p161
aV0.3
p162
aV-
aV6.42
p163
aa(lp164
V2018/2019
p165
aVArsenal
p166
aVUEL
p167
aV1(1)
p168
aV121
p169
aV-
aV-
aV-
aV-
aV-
aV78.8
p170
aV0.5
p171
aV-
aV7.02
p172
aa(lp173
V2017/2018
p174
aVArsenal
p175
aVUEL
p176
aV2(3)
p177
aV225
p178
aV2
aV-
aV1
aV-
aV0.4
p179
aV85.4
p180
aV0.2
p181
aV-
aV6.80
p182
aa(lp183
V2017/2018
p184
aVArsenal
p185
aVEPL
p186
aV25(2)
p187
aV2152
p188
aV2
aV4
aV3
aV-
aV0.8
p189
aV80.1
p190
aV1.7
p191
aV1
aV6.92
p192
aa(lp193
V2016/2017
p194
aVSchalke 04
p195
aVGB
p196
aV24(1)
p197
aV2070
p198
aV3
aV5
aV5
aV-
aV0.7
p199
aV71.7
p200
aV1.8
p201
aV2
aV7.32
p202
aa(lp203
V2016/2017
p204
aVSchalke 04
p205
aVUEL
p206
aV6(2)
p207
aV582
p208
aV-
aV2
aV2
aV-
aV0.3
p209
aV84.8
p210
aV0.6
p211
aV-
aV7.11
p212
aa(lp213
V2015/2016
p214
aVSchalke 04
p215
aVGB
p216
aV18(5)
p217
aV1571
p218
aV1
aV-
aV5
aV-
aV0.5
p219
aV73.1
p220
aV2.2
p221
aV-
aV6.76
p222
aa(lp223
V2015/2016
p224
aVSchalke 04
p225
aVUEL
p226
aV5(1)
p227
aV403
p228
aV-
aV1
aV-
aV-
aV0.5
p229
aV80.5
p230
aV2.8
p231
aV-
aV7.19
p232
aa(lp233
V2014/2015
p234
aVSchalke 04
p235
aVGB
p236
aV6
aV454
p237
aV-
aV-
aV2
aV-
aV0.7
p238
aV79.3
p239
aV2.8
p240
aV-
aV7.04
p241
aa(lp242
V2013/2014
p243
aVSchalke 04
p244
aVUCL
p245
aV3(3)
p246
aV301
p247
aV-
aV-
aV1
aV-
aV0.2
p248
aV84.7
p249
aV0.3
p250
aV-
aV6.52
p251
aa(lp252
V2013/2014
p253
aVSchalke 04
p254
aVGB
p255
aV21(3)
p256
aV1860
p257
aV-
aV2
aV5
aV-
aV0.5
p258
aV77.6
p259
aV1.7
p260
aV1
aV7.05
p261
aa(lp262
V2014
p263
aVBosnia and He..
p264
aVWC
p265
aV2
aV180
p266
aV-
aV-
aV-
aV-
aV-
aV84.7
p267
aV-
aV-
aV6.79
p268
aa(lp269
V2012/2013
p270
aVSchalke 04
p271
aVGB
p272
aV12(4)
p273
aV1108
p274
aV-
aV1
aV2
aV-
aV0.3
p275
aV74.1
p276
aV1
aV1
aV6.79
p277
aa(lp278
V2012/2013
p279
aVSchalke 04
p280
aVUCL
p281
aV3
aV270
p282
aV-
aV-
aV2
aV-
aV0.7
p283
aV74.8
p284
aV1.7
p285
aV-
aV6.50
p286
aa(lp287
VTotal / Average
p288
aV
aV
aV159
p289
aV11814
p290
aV8
aV16
p291
aV28
p292
aV0
aV0.5
p293
aV77.1
p294
aV1.6
p295
aV5
aV6.94
p296
aasS'defensive_data'
p297
(lp298
(lp299
a(lp300
V2018/2019
p301
aVArsenal
p302
aVEPL
p303
aV6
aV517
p304
aV-
aV1
aV-
aV-
aV0.3
p305
aV74.8
p306
aV0.3
p307
aV-
aV6.42
p308
aa(lp309
V2018/2019
p310
aVArsenal
p311
aVUEL
p312
aV1(1)
p313
aV121
p314
aV-
aV-
aV-
aV-
aV-
aV78.8
p315
aV0.5
p316
aV-
aV7.02
p317
aa(lp318
V2017/2018
p319
aVArsenal
p320
aVUEL
p321
aV2(3)
p322
aV225
p323
aV2
aV-
aV1
aV-
aV0.4
p324
aV85.4
p325
aV0.2
p326
aV-
aV6.80
p327
aa(lp328
V2017/2018
p329
aVArsenal
p330
aVEPL
p331
aV25(2)
p332
aV2152
p333
aV2
aV4
aV3
aV-
aV0.8
p334
aV80.1
p335
aV1.7
p336
aV1
aV6.92
p337
aa(lp338
V2016/2017
p339
aVSchalke 04
p340
aVGB
p341
aV24(1)
p342
aV2070
p343
aV3
aV5
aV5
aV-
aV0.7
p344
aV71.7
p345
aV1.8
p346
aV2
aV7.32
p347
aa(lp348
V2016/2017
p349
aVSchalke 04
p350
aVUEL
p351
aV6(2)
p352
aV582
p353
aV-
aV2
aV2
aV-
aV0.3
p354
aV84.8
p355
aV0.6
p356
aV-
aV7.11
p357
aa(lp358
V2015/2016
p359
aVSchalke 04
p360
aVGB
p361
aV18(5)
p362
aV1571
p363
aV1
aV-
aV5
aV-
aV0.5
p364
aV73.1
p365
aV2.2
p366
aV-
aV6.76
p367
aa(lp368
V2015/2016
p369
aVSchalke 04
p370
aVUEL
p371
aV5(1)
p372
aV403
p373
aV-
aV1
aV-
aV-
aV0.5
p374
aV80.5
p375
aV2.8
p376
aV-
aV7.19
p377
aa(lp378
V2014/2015
p379
aVSchalke 04
p380
aVGB
p381
aV6
aV454
p382
aV-
aV-
aV2
aV-
aV0.7
p383
aV79.3
p384
aV2.8
p385
aV-
aV7.04
p386
aa(lp387
V2013/2014
p388
aVSchalke 04
p389
aVUCL
p390
aV3(3)
p391
aV301
p392
aV-
aV-
aV1
aV-
aV0.2
p393
aV84.7
p394
aV0.3
p395
aV-
aV6.52
p396
aa(lp397
V2013/2014
p398
aVSchalke 04
p399
aVGB
p400
aV21(3)
p401
aV1860
p402
aV-
aV2
aV5
aV-
aV0.5
p403
aV77.6
p404
aV1.7
p405
aV1
aV7.05
p406
aa(lp407
V2014
p408
aVBosnia and He..
p409
aVWC
p410
aV2
aV180
p411
aV-
aV-
aV-
aV-
aV-
aV84.7
p412
aV-
aV-
aV6.79
p413
aa(lp414
V2012/2013
p415
aVSchalke 04
p416
aVGB
p417
aV12(4)
p418
aV1108
p419
aV-
aV1
aV2
aV-
aV0.3
p420
aV74.1
p421
aV1
aV1
aV6.79
p422
aa(lp423
V2012/2013
p424
aVSchalke 04
p425
aVUCL
p426
aV3
aV270
p427
aV-
aV-
aV2
aV-
aV0.7
p428
aV74.8
p429
aV1.7
p430
aV-
aV6.50
p431
aa(lp432
VTotal / Average
p433
aV
aV
aV159
p434
aV11814
p435
aV8
aV16
p436
aV28
p437
aV0
aV0.5
p438
aV77.1
p439
aV1.6
p440
aV5
aV6.94
p441
aasS'sumary_data'
p442
(lp443
(lp444
a(lp445
V2018/2019
p446
aVArsenal
p447
aVEPL
p448
aV6
aV517
p449
aV-
aV1
aV-
aV-
aV0.3
p450
aV74.8
p451
aV0.3
p452
aV-
aV6.42
p453
aa(lp454
V2018/2019
p455
aVArsenal
p456
aVUEL
p457
aV1(1)
p458
aV121
p459
aV-
aV-
aV-
aV-
aV-
aV78.8
p460
aV0.5
p461
aV-
aV7.02
p462
aa(lp463
V2017/2018
p464
aVArsenal
p465
aVUEL
p466
aV2(3)
p467
aV225
p468
aV2
aV-
aV1
aV-
aV0.4
p469
aV85.4
p470
aV0.2
p471
aV-
aV6.80
p472
aa(lp473
V2017/2018
p474
aVArsenal
p475
aVEPL
p476
aV25(2)
p477
aV2152
p478
aV2
aV4
aV3
aV-
aV0.8
p479
aV80.1
p480
aV1.7
p481
aV1
aV6.92
p482
aa(lp483
V2016/2017
p484
aVSchalke 04
p485
aVGB
p486
aV24(1)
p487
aV2070
p488
aV3
aV5
aV5
aV-
aV0.7
p489
aV71.7
p490
aV1.8
p491
aV2
aV7.32
p492
aa(lp493
V2016/2017
p494
aVSchalke 04
p495
aVUEL
p496
aV6(2)
p497
aV582
p498
aV-
aV2
aV2
aV-
aV0.3
p499
aV84.8
p500
aV0.6
p501
aV-
aV7.11
p502
aa(lp503
V2015/2016
p504
aVSchalke 04
p505
aVGB
p506
aV18(5)
p507
aV1571
p508
aV1
aV-
aV5
aV-
aV0.5
p509
aV73.1
p510
aV2.2
p511
aV-
aV6.76
p512
aa(lp513
V2015/2016
p514
aVSchalke 04
p515
aVUEL
p516
aV5(1)
p517
aV403
p518
aV-
aV1
aV-
aV-
aV0.5
p519
aV80.5
p520
aV2.8
p521
aV-
aV7.19
p522
aa(lp523
V2014/2015
p524
aVSchalke 04
p525
aVGB
p526
aV6
aV454
p527
aV-
aV-
aV2
aV-
aV0.7
p528
aV79.3
p529
aV2.8
p530
aV-
aV7.04
p531
aa(lp532
V2013/2014
p533
aVSchalke 04
p534
aVUCL
p535
aV3(3)
p536
aV301
p537
aV-
aV-
aV1
aV-
aV0.2
p538
aV84.7
p539
aV0.3
p540
aV-
aV6.52
p541
aa(lp542
V2013/2014
p543
aVSchalke 04
p544
aVGB
p545
aV21(3)
p546
aV1860
p547
aV-
aV2
aV5
aV-
aV0.5
p548
aV77.6
p549
aV1.7
p550
aV1
aV7.05
p551
aa(lp552
V2014
p553
aVBosnia and He..
p554
aVWC
p555
aV2
aV180
p556
aV-
aV-
aV-
aV-
aV-
aV84.7
p557
aV-
aV-
aV6.79
p558
aa(lp559
V2012/2013
p560
aVSchalke 04
p561
aVGB
p562
aV12(4)
p563
aV1108
p564
aV-
aV1
aV2
aV-
aV0.3
p565
aV74.1
p566
aV1
aV1
aV6.79
p567
aa(lp568
V2012/2013
p569
aVSchalke 04
p570
aVUCL
p571
aV3
aV270
p572
aV-
aV-
aV2
aV-
aV0.7
p573
aV74.8
p574
aV1.7
p575
aV-
aV6.50
p576
aa(lp577
VTotal / Average
p578
aV
aV
aV159
p579
aV11814
p580
aV8
aV16
p581
aV28
p582
aV0
aV0.5
p583
aV77.1
p584
aV1.6
p585
aV5
aV6.94
p586
aasS'id'
p587
V110260
p588
sb.