(i__main__
Player
p1
(dp2
S'name'
p3
VOumar Niasse 
p4
sS'offensive_data'
p5
(lp6
(lp7
a(lp8
V2018/2019
p9
aVEverton
p10
aVEPL
p11
aV0(4)
p12
aV48
p13
aV-
aV-
aV-
aV-
aV0.5
p14
aV60
p15
aV0.5
p16
aV-
aV6.06
p17
aa(lp18
V2017/2018
p19
aVEverton
p20
aVEPL
p21
aV10(12)
p22
aV1083
p23
aV8
aV2
aV2
aV-
aV1.7
p24
aV62.4
p25
aV1.5
p26
aV1
aV6.64
p27
aa(lp28
V2016/2017
p29
aVHull
p30
aVEPL
p31
aV12(5)
p32
aV1095
p33
aV4
aV1
aV3
aV1
aV1.5
p34
aV69.8
p35
aV1.5
p36
aV-
aV6.37
p37
aa(lp38
V2015/2016
p39
aVLokomotiv Mos..
p40
aVRPL
p41
aV13(2)
p42
aV1166
p43
aV8
aV6
aV2
aV-
aV3.6
p44
aV72.3
p45
aV1.7
p46
aV2
aV7.29
p47
aa(lp48
V2015/2016
p49
aVLokomotiv Mos..
p50
aVUEL
p51
aV6
aV530
p52
aV4
aV2
aV3
aV-
aV3.5
p53
aV75
p54
aV1.2
p55
aV-
aV7.39
p56
aa(lp57
V2015/2016
p58
aVEverton
p59
aVEPL
p60
aV2(3)
p61
aV142
p62
aV-
aV-
aV-
aV-
aV0.4
p63
aV76.7
p64
aV0.4
p65
aV-
aV6.24
p66
aa(lp67
VTotal / Average
p68
aV
aV
aV69
p69
aV4064
p70
aV24
p71
aV11
p72
aV10
p73
aV1
aV2.1
p74
aV68.4
p75
aV1.4
p76
aV3
aV6.72
p77
aasS'url'
p78
S'https://www.whoscored.com/Players/111141/History/'
p79
sS'passing_data'
p80
(lp81
(lp82
a(lp83
V2018/2019
p84
aVEverton
p85
aVEPL
p86
aV0(4)
p87
aV48
p88
aV-
aV-
aV-
aV-
aV0.5
p89
aV60
p90
aV0.5
p91
aV-
aV6.06
p92
aa(lp93
V2017/2018
p94
aVEverton
p95
aVEPL
p96
aV10(12)
p97
aV1083
p98
aV8
aV2
aV2
aV-
aV1.7
p99
aV62.4
p100
aV1.5
p101
aV1
aV6.64
p102
aa(lp103
V2016/2017
p104
aVHull
p105
aVEPL
p106
aV12(5)
p107
aV1095
p108
aV4
aV1
aV3
aV1
aV1.5
p109
aV69.8
p110
aV1.5
p111
aV-
aV6.37
p112
aa(lp113
V2015/2016
p114
aVLokomotiv Mos..
p115
aVRPL
p116
aV13(2)
p117
aV1166
p118
aV8
aV6
aV2
aV-
aV3.6
p119
aV72.3
p120
aV1.7
p121
aV2
aV7.29
p122
aa(lp123
V2015/2016
p124
aVLokomotiv Mos..
p125
aVUEL
p126
aV6
aV530
p127
aV4
aV2
aV3
aV-
aV3.5
p128
aV75
p129
aV1.2
p130
aV-
aV7.39
p131
aa(lp132
V2015/2016
p133
aVEverton
p134
aVEPL
p135
aV2(3)
p136
aV142
p137
aV-
aV-
aV-
aV-
aV0.4
p138
aV76.7
p139
aV0.4
p140
aV-
aV6.24
p141
aa(lp142
VTotal / Average
p143
aV
aV
aV69
p144
aV4064
p145
aV24
p146
aV11
p147
aV10
p148
aV1
aV2.1
p149
aV68.4
p150
aV1.4
p151
aV3
aV6.72
p152
aasS'defensive_data'
p153
(lp154
(lp155
a(lp156
V2018/2019
p157
aVEverton
p158
aVEPL
p159
aV0(4)
p160
aV48
p161
aV-
aV-
aV-
aV-
aV0.5
p162
aV60
p163
aV0.5
p164
aV-
aV6.06
p165
aa(lp166
V2017/2018
p167
aVEverton
p168
aVEPL
p169
aV10(12)
p170
aV1083
p171
aV8
aV2
aV2
aV-
aV1.7
p172
aV62.4
p173
aV1.5
p174
aV1
aV6.64
p175
aa(lp176
V2016/2017
p177
aVHull
p178
aVEPL
p179
aV12(5)
p180
aV1095
p181
aV4
aV1
aV3
aV1
aV1.5
p182
aV69.8
p183
aV1.5
p184
aV-
aV6.37
p185
aa(lp186
V2015/2016
p187
aVLokomotiv Mos..
p188
aVRPL
p189
aV13(2)
p190
aV1166
p191
aV8
aV6
aV2
aV-
aV3.6
p192
aV72.3
p193
aV1.7
p194
aV2
aV7.29
p195
aa(lp196
V2015/2016
p197
aVLokomotiv Mos..
p198
aVUEL
p199
aV6
aV530
p200
aV4
aV2
aV3
aV-
aV3.5
p201
aV75
p202
aV1.2
p203
aV-
aV7.39
p204
aa(lp205
V2015/2016
p206
aVEverton
p207
aVEPL
p208
aV2(3)
p209
aV142
p210
aV-
aV-
aV-
aV-
aV0.4
p211
aV76.7
p212
aV0.4
p213
aV-
aV6.24
p214
aa(lp215
VTotal / Average
p216
aV
aV
aV69
p217
aV4064
p218
aV24
p219
aV11
p220
aV10
p221
aV1
aV2.1
p222
aV68.4
p223
aV1.4
p224
aV3
aV6.72
p225
aasS'sumary_data'
p226
(lp227
(lp228
a(lp229
V2018/2019
p230
aVEverton
p231
aVEPL
p232
aV0(4)
p233
aV48
p234
aV-
aV-
aV-
aV-
aV0.5
p235
aV60
p236
aV0.5
p237
aV-
aV6.06
p238
aa(lp239
V2017/2018
p240
aVEverton
p241
aVEPL
p242
aV10(12)
p243
aV1083
p244
aV8
aV2
aV2
aV-
aV1.7
p245
aV62.4
p246
aV1.5
p247
aV1
aV6.64
p248
aa(lp249
V2016/2017
p250
aVHull
p251
aVEPL
p252
aV12(5)
p253
aV1095
p254
aV4
aV1
aV3
aV1
aV1.5
p255
aV69.8
p256
aV1.5
p257
aV-
aV6.37
p258
aa(lp259
V2015/2016
p260
aVLokomotiv Mos..
p261
aVRPL
p262
aV13(2)
p263
aV1166
p264
aV8
aV6
aV2
aV-
aV3.6
p265
aV72.3
p266
aV1.7
p267
aV2
aV7.29
p268
aa(lp269
V2015/2016
p270
aVLokomotiv Mos..
p271
aVUEL
p272
aV6
aV530
p273
aV4
aV2
aV3
aV-
aV3.5
p274
aV75
p275
aV1.2
p276
aV-
aV7.39
p277
aa(lp278
V2015/2016
p279
aVEverton
p280
aVEPL
p281
aV2(3)
p282
aV142
p283
aV-
aV-
aV-
aV-
aV0.4
p284
aV76.7
p285
aV0.4
p286
aV-
aV6.24
p287
aa(lp288
VTotal / Average
p289
aV
aV
aV69
p290
aV4064
p291
aV24
p292
aV11
p293
aV10
p294
aV1
aV2.1
p295
aV68.4
p296
aV1.4
p297
aV3
aV6.72
p298
aasS'id'
p299
V111141
p300
sb.