(i__main__
Player
p1
(dp2
S'name'
p3
VPaul Dummett 
p4
sS'offensive_data'
p5
(lp6
(lp7
a(lp8
V2018/2019
p9
aVNewcastle Uni..
p10
aVEPL
p11
aV10(1)
p12
aV901
p13
aV-
aV-
aV-
aV-
aV0.4
p14
aV64.5
p15
aV2
aV-
aV6.71
p16
aa(lp17
V2018/2019
p18
aVWales
p19
aVUNL
p20
aV1(1)
p21
aV48
p22
aV-
aV-
aV1
aV-
aV-
aV81.4
p23
aV2.5
p24
aV-
aV6.46
p25
aa(lp26
V2017/2018
p27
aVNewcastle Uni..
p28
aVEPL
p29
aV19(1)
p30
aV1603
p31
aV-
aV-
aV1
aV-
aV0.2
p32
aV69.4
p33
aV2.8
p34
aV-
aV6.76
p35
aa(lp36
V2016/2017
p37
aVNewcastle Uni..
p38
aVEC
p39
aV44(1)
p40
aV3927
p41
aV-
aV-
aV8
aV1
aV0.2
p42
aV73.9
p43
aV3.5
p44
aV1
aV6.95
p45
aa(lp46
V2015/2016
p47
aVNewcastle Uni..
p48
aVEPL
p49
aV23
p50
aV1897
p51
aV1
aV-
aV3
aV-
aV0.2
p52
aV69.2
p53
aV2
aV-
aV6.89
p54
aa(lp55
V2014/2015
p56
aVNewcastle Uni..
p57
aVEPL
p58
aV24(1)
p59
aV2109
p60
aV-
aV-
aV4
aV-
aV0.7
p61
aV74.4
p62
aV3.6
p63
aV-
aV6.89
p64
aa(lp65
V2013/2014
p66
aVNewcastle Uni..
p67
aVEPL
p68
aV11(7)
p69
aV1138
p70
aV1
aV-
aV1
aV1
aV0.7
p71
aV76.1
p72
aV1.4
p73
aV-
aV6.77
p74
aa(lp75
VTotal / Average
p76
aV
aV
aV144
p77
aV11623
p78
aV2
aV0
aV18
p79
aV2
aV0.4
p80
aV72.3
p81
aV2.8
p82
aV1
aV6.86
p83
aasS'url'
p84
S'https://www.whoscored.com/Players/112009/History/'
p85
sS'passing_data'
p86
(lp87
(lp88
a(lp89
V2018/2019
p90
aVNewcastle Uni..
p91
aVEPL
p92
aV10(1)
p93
aV901
p94
aV-
aV-
aV-
aV-
aV0.4
p95
aV64.5
p96
aV2
aV-
aV6.71
p97
aa(lp98
V2018/2019
p99
aVWales
p100
aVUNL
p101
aV1(1)
p102
aV48
p103
aV-
aV-
aV1
aV-
aV-
aV81.4
p104
aV2.5
p105
aV-
aV6.46
p106
aa(lp107
V2017/2018
p108
aVNewcastle Uni..
p109
aVEPL
p110
aV19(1)
p111
aV1603
p112
aV-
aV-
aV1
aV-
aV0.2
p113
aV69.4
p114
aV2.8
p115
aV-
aV6.76
p116
aa(lp117
V2016/2017
p118
aVNewcastle Uni..
p119
aVEC
p120
aV44(1)
p121
aV3927
p122
aV-
aV-
aV8
aV1
aV0.2
p123
aV73.9
p124
aV3.5
p125
aV1
aV6.95
p126
aa(lp127
V2015/2016
p128
aVNewcastle Uni..
p129
aVEPL
p130
aV23
p131
aV1897
p132
aV1
aV-
aV3
aV-
aV0.2
p133
aV69.2
p134
aV2
aV-
aV6.89
p135
aa(lp136
V2014/2015
p137
aVNewcastle Uni..
p138
aVEPL
p139
aV24(1)
p140
aV2109
p141
aV-
aV-
aV4
aV-
aV0.7
p142
aV74.4
p143
aV3.6
p144
aV-
aV6.89
p145
aa(lp146
V2013/2014
p147
aVNewcastle Uni..
p148
aVEPL
p149
aV11(7)
p150
aV1138
p151
aV1
aV-
aV1
aV1
aV0.7
p152
aV76.1
p153
aV1.4
p154
aV-
aV6.77
p155
aa(lp156
VTotal / Average
p157
aV
aV
aV144
p158
aV11623
p159
aV2
aV0
aV18
p160
aV2
aV0.4
p161
aV72.3
p162
aV2.8
p163
aV1
aV6.86
p164
aasS'defensive_data'
p165
(lp166
(lp167
a(lp168
V2018/2019
p169
aVNewcastle Uni..
p170
aVEPL
p171
aV10(1)
p172
aV901
p173
aV-
aV-
aV-
aV-
aV0.4
p174
aV64.5
p175
aV2
aV-
aV6.71
p176
aa(lp177
V2018/2019
p178
aVWales
p179
aVUNL
p180
aV1(1)
p181
aV48
p182
aV-
aV-
aV1
aV-
aV-
aV81.4
p183
aV2.5
p184
aV-
aV6.46
p185
aa(lp186
V2017/2018
p187
aVNewcastle Uni..
p188
aVEPL
p189
aV19(1)
p190
aV1603
p191
aV-
aV-
aV1
aV-
aV0.2
p192
aV69.4
p193
aV2.8
p194
aV-
aV6.76
p195
aa(lp196
V2016/2017
p197
aVNewcastle Uni..
p198
aVEC
p199
aV44(1)
p200
aV3927
p201
aV-
aV-
aV8
aV1
aV0.2
p202
aV73.9
p203
aV3.5
p204
aV1
aV6.95
p205
aa(lp206
V2015/2016
p207
aVNewcastle Uni..
p208
aVEPL
p209
aV23
p210
aV1897
p211
aV1
aV-
aV3
aV-
aV0.2
p212
aV69.2
p213
aV2
aV-
aV6.89
p214
aa(lp215
V2014/2015
p216
aVNewcastle Uni..
p217
aVEPL
p218
aV24(1)
p219
aV2109
p220
aV-
aV-
aV4
aV-
aV0.7
p221
aV74.4
p222
aV3.6
p223
aV-
aV6.89
p224
aa(lp225
V2013/2014
p226
aVNewcastle Uni..
p227
aVEPL
p228
aV11(7)
p229
aV1138
p230
aV1
aV-
aV1
aV1
aV0.7
p231
aV76.1
p232
aV1.4
p233
aV-
aV6.77
p234
aa(lp235
VTotal / Average
p236
aV
aV
aV144
p237
aV11623
p238
aV2
aV0
aV18
p239
aV2
aV0.4
p240
aV72.3
p241
aV2.8
p242
aV1
aV6.86
p243
aasS'sumary_data'
p244
(lp245
(lp246
a(lp247
V2018/2019
p248
aVNewcastle Uni..
p249
aVEPL
p250
aV10(1)
p251
aV901
p252
aV-
aV-
aV-
aV-
aV0.4
p253
aV64.5
p254
aV2
aV-
aV6.71
p255
aa(lp256
V2018/2019
p257
aVWales
p258
aVUNL
p259
aV1(1)
p260
aV48
p261
aV-
aV-
aV1
aV-
aV-
aV81.4
p262
aV2.5
p263
aV-
aV6.46
p264
aa(lp265
V2017/2018
p266
aVNewcastle Uni..
p267
aVEPL
p268
aV19(1)
p269
aV1603
p270
aV-
aV-
aV1
aV-
aV0.2
p271
aV69.4
p272
aV2.8
p273
aV-
aV6.76
p274
aa(lp275
V2016/2017
p276
aVNewcastle Uni..
p277
aVEC
p278
aV44(1)
p279
aV3927
p280
aV-
aV-
aV8
aV1
aV0.2
p281
aV73.9
p282
aV3.5
p283
aV1
aV6.95
p284
aa(lp285
V2015/2016
p286
aVNewcastle Uni..
p287
aVEPL
p288
aV23
p289
aV1897
p290
aV1
aV-
aV3
aV-
aV0.2
p291
aV69.2
p292
aV2
aV-
aV6.89
p293
aa(lp294
V2014/2015
p295
aVNewcastle Uni..
p296
aVEPL
p297
aV24(1)
p298
aV2109
p299
aV-
aV-
aV4
aV-
aV0.7
p300
aV74.4
p301
aV3.6
p302
aV-
aV6.89
p303
aa(lp304
V2013/2014
p305
aVNewcastle Uni..
p306
aVEPL
p307
aV11(7)
p308
aV1138
p309
aV1
aV-
aV1
aV1
aV0.7
p310
aV76.1
p311
aV1.4
p312
aV-
aV6.77
p313
aa(lp314
VTotal / Average
p315
aV
aV
aV144
p316
aV11623
p317
aV2
aV0
aV18
p318
aV2
aV0.4
p319
aV72.3
p320
aV2.8
p321
aV1
aV6.86
p322
aasS'id'
p323
V112009
p324
sb.