(i__main__
Player
p1
(dp2
S'name'
p3
VAlberto Moreno 
p4
sS'offensive_data'
p5
(lp6
(lp7
a(lp8
V2018/2019
p9
aVLiverpool
p10
aVEPL
p11
aV2
aV155
p12
aV-
aV-
aV-
aV-
aV0.5
p13
aV87.6
p14
aV-
aV-
aV6.65
p15
aa(lp16
V2018/2019
p17
aVLiverpool
p18
aVUCL
p19
aV0(1)
p20
aV8
aV-
aV-
aV-
aV-
aV1
aV100
p21
aV-
aV-
aV6.15
p22
aa(lp23
V2017/2018
p24
aVLiverpool
p25
aVUCL
p26
aV7(1)
p27
aV564
p28
aV-
aV3
aV2
aV-
aV0.9
p29
aV88.2
p30
aV0.9
p31
aV1
aV7.24
p32
aa(lp33
V2017/2018
p34
aVLiverpool
p35
aVEPL
p36
aV14(2)
p37
aV1264
p38
aV-
aV-
aV1
aV-
aV0.8
p39
aV84.3
p40
aV0.6
p41
aV-
aV6.80
p42
aa(lp43
V2016/2017
p44
aVLiverpool
p45
aVEPL
p46
aV2(10)
p47
aV298
p48
aV-
aV1
aV1
aV-
aV0.3
p49
aV83.5
p50
aV0.2
p51
aV-
aV6.28
p52
aa(lp53
V2015/2016
p54
aVLiverpool
p55
aVUEL
p56
aV12(1)
p57
aV1125
p58
aV-
aV1
aV2
aV-
aV1.4
p59
aV85.1
p60
aV0.5
p61
aV1
aV7.15
p62
aa(lp63
V2015/2016
p64
aVLiverpool
p65
aVEPL
p66
aV28(4)
p67
aV2548
p68
aV1
aV4
aV3
aV-
aV1.1
p69
aV81.3
p70
aV0.4
p71
aV3
aV7.05
p72
aa(lp73
V2014/2015
p74
aVLiverpool
p75
aVUCL
p76
aV3(2)
p77
aV323
p78
aV-
aV1
aV2
aV-
aV0.6
p79
aV91.5
p80
aV0.2
p81
aV-
aV6.95
p82
aa(lp83
V2014/2015
p84
aVLiverpool
p85
aVUEL
p86
aV2
aV210
p87
aV-
aV-
aV-
aV-
aV1.5
p88
aV81.6
p89
aV-
aV-
aV6.86
p90
aa(lp91
V2014/2015
p92
aVLiverpool
p93
aVEPL
p94
aV26(2)
p95
aV2263
p96
aV2
aV-
aV6
aV-
aV0.6
p97
aV82.7
p98
aV0.5
p99
aV-
aV6.72
p100
aa(lp101
V2013/2014
p102
aVSevilla
p103
aVSLL
p104
aV27(1)
p105
aV2409
p106
aV3
aV-
aV5
aV1
aV0.8
p107
aV78.5
p108
aV0.9
p109
aV2
aV6.92
p110
aa(lp111
V2013/2014
p112
aVSevilla
p113
aVUEL
p114
aV8(2)
p115
aV816
p116
aV-
aV1
aV4
aV-
aV0.6
p117
aV80
p118
aV1
aV-
aV6.98
p119
aa(lp120
V2013
p121
aVSpain U21
p122
aVIEU
p123
aV4
aV360
p124
aV-
aV1
aV1
aV-
aV0.8
p125
aV89.3
p126
aV1.8
p127
aV1
aV7.79
p128
aa(lp129
V2012/2013
p130
aVSevilla
p131
aVSLL
p132
aV12(3)
p133
aV1106
p134
aV-
aV1
aV5
aV-
aV0.4
p135
aV78
p136
aV0.7
p137
aV1
aV6.93
p138
aa(lp139
V2011/2012
p140
aVSevilla
p141
aVSLL
p142
aV0(1)
p143
aV11
p144
aV-
aV-
aV-
aV-
aV-
aV100
p145
aV-
aV-
aV6.19
p146
aa(lp147
VTotal / Average
p148
aV
aV
aV177
p149
aV13460
p150
aV6
aV13
p151
aV32
p152
aV1
aV0.8
p153
aV82.5
p154
aV0.6
p155
aV9
aV6.90
p156
aasS'url'
p157
S'https://www.whoscored.com/Players/113275/History/'
p158
sS'passing_data'
p159
(lp160
(lp161
a(lp162
V2018/2019
p163
aVLiverpool
p164
aVEPL
p165
aV2
aV155
p166
aV-
aV-
aV-
aV-
aV0.5
p167
aV87.6
p168
aV-
aV-
aV6.65
p169
aa(lp170
V2018/2019
p171
aVLiverpool
p172
aVUCL
p173
aV0(1)
p174
aV8
aV-
aV-
aV-
aV-
aV1
aV100
p175
aV-
aV-
aV6.15
p176
aa(lp177
V2017/2018
p178
aVLiverpool
p179
aVUCL
p180
aV7(1)
p181
aV564
p182
aV-
aV3
aV2
aV-
aV0.9
p183
aV88.2
p184
aV0.9
p185
aV1
aV7.24
p186
aa(lp187
V2017/2018
p188
aVLiverpool
p189
aVEPL
p190
aV14(2)
p191
aV1264
p192
aV-
aV-
aV1
aV-
aV0.8
p193
aV84.3
p194
aV0.6
p195
aV-
aV6.80
p196
aa(lp197
V2016/2017
p198
aVLiverpool
p199
aVEPL
p200
aV2(10)
p201
aV298
p202
aV-
aV1
aV1
aV-
aV0.3
p203
aV83.5
p204
aV0.2
p205
aV-
aV6.28
p206
aa(lp207
V2015/2016
p208
aVLiverpool
p209
aVUEL
p210
aV12(1)
p211
aV1125
p212
aV-
aV1
aV2
aV-
aV1.4
p213
aV85.1
p214
aV0.5
p215
aV1
aV7.15
p216
aa(lp217
V2015/2016
p218
aVLiverpool
p219
aVEPL
p220
aV28(4)
p221
aV2548
p222
aV1
aV4
aV3
aV-
aV1.1
p223
aV81.3
p224
aV0.4
p225
aV3
aV7.05
p226
aa(lp227
V2014/2015
p228
aVLiverpool
p229
aVUCL
p230
aV3(2)
p231
aV323
p232
aV-
aV1
aV2
aV-
aV0.6
p233
aV91.5
p234
aV0.2
p235
aV-
aV6.95
p236
aa(lp237
V2014/2015
p238
aVLiverpool
p239
aVUEL
p240
aV2
aV210
p241
aV-
aV-
aV-
aV-
aV1.5
p242
aV81.6
p243
aV-
aV-
aV6.86
p244
aa(lp245
V2014/2015
p246
aVLiverpool
p247
aVEPL
p248
aV26(2)
p249
aV2263
p250
aV2
aV-
aV6
aV-
aV0.6
p251
aV82.7
p252
aV0.5
p253
aV-
aV6.72
p254
aa(lp255
V2013/2014
p256
aVSevilla
p257
aVSLL
p258
aV27(1)
p259
aV2409
p260
aV3
aV-
aV5
aV1
aV0.8
p261
aV78.5
p262
aV0.9
p263
aV2
aV6.92
p264
aa(lp265
V2013/2014
p266
aVSevilla
p267
aVUEL
p268
aV8(2)
p269
aV816
p270
aV-
aV1
aV4
aV-
aV0.6
p271
aV80
p272
aV1
aV-
aV6.98
p273
aa(lp274
V2013
p275
aVSpain U21
p276
aVIEU
p277
aV4
aV360
p278
aV-
aV1
aV1
aV-
aV0.8
p279
aV89.3
p280
aV1.8
p281
aV1
aV7.79
p282
aa(lp283
V2012/2013
p284
aVSevilla
p285
aVSLL
p286
aV12(3)
p287
aV1106
p288
aV-
aV1
aV5
aV-
aV0.4
p289
aV78
p290
aV0.7
p291
aV1
aV6.93
p292
aa(lp293
V2011/2012
p294
aVSevilla
p295
aVSLL
p296
aV0(1)
p297
aV11
p298
aV-
aV-
aV-
aV-
aV-
aV100
p299
aV-
aV-
aV6.19
p300
aa(lp301
VTotal / Average
p302
aV
aV
aV177
p303
aV13460
p304
aV6
aV13
p305
aV32
p306
aV1
aV0.8
p307
aV82.5
p308
aV0.6
p309
aV9
aV6.90
p310
aasS'defensive_data'
p311
(lp312
(lp313
a(lp314
V2018/2019
p315
aVLiverpool
p316
aVEPL
p317
aV2
aV155
p318
aV-
aV-
aV-
aV-
aV0.5
p319
aV87.6
p320
aV-
aV-
aV6.65
p321
aa(lp322
V2018/2019
p323
aVLiverpool
p324
aVUCL
p325
aV0(1)
p326
aV8
aV-
aV-
aV-
aV-
aV1
aV100
p327
aV-
aV-
aV6.15
p328
aa(lp329
V2017/2018
p330
aVLiverpool
p331
aVUCL
p332
aV7(1)
p333
aV564
p334
aV-
aV3
aV2
aV-
aV0.9
p335
aV88.2
p336
aV0.9
p337
aV1
aV7.24
p338
aa(lp339
V2017/2018
p340
aVLiverpool
p341
aVEPL
p342
aV14(2)
p343
aV1264
p344
aV-
aV-
aV1
aV-
aV0.8
p345
aV84.3
p346
aV0.6
p347
aV-
aV6.80
p348
aa(lp349
V2016/2017
p350
aVLiverpool
p351
aVEPL
p352
aV2(10)
p353
aV298
p354
aV-
aV1
aV1
aV-
aV0.3
p355
aV83.5
p356
aV0.2
p357
aV-
aV6.28
p358
aa(lp359
V2015/2016
p360
aVLiverpool
p361
aVUEL
p362
aV12(1)
p363
aV1125
p364
aV-
aV1
aV2
aV-
aV1.4
p365
aV85.1
p366
aV0.5
p367
aV1
aV7.15
p368
aa(lp369
V2015/2016
p370
aVLiverpool
p371
aVEPL
p372
aV28(4)
p373
aV2548
p374
aV1
aV4
aV3
aV-
aV1.1
p375
aV81.3
p376
aV0.4
p377
aV3
aV7.05
p378
aa(lp379
V2014/2015
p380
aVLiverpool
p381
aVUCL
p382
aV3(2)
p383
aV323
p384
aV-
aV1
aV2
aV-
aV0.6
p385
aV91.5
p386
aV0.2
p387
aV-
aV6.95
p388
aa(lp389
V2014/2015
p390
aVLiverpool
p391
aVUEL
p392
aV2
aV210
p393
aV-
aV-
aV-
aV-
aV1.5
p394
aV81.6
p395
aV-
aV-
aV6.86
p396
aa(lp397
V2014/2015
p398
aVLiverpool
p399
aVEPL
p400
aV26(2)
p401
aV2263
p402
aV2
aV-
aV6
aV-
aV0.6
p403
aV82.7
p404
aV0.5
p405
aV-
aV6.72
p406
aa(lp407
V2013/2014
p408
aVSevilla
p409
aVSLL
p410
aV27(1)
p411
aV2409
p412
aV3
aV-
aV5
aV1
aV0.8
p413
aV78.5
p414
aV0.9
p415
aV2
aV6.92
p416
aa(lp417
V2013/2014
p418
aVSevilla
p419
aVUEL
p420
aV8(2)
p421
aV816
p422
aV-
aV1
aV4
aV-
aV0.6
p423
aV80
p424
aV1
aV-
aV6.98
p425
aa(lp426
V2013
p427
aVSpain U21
p428
aVIEU
p429
aV4
aV360
p430
aV-
aV1
aV1
aV-
aV0.8
p431
aV89.3
p432
aV1.8
p433
aV1
aV7.79
p434
aa(lp435
V2012/2013
p436
aVSevilla
p437
aVSLL
p438
aV12(3)
p439
aV1106
p440
aV-
aV1
aV5
aV-
aV0.4
p441
aV78
p442
aV0.7
p443
aV1
aV6.93
p444
aa(lp445
V2011/2012
p446
aVSevilla
p447
aVSLL
p448
aV0(1)
p449
aV11
p450
aV-
aV-
aV-
aV-
aV-
aV100
p451
aV-
aV-
aV6.19
p452
aa(lp453
VTotal / Average
p454
aV
aV
aV177
p455
aV13460
p456
aV6
aV13
p457
aV32
p458
aV1
aV0.8
p459
aV82.5
p460
aV0.6
p461
aV9
aV6.90
p462
aasS'sumary_data'
p463
(lp464
(lp465
a(lp466
V2018/2019
p467
aVLiverpool
p468
aVEPL
p469
aV2
aV155
p470
aV-
aV-
aV-
aV-
aV0.5
p471
aV87.6
p472
aV-
aV-
aV6.65
p473
aa(lp474
V2018/2019
p475
aVLiverpool
p476
aVUCL
p477
aV0(1)
p478
aV8
aV-
aV-
aV-
aV-
aV1
aV100
p479
aV-
aV-
aV6.15
p480
aa(lp481
V2017/2018
p482
aVLiverpool
p483
aVUCL
p484
aV7(1)
p485
aV564
p486
aV-
aV3
aV2
aV-
aV0.9
p487
aV88.2
p488
aV0.9
p489
aV1
aV7.24
p490
aa(lp491
V2017/2018
p492
aVLiverpool
p493
aVEPL
p494
aV14(2)
p495
aV1264
p496
aV-
aV-
aV1
aV-
aV0.8
p497
aV84.3
p498
aV0.6
p499
aV-
aV6.80
p500
aa(lp501
V2016/2017
p502
aVLiverpool
p503
aVEPL
p504
aV2(10)
p505
aV298
p506
aV-
aV1
aV1
aV-
aV0.3
p507
aV83.5
p508
aV0.2
p509
aV-
aV6.28
p510
aa(lp511
V2015/2016
p512
aVLiverpool
p513
aVUEL
p514
aV12(1)
p515
aV1125
p516
aV-
aV1
aV2
aV-
aV1.4
p517
aV85.1
p518
aV0.5
p519
aV1
aV7.15
p520
aa(lp521
V2015/2016
p522
aVLiverpool
p523
aVEPL
p524
aV28(4)
p525
aV2548
p526
aV1
aV4
aV3
aV-
aV1.1
p527
aV81.3
p528
aV0.4
p529
aV3
aV7.05
p530
aa(lp531
V2014/2015
p532
aVLiverpool
p533
aVUCL
p534
aV3(2)
p535
aV323
p536
aV-
aV1
aV2
aV-
aV0.6
p537
aV91.5
p538
aV0.2
p539
aV-
aV6.95
p540
aa(lp541
V2014/2015
p542
aVLiverpool
p543
aVUEL
p544
aV2
aV210
p545
aV-
aV-
aV-
aV-
aV1.5
p546
aV81.6
p547
aV-
aV-
aV6.86
p548
aa(lp549
V2014/2015
p550
aVLiverpool
p551
aVEPL
p552
aV26(2)
p553
aV2263
p554
aV2
aV-
aV6
aV-
aV0.6
p555
aV82.7
p556
aV0.5
p557
aV-
aV6.72
p558
aa(lp559
V2013/2014
p560
aVSevilla
p561
aVSLL
p562
aV27(1)
p563
aV2409
p564
aV3
aV-
aV5
aV1
aV0.8
p565
aV78.5
p566
aV0.9
p567
aV2
aV6.92
p568
aa(lp569
V2013/2014
p570
aVSevilla
p571
aVUEL
p572
aV8(2)
p573
aV816
p574
aV-
aV1
aV4
aV-
aV0.6
p575
aV80
p576
aV1
aV-
aV6.98
p577
aa(lp578
V2013
p579
aVSpain U21
p580
aVIEU
p581
aV4
aV360
p582
aV-
aV1
aV1
aV-
aV0.8
p583
aV89.3
p584
aV1.8
p585
aV1
aV7.79
p586
aa(lp587
V2012/2013
p588
aVSevilla
p589
aVSLL
p590
aV12(3)
p591
aV1106
p592
aV-
aV1
aV5
aV-
aV0.4
p593
aV78
p594
aV0.7
p595
aV1
aV6.93
p596
aa(lp597
V2011/2012
p598
aVSevilla
p599
aVSLL
p600
aV0(1)
p601
aV11
p602
aV-
aV-
aV-
aV-
aV-
aV100
p603
aV-
aV-
aV6.19
p604
aa(lp605
VTotal / Average
p606
aV
aV
aV177
p607
aV13460
p608
aV6
aV13
p609
aV32
p610
aV1
aV0.8
p611
aV82.5
p612
aV0.6
p613
aV9
aV6.90
p614
aasS'id'
p615
V113275
p616
sb.