(i__main__
Player
p1
(dp2
S'name'
p3
VKepa Arrizabalaga 
p4
sS'offensive_data'
p5
(lp6
(lp7
a(lp8
V2018/2019
p9
aVChelsea
p10
aVEPL
p11
aV17
p12
aV1530
p13
aV-
aV-
aV1
aV-
aV-
aV85.7
p14
aV0.2
p15
aV-
aV6.66
p16
aa(lp17
V2018/2019
p18
aVChelsea
p19
aVUEL
p20
aV5
aV450
p21
aV-
aV-
aV-
aV-
aV-
aV93.9
p22
aV0.2
p23
aV-
aV6.70
p24
aa(lp25
V2017/2018
p26
aVAthletic Bilb..
p27
aVSLL
p28
aV30
p29
aV2700
p30
aV-
aV-
aV4
aV-
aV-
aV62.9
p31
aV0.3
p32
aV2
aV6.79
p33
aa(lp34
V2016/2017
p35
aVAthletic Bilb..
p36
aVSLL
p37
aV23
p38
aV2016
p39
aV-
aV-
aV1
aV-
aV-
aV61.5
p40
aV0.3
p41
aV-
aV6.56
p42
aa(lp43
VTotal / Average
p44
aV
aV
aV75
p45
aV6696
p46
aV0
aV0
aV6
aV0
aV0
aV69.7
p47
aV0.3
p48
aV2
aV6.68
p49
aasS'url'
p50
S'https://www.whoscored.com/Players/113880/History/'
p51
sS'passing_data'
p52
(lp53
(lp54
a(lp55
V2018/2019
p56
aVChelsea
p57
aVEPL
p58
aV17
p59
aV1530
p60
aV-
aV-
aV1
aV-
aV-
aV85.7
p61
aV0.2
p62
aV-
aV6.66
p63
aa(lp64
V2018/2019
p65
aVChelsea
p66
aVUEL
p67
aV5
aV450
p68
aV-
aV-
aV-
aV-
aV-
aV93.9
p69
aV0.2
p70
aV-
aV6.70
p71
aa(lp72
V2017/2018
p73
aVAthletic Bilb..
p74
aVSLL
p75
aV30
p76
aV2700
p77
aV-
aV-
aV4
aV-
aV-
aV62.9
p78
aV0.3
p79
aV2
aV6.79
p80
aa(lp81
V2016/2017
p82
aVAthletic Bilb..
p83
aVSLL
p84
aV23
p85
aV2016
p86
aV-
aV-
aV1
aV-
aV-
aV61.5
p87
aV0.3
p88
aV-
aV6.56
p89
aa(lp90
VTotal / Average
p91
aV
aV
aV75
p92
aV6696
p93
aV0
aV0
aV6
aV0
aV0
aV69.7
p94
aV0.3
p95
aV2
aV6.68
p96
aasS'defensive_data'
p97
(lp98
(lp99
a(lp100
V2018/2019
p101
aVChelsea
p102
aVEPL
p103
aV17
p104
aV1530
p105
aV-
aV-
aV1
aV-
aV-
aV85.7
p106
aV0.2
p107
aV-
aV6.66
p108
aa(lp109
V2018/2019
p110
aVChelsea
p111
aVUEL
p112
aV5
aV450
p113
aV-
aV-
aV-
aV-
aV-
aV93.9
p114
aV0.2
p115
aV-
aV6.70
p116
aa(lp117
V2017/2018
p118
aVAthletic Bilb..
p119
aVSLL
p120
aV30
p121
aV2700
p122
aV-
aV-
aV4
aV-
aV-
aV62.9
p123
aV0.3
p124
aV2
aV6.79
p125
aa(lp126
V2016/2017
p127
aVAthletic Bilb..
p128
aVSLL
p129
aV23
p130
aV2016
p131
aV-
aV-
aV1
aV-
aV-
aV61.5
p132
aV0.3
p133
aV-
aV6.56
p134
aa(lp135
VTotal / Average
p136
aV
aV
aV75
p137
aV6696
p138
aV0
aV0
aV6
aV0
aV0
aV69.7
p139
aV0.3
p140
aV2
aV6.68
p141
aasS'sumary_data'
p142
(lp143
(lp144
a(lp145
V2018/2019
p146
aVChelsea
p147
aVEPL
p148
aV17
p149
aV1530
p150
aV-
aV-
aV1
aV-
aV-
aV85.7
p151
aV0.2
p152
aV-
aV6.66
p153
aa(lp154
V2018/2019
p155
aVChelsea
p156
aVUEL
p157
aV5
aV450
p158
aV-
aV-
aV-
aV-
aV-
aV93.9
p159
aV0.2
p160
aV-
aV6.70
p161
aa(lp162
V2017/2018
p163
aVAthletic Bilb..
p164
aVSLL
p165
aV30
p166
aV2700
p167
aV-
aV-
aV4
aV-
aV-
aV62.9
p168
aV0.3
p169
aV2
aV6.79
p170
aa(lp171
V2016/2017
p172
aVAthletic Bilb..
p173
aVSLL
p174
aV23
p175
aV2016
p176
aV-
aV-
aV1
aV-
aV-
aV61.5
p177
aV0.3
p178
aV-
aV6.56
p179
aa(lp180
VTotal / Average
p181
aV
aV
aV75
p182
aV6696
p183
aV0
aV0
aV6
aV0
aV0
aV69.7
p184
aV0.3
p185
aV2
aV6.68
p186
aasS'id'
p187
V113880
p188
sb.