(i__main__
Player
p1
(dp2
S'name'
p3
VAlisson 
p4
sS'offensive_data'
p5
(lp6
(lp7
a(lp8
V2018/2019
p9
aVLiverpool
p10
aVEPL
p11
aV17
p12
aV1530
p13
aV-
aV-
aV-
aV-
aV-
aV77.6
p14
aV0.4
p15
aV-
aV6.86
p16
aa(lp17
V2018/2019
p18
aVLiverpool
p19
aVUCL
p20
aV6
aV540
p21
aV-
aV-
aV-
aV-
aV-
aV76.4
p22
aV-
aV-
aV6.66
p23
aa(lp24
V2017/2018
p25
aVRoma
p26
aVISA
p27
aV37
p28
aV3330
p29
aV-
aV-
aV1
aV-
aV-
aV78.9
p30
aV0.2
p31
aV1
aV6.99
p32
aa(lp33
V2017/2018
p34
aVRoma
p35
aVUCL
p36
aV12
p37
aV1080
p38
aV-
aV-
aV-
aV-
aV-
aV80.4
p39
aV0.3
p40
aV-
aV6.86
p41
aa(lp42
V2016/2017
p43
aVRoma
p44
aVUEL
p45
aV10
p46
aV900
p47
aV-
aV-
aV-
aV-
aV-
aV82.1
p48
aV-
aV1
aV7.01
p49
aa(lp50
V2016
p51
aVInternacional
p52
aVBSA
p53
aV1
aV90
p54
aV-
aV-
aV-
aV-
aV-
aV71.4
p55
aV-
aV-
aV6.95
p56
aa(lp57
V2018
p58
aVBrazil
p59
aVWC
p60
aV5
aV450
p61
aV-
aV-
aV-
aV-
aV-
aV84.2
p62
aV0.4
p63
aV-
aV6.40
p64
aa(lp65
V2015
p66
aVInternacional
p67
aVBSA
p68
aV26
p69
aV2266
p70
aV-
aV-
aV3
aV-
aV-
aV55.4
p71
aV0.4
p72
aV4
aV6.98
p73
aa(lp74
V2014
p75
aVInternacional
p76
aVBSA
p77
aV11
p78
aV990
p79
aV-
aV-
aV1
aV-
aV-
aV61
p80
aV0.6
p81
aV1
aV6.91
p82
aa(lp83
V2013
p84
aVInternacional
p85
aVBSA
p86
aV6
aV518
p87
aV-
aV-
aV1
aV-
aV-
aV58.9
p88
aV0.2
p89
aV-
aV6.52
p90
aa(lp91
VTotal / Average
p92
aV
aV
aV131
p93
aV11694
p94
aV0
aV0
aV6
aV0
aV0
aV72.1
p95
aV0.3
p96
aV7
aV6.89
p97
aasS'url'
p98
S'https://www.whoscored.com/Players/114147/History/'
p99
sS'passing_data'
p100
(lp101
(lp102
a(lp103
V2018/2019
p104
aVLiverpool
p105
aVEPL
p106
aV17
p107
aV1530
p108
aV-
aV-
aV-
aV-
aV-
aV77.6
p109
aV0.4
p110
aV-
aV6.86
p111
aa(lp112
V2018/2019
p113
aVLiverpool
p114
aVUCL
p115
aV6
aV540
p116
aV-
aV-
aV-
aV-
aV-
aV76.4
p117
aV-
aV-
aV6.66
p118
aa(lp119
V2017/2018
p120
aVRoma
p121
aVISA
p122
aV37
p123
aV3330
p124
aV-
aV-
aV1
aV-
aV-
aV78.9
p125
aV0.2
p126
aV1
aV6.99
p127
aa(lp128
V2017/2018
p129
aVRoma
p130
aVUCL
p131
aV12
p132
aV1080
p133
aV-
aV-
aV-
aV-
aV-
aV80.4
p134
aV0.3
p135
aV-
aV6.86
p136
aa(lp137
V2016/2017
p138
aVRoma
p139
aVUEL
p140
aV10
p141
aV900
p142
aV-
aV-
aV-
aV-
aV-
aV82.1
p143
aV-
aV1
aV7.01
p144
aa(lp145
V2016
p146
aVInternacional
p147
aVBSA
p148
aV1
aV90
p149
aV-
aV-
aV-
aV-
aV-
aV71.4
p150
aV-
aV-
aV6.95
p151
aa(lp152
V2018
p153
aVBrazil
p154
aVWC
p155
aV5
aV450
p156
aV-
aV-
aV-
aV-
aV-
aV84.2
p157
aV0.4
p158
aV-
aV6.40
p159
aa(lp160
V2015
p161
aVInternacional
p162
aVBSA
p163
aV26
p164
aV2266
p165
aV-
aV-
aV3
aV-
aV-
aV55.4
p166
aV0.4
p167
aV4
aV6.98
p168
aa(lp169
V2014
p170
aVInternacional
p171
aVBSA
p172
aV11
p173
aV990
p174
aV-
aV-
aV1
aV-
aV-
aV61
p175
aV0.6
p176
aV1
aV6.91
p177
aa(lp178
V2013
p179
aVInternacional
p180
aVBSA
p181
aV6
aV518
p182
aV-
aV-
aV1
aV-
aV-
aV58.9
p183
aV0.2
p184
aV-
aV6.52
p185
aa(lp186
VTotal / Average
p187
aV
aV
aV131
p188
aV11694
p189
aV0
aV0
aV6
aV0
aV0
aV72.1
p190
aV0.3
p191
aV7
aV6.89
p192
aasS'defensive_data'
p193
(lp194
(lp195
a(lp196
V2018/2019
p197
aVLiverpool
p198
aVEPL
p199
aV17
p200
aV1530
p201
aV-
aV-
aV-
aV-
aV-
aV77.6
p202
aV0.4
p203
aV-
aV6.86
p204
aa(lp205
V2018/2019
p206
aVLiverpool
p207
aVUCL
p208
aV6
aV540
p209
aV-
aV-
aV-
aV-
aV-
aV76.4
p210
aV-
aV-
aV6.66
p211
aa(lp212
V2017/2018
p213
aVRoma
p214
aVISA
p215
aV37
p216
aV3330
p217
aV-
aV-
aV1
aV-
aV-
aV78.9
p218
aV0.2
p219
aV1
aV6.99
p220
aa(lp221
V2017/2018
p222
aVRoma
p223
aVUCL
p224
aV12
p225
aV1080
p226
aV-
aV-
aV-
aV-
aV-
aV80.4
p227
aV0.3
p228
aV-
aV6.86
p229
aa(lp230
V2016/2017
p231
aVRoma
p232
aVUEL
p233
aV10
p234
aV900
p235
aV-
aV-
aV-
aV-
aV-
aV82.1
p236
aV-
aV1
aV7.01
p237
aa(lp238
V2016
p239
aVInternacional
p240
aVBSA
p241
aV1
aV90
p242
aV-
aV-
aV-
aV-
aV-
aV71.4
p243
aV-
aV-
aV6.95
p244
aa(lp245
V2018
p246
aVBrazil
p247
aVWC
p248
aV5
aV450
p249
aV-
aV-
aV-
aV-
aV-
aV84.2
p250
aV0.4
p251
aV-
aV6.40
p252
aa(lp253
V2015
p254
aVInternacional
p255
aVBSA
p256
aV26
p257
aV2266
p258
aV-
aV-
aV3
aV-
aV-
aV55.4
p259
aV0.4
p260
aV4
aV6.98
p261
aa(lp262
V2014
p263
aVInternacional
p264
aVBSA
p265
aV11
p266
aV990
p267
aV-
aV-
aV1
aV-
aV-
aV61
p268
aV0.6
p269
aV1
aV6.91
p270
aa(lp271
V2013
p272
aVInternacional
p273
aVBSA
p274
aV6
aV518
p275
aV-
aV-
aV1
aV-
aV-
aV58.9
p276
aV0.2
p277
aV-
aV6.52
p278
aa(lp279
VTotal / Average
p280
aV
aV
aV131
p281
aV11694
p282
aV0
aV0
aV6
aV0
aV0
aV72.1
p283
aV0.3
p284
aV7
aV6.89
p285
aasS'sumary_data'
p286
(lp287
(lp288
a(lp289
V2018/2019
p290
aVLiverpool
p291
aVEPL
p292
aV17
p293
aV1530
p294
aV-
aV-
aV-
aV-
aV-
aV77.6
p295
aV0.4
p296
aV-
aV6.86
p297
aa(lp298
V2018/2019
p299
aVLiverpool
p300
aVUCL
p301
aV6
aV540
p302
aV-
aV-
aV-
aV-
aV-
aV76.4
p303
aV-
aV-
aV6.66
p304
aa(lp305
V2017/2018
p306
aVRoma
p307
aVISA
p308
aV37
p309
aV3330
p310
aV-
aV-
aV1
aV-
aV-
aV78.9
p311
aV0.2
p312
aV1
aV6.99
p313
aa(lp314
V2017/2018
p315
aVRoma
p316
aVUCL
p317
aV12
p318
aV1080
p319
aV-
aV-
aV-
aV-
aV-
aV80.4
p320
aV0.3
p321
aV-
aV6.86
p322
aa(lp323
V2016/2017
p324
aVRoma
p325
aVUEL
p326
aV10
p327
aV900
p328
aV-
aV-
aV-
aV-
aV-
aV82.1
p329
aV-
aV1
aV7.01
p330
aa(lp331
V2016
p332
aVInternacional
p333
aVBSA
p334
aV1
aV90
p335
aV-
aV-
aV-
aV-
aV-
aV71.4
p336
aV-
aV-
aV6.95
p337
aa(lp338
V2018
p339
aVBrazil
p340
aVWC
p341
aV5
aV450
p342
aV-
aV-
aV-
aV-
aV-
aV84.2
p343
aV0.4
p344
aV-
aV6.40
p345
aa(lp346
V2015
p347
aVInternacional
p348
aVBSA
p349
aV26
p350
aV2266
p351
aV-
aV-
aV3
aV-
aV-
aV55.4
p352
aV0.4
p353
aV4
aV6.98
p354
aa(lp355
V2014
p356
aVInternacional
p357
aVBSA
p358
aV11
p359
aV990
p360
aV-
aV-
aV1
aV-
aV-
aV61
p361
aV0.6
p362
aV1
aV6.91
p363
aa(lp364
V2013
p365
aVInternacional
p366
aVBSA
p367
aV6
aV518
p368
aV-
aV-
aV1
aV-
aV-
aV58.9
p369
aV0.2
p370
aV-
aV6.52
p371
aa(lp372
VTotal / Average
p373
aV
aV
aV131
p374
aV11694
p375
aV0
aV0
aV6
aV0
aV0
aV72.1
p376
aV0.3
p377
aV7
aV6.89
p378
aasS'id'
p379
V114147
p380
sb.