(i__main__
Player
p1
(dp2
S'name'
p3
VFred 
p4
sS'offensive_data'
p5
(lp6
(lp7
a(lp8
V2018/2019
p9
aVManchester Un..
p10
aVEPL
p11
aV6(2)
p12
aV502
p13
aV1
aV-
aV1
aV-
aV1.3
p14
aV87.9
p15
aV0.3
p16
aV1
aV6.67
p17
aa(lp18
V2018/2019
p19
aVManchester Un..
p20
aVUCL
p21
aV3
aV190
p22
aV-
aV1
aV1
aV-
aV1
aV86.6
p23
aV0.3
p24
aV-
aV6.58
p25
aa(lp26
V2017/2018
p27
aVShakhtar Done..
p28
aVUCL
p29
aV8
aV720
p30
aV1
aV1
aV2
aV-
aV1.6
p31
aV85.9
p32
aV0.1
p33
aV2
aV7.25
p34
aa(lp35
V2016/2017
p36
aVShakhtar Done..
p37
aVUEL
p38
aV5(1)
p39
aV466
p40
aV1
aV1
aV2
aV1
aV1.2
p41
aV84.4
p42
aV-
aV-
aV6.84
p43
aa(lp44
V2015/2016
p45
aVShakhtar Done..
p46
aVUCL
p47
aV6
aV519
p48
aV-
aV-
aV1
aV-
aV0.7
p49
aV88.6
p50
aV-
aV-
aV6.69
p51
aa(lp52
V2015
p53
aVBrazil
p54
aVICA
p55
aV2
aV121
p56
aV-
aV-
aV-
aV-
aV1
aV86.8
p57
aV-
aV-
aV6.58
p58
aa(lp59
V2014/2015
p60
aVShakhtar Done..
p61
aVUCL
p62
aV3(4)
p63
aV369
p64
aV-
aV-
aV1
aV-
aV0.1
p65
aV85.5
p66
aV0.3
p67
aV-
aV6.50
p68
aa(lp69
V2013/2014
p70
aVShakhtar Done..
p71
aVUCL
p72
aV2(1)
p73
aV173
p74
aV-
aV-
aV-
aV-
aV1.3
p75
aV90.4
p76
aV-
aV-
aV6.67
p77
aa(lp78
V2013/2014
p79
aVShakhtar Done..
p80
aVUEL
p81
aV1
aV90
p82
aV-
aV-
aV-
aV-
aV1
aV91.2
p83
aV-
aV-
aV7.34
p84
aa(lp85
V2013
p86
aVInternacional
p87
aVBSA
p88
aV5
aV450
p89
aV1
aV2
aV-
aV-
aV2
aV83.3
p90
aV0.2
p91
aV1
aV7.73
p92
aa(lp93
VTotal / Average
p94
aV
aV
aV49
p95
aV3600
p96
aV4
aV5
aV8
aV1
aV1.1
p97
aV86.5
p98
aV0.1
p99
aV4
aV6.88
p100
aasS'url'
p101
S'https://www.whoscored.com/Players/114397/History/'
p102
sS'passing_data'
p103
(lp104
(lp105
a(lp106
V2018/2019
p107
aVManchester Un..
p108
aVEPL
p109
aV6(2)
p110
aV502
p111
aV1
aV-
aV1
aV-
aV1.3
p112
aV87.9
p113
aV0.3
p114
aV1
aV6.67
p115
aa(lp116
V2018/2019
p117
aVManchester Un..
p118
aVUCL
p119
aV3
aV190
p120
aV-
aV1
aV1
aV-
aV1
aV86.6
p121
aV0.3
p122
aV-
aV6.58
p123
aa(lp124
V2017/2018
p125
aVShakhtar Done..
p126
aVUCL
p127
aV8
aV720
p128
aV1
aV1
aV2
aV-
aV1.6
p129
aV85.9
p130
aV0.1
p131
aV2
aV7.25
p132
aa(lp133
V2016/2017
p134
aVShakhtar Done..
p135
aVUEL
p136
aV5(1)
p137
aV466
p138
aV1
aV1
aV2
aV1
aV1.2
p139
aV84.4
p140
aV-
aV-
aV6.84
p141
aa(lp142
V2015/2016
p143
aVShakhtar Done..
p144
aVUCL
p145
aV6
aV519
p146
aV-
aV-
aV1
aV-
aV0.7
p147
aV88.6
p148
aV-
aV-
aV6.69
p149
aa(lp150
V2015
p151
aVBrazil
p152
aVICA
p153
aV2
aV121
p154
aV-
aV-
aV-
aV-
aV1
aV86.8
p155
aV-
aV-
aV6.58
p156
aa(lp157
V2014/2015
p158
aVShakhtar Done..
p159
aVUCL
p160
aV3(4)
p161
aV369
p162
aV-
aV-
aV1
aV-
aV0.1
p163
aV85.5
p164
aV0.3
p165
aV-
aV6.50
p166
aa(lp167
V2013/2014
p168
aVShakhtar Done..
p169
aVUCL
p170
aV2(1)
p171
aV173
p172
aV-
aV-
aV-
aV-
aV1.3
p173
aV90.4
p174
aV-
aV-
aV6.67
p175
aa(lp176
V2013/2014
p177
aVShakhtar Done..
p178
aVUEL
p179
aV1
aV90
p180
aV-
aV-
aV-
aV-
aV1
aV91.2
p181
aV-
aV-
aV7.34
p182
aa(lp183
V2013
p184
aVInternacional
p185
aVBSA
p186
aV5
aV450
p187
aV1
aV2
aV-
aV-
aV2
aV83.3
p188
aV0.2
p189
aV1
aV7.73
p190
aa(lp191
VTotal / Average
p192
aV
aV
aV49
p193
aV3600
p194
aV4
aV5
aV8
aV1
aV1.1
p195
aV86.5
p196
aV0.1
p197
aV4
aV6.88
p198
aasS'defensive_data'
p199
(lp200
(lp201
a(lp202
V2018/2019
p203
aVManchester Un..
p204
aVEPL
p205
aV6(2)
p206
aV502
p207
aV1
aV-
aV1
aV-
aV1.3
p208
aV87.9
p209
aV0.3
p210
aV1
aV6.67
p211
aa(lp212
V2018/2019
p213
aVManchester Un..
p214
aVUCL
p215
aV3
aV190
p216
aV-
aV1
aV1
aV-
aV1
aV86.6
p217
aV0.3
p218
aV-
aV6.58
p219
aa(lp220
V2017/2018
p221
aVShakhtar Done..
p222
aVUCL
p223
aV8
aV720
p224
aV1
aV1
aV2
aV-
aV1.6
p225
aV85.9
p226
aV0.1
p227
aV2
aV7.25
p228
aa(lp229
V2016/2017
p230
aVShakhtar Done..
p231
aVUEL
p232
aV5(1)
p233
aV466
p234
aV1
aV1
aV2
aV1
aV1.2
p235
aV84.4
p236
aV-
aV-
aV6.84
p237
aa(lp238
V2015/2016
p239
aVShakhtar Done..
p240
aVUCL
p241
aV6
aV519
p242
aV-
aV-
aV1
aV-
aV0.7
p243
aV88.6
p244
aV-
aV-
aV6.69
p245
aa(lp246
V2015
p247
aVBrazil
p248
aVICA
p249
aV2
aV121
p250
aV-
aV-
aV-
aV-
aV1
aV86.8
p251
aV-
aV-
aV6.58
p252
aa(lp253
V2014/2015
p254
aVShakhtar Done..
p255
aVUCL
p256
aV3(4)
p257
aV369
p258
aV-
aV-
aV1
aV-
aV0.1
p259
aV85.5
p260
aV0.3
p261
aV-
aV6.50
p262
aa(lp263
V2013/2014
p264
aVShakhtar Done..
p265
aVUCL
p266
aV2(1)
p267
aV173
p268
aV-
aV-
aV-
aV-
aV1.3
p269
aV90.4
p270
aV-
aV-
aV6.67
p271
aa(lp272
V2013/2014
p273
aVShakhtar Done..
p274
aVUEL
p275
aV1
aV90
p276
aV-
aV-
aV-
aV-
aV1
aV91.2
p277
aV-
aV-
aV7.34
p278
aa(lp279
V2013
p280
aVInternacional
p281
aVBSA
p282
aV5
aV450
p283
aV1
aV2
aV-
aV-
aV2
aV83.3
p284
aV0.2
p285
aV1
aV7.73
p286
aa(lp287
VTotal / Average
p288
aV
aV
aV49
p289
aV3600
p290
aV4
aV5
aV8
aV1
aV1.1
p291
aV86.5
p292
aV0.1
p293
aV4
aV6.88
p294
aasS'sumary_data'
p295
(lp296
(lp297
a(lp298
V2018/2019
p299
aVManchester Un..
p300
aVEPL
p301
aV6(2)
p302
aV502
p303
aV1
aV-
aV1
aV-
aV1.3
p304
aV87.9
p305
aV0.3
p306
aV1
aV6.67
p307
aa(lp308
V2018/2019
p309
aVManchester Un..
p310
aVUCL
p311
aV3
aV190
p312
aV-
aV1
aV1
aV-
aV1
aV86.6
p313
aV0.3
p314
aV-
aV6.58
p315
aa(lp316
V2017/2018
p317
aVShakhtar Done..
p318
aVUCL
p319
aV8
aV720
p320
aV1
aV1
aV2
aV-
aV1.6
p321
aV85.9
p322
aV0.1
p323
aV2
aV7.25
p324
aa(lp325
V2016/2017
p326
aVShakhtar Done..
p327
aVUEL
p328
aV5(1)
p329
aV466
p330
aV1
aV1
aV2
aV1
aV1.2
p331
aV84.4
p332
aV-
aV-
aV6.84
p333
aa(lp334
V2015/2016
p335
aVShakhtar Done..
p336
aVUCL
p337
aV6
aV519
p338
aV-
aV-
aV1
aV-
aV0.7
p339
aV88.6
p340
aV-
aV-
aV6.69
p341
aa(lp342
V2015
p343
aVBrazil
p344
aVICA
p345
aV2
aV121
p346
aV-
aV-
aV-
aV-
aV1
aV86.8
p347
aV-
aV-
aV6.58
p348
aa(lp349
V2014/2015
p350
aVShakhtar Done..
p351
aVUCL
p352
aV3(4)
p353
aV369
p354
aV-
aV-
aV1
aV-
aV0.1
p355
aV85.5
p356
aV0.3
p357
aV-
aV6.50
p358
aa(lp359
V2013/2014
p360
aVShakhtar Done..
p361
aVUCL
p362
aV2(1)
p363
aV173
p364
aV-
aV-
aV-
aV-
aV1.3
p365
aV90.4
p366
aV-
aV-
aV6.67
p367
aa(lp368
V2013/2014
p369
aVShakhtar Done..
p370
aVUEL
p371
aV1
aV90
p372
aV-
aV-
aV-
aV-
aV1
aV91.2
p373
aV-
aV-
aV7.34
p374
aa(lp375
V2013
p376
aVInternacional
p377
aVBSA
p378
aV5
aV450
p379
aV1
aV2
aV-
aV-
aV2
aV83.3
p380
aV0.2
p381
aV1
aV7.73
p382
aa(lp383
VTotal / Average
p384
aV
aV
aV49
p385
aV3600
p386
aV4
aV5
aV8
aV1
aV1.1
p387
aV86.5
p388
aV0.1
p389
aV4
aV6.88
p390
aasS'id'
p391
V114397
p392
sb.