(i__main__
Player
p1
(dp2
S'name'
p3
VErik Durm 
p4
sS'offensive_data'
p5
(lp6
(lp7
a(lp8
V2018/2019
p9
aVHuddersfield
p10
aVEPL
p11
aV8(4)
p12
aV831
p13
aV-
aV1
aV-
aV-
aV0.6
p14
aV64.4
p15
aV1.1
p16
aV-
aV6.47
p17
aa(lp18
V2016/2017
p19
aVBorussia Dort..
p20
aVGB
p21
aV10(3)
p22
aV976
p23
aV-
aV2
aV1
aV-
aV0.7
p24
aV73
p25
aV0.9
p26
aV-
aV6.80
p27
aa(lp28
V2016/2017
p29
aVBorussia Dort..
p30
aVUCL
p31
aV3(1)
p32
aV235
p33
aV-
aV1
aV-
aV-
aV0.3
p34
aV79.8
p35
aV0.3
p36
aV-
aV6.45
p37
aa(lp38
V2015/2016
p39
aVBorussia Dort..
p40
aVGB
p41
aV10(4)
p42
aV865
p43
aV1
aV1
aV2
aV-
aV0.9
p44
aV75.6
p45
aV0.5
p46
aV1
aV6.83
p47
aa(lp48
V2015/2016
p49
aVBorussia Dort..
p50
aVUEL
p51
aV2(1)
p52
aV172
p53
aV-
aV-
aV-
aV-
aV1.3
p54
aV80.9
p55
aV-
aV-
aV6.54
p56
aa(lp57
V2014/2015
p58
aVBorussia Dort..
p59
aVGB
p60
aV18
p61
aV1585
p62
aV1
aV1
aV2
aV-
aV0.6
p63
aV70.4
p64
aV1.9
p65
aV-
aV6.91
p66
aa(lp67
V2014/2015
p68
aVBorussia Dort..
p69
aVUCL
p70
aV3(1)
p71
aV288
p72
aV-
aV-
aV-
aV-
aV0.8
p73
aV83.9
p74
aV-
aV-
aV6.96
p75
aa(lp76
V2013/2014
p77
aVBorussia Dort..
p78
aVUCL
p79
aV5(2)
p80
aV464
p81
aV-
aV2
aV-
aV-
aV0.1
p82
aV83.2
p83
aV0.1
p84
aV-
aV6.80
p85
aa(lp86
V2013/2014
p87
aVBorussia Dort..
p88
aVGB
p89
aV14(5)
p90
aV1392
p91
aV-
aV-
aV-
aV-
aV0.6
p92
aV73.8
p93
aV2.3
p94
aV1
aV7.27
p95
aa(lp96
VTotal / Average
p97
aV
aV
aV94
p98
aV6808
p99
aV2
aV8
aV5
aV0
aV0.6
p100
aV73.7
p101
aV1.2
p102
aV2
aV6.86
p103
aasS'url'
p104
S'https://www.whoscored.com/Players/115165/History/'
p105
sS'passing_data'
p106
(lp107
(lp108
a(lp109
V2018/2019
p110
aVHuddersfield
p111
aVEPL
p112
aV8(4)
p113
aV831
p114
aV-
aV1
aV-
aV-
aV0.6
p115
aV64.4
p116
aV1.1
p117
aV-
aV6.47
p118
aa(lp119
V2016/2017
p120
aVBorussia Dort..
p121
aVGB
p122
aV10(3)
p123
aV976
p124
aV-
aV2
aV1
aV-
aV0.7
p125
aV73
p126
aV0.9
p127
aV-
aV6.80
p128
aa(lp129
V2016/2017
p130
aVBorussia Dort..
p131
aVUCL
p132
aV3(1)
p133
aV235
p134
aV-
aV1
aV-
aV-
aV0.3
p135
aV79.8
p136
aV0.3
p137
aV-
aV6.45
p138
aa(lp139
V2015/2016
p140
aVBorussia Dort..
p141
aVGB
p142
aV10(4)
p143
aV865
p144
aV1
aV1
aV2
aV-
aV0.9
p145
aV75.6
p146
aV0.5
p147
aV1
aV6.83
p148
aa(lp149
V2015/2016
p150
aVBorussia Dort..
p151
aVUEL
p152
aV2(1)
p153
aV172
p154
aV-
aV-
aV-
aV-
aV1.3
p155
aV80.9
p156
aV-
aV-
aV6.54
p157
aa(lp158
V2014/2015
p159
aVBorussia Dort..
p160
aVGB
p161
aV18
p162
aV1585
p163
aV1
aV1
aV2
aV-
aV0.6
p164
aV70.4
p165
aV1.9
p166
aV-
aV6.91
p167
aa(lp168
V2014/2015
p169
aVBorussia Dort..
p170
aVUCL
p171
aV3(1)
p172
aV288
p173
aV-
aV-
aV-
aV-
aV0.8
p174
aV83.9
p175
aV-
aV-
aV6.96
p176
aa(lp177
V2013/2014
p178
aVBorussia Dort..
p179
aVUCL
p180
aV5(2)
p181
aV464
p182
aV-
aV2
aV-
aV-
aV0.1
p183
aV83.2
p184
aV0.1
p185
aV-
aV6.80
p186
aa(lp187
V2013/2014
p188
aVBorussia Dort..
p189
aVGB
p190
aV14(5)
p191
aV1392
p192
aV-
aV-
aV-
aV-
aV0.6
p193
aV73.8
p194
aV2.3
p195
aV1
aV7.27
p196
aa(lp197
VTotal / Average
p198
aV
aV
aV94
p199
aV6808
p200
aV2
aV8
aV5
aV0
aV0.6
p201
aV73.7
p202
aV1.2
p203
aV2
aV6.86
p204
aasS'defensive_data'
p205
(lp206
(lp207
a(lp208
V2018/2019
p209
aVHuddersfield
p210
aVEPL
p211
aV8(4)
p212
aV831
p213
aV-
aV1
aV-
aV-
aV0.6
p214
aV64.4
p215
aV1.1
p216
aV-
aV6.47
p217
aa(lp218
V2016/2017
p219
aVBorussia Dort..
p220
aVGB
p221
aV10(3)
p222
aV976
p223
aV-
aV2
aV1
aV-
aV0.7
p224
aV73
p225
aV0.9
p226
aV-
aV6.80
p227
aa(lp228
V2016/2017
p229
aVBorussia Dort..
p230
aVUCL
p231
aV3(1)
p232
aV235
p233
aV-
aV1
aV-
aV-
aV0.3
p234
aV79.8
p235
aV0.3
p236
aV-
aV6.45
p237
aa(lp238
V2015/2016
p239
aVBorussia Dort..
p240
aVGB
p241
aV10(4)
p242
aV865
p243
aV1
aV1
aV2
aV-
aV0.9
p244
aV75.6
p245
aV0.5
p246
aV1
aV6.83
p247
aa(lp248
V2015/2016
p249
aVBorussia Dort..
p250
aVUEL
p251
aV2(1)
p252
aV172
p253
aV-
aV-
aV-
aV-
aV1.3
p254
aV80.9
p255
aV-
aV-
aV6.54
p256
aa(lp257
V2014/2015
p258
aVBorussia Dort..
p259
aVGB
p260
aV18
p261
aV1585
p262
aV1
aV1
aV2
aV-
aV0.6
p263
aV70.4
p264
aV1.9
p265
aV-
aV6.91
p266
aa(lp267
V2014/2015
p268
aVBorussia Dort..
p269
aVUCL
p270
aV3(1)
p271
aV288
p272
aV-
aV-
aV-
aV-
aV0.8
p273
aV83.9
p274
aV-
aV-
aV6.96
p275
aa(lp276
V2013/2014
p277
aVBorussia Dort..
p278
aVUCL
p279
aV5(2)
p280
aV464
p281
aV-
aV2
aV-
aV-
aV0.1
p282
aV83.2
p283
aV0.1
p284
aV-
aV6.80
p285
aa(lp286
V2013/2014
p287
aVBorussia Dort..
p288
aVGB
p289
aV14(5)
p290
aV1392
p291
aV-
aV-
aV-
aV-
aV0.6
p292
aV73.8
p293
aV2.3
p294
aV1
aV7.27
p295
aa(lp296
VTotal / Average
p297
aV
aV
aV94
p298
aV6808
p299
aV2
aV8
aV5
aV0
aV0.6
p300
aV73.7
p301
aV1.2
p302
aV2
aV6.86
p303
aasS'sumary_data'
p304
(lp305
(lp306
a(lp307
V2018/2019
p308
aVHuddersfield
p309
aVEPL
p310
aV8(4)
p311
aV831
p312
aV-
aV1
aV-
aV-
aV0.6
p313
aV64.4
p314
aV1.1
p315
aV-
aV6.47
p316
aa(lp317
V2016/2017
p318
aVBorussia Dort..
p319
aVGB
p320
aV10(3)
p321
aV976
p322
aV-
aV2
aV1
aV-
aV0.7
p323
aV73
p324
aV0.9
p325
aV-
aV6.80
p326
aa(lp327
V2016/2017
p328
aVBorussia Dort..
p329
aVUCL
p330
aV3(1)
p331
aV235
p332
aV-
aV1
aV-
aV-
aV0.3
p333
aV79.8
p334
aV0.3
p335
aV-
aV6.45
p336
aa(lp337
V2015/2016
p338
aVBorussia Dort..
p339
aVGB
p340
aV10(4)
p341
aV865
p342
aV1
aV1
aV2
aV-
aV0.9
p343
aV75.6
p344
aV0.5
p345
aV1
aV6.83
p346
aa(lp347
V2015/2016
p348
aVBorussia Dort..
p349
aVUEL
p350
aV2(1)
p351
aV172
p352
aV-
aV-
aV-
aV-
aV1.3
p353
aV80.9
p354
aV-
aV-
aV6.54
p355
aa(lp356
V2014/2015
p357
aVBorussia Dort..
p358
aVGB
p359
aV18
p360
aV1585
p361
aV1
aV1
aV2
aV-
aV0.6
p362
aV70.4
p363
aV1.9
p364
aV-
aV6.91
p365
aa(lp366
V2014/2015
p367
aVBorussia Dort..
p368
aVUCL
p369
aV3(1)
p370
aV288
p371
aV-
aV-
aV-
aV-
aV0.8
p372
aV83.9
p373
aV-
aV-
aV6.96
p374
aa(lp375
V2013/2014
p376
aVBorussia Dort..
p377
aVUCL
p378
aV5(2)
p379
aV464
p380
aV-
aV2
aV-
aV-
aV0.1
p381
aV83.2
p382
aV0.1
p383
aV-
aV6.80
p384
aa(lp385
V2013/2014
p386
aVBorussia Dort..
p387
aVGB
p388
aV14(5)
p389
aV1392
p390
aV-
aV-
aV-
aV-
aV0.6
p391
aV73.8
p392
aV2.3
p393
aV1
aV7.27
p394
aa(lp395
VTotal / Average
p396
aV
aV
aV94
p397
aV6808
p398
aV2
aV8
aV5
aV0
aV0.6
p399
aV73.7
p400
aV1.2
p401
aV2
aV6.86
p402
aasS'id'
p403
V115165
p404
sb.