(i__main__
Player
p1
(dp2
S'name'
p3
VAleksandar Mitrovic 
p4
sS'offensive_data'
p5
(lp6
(lp7
a(lp8
V2018/2019
p9
aVFulham
p10
aVEPL
p11
aV17
p12
aV1482
p13
aV7
aV2
aV4
aV-
aV3.5
p14
aV72.3
p15
aV5.5
p16
aV2
aV7.06
p17
aa(lp18
V2018/2019
p19
aVSerbia
p20
aVUNL
p21
aV6
aV533
p22
aV6
aV-
aV1
aV-
aV5.3
p23
aV77.2
p24
aV4.5
p25
aV2
aV7.68
p26
aa(lp27
V2017/2018
p28
aVFulham
p29
aVEC
p30
aV18(2)
p31
aV1653
p32
aV12
p33
aV1
aV3
aV-
aV4.1
p34
aV77.1
p35
aV4.1
p36
aV6
aV7.52
p37
aa(lp38
V2017/2018
p39
aVNewcastle Uni..
p40
aVEPL
p41
aV0(6)
p42
aV89
p43
aV1
aV-
aV-
aV-
aV0.7
p44
aV72.2
p45
aV1
aV-
aV6.43
p46
aa(lp47
V2016/2017
p48
aVNewcastle Uni..
p49
aVEC
p50
aV11(14)
p51
aV1122
p52
aV4
aV6
aV3
aV-
aV2.2
p53
aV68.1
p54
aV2.4
p55
aV2
aV6.76
p56
aa(lp57
V2018
p58
aVSerbia
p59
aVWC
p60
aV3
aV269
p61
aV1
aV-
aV2
aV-
aV4.7
p62
aV47.7
p63
aV7.3
p64
aV-
aV7.22
p65
aa(lp66
V2015/2016
p67
aVNewcastle Uni..
p68
aVEPL
p69
aV22(12)
p70
aV2117
p71
aV9
aV4
aV4
aV2
aV2.3
p72
aV71.8
p73
aV2.5
p74
aV-
aV6.67
p75
aa(lp76
V2014/2015
p77
aVAnderlecht
p78
aVUCL
p79
aV4(1)
p80
aV354
p81
aV2
aV-
aV1
aV-
aV2.6
p82
aV72.9
p83
aV2.4
p84
aV-
aV7.02
p85
aa(lp86
V2014/2015
p87
aVAnderlecht
p88
aVUEL
p89
aV2
aV180
p90
aV1
aV-
aV-
aV-
aV4.5
p91
aV81.1
p92
aV2.5
p93
aV-
aV7.05
p94
aa(lp95
V2013/2014
p96
aVAnderlecht
p97
aVUCL
p98
aV6
aV507
p99
aV-
aV-
aV3
aV-
aV1.8
p100
aV70.8
p101
aV2
aV-
aV6.08
p102
aa(lp103
V2012/2013
p104
aVPartizan Belg..
p105
aVUEL
p106
aV2(3)
p107
aV225
p108
aV1
aV-
aV2
aV1
aV1.2
p109
aV76.6
p110
aV1.2
p111
aV-
aV6.02
p112
aa(lp113
VTotal / Average
p114
aV
aV
aV129
p115
aV8531
p116
aV44
p117
aV13
p118
aV23
p119
aV3
aV2.8
p120
aV72
p121
aV3.2
p122
aV12
p123
aV6.89
p124
aasS'url'
p125
S'https://www.whoscored.com/Players/115279/History/'
p126
sS'passing_data'
p127
(lp128
(lp129
a(lp130
V2018/2019
p131
aVFulham
p132
aVEPL
p133
aV17
p134
aV1482
p135
aV7
aV2
aV4
aV-
aV3.5
p136
aV72.3
p137
aV5.5
p138
aV2
aV7.06
p139
aa(lp140
V2018/2019
p141
aVSerbia
p142
aVUNL
p143
aV6
aV533
p144
aV6
aV-
aV1
aV-
aV5.3
p145
aV77.2
p146
aV4.5
p147
aV2
aV7.68
p148
aa(lp149
V2017/2018
p150
aVFulham
p151
aVEC
p152
aV18(2)
p153
aV1653
p154
aV12
p155
aV1
aV3
aV-
aV4.1
p156
aV77.1
p157
aV4.1
p158
aV6
aV7.52
p159
aa(lp160
V2017/2018
p161
aVNewcastle Uni..
p162
aVEPL
p163
aV0(6)
p164
aV89
p165
aV1
aV-
aV-
aV-
aV0.7
p166
aV72.2
p167
aV1
aV-
aV6.43
p168
aa(lp169
V2016/2017
p170
aVNewcastle Uni..
p171
aVEC
p172
aV11(14)
p173
aV1122
p174
aV4
aV6
aV3
aV-
aV2.2
p175
aV68.1
p176
aV2.4
p177
aV2
aV6.76
p178
aa(lp179
V2018
p180
aVSerbia
p181
aVWC
p182
aV3
aV269
p183
aV1
aV-
aV2
aV-
aV4.7
p184
aV47.7
p185
aV7.3
p186
aV-
aV7.22
p187
aa(lp188
V2015/2016
p189
aVNewcastle Uni..
p190
aVEPL
p191
aV22(12)
p192
aV2117
p193
aV9
aV4
aV4
aV2
aV2.3
p194
aV71.8
p195
aV2.5
p196
aV-
aV6.67
p197
aa(lp198
V2014/2015
p199
aVAnderlecht
p200
aVUCL
p201
aV4(1)
p202
aV354
p203
aV2
aV-
aV1
aV-
aV2.6
p204
aV72.9
p205
aV2.4
p206
aV-
aV7.02
p207
aa(lp208
V2014/2015
p209
aVAnderlecht
p210
aVUEL
p211
aV2
aV180
p212
aV1
aV-
aV-
aV-
aV4.5
p213
aV81.1
p214
aV2.5
p215
aV-
aV7.05
p216
aa(lp217
V2013/2014
p218
aVAnderlecht
p219
aVUCL
p220
aV6
aV507
p221
aV-
aV-
aV3
aV-
aV1.8
p222
aV70.8
p223
aV2
aV-
aV6.08
p224
aa(lp225
V2012/2013
p226
aVPartizan Belg..
p227
aVUEL
p228
aV2(3)
p229
aV225
p230
aV1
aV-
aV2
aV1
aV1.2
p231
aV76.6
p232
aV1.2
p233
aV-
aV6.02
p234
aa(lp235
VTotal / Average
p236
aV
aV
aV129
p237
aV8531
p238
aV44
p239
aV13
p240
aV23
p241
aV3
aV2.8
p242
aV72
p243
aV3.2
p244
aV12
p245
aV6.89
p246
aasS'defensive_data'
p247
(lp248
(lp249
a(lp250
V2018/2019
p251
aVFulham
p252
aVEPL
p253
aV17
p254
aV1482
p255
aV7
aV2
aV4
aV-
aV3.5
p256
aV72.3
p257
aV5.5
p258
aV2
aV7.06
p259
aa(lp260
V2018/2019
p261
aVSerbia
p262
aVUNL
p263
aV6
aV533
p264
aV6
aV-
aV1
aV-
aV5.3
p265
aV77.2
p266
aV4.5
p267
aV2
aV7.68
p268
aa(lp269
V2017/2018
p270
aVFulham
p271
aVEC
p272
aV18(2)
p273
aV1653
p274
aV12
p275
aV1
aV3
aV-
aV4.1
p276
aV77.1
p277
aV4.1
p278
aV6
aV7.52
p279
aa(lp280
V2017/2018
p281
aVNewcastle Uni..
p282
aVEPL
p283
aV0(6)
p284
aV89
p285
aV1
aV-
aV-
aV-
aV0.7
p286
aV72.2
p287
aV1
aV-
aV6.43
p288
aa(lp289
V2016/2017
p290
aVNewcastle Uni..
p291
aVEC
p292
aV11(14)
p293
aV1122
p294
aV4
aV6
aV3
aV-
aV2.2
p295
aV68.1
p296
aV2.4
p297
aV2
aV6.76
p298
aa(lp299
V2018
p300
aVSerbia
p301
aVWC
p302
aV3
aV269
p303
aV1
aV-
aV2
aV-
aV4.7
p304
aV47.7
p305
aV7.3
p306
aV-
aV7.22
p307
aa(lp308
V2015/2016
p309
aVNewcastle Uni..
p310
aVEPL
p311
aV22(12)
p312
aV2117
p313
aV9
aV4
aV4
aV2
aV2.3
p314
aV71.8
p315
aV2.5
p316
aV-
aV6.67
p317
aa(lp318
V2014/2015
p319
aVAnderlecht
p320
aVUCL
p321
aV4(1)
p322
aV354
p323
aV2
aV-
aV1
aV-
aV2.6
p324
aV72.9
p325
aV2.4
p326
aV-
aV7.02
p327
aa(lp328
V2014/2015
p329
aVAnderlecht
p330
aVUEL
p331
aV2
aV180
p332
aV1
aV-
aV-
aV-
aV4.5
p333
aV81.1
p334
aV2.5
p335
aV-
aV7.05
p336
aa(lp337
V2013/2014
p338
aVAnderlecht
p339
aVUCL
p340
aV6
aV507
p341
aV-
aV-
aV3
aV-
aV1.8
p342
aV70.8
p343
aV2
aV-
aV6.08
p344
aa(lp345
V2012/2013
p346
aVPartizan Belg..
p347
aVUEL
p348
aV2(3)
p349
aV225
p350
aV1
aV-
aV2
aV1
aV1.2
p351
aV76.6
p352
aV1.2
p353
aV-
aV6.02
p354
aa(lp355
VTotal / Average
p356
aV
aV
aV129
p357
aV8531
p358
aV44
p359
aV13
p360
aV23
p361
aV3
aV2.8
p362
aV72
p363
aV3.2
p364
aV12
p365
aV6.89
p366
aasS'sumary_data'
p367
(lp368
(lp369
a(lp370
V2018/2019
p371
aVFulham
p372
aVEPL
p373
aV17
p374
aV1482
p375
aV7
aV2
aV4
aV-
aV3.5
p376
aV72.3
p377
aV5.5
p378
aV2
aV7.06
p379
aa(lp380
V2018/2019
p381
aVSerbia
p382
aVUNL
p383
aV6
aV533
p384
aV6
aV-
aV1
aV-
aV5.3
p385
aV77.2
p386
aV4.5
p387
aV2
aV7.68
p388
aa(lp389
V2017/2018
p390
aVFulham
p391
aVEC
p392
aV18(2)
p393
aV1653
p394
aV12
p395
aV1
aV3
aV-
aV4.1
p396
aV77.1
p397
aV4.1
p398
aV6
aV7.52
p399
aa(lp400
V2017/2018
p401
aVNewcastle Uni..
p402
aVEPL
p403
aV0(6)
p404
aV89
p405
aV1
aV-
aV-
aV-
aV0.7
p406
aV72.2
p407
aV1
aV-
aV6.43
p408
aa(lp409
V2016/2017
p410
aVNewcastle Uni..
p411
aVEC
p412
aV11(14)
p413
aV1122
p414
aV4
aV6
aV3
aV-
aV2.2
p415
aV68.1
p416
aV2.4
p417
aV2
aV6.76
p418
aa(lp419
V2018
p420
aVSerbia
p421
aVWC
p422
aV3
aV269
p423
aV1
aV-
aV2
aV-
aV4.7
p424
aV47.7
p425
aV7.3
p426
aV-
aV7.22
p427
aa(lp428
V2015/2016
p429
aVNewcastle Uni..
p430
aVEPL
p431
aV22(12)
p432
aV2117
p433
aV9
aV4
aV4
aV2
aV2.3
p434
aV71.8
p435
aV2.5
p436
aV-
aV6.67
p437
aa(lp438
V2014/2015
p439
aVAnderlecht
p440
aVUCL
p441
aV4(1)
p442
aV354
p443
aV2
aV-
aV1
aV-
aV2.6
p444
aV72.9
p445
aV2.4
p446
aV-
aV7.02
p447
aa(lp448
V2014/2015
p449
aVAnderlecht
p450
aVUEL
p451
aV2
aV180
p452
aV1
aV-
aV-
aV-
aV4.5
p453
aV81.1
p454
aV2.5
p455
aV-
aV7.05
p456
aa(lp457
V2013/2014
p458
aVAnderlecht
p459
aVUCL
p460
aV6
aV507
p461
aV-
aV-
aV3
aV-
aV1.8
p462
aV70.8
p463
aV2
aV-
aV6.08
p464
aa(lp465
V2012/2013
p466
aVPartizan Belg..
p467
aVUEL
p468
aV2(3)
p469
aV225
p470
aV1
aV-
aV2
aV1
aV1.2
p471
aV76.6
p472
aV1.2
p473
aV-
aV6.02
p474
aa(lp475
VTotal / Average
p476
aV
aV
aV129
p477
aV8531
p478
aV44
p479
aV13
p480
aV23
p481
aV3
aV2.8
p482
aV72
p483
aV3.2
p484
aV12
p485
aV6.89
p486
aasS'id'
p487
V115279
p488
sb.