(i__main__
Player
p1
(dp2
S'name'
p3
VBen Foster 
p4
sS'offensive_data'
p5
(lp6
(lp7
a(lp8
V2018/2019
p9
aVWatford
p10
aVEPL
p11
aV17
p12
aV1530
p13
aV-
aV-
aV-
aV-
aV-
aV42.2
p14
aV0.5
p15
aV1
aV6.65
p16
aa(lp17
V2017/2018
p18
aVWest Bromwich..
p19
aVEPL
p20
aV37
p21
aV3330
p22
aV-
aV-
aV2
aV-
aV-
aV46.1
p23
aV0.1
p24
aV-
aV6.50
p25
aa(lp26
V2016/2017
p27
aVWest Bromwich..
p28
aVEPL
p29
aV38
p30
aV3420
p31
aV-
aV-
aV2
aV-
aV-
aV40.2
p32
aV0.2
p33
aV1
aV6.65
p34
aa(lp35
V2015/2016
p36
aVWest Bromwich..
p37
aVEPL
p38
aV15
p39
aV1350
p40
aV-
aV-
aV1
aV-
aV-
aV42
p41
aV0.1
p42
aV-
aV6.69
p43
aa(lp44
V2014/2015
p45
aVWest Bromwich..
p46
aVEPL
p47
aV28
p48
aV2486
p49
aV-
aV-
aV2
aV-
aV-
aV41.1
p50
aV0.2
p51
aV-
aV6.51
p52
aa(lp53
V2013/2014
p54
aVWest Bromwich..
p55
aVEPL
p56
aV24
p57
aV2148
p58
aV-
aV-
aV1
aV-
aV-
aV42.6
p59
aV-
aV2
aV6.57
p60
aa(lp61
V2014
p62
aVEngland
p63
aVWC
p64
aV1
aV90
p65
aV-
aV-
aV-
aV-
aV-
aV69.6
p66
aV1
aV-
aV7.47
p67
aa(lp68
V2012/2013
p69
aVWest Bromwich..
p70
aVEPL
p71
aV30
p72
aV2700
p73
aV-
aV-
aV-
aV-
aV-
aV46.6
p74
aV0.2
p75
aV1
aV6.79
p76
aa(lp77
V2011/2012
p78
aVWest Bromwich..
p79
aVEPL
p80
aV37
p81
aV3330
p82
aV-
aV-
aV-
aV-
aV-
aV50
p83
aV0.1
p84
aV2
aV6.85
p85
aa(lp86
V2010/2011
p87
aVBirmingham
p88
aVEPL
p89
aV38
p90
aV3371
p91
aV-
aV-
aV3
aV-
aV-
aV37.3
p92
aV0.2
p93
aV3
aV6.94
p94
aa(lp95
V2009/2010
p96
aVManchester Un..
p97
aVUCL
p98
aV2
aV180
p99
aV-
aV-
aV-
aV-
aV-
aV72.5
p100
aV-
aV-
aV6.42
p101
aa(lp102
V2009/2010
p103
aVManchester Un..
p104
aVEPL
p105
aV9
aV810
p106
aV-
aV-
aV-
aV-
aV-
aV52.5
p107
aV-
aV-
aV6.72
p108
aa(lp109
VTotal / Average
p110
aV
aV
aV276
p111
aV24745
p112
aV0
aV0
aV11
p113
aV0
aV0
aV43.9
p114
aV0.2
p115
aV10
p116
aV6.70
p117
aasS'url'
p118
S'https://www.whoscored.com/Players/11530/History/'
p119
sS'passing_data'
p120
(lp121
(lp122
a(lp123
V2018/2019
p124
aVWatford
p125
aVEPL
p126
aV17
p127
aV1530
p128
aV-
aV-
aV-
aV-
aV-
aV42.2
p129
aV0.5
p130
aV1
aV6.65
p131
aa(lp132
V2017/2018
p133
aVWest Bromwich..
p134
aVEPL
p135
aV37
p136
aV3330
p137
aV-
aV-
aV2
aV-
aV-
aV46.1
p138
aV0.1
p139
aV-
aV6.50
p140
aa(lp141
V2016/2017
p142
aVWest Bromwich..
p143
aVEPL
p144
aV38
p145
aV3420
p146
aV-
aV-
aV2
aV-
aV-
aV40.2
p147
aV0.2
p148
aV1
aV6.65
p149
aa(lp150
V2015/2016
p151
aVWest Bromwich..
p152
aVEPL
p153
aV15
p154
aV1350
p155
aV-
aV-
aV1
aV-
aV-
aV42
p156
aV0.1
p157
aV-
aV6.69
p158
aa(lp159
V2014/2015
p160
aVWest Bromwich..
p161
aVEPL
p162
aV28
p163
aV2486
p164
aV-
aV-
aV2
aV-
aV-
aV41.1
p165
aV0.2
p166
aV-
aV6.51
p167
aa(lp168
V2013/2014
p169
aVWest Bromwich..
p170
aVEPL
p171
aV24
p172
aV2148
p173
aV-
aV-
aV1
aV-
aV-
aV42.6
p174
aV-
aV2
aV6.57
p175
aa(lp176
V2014
p177
aVEngland
p178
aVWC
p179
aV1
aV90
p180
aV-
aV-
aV-
aV-
aV-
aV69.6
p181
aV1
aV-
aV7.47
p182
aa(lp183
V2012/2013
p184
aVWest Bromwich..
p185
aVEPL
p186
aV30
p187
aV2700
p188
aV-
aV-
aV-
aV-
aV-
aV46.6
p189
aV0.2
p190
aV1
aV6.79
p191
aa(lp192
V2011/2012
p193
aVWest Bromwich..
p194
aVEPL
p195
aV37
p196
aV3330
p197
aV-
aV-
aV-
aV-
aV-
aV50
p198
aV0.1
p199
aV2
aV6.85
p200
aa(lp201
V2010/2011
p202
aVBirmingham
p203
aVEPL
p204
aV38
p205
aV3371
p206
aV-
aV-
aV3
aV-
aV-
aV37.3
p207
aV0.2
p208
aV3
aV6.94
p209
aa(lp210
V2009/2010
p211
aVManchester Un..
p212
aVUCL
p213
aV2
aV180
p214
aV-
aV-
aV-
aV-
aV-
aV72.5
p215
aV-
aV-
aV6.42
p216
aa(lp217
V2009/2010
p218
aVManchester Un..
p219
aVEPL
p220
aV9
aV810
p221
aV-
aV-
aV-
aV-
aV-
aV52.5
p222
aV-
aV-
aV6.72
p223
aa(lp224
VTotal / Average
p225
aV
aV
aV276
p226
aV24745
p227
aV0
aV0
aV11
p228
aV0
aV0
aV43.9
p229
aV0.2
p230
aV10
p231
aV6.70
p232
aasS'defensive_data'
p233
(lp234
(lp235
a(lp236
V2018/2019
p237
aVWatford
p238
aVEPL
p239
aV17
p240
aV1530
p241
aV-
aV-
aV-
aV-
aV-
aV42.2
p242
aV0.5
p243
aV1
aV6.65
p244
aa(lp245
V2017/2018
p246
aVWest Bromwich..
p247
aVEPL
p248
aV37
p249
aV3330
p250
aV-
aV-
aV2
aV-
aV-
aV46.1
p251
aV0.1
p252
aV-
aV6.50
p253
aa(lp254
V2016/2017
p255
aVWest Bromwich..
p256
aVEPL
p257
aV38
p258
aV3420
p259
aV-
aV-
aV2
aV-
aV-
aV40.2
p260
aV0.2
p261
aV1
aV6.65
p262
aa(lp263
V2015/2016
p264
aVWest Bromwich..
p265
aVEPL
p266
aV15
p267
aV1350
p268
aV-
aV-
aV1
aV-
aV-
aV42
p269
aV0.1
p270
aV-
aV6.69
p271
aa(lp272
V2014/2015
p273
aVWest Bromwich..
p274
aVEPL
p275
aV28
p276
aV2486
p277
aV-
aV-
aV2
aV-
aV-
aV41.1
p278
aV0.2
p279
aV-
aV6.51
p280
aa(lp281
V2013/2014
p282
aVWest Bromwich..
p283
aVEPL
p284
aV24
p285
aV2148
p286
aV-
aV-
aV1
aV-
aV-
aV42.6
p287
aV-
aV2
aV6.57
p288
aa(lp289
V2014
p290
aVEngland
p291
aVWC
p292
aV1
aV90
p293
aV-
aV-
aV-
aV-
aV-
aV69.6
p294
aV1
aV-
aV7.47
p295
aa(lp296
V2012/2013
p297
aVWest Bromwich..
p298
aVEPL
p299
aV30
p300
aV2700
p301
aV-
aV-
aV-
aV-
aV-
aV46.6
p302
aV0.2
p303
aV1
aV6.79
p304
aa(lp305
V2011/2012
p306
aVWest Bromwich..
p307
aVEPL
p308
aV37
p309
aV3330
p310
aV-
aV-
aV-
aV-
aV-
aV50
p311
aV0.1
p312
aV2
aV6.85
p313
aa(lp314
V2010/2011
p315
aVBirmingham
p316
aVEPL
p317
aV38
p318
aV3371
p319
aV-
aV-
aV3
aV-
aV-
aV37.3
p320
aV0.2
p321
aV3
aV6.94
p322
aa(lp323
V2009/2010
p324
aVManchester Un..
p325
aVUCL
p326
aV2
aV180
p327
aV-
aV-
aV-
aV-
aV-
aV72.5
p328
aV-
aV-
aV6.42
p329
aa(lp330
V2009/2010
p331
aVManchester Un..
p332
aVEPL
p333
aV9
aV810
p334
aV-
aV-
aV-
aV-
aV-
aV52.5
p335
aV-
aV-
aV6.72
p336
aa(lp337
VTotal / Average
p338
aV
aV
aV276
p339
aV24745
p340
aV0
aV0
aV11
p341
aV0
aV0
aV43.9
p342
aV0.2
p343
aV10
p344
aV6.70
p345
aasS'sumary_data'
p346
(lp347
(lp348
a(lp349
V2018/2019
p350
aVWatford
p351
aVEPL
p352
aV17
p353
aV1530
p354
aV-
aV-
aV-
aV-
aV-
aV42.2
p355
aV0.5
p356
aV1
aV6.65
p357
aa(lp358
V2017/2018
p359
aVWest Bromwich..
p360
aVEPL
p361
aV37
p362
aV3330
p363
aV-
aV-
aV2
aV-
aV-
aV46.1
p364
aV0.1
p365
aV-
aV6.50
p366
aa(lp367
V2016/2017
p368
aVWest Bromwich..
p369
aVEPL
p370
aV38
p371
aV3420
p372
aV-
aV-
aV2
aV-
aV-
aV40.2
p373
aV0.2
p374
aV1
aV6.65
p375
aa(lp376
V2015/2016
p377
aVWest Bromwich..
p378
aVEPL
p379
aV15
p380
aV1350
p381
aV-
aV-
aV1
aV-
aV-
aV42
p382
aV0.1
p383
aV-
aV6.69
p384
aa(lp385
V2014/2015
p386
aVWest Bromwich..
p387
aVEPL
p388
aV28
p389
aV2486
p390
aV-
aV-
aV2
aV-
aV-
aV41.1
p391
aV0.2
p392
aV-
aV6.51
p393
aa(lp394
V2013/2014
p395
aVWest Bromwich..
p396
aVEPL
p397
aV24
p398
aV2148
p399
aV-
aV-
aV1
aV-
aV-
aV42.6
p400
aV-
aV2
aV6.57
p401
aa(lp402
V2014
p403
aVEngland
p404
aVWC
p405
aV1
aV90
p406
aV-
aV-
aV-
aV-
aV-
aV69.6
p407
aV1
aV-
aV7.47
p408
aa(lp409
V2012/2013
p410
aVWest Bromwich..
p411
aVEPL
p412
aV30
p413
aV2700
p414
aV-
aV-
aV-
aV-
aV-
aV46.6
p415
aV0.2
p416
aV1
aV6.79
p417
aa(lp418
V2011/2012
p419
aVWest Bromwich..
p420
aVEPL
p421
aV37
p422
aV3330
p423
aV-
aV-
aV-
aV-
aV-
aV50
p424
aV0.1
p425
aV2
aV6.85
p426
aa(lp427
V2010/2011
p428
aVBirmingham
p429
aVEPL
p430
aV38
p431
aV3371
p432
aV-
aV-
aV3
aV-
aV-
aV37.3
p433
aV0.2
p434
aV3
aV6.94
p435
aa(lp436
V2009/2010
p437
aVManchester Un..
p438
aVUCL
p439
aV2
aV180
p440
aV-
aV-
aV-
aV-
aV-
aV72.5
p441
aV-
aV-
aV6.42
p442
aa(lp443
V2009/2010
p444
aVManchester Un..
p445
aVEPL
p446
aV9
aV810
p447
aV-
aV-
aV-
aV-
aV-
aV52.5
p448
aV-
aV-
aV6.72
p449
aa(lp450
VTotal / Average
p451
aV
aV
aV276
p452
aV24745
p453
aV0
aV0
aV11
p454
aV0
aV0
aV43.9
p455
aV0.2
p456
aV10
p457
aV6.70
p458
aasS'id'
p459
V11530
p460
sb.