(i__main__
Player
p1
(dp2
S'name'
p3
VAndrew Robertson 
p4
sS'offensive_data'
p5
(lp6
(lp7
a(lp8
V2018/2019
p9
aVLiverpool
p10
aVEPL
p11
aV15
p12
aV1350
p13
aV-
aV3
aV-
aV-
aV0.5
p14
aV83.6
p15
aV0.4
p16
aV1
aV7.15
p17
aa(lp18
V2018/2019
p19
aVLiverpool
p20
aVUCL
p21
aV6
aV532
p22
aV-
aV2
aV2
aV-
aV0.3
p23
aV80
p24
aV0.7
p25
aV-
aV6.81
p26
aa(lp27
V2018/2019
p28
aVScotland
p29
aVUNL
p30
aV4
aV360
p31
aV-
aV-
aV1
aV-
aV0.8
p32
aV82.2
p33
aV1
aV-
aV6.92
p34
aa(lp35
V2017/2018
p36
aVLiverpool
p37
aVUCL
p38
aV6
aV540
p39
aV-
aV-
aV1
aV-
aV0.5
p40
aV82
p41
aV0.7
p42
aV-
aV6.99
p43
aa(lp44
V2017/2018
p45
aVLiverpool
p46
aVEPL
p47
aV22
p48
aV1943
p49
aV1
aV5
aV2
aV-
aV0.5
p50
aV87.1
p51
aV0.7
p52
aV1
aV7.02
p53
aa(lp54
V2016/2017
p55
aVHull
p56
aVEPL
p57
aV31(2)
p58
aV2737
p59
aV1
aV2
aV5
aV-
aV0.2
p60
aV76
p61
aV0.3
p62
aV-
aV6.67
p63
aa(lp64
V2015/2016
p65
aVHull
p66
aVEC
p67
aV44(1)
p68
aV3841
p69
aV3
aV4
aV5
aV-
aV0.5
p70
aV76.6
p71
aV0.5
p72
aV-
aV6.98
p73
aa(lp74
V2014/2015
p75
aVHull
p76
aVEPL
p77
aV17(7)
p78
aV1527
p79
aV-
aV2
aV7
aV-
aV0.4
p80
aV76.3
p81
aV0.4
p82
aV-
aV6.72
p83
aa(lp84
VTotal / Average
p85
aV
aV
aV155
p86
aV12830
p87
aV5
aV18
p88
aV23
p89
aV0
aV0.4
p90
aV79.1
p91
aV0.5
p92
aV2
aV6.89
p93
aasS'url'
p94
S'https://www.whoscored.com/Players/115726/History/'
p95
sS'passing_data'
p96
(lp97
(lp98
a(lp99
V2018/2019
p100
aVLiverpool
p101
aVEPL
p102
aV15
p103
aV1350
p104
aV-
aV3
aV-
aV-
aV0.5
p105
aV83.6
p106
aV0.4
p107
aV1
aV7.15
p108
aa(lp109
V2018/2019
p110
aVLiverpool
p111
aVUCL
p112
aV6
aV532
p113
aV-
aV2
aV2
aV-
aV0.3
p114
aV80
p115
aV0.7
p116
aV-
aV6.81
p117
aa(lp118
V2018/2019
p119
aVScotland
p120
aVUNL
p121
aV4
aV360
p122
aV-
aV-
aV1
aV-
aV0.8
p123
aV82.2
p124
aV1
aV-
aV6.92
p125
aa(lp126
V2017/2018
p127
aVLiverpool
p128
aVUCL
p129
aV6
aV540
p130
aV-
aV-
aV1
aV-
aV0.5
p131
aV82
p132
aV0.7
p133
aV-
aV6.99
p134
aa(lp135
V2017/2018
p136
aVLiverpool
p137
aVEPL
p138
aV22
p139
aV1943
p140
aV1
aV5
aV2
aV-
aV0.5
p141
aV87.1
p142
aV0.7
p143
aV1
aV7.02
p144
aa(lp145
V2016/2017
p146
aVHull
p147
aVEPL
p148
aV31(2)
p149
aV2737
p150
aV1
aV2
aV5
aV-
aV0.2
p151
aV76
p152
aV0.3
p153
aV-
aV6.67
p154
aa(lp155
V2015/2016
p156
aVHull
p157
aVEC
p158
aV44(1)
p159
aV3841
p160
aV3
aV4
aV5
aV-
aV0.5
p161
aV76.6
p162
aV0.5
p163
aV-
aV6.98
p164
aa(lp165
V2014/2015
p166
aVHull
p167
aVEPL
p168
aV17(7)
p169
aV1527
p170
aV-
aV2
aV7
aV-
aV0.4
p171
aV76.3
p172
aV0.4
p173
aV-
aV6.72
p174
aa(lp175
VTotal / Average
p176
aV
aV
aV155
p177
aV12830
p178
aV5
aV18
p179
aV23
p180
aV0
aV0.4
p181
aV79.1
p182
aV0.5
p183
aV2
aV6.89
p184
aasS'defensive_data'
p185
(lp186
(lp187
a(lp188
V2018/2019
p189
aVLiverpool
p190
aVEPL
p191
aV15
p192
aV1350
p193
aV-
aV3
aV-
aV-
aV0.5
p194
aV83.6
p195
aV0.4
p196
aV1
aV7.15
p197
aa(lp198
V2018/2019
p199
aVLiverpool
p200
aVUCL
p201
aV6
aV532
p202
aV-
aV2
aV2
aV-
aV0.3
p203
aV80
p204
aV0.7
p205
aV-
aV6.81
p206
aa(lp207
V2018/2019
p208
aVScotland
p209
aVUNL
p210
aV4
aV360
p211
aV-
aV-
aV1
aV-
aV0.8
p212
aV82.2
p213
aV1
aV-
aV6.92
p214
aa(lp215
V2017/2018
p216
aVLiverpool
p217
aVUCL
p218
aV6
aV540
p219
aV-
aV-
aV1
aV-
aV0.5
p220
aV82
p221
aV0.7
p222
aV-
aV6.99
p223
aa(lp224
V2017/2018
p225
aVLiverpool
p226
aVEPL
p227
aV22
p228
aV1943
p229
aV1
aV5
aV2
aV-
aV0.5
p230
aV87.1
p231
aV0.7
p232
aV1
aV7.02
p233
aa(lp234
V2016/2017
p235
aVHull
p236
aVEPL
p237
aV31(2)
p238
aV2737
p239
aV1
aV2
aV5
aV-
aV0.2
p240
aV76
p241
aV0.3
p242
aV-
aV6.67
p243
aa(lp244
V2015/2016
p245
aVHull
p246
aVEC
p247
aV44(1)
p248
aV3841
p249
aV3
aV4
aV5
aV-
aV0.5
p250
aV76.6
p251
aV0.5
p252
aV-
aV6.98
p253
aa(lp254
V2014/2015
p255
aVHull
p256
aVEPL
p257
aV17(7)
p258
aV1527
p259
aV-
aV2
aV7
aV-
aV0.4
p260
aV76.3
p261
aV0.4
p262
aV-
aV6.72
p263
aa(lp264
VTotal / Average
p265
aV
aV
aV155
p266
aV12830
p267
aV5
aV18
p268
aV23
p269
aV0
aV0.4
p270
aV79.1
p271
aV0.5
p272
aV2
aV6.89
p273
aasS'sumary_data'
p274
(lp275
(lp276
a(lp277
V2018/2019
p278
aVLiverpool
p279
aVEPL
p280
aV15
p281
aV1350
p282
aV-
aV3
aV-
aV-
aV0.5
p283
aV83.6
p284
aV0.4
p285
aV1
aV7.15
p286
aa(lp287
V2018/2019
p288
aVLiverpool
p289
aVUCL
p290
aV6
aV532
p291
aV-
aV2
aV2
aV-
aV0.3
p292
aV80
p293
aV0.7
p294
aV-
aV6.81
p295
aa(lp296
V2018/2019
p297
aVScotland
p298
aVUNL
p299
aV4
aV360
p300
aV-
aV-
aV1
aV-
aV0.8
p301
aV82.2
p302
aV1
aV-
aV6.92
p303
aa(lp304
V2017/2018
p305
aVLiverpool
p306
aVUCL
p307
aV6
aV540
p308
aV-
aV-
aV1
aV-
aV0.5
p309
aV82
p310
aV0.7
p311
aV-
aV6.99
p312
aa(lp313
V2017/2018
p314
aVLiverpool
p315
aVEPL
p316
aV22
p317
aV1943
p318
aV1
aV5
aV2
aV-
aV0.5
p319
aV87.1
p320
aV0.7
p321
aV1
aV7.02
p322
aa(lp323
V2016/2017
p324
aVHull
p325
aVEPL
p326
aV31(2)
p327
aV2737
p328
aV1
aV2
aV5
aV-
aV0.2
p329
aV76
p330
aV0.3
p331
aV-
aV6.67
p332
aa(lp333
V2015/2016
p334
aVHull
p335
aVEC
p336
aV44(1)
p337
aV3841
p338
aV3
aV4
aV5
aV-
aV0.5
p339
aV76.6
p340
aV0.5
p341
aV-
aV6.98
p342
aa(lp343
V2014/2015
p344
aVHull
p345
aVEPL
p346
aV17(7)
p347
aV1527
p348
aV-
aV2
aV7
aV-
aV0.4
p349
aV76.3
p350
aV0.4
p351
aV-
aV6.72
p352
aa(lp353
VTotal / Average
p354
aV
aV
aV155
p355
aV12830
p356
aV5
aV18
p357
aV23
p358
aV0
aV0.4
p359
aV79.1
p360
aV0.5
p361
aV2
aV6.89
p362
aasS'id'
p363
V115726
p364
sb.