(i__main__
Player
p1
(dp2
S'name'
p3
VJonny 
p4
sS'offensive_data'
p5
(lp6
(lp7
a(lp8
V2018/2019
p9
aVWolverhampton..
p10
aVEPL
p11
aV13
p12
aV1102
p13
aV1
aV-
aV2
aV-
aV0.8
p14
aV77.2
p15
aV0.8
p16
aV1
aV7.02
p17
aa(lp18
V2018/2019
p19
aVSpain
p20
aVUNL
p21
aV1
aV90
p22
aV-
aV-
aV1
aV-
aV-
aV91.4
p23
aV2
aV-
aV7.00
p24
aa(lp25
V2017/2018
p26
aVCelta Vigo
p27
aVSLL
p28
aV36
p29
aV3203
p30
aV2
aV1
aV10
p31
aV-
aV0.4
p32
aV83.9
p33
aV1
aV3
aV7.00
p34
aa(lp35
V2016/2017
p36
aVCelta Vigo
p37
aVSLL
p38
aV23(7)
p39
aV2208
p40
aV-
aV3
aV8
aV-
aV0.4
p41
aV83.3
p42
aV0.5
p43
aV1
aV6.72
p44
aa(lp45
V2016/2017
p46
aVCelta Vigo
p47
aVUEL
p48
aV12
p49
aV1102
p50
aV-
aV-
aV2
aV-
aV0.6
p51
aV81.9
p52
aV1
aV1
aV7.03
p53
aa(lp54
V2015/2016
p55
aVCelta Vigo
p56
aVSLL
p57
aV34(2)
p58
aV2960
p59
aV1
aV4
aV8
aV2
aV0.4
p60
aV83.5
p61
aV0.9
p62
aV2
aV6.82
p63
aa(lp64
V2014/2015
p65
aVCelta Vigo
p66
aVSLL
p67
aV32(4)
p68
aV2964
p69
aV-
aV1
aV9
aV-
aV0.3
p70
aV84.3
p71
aV1.2
p72
aV1
aV6.92
p73
aa(lp74
V2013/2014
p75
aVCelta Vigo
p76
aVSLL
p77
aV23(3)
p78
aV2166
p79
aV-
aV2
aV4
aV-
aV0.3
p80
aV81.2
p81
aV1.1
p82
aV-
aV6.96
p83
aa(lp84
V2012/2013
p85
aVCelta Vigo
p86
aVSLL
p87
aV19
p88
aV1628
p89
aV-
aV-
aV5
aV-
aV0.2
p90
aV71.5
p91
aV1.7
p92
aV-
aV6.84
p93
aa(lp94
VTotal / Average
p95
aV
aV
aV209
p96
aV17423
p97
aV4
aV11
p98
aV49
p99
aV2
aV0.4
p100
aV81.9
p101
aV1
aV9
aV6.90
p102
aasS'url'
p103
S'https://www.whoscored.com/Players/115917/History/'
p104
sS'passing_data'
p105
(lp106
(lp107
a(lp108
V2018/2019
p109
aVWolverhampton..
p110
aVEPL
p111
aV13
p112
aV1102
p113
aV1
aV-
aV2
aV-
aV0.8
p114
aV77.2
p115
aV0.8
p116
aV1
aV7.02
p117
aa(lp118
V2018/2019
p119
aVSpain
p120
aVUNL
p121
aV1
aV90
p122
aV-
aV-
aV1
aV-
aV-
aV91.4
p123
aV2
aV-
aV7.00
p124
aa(lp125
V2017/2018
p126
aVCelta Vigo
p127
aVSLL
p128
aV36
p129
aV3203
p130
aV2
aV1
aV10
p131
aV-
aV0.4
p132
aV83.9
p133
aV1
aV3
aV7.00
p134
aa(lp135
V2016/2017
p136
aVCelta Vigo
p137
aVSLL
p138
aV23(7)
p139
aV2208
p140
aV-
aV3
aV8
aV-
aV0.4
p141
aV83.3
p142
aV0.5
p143
aV1
aV6.72
p144
aa(lp145
V2016/2017
p146
aVCelta Vigo
p147
aVUEL
p148
aV12
p149
aV1102
p150
aV-
aV-
aV2
aV-
aV0.6
p151
aV81.9
p152
aV1
aV1
aV7.03
p153
aa(lp154
V2015/2016
p155
aVCelta Vigo
p156
aVSLL
p157
aV34(2)
p158
aV2960
p159
aV1
aV4
aV8
aV2
aV0.4
p160
aV83.5
p161
aV0.9
p162
aV2
aV6.82
p163
aa(lp164
V2014/2015
p165
aVCelta Vigo
p166
aVSLL
p167
aV32(4)
p168
aV2964
p169
aV-
aV1
aV9
aV-
aV0.3
p170
aV84.3
p171
aV1.2
p172
aV1
aV6.92
p173
aa(lp174
V2013/2014
p175
aVCelta Vigo
p176
aVSLL
p177
aV23(3)
p178
aV2166
p179
aV-
aV2
aV4
aV-
aV0.3
p180
aV81.2
p181
aV1.1
p182
aV-
aV6.96
p183
aa(lp184
V2012/2013
p185
aVCelta Vigo
p186
aVSLL
p187
aV19
p188
aV1628
p189
aV-
aV-
aV5
aV-
aV0.2
p190
aV71.5
p191
aV1.7
p192
aV-
aV6.84
p193
aa(lp194
VTotal / Average
p195
aV
aV
aV209
p196
aV17423
p197
aV4
aV11
p198
aV49
p199
aV2
aV0.4
p200
aV81.9
p201
aV1
aV9
aV6.90
p202
aasS'defensive_data'
p203
(lp204
(lp205
a(lp206
V2018/2019
p207
aVWolverhampton..
p208
aVEPL
p209
aV13
p210
aV1102
p211
aV1
aV-
aV2
aV-
aV0.8
p212
aV77.2
p213
aV0.8
p214
aV1
aV7.02
p215
aa(lp216
V2018/2019
p217
aVSpain
p218
aVUNL
p219
aV1
aV90
p220
aV-
aV-
aV1
aV-
aV-
aV91.4
p221
aV2
aV-
aV7.00
p222
aa(lp223
V2017/2018
p224
aVCelta Vigo
p225
aVSLL
p226
aV36
p227
aV3203
p228
aV2
aV1
aV10
p229
aV-
aV0.4
p230
aV83.9
p231
aV1
aV3
aV7.00
p232
aa(lp233
V2016/2017
p234
aVCelta Vigo
p235
aVSLL
p236
aV23(7)
p237
aV2208
p238
aV-
aV3
aV8
aV-
aV0.4
p239
aV83.3
p240
aV0.5
p241
aV1
aV6.72
p242
aa(lp243
V2016/2017
p244
aVCelta Vigo
p245
aVUEL
p246
aV12
p247
aV1102
p248
aV-
aV-
aV2
aV-
aV0.6
p249
aV81.9
p250
aV1
aV1
aV7.03
p251
aa(lp252
V2015/2016
p253
aVCelta Vigo
p254
aVSLL
p255
aV34(2)
p256
aV2960
p257
aV1
aV4
aV8
aV2
aV0.4
p258
aV83.5
p259
aV0.9
p260
aV2
aV6.82
p261
aa(lp262
V2014/2015
p263
aVCelta Vigo
p264
aVSLL
p265
aV32(4)
p266
aV2964
p267
aV-
aV1
aV9
aV-
aV0.3
p268
aV84.3
p269
aV1.2
p270
aV1
aV6.92
p271
aa(lp272
V2013/2014
p273
aVCelta Vigo
p274
aVSLL
p275
aV23(3)
p276
aV2166
p277
aV-
aV2
aV4
aV-
aV0.3
p278
aV81.2
p279
aV1.1
p280
aV-
aV6.96
p281
aa(lp282
V2012/2013
p283
aVCelta Vigo
p284
aVSLL
p285
aV19
p286
aV1628
p287
aV-
aV-
aV5
aV-
aV0.2
p288
aV71.5
p289
aV1.7
p290
aV-
aV6.84
p291
aa(lp292
VTotal / Average
p293
aV
aV
aV209
p294
aV17423
p295
aV4
aV11
p296
aV49
p297
aV2
aV0.4
p298
aV81.9
p299
aV1
aV9
aV6.90
p300
aasS'sumary_data'
p301
(lp302
(lp303
a(lp304
V2018/2019
p305
aVWolverhampton..
p306
aVEPL
p307
aV13
p308
aV1102
p309
aV1
aV-
aV2
aV-
aV0.8
p310
aV77.2
p311
aV0.8
p312
aV1
aV7.02
p313
aa(lp314
V2018/2019
p315
aVSpain
p316
aVUNL
p317
aV1
aV90
p318
aV-
aV-
aV1
aV-
aV-
aV91.4
p319
aV2
aV-
aV7.00
p320
aa(lp321
V2017/2018
p322
aVCelta Vigo
p323
aVSLL
p324
aV36
p325
aV3203
p326
aV2
aV1
aV10
p327
aV-
aV0.4
p328
aV83.9
p329
aV1
aV3
aV7.00
p330
aa(lp331
V2016/2017
p332
aVCelta Vigo
p333
aVSLL
p334
aV23(7)
p335
aV2208
p336
aV-
aV3
aV8
aV-
aV0.4
p337
aV83.3
p338
aV0.5
p339
aV1
aV6.72
p340
aa(lp341
V2016/2017
p342
aVCelta Vigo
p343
aVUEL
p344
aV12
p345
aV1102
p346
aV-
aV-
aV2
aV-
aV0.6
p347
aV81.9
p348
aV1
aV1
aV7.03
p349
aa(lp350
V2015/2016
p351
aVCelta Vigo
p352
aVSLL
p353
aV34(2)
p354
aV2960
p355
aV1
aV4
aV8
aV2
aV0.4
p356
aV83.5
p357
aV0.9
p358
aV2
aV6.82
p359
aa(lp360
V2014/2015
p361
aVCelta Vigo
p362
aVSLL
p363
aV32(4)
p364
aV2964
p365
aV-
aV1
aV9
aV-
aV0.3
p366
aV84.3
p367
aV1.2
p368
aV1
aV6.92
p369
aa(lp370
V2013/2014
p371
aVCelta Vigo
p372
aVSLL
p373
aV23(3)
p374
aV2166
p375
aV-
aV2
aV4
aV-
aV0.3
p376
aV81.2
p377
aV1.1
p378
aV-
aV6.96
p379
aa(lp380
V2012/2013
p381
aVCelta Vigo
p382
aVSLL
p383
aV19
p384
aV1628
p385
aV-
aV-
aV5
aV-
aV0.2
p386
aV71.5
p387
aV1.7
p388
aV-
aV6.84
p389
aa(lp390
VTotal / Average
p391
aV
aV
aV209
p392
aV17423
p393
aV4
aV11
p394
aV49
p395
aV2
aV0.4
p396
aV81.9
p397
aV1
aV9
aV6.90
p398
aasS'id'
p399
V115917
p400
sb.