(i__main__
Player
p1
(dp2
S'name'
p3
VFabinho 
p4
sS'offensive_data'
p5
(lp6
(lp7
a(lp8
V2018/2019
p9
aVLiverpool
p10
aVEPL
p11
aV6(2)
p12
aV565
p13
aV-
aV1
aV3
aV-
aV0.9
p14
aV83.5
p15
aV1.6
p16
aV-
aV7.00
p17
aa(lp18
V2018/2019
p19
aVLiverpool
p20
aVUCL
p21
aV1(3)
p22
aV110
p23
aV-
aV-
aV-
aV-
aV0.3
p24
aV86.5
p25
aV2
aV1
aV6.76
p26
aa(lp27
V2017/2018
p28
aVMonaco
p29
aVUCL
p30
aV5
aV450
p31
aV-
aV-
aV2
aV-
aV0.2
p32
aV77.6
p33
aV3.2
p34
aV-
aV6.78
p35
aa(lp36
V2017/2018
p37
aVMonaco
p38
aVFL1
p39
aV34
p40
aV3060
p41
aV7
aV3
aV8
aV-
aV0.7
p42
aV86.3
p43
aV2.9
p44
aV6
aV7.51
p45
aa(lp46
V2016/2017
p47
aVMonaco
p48
aVUCL
p49
aV9(1)
p50
aV846
p51
aV1
aV3
aV4
aV-
aV0.8
p52
aV85.1
p53
aV1
aV2
aV7.41
p54
aa(lp55
V2016/2017
p56
aVMonaco
p57
aVFL1
p58
aV33(4)
p59
aV3071
p60
aV9
aV1
aV8
aV-
aV0.8
p61
aV84.4
p62
aV1.8
p63
aV2
aV7.51
p64
aa(lp65
V2015/2016
p66
aVMonaco
p67
aVUEL
p68
aV5
aV450
p69
aV-
aV-
aV3
aV-
aV0.2
p70
aV80.3
p71
aV1
aV-
aV7.16
p72
aa(lp73
V2015/2016
p74
aVMonaco
p75
aVFL1
p76
aV34
p77
aV3060
p78
aV6
aV4
aV9
aV-
aV0.9
p79
aV81.4
p80
aV1.9
p81
aV1
aV7.34
p82
aa(lp83
V2014/2015
p84
aVMonaco
p85
aVUCL
p86
aV9(1)
p87
aV817
p88
aV1
aV-
aV1
aV-
aV0.4
p89
aV71.4
p90
aV1.1
p91
aV-
aV7.13
p92
aa(lp93
V2014/2015
p94
aVMonaco
p95
aVFL1
p96
aV35(1)
p97
aV3169
p98
aV1
aV-
aV4
aV-
aV0.5
p99
aV81.5
p100
aV1.4
p101
aV2
aV7.38
p102
aa(lp103
V2013/2014
p104
aVMonaco
p105
aVFL1
p106
aV21(5)
p107
aV1913
p108
aV-
aV-
aV3
aV-
aV0.5
p109
aV83.6
p110
aV0.7
p111
aV1
aV7.06
p112
aa(lp113
V2012/2013
p114
aVReal Madrid
p115
aVSLL
p116
aV0(1)
p117
aV14
p118
aV-
aV1
aV-
aV-
aV-
aV94.1
p119
aV-
aV-
aV6.62
p120
aa(lp121
VTotal / Average
p122
aV
aV
aV210
p123
aV17525
p124
aV25
p125
aV13
p126
aV45
p127
aV0
aV0.7
p128
aV82.8
p129
aV1.7
p130
aV15
p131
aV7.32
p132
aasS'url'
p133
S'https://www.whoscored.com/Players/115916/History/'
p134
sS'passing_data'
p135
(lp136
(lp137
a(lp138
V2018/2019
p139
aVLiverpool
p140
aVEPL
p141
aV6(2)
p142
aV565
p143
aV-
aV1
aV3
aV-
aV0.9
p144
aV83.5
p145
aV1.6
p146
aV-
aV7.00
p147
aa(lp148
V2018/2019
p149
aVLiverpool
p150
aVUCL
p151
aV1(3)
p152
aV110
p153
aV-
aV-
aV-
aV-
aV0.3
p154
aV86.5
p155
aV2
aV1
aV6.76
p156
aa(lp157
V2017/2018
p158
aVMonaco
p159
aVUCL
p160
aV5
aV450
p161
aV-
aV-
aV2
aV-
aV0.2
p162
aV77.6
p163
aV3.2
p164
aV-
aV6.78
p165
aa(lp166
V2017/2018
p167
aVMonaco
p168
aVFL1
p169
aV34
p170
aV3060
p171
aV7
aV3
aV8
aV-
aV0.7
p172
aV86.3
p173
aV2.9
p174
aV6
aV7.51
p175
aa(lp176
V2016/2017
p177
aVMonaco
p178
aVUCL
p179
aV9(1)
p180
aV846
p181
aV1
aV3
aV4
aV-
aV0.8
p182
aV85.1
p183
aV1
aV2
aV7.41
p184
aa(lp185
V2016/2017
p186
aVMonaco
p187
aVFL1
p188
aV33(4)
p189
aV3071
p190
aV9
aV1
aV8
aV-
aV0.8
p191
aV84.4
p192
aV1.8
p193
aV2
aV7.51
p194
aa(lp195
V2015/2016
p196
aVMonaco
p197
aVUEL
p198
aV5
aV450
p199
aV-
aV-
aV3
aV-
aV0.2
p200
aV80.3
p201
aV1
aV-
aV7.16
p202
aa(lp203
V2015/2016
p204
aVMonaco
p205
aVFL1
p206
aV34
p207
aV3060
p208
aV6
aV4
aV9
aV-
aV0.9
p209
aV81.4
p210
aV1.9
p211
aV1
aV7.34
p212
aa(lp213
V2014/2015
p214
aVMonaco
p215
aVUCL
p216
aV9(1)
p217
aV817
p218
aV1
aV-
aV1
aV-
aV0.4
p219
aV71.4
p220
aV1.1
p221
aV-
aV7.13
p222
aa(lp223
V2014/2015
p224
aVMonaco
p225
aVFL1
p226
aV35(1)
p227
aV3169
p228
aV1
aV-
aV4
aV-
aV0.5
p229
aV81.5
p230
aV1.4
p231
aV2
aV7.38
p232
aa(lp233
V2013/2014
p234
aVMonaco
p235
aVFL1
p236
aV21(5)
p237
aV1913
p238
aV-
aV-
aV3
aV-
aV0.5
p239
aV83.6
p240
aV0.7
p241
aV1
aV7.06
p242
aa(lp243
V2012/2013
p244
aVReal Madrid
p245
aVSLL
p246
aV0(1)
p247
aV14
p248
aV-
aV1
aV-
aV-
aV-
aV94.1
p249
aV-
aV-
aV6.62
p250
aa(lp251
VTotal / Average
p252
aV
aV
aV210
p253
aV17525
p254
aV25
p255
aV13
p256
aV45
p257
aV0
aV0.7
p258
aV82.8
p259
aV1.7
p260
aV15
p261
aV7.32
p262
aasS'defensive_data'
p263
(lp264
(lp265
a(lp266
V2018/2019
p267
aVLiverpool
p268
aVEPL
p269
aV6(2)
p270
aV565
p271
aV-
aV1
aV3
aV-
aV0.9
p272
aV83.5
p273
aV1.6
p274
aV-
aV7.00
p275
aa(lp276
V2018/2019
p277
aVLiverpool
p278
aVUCL
p279
aV1(3)
p280
aV110
p281
aV-
aV-
aV-
aV-
aV0.3
p282
aV86.5
p283
aV2
aV1
aV6.76
p284
aa(lp285
V2017/2018
p286
aVMonaco
p287
aVUCL
p288
aV5
aV450
p289
aV-
aV-
aV2
aV-
aV0.2
p290
aV77.6
p291
aV3.2
p292
aV-
aV6.78
p293
aa(lp294
V2017/2018
p295
aVMonaco
p296
aVFL1
p297
aV34
p298
aV3060
p299
aV7
aV3
aV8
aV-
aV0.7
p300
aV86.3
p301
aV2.9
p302
aV6
aV7.51
p303
aa(lp304
V2016/2017
p305
aVMonaco
p306
aVUCL
p307
aV9(1)
p308
aV846
p309
aV1
aV3
aV4
aV-
aV0.8
p310
aV85.1
p311
aV1
aV2
aV7.41
p312
aa(lp313
V2016/2017
p314
aVMonaco
p315
aVFL1
p316
aV33(4)
p317
aV3071
p318
aV9
aV1
aV8
aV-
aV0.8
p319
aV84.4
p320
aV1.8
p321
aV2
aV7.51
p322
aa(lp323
V2015/2016
p324
aVMonaco
p325
aVUEL
p326
aV5
aV450
p327
aV-
aV-
aV3
aV-
aV0.2
p328
aV80.3
p329
aV1
aV-
aV7.16
p330
aa(lp331
V2015/2016
p332
aVMonaco
p333
aVFL1
p334
aV34
p335
aV3060
p336
aV6
aV4
aV9
aV-
aV0.9
p337
aV81.4
p338
aV1.9
p339
aV1
aV7.34
p340
aa(lp341
V2014/2015
p342
aVMonaco
p343
aVUCL
p344
aV9(1)
p345
aV817
p346
aV1
aV-
aV1
aV-
aV0.4
p347
aV71.4
p348
aV1.1
p349
aV-
aV7.13
p350
aa(lp351
V2014/2015
p352
aVMonaco
p353
aVFL1
p354
aV35(1)
p355
aV3169
p356
aV1
aV-
aV4
aV-
aV0.5
p357
aV81.5
p358
aV1.4
p359
aV2
aV7.38
p360
aa(lp361
V2013/2014
p362
aVMonaco
p363
aVFL1
p364
aV21(5)
p365
aV1913
p366
aV-
aV-
aV3
aV-
aV0.5
p367
aV83.6
p368
aV0.7
p369
aV1
aV7.06
p370
aa(lp371
V2012/2013
p372
aVReal Madrid
p373
aVSLL
p374
aV0(1)
p375
aV14
p376
aV-
aV1
aV-
aV-
aV-
aV94.1
p377
aV-
aV-
aV6.62
p378
aa(lp379
VTotal / Average
p380
aV
aV
aV210
p381
aV17525
p382
aV25
p383
aV13
p384
aV45
p385
aV0
aV0.7
p386
aV82.8
p387
aV1.7
p388
aV15
p389
aV7.32
p390
aasS'sumary_data'
p391
(lp392
(lp393
a(lp394
V2018/2019
p395
aVLiverpool
p396
aVEPL
p397
aV6(2)
p398
aV565
p399
aV-
aV1
aV3
aV-
aV0.9
p400
aV83.5
p401
aV1.6
p402
aV-
aV7.00
p403
aa(lp404
V2018/2019
p405
aVLiverpool
p406
aVUCL
p407
aV1(3)
p408
aV110
p409
aV-
aV-
aV-
aV-
aV0.3
p410
aV86.5
p411
aV2
aV1
aV6.76
p412
aa(lp413
V2017/2018
p414
aVMonaco
p415
aVUCL
p416
aV5
aV450
p417
aV-
aV-
aV2
aV-
aV0.2
p418
aV77.6
p419
aV3.2
p420
aV-
aV6.78
p421
aa(lp422
V2017/2018
p423
aVMonaco
p424
aVFL1
p425
aV34
p426
aV3060
p427
aV7
aV3
aV8
aV-
aV0.7
p428
aV86.3
p429
aV2.9
p430
aV6
aV7.51
p431
aa(lp432
V2016/2017
p433
aVMonaco
p434
aVUCL
p435
aV9(1)
p436
aV846
p437
aV1
aV3
aV4
aV-
aV0.8
p438
aV85.1
p439
aV1
aV2
aV7.41
p440
aa(lp441
V2016/2017
p442
aVMonaco
p443
aVFL1
p444
aV33(4)
p445
aV3071
p446
aV9
aV1
aV8
aV-
aV0.8
p447
aV84.4
p448
aV1.8
p449
aV2
aV7.51
p450
aa(lp451
V2015/2016
p452
aVMonaco
p453
aVUEL
p454
aV5
aV450
p455
aV-
aV-
aV3
aV-
aV0.2
p456
aV80.3
p457
aV1
aV-
aV7.16
p458
aa(lp459
V2015/2016
p460
aVMonaco
p461
aVFL1
p462
aV34
p463
aV3060
p464
aV6
aV4
aV9
aV-
aV0.9
p465
aV81.4
p466
aV1.9
p467
aV1
aV7.34
p468
aa(lp469
V2014/2015
p470
aVMonaco
p471
aVUCL
p472
aV9(1)
p473
aV817
p474
aV1
aV-
aV1
aV-
aV0.4
p475
aV71.4
p476
aV1.1
p477
aV-
aV7.13
p478
aa(lp479
V2014/2015
p480
aVMonaco
p481
aVFL1
p482
aV35(1)
p483
aV3169
p484
aV1
aV-
aV4
aV-
aV0.5
p485
aV81.5
p486
aV1.4
p487
aV2
aV7.38
p488
aa(lp489
V2013/2014
p490
aVMonaco
p491
aVFL1
p492
aV21(5)
p493
aV1913
p494
aV-
aV-
aV3
aV-
aV0.5
p495
aV83.6
p496
aV0.7
p497
aV1
aV7.06
p498
aa(lp499
V2012/2013
p500
aVReal Madrid
p501
aVSLL
p502
aV0(1)
p503
aV14
p504
aV-
aV1
aV-
aV-
aV-
aV94.1
p505
aV-
aV-
aV6.62
p506
aa(lp507
VTotal / Average
p508
aV
aV
aV210
p509
aV17525
p510
aV25
p511
aV13
p512
aV45
p513
aV0
aV0.7
p514
aV82.8
p515
aV1.7
p516
aV15
p517
aV7.32
p518
aasS'id'
p519
V115916
p520
sb.