(i__main__
Player
p1
(dp2
S'name'
p3
VEric Dier 
p4
sS'offensive_data'
p5
(lp6
(lp7
a(lp8
V2018/2019
p9
aVTottenham
p10
aVEPL
p11
aV13
p12
aV1121
p13
aV2
aV-
aV3
aV-
aV0.4
p14
aV84.7
p15
aV1.8
p16
aV-
aV6.86
p17
aa(lp18
V2018/2019
p19
aVTottenham
p20
aVUCL
p21
aV2(2)
p22
aV216
p23
aV-
aV-
aV1
aV-
aV0.5
p24
aV87.4
p25
aV1.8
p26
aV-
aV6.32
p27
aa(lp28
V2018/2019
p29
aVEngland
p30
aVUNL
p31
aV3(1)
p32
aV296
p33
aV-
aV-
aV1
aV-
aV0.5
p34
aV91.9
p35
aV0.8
p36
aV1
aV6.64
p37
aa(lp38
V2017/2018
p39
aVTottenham
p40
aVUCL
p41
aV7
aV614
p42
aV-
aV1
aV1
aV-
aV0.4
p43
aV80.9
p44
aV1.6
p45
aV-
aV6.86
p46
aa(lp47
V2017/2018
p48
aVTottenham
p49
aVEPL
p50
aV32(2)
p51
aV2827
p52
aV-
aV2
aV4
aV-
aV0.9
p53
aV86.3
p54
aV2.4
p55
aV-
aV6.96
p56
aa(lp57
V2016/2017
p58
aVTottenham
p59
aVUCL
p60
aV5
aV441
p61
aV-
aV-
aV1
aV-
aV0.4
p62
aV85.9
p63
aV1.8
p64
aV-
aV6.63
p65
aa(lp66
V2016/2017
p67
aVTottenham
p68
aVEPL
p69
aV34(2)
p70
aV3045
p71
aV2
aV-
aV6
aV-
aV0.6
p72
aV86.7
p73
aV2
aV1
aV6.93
p74
aa(lp75
V2016/2017
p76
aVTottenham
p77
aVUEL
p78
aV2
aV179
p79
aV-
aV1
aV1
aV-
aV0.5
p80
aV78.2
p81
aV3.5
p82
aV-
aV6.41
p83
aa(lp84
V2018
p85
aVEngland
p86
aVWC
p87
aV2(4)
p88
aV248
p89
aV-
aV-
aV-
aV-
aV0.8
p90
aV87.8
p91
aV1
aV-
aV6.26
p92
aa(lp93
V2015/2016
p94
aVTottenham
p95
aVUEL
p96
aV8(1)
p97
aV669
p98
aV-
aV-
aV-
aV-
aV0.9
p99
aV88.4
p100
aV1.2
p101
aV-
aV6.88
p102
aa(lp103
V2015/2016
p104
aVTottenham
p105
aVEPL
p106
aV37
p107
aV3268
p108
aV3
aV2
aV10
p109
aV-
aV0.8
p110
aV83.3
p111
aV2.4
p112
aV2
aV7.06
p113
aa(lp114
V2014/2015
p115
aVTottenham
p116
aVUEL
p117
aV3
aV270
p118
aV-
aV-
aV-
aV-
aV-
aV80.8
p119
aV2.7
p120
aV-
aV7.27
p121
aa(lp122
V2014/2015
p123
aVTottenham
p124
aVEPL
p125
aV25(3)
p126
aV2291
p127
aV2
aV2
aV4
aV-
aV0.4
p128
aV79.1
p129
aV2.4
p130
aV2
aV6.93
p131
aa(lp132
V2016
p133
aVEngland
p134
aVUEC
p135
aV4
aV316
p136
aV1
aV-
aV-
aV-
aV2.3
p137
aV89.3
p138
aV2.5
p139
aV-
aV7.07
p140
aa(lp141
VTotal / Average
p142
aV
aV
aV192
p143
aV15801
p144
aV10
p145
aV8
aV32
p146
aV0
aV0.7
p147
aV84.6
p148
aV2.1
p149
aV6
aV6.91
p150
aasS'url'
p151
S'https://www.whoscored.com/Players/117973/History/'
p152
sS'passing_data'
p153
(lp154
(lp155
a(lp156
V2018/2019
p157
aVTottenham
p158
aVEPL
p159
aV13
p160
aV1121
p161
aV2
aV-
aV3
aV-
aV0.4
p162
aV84.7
p163
aV1.8
p164
aV-
aV6.86
p165
aa(lp166
V2018/2019
p167
aVTottenham
p168
aVUCL
p169
aV2(2)
p170
aV216
p171
aV-
aV-
aV1
aV-
aV0.5
p172
aV87.4
p173
aV1.8
p174
aV-
aV6.32
p175
aa(lp176
V2018/2019
p177
aVEngland
p178
aVUNL
p179
aV3(1)
p180
aV296
p181
aV-
aV-
aV1
aV-
aV0.5
p182
aV91.9
p183
aV0.8
p184
aV1
aV6.64
p185
aa(lp186
V2017/2018
p187
aVTottenham
p188
aVUCL
p189
aV7
aV614
p190
aV-
aV1
aV1
aV-
aV0.4
p191
aV80.9
p192
aV1.6
p193
aV-
aV6.86
p194
aa(lp195
V2017/2018
p196
aVTottenham
p197
aVEPL
p198
aV32(2)
p199
aV2827
p200
aV-
aV2
aV4
aV-
aV0.9
p201
aV86.3
p202
aV2.4
p203
aV-
aV6.96
p204
aa(lp205
V2016/2017
p206
aVTottenham
p207
aVUCL
p208
aV5
aV441
p209
aV-
aV-
aV1
aV-
aV0.4
p210
aV85.9
p211
aV1.8
p212
aV-
aV6.63
p213
aa(lp214
V2016/2017
p215
aVTottenham
p216
aVEPL
p217
aV34(2)
p218
aV3045
p219
aV2
aV-
aV6
aV-
aV0.6
p220
aV86.7
p221
aV2
aV1
aV6.93
p222
aa(lp223
V2016/2017
p224
aVTottenham
p225
aVUEL
p226
aV2
aV179
p227
aV-
aV1
aV1
aV-
aV0.5
p228
aV78.2
p229
aV3.5
p230
aV-
aV6.41
p231
aa(lp232
V2018
p233
aVEngland
p234
aVWC
p235
aV2(4)
p236
aV248
p237
aV-
aV-
aV-
aV-
aV0.8
p238
aV87.8
p239
aV1
aV-
aV6.26
p240
aa(lp241
V2015/2016
p242
aVTottenham
p243
aVUEL
p244
aV8(1)
p245
aV669
p246
aV-
aV-
aV-
aV-
aV0.9
p247
aV88.4
p248
aV1.2
p249
aV-
aV6.88
p250
aa(lp251
V2015/2016
p252
aVTottenham
p253
aVEPL
p254
aV37
p255
aV3268
p256
aV3
aV2
aV10
p257
aV-
aV0.8
p258
aV83.3
p259
aV2.4
p260
aV2
aV7.06
p261
aa(lp262
V2014/2015
p263
aVTottenham
p264
aVUEL
p265
aV3
aV270
p266
aV-
aV-
aV-
aV-
aV-
aV80.8
p267
aV2.7
p268
aV-
aV7.27
p269
aa(lp270
V2014/2015
p271
aVTottenham
p272
aVEPL
p273
aV25(3)
p274
aV2291
p275
aV2
aV2
aV4
aV-
aV0.4
p276
aV79.1
p277
aV2.4
p278
aV2
aV6.93
p279
aa(lp280
V2016
p281
aVEngland
p282
aVUEC
p283
aV4
aV316
p284
aV1
aV-
aV-
aV-
aV2.3
p285
aV89.3
p286
aV2.5
p287
aV-
aV7.07
p288
aa(lp289
VTotal / Average
p290
aV
aV
aV192
p291
aV15801
p292
aV10
p293
aV8
aV32
p294
aV0
aV0.7
p295
aV84.6
p296
aV2.1
p297
aV6
aV6.91
p298
aasS'defensive_data'
p299
(lp300
(lp301
a(lp302
V2018/2019
p303
aVTottenham
p304
aVEPL
p305
aV13
p306
aV1121
p307
aV2
aV-
aV3
aV-
aV0.4
p308
aV84.7
p309
aV1.8
p310
aV-
aV6.86
p311
aa(lp312
V2018/2019
p313
aVTottenham
p314
aVUCL
p315
aV2(2)
p316
aV216
p317
aV-
aV-
aV1
aV-
aV0.5
p318
aV87.4
p319
aV1.8
p320
aV-
aV6.32
p321
aa(lp322
V2018/2019
p323
aVEngland
p324
aVUNL
p325
aV3(1)
p326
aV296
p327
aV-
aV-
aV1
aV-
aV0.5
p328
aV91.9
p329
aV0.8
p330
aV1
aV6.64
p331
aa(lp332
V2017/2018
p333
aVTottenham
p334
aVUCL
p335
aV7
aV614
p336
aV-
aV1
aV1
aV-
aV0.4
p337
aV80.9
p338
aV1.6
p339
aV-
aV6.86
p340
aa(lp341
V2017/2018
p342
aVTottenham
p343
aVEPL
p344
aV32(2)
p345
aV2827
p346
aV-
aV2
aV4
aV-
aV0.9
p347
aV86.3
p348
aV2.4
p349
aV-
aV6.96
p350
aa(lp351
V2016/2017
p352
aVTottenham
p353
aVUCL
p354
aV5
aV441
p355
aV-
aV-
aV1
aV-
aV0.4
p356
aV85.9
p357
aV1.8
p358
aV-
aV6.63
p359
aa(lp360
V2016/2017
p361
aVTottenham
p362
aVEPL
p363
aV34(2)
p364
aV3045
p365
aV2
aV-
aV6
aV-
aV0.6
p366
aV86.7
p367
aV2
aV1
aV6.93
p368
aa(lp369
V2016/2017
p370
aVTottenham
p371
aVUEL
p372
aV2
aV179
p373
aV-
aV1
aV1
aV-
aV0.5
p374
aV78.2
p375
aV3.5
p376
aV-
aV6.41
p377
aa(lp378
V2018
p379
aVEngland
p380
aVWC
p381
aV2(4)
p382
aV248
p383
aV-
aV-
aV-
aV-
aV0.8
p384
aV87.8
p385
aV1
aV-
aV6.26
p386
aa(lp387
V2015/2016
p388
aVTottenham
p389
aVUEL
p390
aV8(1)
p391
aV669
p392
aV-
aV-
aV-
aV-
aV0.9
p393
aV88.4
p394
aV1.2
p395
aV-
aV6.88
p396
aa(lp397
V2015/2016
p398
aVTottenham
p399
aVEPL
p400
aV37
p401
aV3268
p402
aV3
aV2
aV10
p403
aV-
aV0.8
p404
aV83.3
p405
aV2.4
p406
aV2
aV7.06
p407
aa(lp408
V2014/2015
p409
aVTottenham
p410
aVUEL
p411
aV3
aV270
p412
aV-
aV-
aV-
aV-
aV-
aV80.8
p413
aV2.7
p414
aV-
aV7.27
p415
aa(lp416
V2014/2015
p417
aVTottenham
p418
aVEPL
p419
aV25(3)
p420
aV2291
p421
aV2
aV2
aV4
aV-
aV0.4
p422
aV79.1
p423
aV2.4
p424
aV2
aV6.93
p425
aa(lp426
V2016
p427
aVEngland
p428
aVUEC
p429
aV4
aV316
p430
aV1
aV-
aV-
aV-
aV2.3
p431
aV89.3
p432
aV2.5
p433
aV-
aV7.07
p434
aa(lp435
VTotal / Average
p436
aV
aV
aV192
p437
aV15801
p438
aV10
p439
aV8
aV32
p440
aV0
aV0.7
p441
aV84.6
p442
aV2.1
p443
aV6
aV6.91
p444
aasS'sumary_data'
p445
(lp446
(lp447
a(lp448
V2018/2019
p449
aVTottenham
p450
aVEPL
p451
aV13
p452
aV1121
p453
aV2
aV-
aV3
aV-
aV0.4
p454
aV84.7
p455
aV1.8
p456
aV-
aV6.86
p457
aa(lp458
V2018/2019
p459
aVTottenham
p460
aVUCL
p461
aV2(2)
p462
aV216
p463
aV-
aV-
aV1
aV-
aV0.5
p464
aV87.4
p465
aV1.8
p466
aV-
aV6.32
p467
aa(lp468
V2018/2019
p469
aVEngland
p470
aVUNL
p471
aV3(1)
p472
aV296
p473
aV-
aV-
aV1
aV-
aV0.5
p474
aV91.9
p475
aV0.8
p476
aV1
aV6.64
p477
aa(lp478
V2017/2018
p479
aVTottenham
p480
aVUCL
p481
aV7
aV614
p482
aV-
aV1
aV1
aV-
aV0.4
p483
aV80.9
p484
aV1.6
p485
aV-
aV6.86
p486
aa(lp487
V2017/2018
p488
aVTottenham
p489
aVEPL
p490
aV32(2)
p491
aV2827
p492
aV-
aV2
aV4
aV-
aV0.9
p493
aV86.3
p494
aV2.4
p495
aV-
aV6.96
p496
aa(lp497
V2016/2017
p498
aVTottenham
p499
aVUCL
p500
aV5
aV441
p501
aV-
aV-
aV1
aV-
aV0.4
p502
aV85.9
p503
aV1.8
p504
aV-
aV6.63
p505
aa(lp506
V2016/2017
p507
aVTottenham
p508
aVEPL
p509
aV34(2)
p510
aV3045
p511
aV2
aV-
aV6
aV-
aV0.6
p512
aV86.7
p513
aV2
aV1
aV6.93
p514
aa(lp515
V2016/2017
p516
aVTottenham
p517
aVUEL
p518
aV2
aV179
p519
aV-
aV1
aV1
aV-
aV0.5
p520
aV78.2
p521
aV3.5
p522
aV-
aV6.41
p523
aa(lp524
V2018
p525
aVEngland
p526
aVWC
p527
aV2(4)
p528
aV248
p529
aV-
aV-
aV-
aV-
aV0.8
p530
aV87.8
p531
aV1
aV-
aV6.26
p532
aa(lp533
V2015/2016
p534
aVTottenham
p535
aVUEL
p536
aV8(1)
p537
aV669
p538
aV-
aV-
aV-
aV-
aV0.9
p539
aV88.4
p540
aV1.2
p541
aV-
aV6.88
p542
aa(lp543
V2015/2016
p544
aVTottenham
p545
aVEPL
p546
aV37
p547
aV3268
p548
aV3
aV2
aV10
p549
aV-
aV0.8
p550
aV83.3
p551
aV2.4
p552
aV2
aV7.06
p553
aa(lp554
V2014/2015
p555
aVTottenham
p556
aVUEL
p557
aV3
aV270
p558
aV-
aV-
aV-
aV-
aV-
aV80.8
p559
aV2.7
p560
aV-
aV7.27
p561
aa(lp562
V2014/2015
p563
aVTottenham
p564
aVEPL
p565
aV25(3)
p566
aV2291
p567
aV2
aV2
aV4
aV-
aV0.4
p568
aV79.1
p569
aV2.4
p570
aV2
aV6.93
p571
aa(lp572
V2016
p573
aVEngland
p574
aVUEC
p575
aV4
aV316
p576
aV1
aV-
aV-
aV-
aV2.3
p577
aV89.3
p578
aV2.5
p579
aV-
aV7.07
p580
aa(lp581
VTotal / Average
p582
aV
aV
aV192
p583
aV15801
p584
aV10
p585
aV8
aV32
p586
aV0
aV0.7
p587
aV84.6
p588
aV2.1
p589
aV6
aV6.91
p590
aasS'id'
p591
V117973
p592
sb.