(i__main__
Player
p1
(dp2
S'name'
p3
VLuke Shaw 
p4
sS'offensive_data'
p5
(lp6
(lp7
a(lp8
V2018/2019
p9
aVManchester Un..
p10
aVEPL
p11
aV12
p12
aV1062
p13
aV1
aV1
aV5
aV-
aV0.9
p14
aV83.5
p15
aV2.1
p16
aV-
aV6.81
p17
aa(lp18
V2018/2019
p19
aVManchester Un..
p20
aVUCL
p21
aV5
aV450
p22
aV-
aV-
aV-
aV-
aV0.6
p23
aV86.2
p24
aV0.6
p25
aV-
aV7.07
p26
aa(lp27
V2018/2019
p28
aVEngland
p29
aVUNL
p30
aV1
aV53
p31
aV-
aV1
aV1
aV-
aV-
aV87.5
p32
aV2
aV-
aV7.01
p33
aa(lp34
V2017/2018
p35
aVManchester Un..
p36
aVUCL
p37
aV1
aV90
p38
aV-
aV-
aV-
aV-
aV2
aV79.6
p39
aV2
aV-
aV7.67
p40
aa(lp41
V2017/2018
p42
aVManchester Un..
p43
aVEPL
p44
aV8(3)
p45
aV789
p46
aV-
aV-
aV2
aV-
aV1.1
p47
aV84.9
p48
aV1.5
p49
aV-
aV6.86
p50
aa(lp51
V2016/2017
p52
aVManchester Un..
p53
aVEPL
p54
aV9(2)
p55
aV692
p56
aV-
aV1
aV1
aV-
aV0.5
p57
aV85.6
p58
aV1
aV-
aV6.90
p59
aa(lp60
V2016/2017
p61
aVManchester Un..
p62
aVUEL
p63
aV4
aV390
p64
aV-
aV-
aV-
aV-
aV0.3
p65
aV88.9
p66
aV1.3
p67
aV-
aV7.01
p68
aa(lp69
V2015/2016
p70
aVManchester Un..
p71
aVUCL
p72
aV1
aV24
p73
aV-
aV-
aV-
aV-
aV-
aV100
p74
aV-
aV-
aV6.51
p75
aa(lp76
V2015/2016
p77
aVManchester Un..
p78
aVEPL
p79
aV5
aV450
p80
aV-
aV1
aV1
aV-
aV0.2
p81
aV86
p82
aV2.8
p83
aV-
aV7.36
p84
aa(lp85
V2014/2015
p86
aVManchester Un..
p87
aVEPL
p88
aV15(1)
p89
aV1127
p90
aV-
aV-
aV1
aV1
aV0.2
p91
aV86.7
p92
aV1.8
p93
aV-
aV6.79
p94
aa(lp95
V2013/2014
p96
aVSouthampton
p97
aVEPL
p98
aV35
p99
aV2995
p100
aV-
aV1
aV4
aV-
aV0.7
p101
aV79.1
p102
aV1.7
p103
aV1
aV7.16
p104
aa(lp105
V2014
p106
aVEngland
p107
aVWC
p108
aV1
aV90
p109
aV-
aV-
aV-
aV-
aV1
aV83.7
p110
aV2
aV-
aV7.07
p111
aa(lp112
V2012/2013
p113
aVSouthampton
p114
aVEPL
p115
aV22(3)
p116
aV1951
p117
aV-
aV-
aV2
aV-
aV0.4
p118
aV71.6
p119
aV2
aV1
aV6.96
p120
aa(lp121
VTotal / Average
p122
aV
aV
aV128
p123
aV10163
p124
aV1
aV5
aV17
p125
aV1
aV0.6
p126
aV81.2
p127
aV1.7
p128
aV2
aV6.99
p129
aasS'url'
p130
S'https://www.whoscored.com/Players/118244/History/'
p131
sS'passing_data'
p132
(lp133
(lp134
a(lp135
V2018/2019
p136
aVManchester Un..
p137
aVEPL
p138
aV12
p139
aV1062
p140
aV1
aV1
aV5
aV-
aV0.9
p141
aV83.5
p142
aV2.1
p143
aV-
aV6.81
p144
aa(lp145
V2018/2019
p146
aVManchester Un..
p147
aVUCL
p148
aV5
aV450
p149
aV-
aV-
aV-
aV-
aV0.6
p150
aV86.2
p151
aV0.6
p152
aV-
aV7.07
p153
aa(lp154
V2018/2019
p155
aVEngland
p156
aVUNL
p157
aV1
aV53
p158
aV-
aV1
aV1
aV-
aV-
aV87.5
p159
aV2
aV-
aV7.01
p160
aa(lp161
V2017/2018
p162
aVManchester Un..
p163
aVUCL
p164
aV1
aV90
p165
aV-
aV-
aV-
aV-
aV2
aV79.6
p166
aV2
aV-
aV7.67
p167
aa(lp168
V2017/2018
p169
aVManchester Un..
p170
aVEPL
p171
aV8(3)
p172
aV789
p173
aV-
aV-
aV2
aV-
aV1.1
p174
aV84.9
p175
aV1.5
p176
aV-
aV6.86
p177
aa(lp178
V2016/2017
p179
aVManchester Un..
p180
aVEPL
p181
aV9(2)
p182
aV692
p183
aV-
aV1
aV1
aV-
aV0.5
p184
aV85.6
p185
aV1
aV-
aV6.90
p186
aa(lp187
V2016/2017
p188
aVManchester Un..
p189
aVUEL
p190
aV4
aV390
p191
aV-
aV-
aV-
aV-
aV0.3
p192
aV88.9
p193
aV1.3
p194
aV-
aV7.01
p195
aa(lp196
V2015/2016
p197
aVManchester Un..
p198
aVUCL
p199
aV1
aV24
p200
aV-
aV-
aV-
aV-
aV-
aV100
p201
aV-
aV-
aV6.51
p202
aa(lp203
V2015/2016
p204
aVManchester Un..
p205
aVEPL
p206
aV5
aV450
p207
aV-
aV1
aV1
aV-
aV0.2
p208
aV86
p209
aV2.8
p210
aV-
aV7.36
p211
aa(lp212
V2014/2015
p213
aVManchester Un..
p214
aVEPL
p215
aV15(1)
p216
aV1127
p217
aV-
aV-
aV1
aV1
aV0.2
p218
aV86.7
p219
aV1.8
p220
aV-
aV6.79
p221
aa(lp222
V2013/2014
p223
aVSouthampton
p224
aVEPL
p225
aV35
p226
aV2995
p227
aV-
aV1
aV4
aV-
aV0.7
p228
aV79.1
p229
aV1.7
p230
aV1
aV7.16
p231
aa(lp232
V2014
p233
aVEngland
p234
aVWC
p235
aV1
aV90
p236
aV-
aV-
aV-
aV-
aV1
aV83.7
p237
aV2
aV-
aV7.07
p238
aa(lp239
V2012/2013
p240
aVSouthampton
p241
aVEPL
p242
aV22(3)
p243
aV1951
p244
aV-
aV-
aV2
aV-
aV0.4
p245
aV71.6
p246
aV2
aV1
aV6.96
p247
aa(lp248
VTotal / Average
p249
aV
aV
aV128
p250
aV10163
p251
aV1
aV5
aV17
p252
aV1
aV0.6
p253
aV81.2
p254
aV1.7
p255
aV2
aV6.99
p256
aasS'defensive_data'
p257
(lp258
(lp259
a(lp260
V2018/2019
p261
aVManchester Un..
p262
aVEPL
p263
aV12
p264
aV1062
p265
aV1
aV1
aV5
aV-
aV0.9
p266
aV83.5
p267
aV2.1
p268
aV-
aV6.81
p269
aa(lp270
V2018/2019
p271
aVManchester Un..
p272
aVUCL
p273
aV5
aV450
p274
aV-
aV-
aV-
aV-
aV0.6
p275
aV86.2
p276
aV0.6
p277
aV-
aV7.07
p278
aa(lp279
V2018/2019
p280
aVEngland
p281
aVUNL
p282
aV1
aV53
p283
aV-
aV1
aV1
aV-
aV-
aV87.5
p284
aV2
aV-
aV7.01
p285
aa(lp286
V2017/2018
p287
aVManchester Un..
p288
aVUCL
p289
aV1
aV90
p290
aV-
aV-
aV-
aV-
aV2
aV79.6
p291
aV2
aV-
aV7.67
p292
aa(lp293
V2017/2018
p294
aVManchester Un..
p295
aVEPL
p296
aV8(3)
p297
aV789
p298
aV-
aV-
aV2
aV-
aV1.1
p299
aV84.9
p300
aV1.5
p301
aV-
aV6.86
p302
aa(lp303
V2016/2017
p304
aVManchester Un..
p305
aVEPL
p306
aV9(2)
p307
aV692
p308
aV-
aV1
aV1
aV-
aV0.5
p309
aV85.6
p310
aV1
aV-
aV6.90
p311
aa(lp312
V2016/2017
p313
aVManchester Un..
p314
aVUEL
p315
aV4
aV390
p316
aV-
aV-
aV-
aV-
aV0.3
p317
aV88.9
p318
aV1.3
p319
aV-
aV7.01
p320
aa(lp321
V2015/2016
p322
aVManchester Un..
p323
aVUCL
p324
aV1
aV24
p325
aV-
aV-
aV-
aV-
aV-
aV100
p326
aV-
aV-
aV6.51
p327
aa(lp328
V2015/2016
p329
aVManchester Un..
p330
aVEPL
p331
aV5
aV450
p332
aV-
aV1
aV1
aV-
aV0.2
p333
aV86
p334
aV2.8
p335
aV-
aV7.36
p336
aa(lp337
V2014/2015
p338
aVManchester Un..
p339
aVEPL
p340
aV15(1)
p341
aV1127
p342
aV-
aV-
aV1
aV1
aV0.2
p343
aV86.7
p344
aV1.8
p345
aV-
aV6.79
p346
aa(lp347
V2013/2014
p348
aVSouthampton
p349
aVEPL
p350
aV35
p351
aV2995
p352
aV-
aV1
aV4
aV-
aV0.7
p353
aV79.1
p354
aV1.7
p355
aV1
aV7.16
p356
aa(lp357
V2014
p358
aVEngland
p359
aVWC
p360
aV1
aV90
p361
aV-
aV-
aV-
aV-
aV1
aV83.7
p362
aV2
aV-
aV7.07
p363
aa(lp364
V2012/2013
p365
aVSouthampton
p366
aVEPL
p367
aV22(3)
p368
aV1951
p369
aV-
aV-
aV2
aV-
aV0.4
p370
aV71.6
p371
aV2
aV1
aV6.96
p372
aa(lp373
VTotal / Average
p374
aV
aV
aV128
p375
aV10163
p376
aV1
aV5
aV17
p377
aV1
aV0.6
p378
aV81.2
p379
aV1.7
p380
aV2
aV6.99
p381
aasS'sumary_data'
p382
(lp383
(lp384
a(lp385
V2018/2019
p386
aVManchester Un..
p387
aVEPL
p388
aV12
p389
aV1062
p390
aV1
aV1
aV5
aV-
aV0.9
p391
aV83.5
p392
aV2.1
p393
aV-
aV6.81
p394
aa(lp395
V2018/2019
p396
aVManchester Un..
p397
aVUCL
p398
aV5
aV450
p399
aV-
aV-
aV-
aV-
aV0.6
p400
aV86.2
p401
aV0.6
p402
aV-
aV7.07
p403
aa(lp404
V2018/2019
p405
aVEngland
p406
aVUNL
p407
aV1
aV53
p408
aV-
aV1
aV1
aV-
aV-
aV87.5
p409
aV2
aV-
aV7.01
p410
aa(lp411
V2017/2018
p412
aVManchester Un..
p413
aVUCL
p414
aV1
aV90
p415
aV-
aV-
aV-
aV-
aV2
aV79.6
p416
aV2
aV-
aV7.67
p417
aa(lp418
V2017/2018
p419
aVManchester Un..
p420
aVEPL
p421
aV8(3)
p422
aV789
p423
aV-
aV-
aV2
aV-
aV1.1
p424
aV84.9
p425
aV1.5
p426
aV-
aV6.86
p427
aa(lp428
V2016/2017
p429
aVManchester Un..
p430
aVEPL
p431
aV9(2)
p432
aV692
p433
aV-
aV1
aV1
aV-
aV0.5
p434
aV85.6
p435
aV1
aV-
aV6.90
p436
aa(lp437
V2016/2017
p438
aVManchester Un..
p439
aVUEL
p440
aV4
aV390
p441
aV-
aV-
aV-
aV-
aV0.3
p442
aV88.9
p443
aV1.3
p444
aV-
aV7.01
p445
aa(lp446
V2015/2016
p447
aVManchester Un..
p448
aVUCL
p449
aV1
aV24
p450
aV-
aV-
aV-
aV-
aV-
aV100
p451
aV-
aV-
aV6.51
p452
aa(lp453
V2015/2016
p454
aVManchester Un..
p455
aVEPL
p456
aV5
aV450
p457
aV-
aV1
aV1
aV-
aV0.2
p458
aV86
p459
aV2.8
p460
aV-
aV7.36
p461
aa(lp462
V2014/2015
p463
aVManchester Un..
p464
aVEPL
p465
aV15(1)
p466
aV1127
p467
aV-
aV-
aV1
aV1
aV0.2
p468
aV86.7
p469
aV1.8
p470
aV-
aV6.79
p471
aa(lp472
V2013/2014
p473
aVSouthampton
p474
aVEPL
p475
aV35
p476
aV2995
p477
aV-
aV1
aV4
aV-
aV0.7
p478
aV79.1
p479
aV1.7
p480
aV1
aV7.16
p481
aa(lp482
V2014
p483
aVEngland
p484
aVWC
p485
aV1
aV90
p486
aV-
aV-
aV-
aV-
aV1
aV83.7
p487
aV2
aV-
aV7.07
p488
aa(lp489
V2012/2013
p490
aVSouthampton
p491
aVEPL
p492
aV22(3)
p493
aV1951
p494
aV-
aV-
aV2
aV-
aV0.4
p495
aV71.6
p496
aV2
aV1
aV6.96
p497
aa(lp498
VTotal / Average
p499
aV
aV
aV128
p500
aV10163
p501
aV1
aV5
aV17
p502
aV1
aV0.6
p503
aV81.2
p504
aV1.7
p505
aV2
aV6.99
p506
aasS'id'
p507
V118244
p508
sb.