(i__main__
Player
p1
(dp2
S'name'
p3
VGary Cahill 
p4
sS'offensive_data'
p5
(lp6
(lp7
a(lp8
V2018/2019
p9
aVChelsea
p10
aVEPL
p11
aV0(1)
p12
aV21
p13
aV-
aV-
aV-
aV-
aV-
aV88.9
p14
aV1
aV-
aV6.16
p15
aa(lp16
V2018/2019
p17
aVChelsea
p18
aVUEL
p19
aV4
aV360
p20
aV-
aV-
aV1
aV-
aV0.8
p21
aV93.4
p22
aV2.8
p23
aV-
aV7.03
p24
aa(lp25
V2017/2018
p26
aVChelsea
p27
aVUCL
p28
aV5(1)
p29
aV448
p30
aV-
aV-
aV1
aV-
aV0.7
p31
aV92.2
p32
aV1.7
p33
aV-
aV6.54
p34
aa(lp35
V2017/2018
p36
aVChelsea
p37
aVEPL
p38
aV24(3)
p39
aV2084
p40
aV-
aV-
aV1
aV1
aV0.4
p41
aV89
p42
aV3.4
p43
aV-
aV6.87
p44
aa(lp45
V2016/2017
p46
aVChelsea
p47
aVEPL
p48
aV36(1)
p49
aV3296
p50
aV6
aV-
aV5
aV-
aV0.6
p51
aV88.4
p52
aV2.5
p53
aV1
aV7.06
p54
aa(lp55
V2018
p56
aVEngland
p57
aVWC
p58
aV1
aV90
p59
aV-
aV-
aV-
aV-
aV-
aV93.3
p60
aV3
aV-
aV7.02
p61
aa(lp62
V2015/2016
p63
aVChelsea
p64
aVUCL
p65
aV6(1)
p66
aV541
p67
aV1
aV-
aV1
aV-
aV0.7
p68
aV88.3
p69
aV2.3
p70
aV-
aV6.95
p71
aa(lp72
V2015/2016
p73
aVChelsea
p74
aVEPL
p75
aV21(2)
p76
aV1955
p77
aV2
aV1
aV2
aV-
aV0.6
p78
aV83.6
p79
aV3
aV-
aV6.81
p80
aa(lp81
V2014/2015
p82
aVChelsea
p83
aVUCL
p84
aV6
aV570
p85
aV1
aV2
aV-
aV-
aV1.2
p86
aV89.5
p87
aV1.7
p88
aV-
aV7.09
p89
aa(lp90
V2014/2015
p91
aVChelsea
p92
aVEPL
p93
aV33(3)
p94
aV2985
p95
aV1
aV-
aV5
aV-
aV0.6
p96
aV86.5
p97
aV3.3
p98
aV-
aV6.96
p99
aa(lp100
V2016
p101
aVEngland
p102
aVUEC
p103
aV4
aV360
p104
aV-
aV-
aV1
aV-
aV1.5
p105
aV88.4
p106
aV5.8
p107
aV-
aV7.05
p108
aa(lp109
V2013/2014
p110
aVChelsea
p111
aVUCL
p112
aV10
p113
aV900
p114
aV1
aV-
aV2
aV-
aV0.4
p115
aV86
p116
aV2
aV1
aV7.01
p117
aa(lp118
V2013/2014
p119
aVChelsea
p120
aVEPL
p121
aV29(1)
p122
aV2623
p123
aV1
aV1
aV2
aV-
aV0.6
p124
aV88.3
p125
aV3.5
p126
aV-
aV7.29
p127
aa(lp128
V2014
p129
aVEngland
p130
aVWC
p131
aV3
aV270
p132
aV-
aV-
aV-
aV-
aV-
aV88.5
p133
aV3
aV-
aV7.21
p134
aa(lp135
V2012/2013
p136
aVChelsea
p137
aVUEL
p138
aV4
aV360
p139
aV-
aV-
aV1
aV-
aV0.3
p140
aV88.5
p141
aV3.5
p142
aV-
aV7.21
p143
aa(lp144
V2012/2013
p145
aVChelsea
p146
aVUCL
p147
aV4
aV360
p148
aV1
aV-
aV-
aV-
aV1.3
p149
aV96.3
p150
aV1.3
p151
aV-
aV6.83
p152
aa(lp153
V2012/2013
p154
aVChelsea
p155
aVEPL
p156
aV24(2)
p157
aV2216
p158
aV2
aV2
aV1
aV-
aV0.6
p159
aV88.4
p160
aV3
aV-
aV7.07
p161
aa(lp162
V2011/2012
p163
aVChelsea
p164
aVUCL
p165
aV4(1)
p166
aV344
p167
aV-
aV-
aV1
aV-
aV0.4
p168
aV89.9
p169
aV0.6
p170
aV-
aV6.46
p171
aa(lp172
V2011/2012
p173
aVChelsea
p174
aVEPL
p175
aV9(1)
p176
aV855
p177
aV1
aV-
aV2
aV-
aV0.9
p178
aV85.3
p179
aV0.8
p180
aV-
aV6.98
p181
aa(lp182
V2011/2012
p183
aVBolton
p184
aVEPL
p185
aV19
p186
aV1638
p187
aV2
aV-
aV2
aV1
aV0.8
p188
aV74.4
p189
aV3.3
p190
aV1
aV6.93
p191
aa(lp192
V2010/2011
p193
aVBolton
p194
aVEPL
p195
aV36
p196
aV3214
p197
aV3
aV-
aV7
aV1
aV1.2
p198
aV71.6
p199
aV4
aV7
aV7.30
p200
aa(lp201
V2009/2010
p202
aVBolton
p203
aVEPL
p204
aV29
p205
aV2610
p206
aV5
aV1
aV3
aV-
aV1.3
p207
aV68.4
p208
aV4.4
p209
aV5
aV7.33
p210
aa(lp211
VTotal / Average
p212
aV
aV
aV328
p213
aV28100
p214
aV27
p215
aV7
aV38
p216
aV3
aV0.7
p217
aV83.6
p218
aV3.1
p219
aV15
p220
aV7.05
p221
aasS'url'
p222
S'https://www.whoscored.com/Players/11981/History/'
p223
sS'passing_data'
p224
(lp225
(lp226
a(lp227
V2018/2019
p228
aVChelsea
p229
aVEPL
p230
aV0(1)
p231
aV21
p232
aV-
aV-
aV-
aV-
aV-
aV88.9
p233
aV1
aV-
aV6.16
p234
aa(lp235
V2018/2019
p236
aVChelsea
p237
aVUEL
p238
aV4
aV360
p239
aV-
aV-
aV1
aV-
aV0.8
p240
aV93.4
p241
aV2.8
p242
aV-
aV7.03
p243
aa(lp244
V2017/2018
p245
aVChelsea
p246
aVUCL
p247
aV5(1)
p248
aV448
p249
aV-
aV-
aV1
aV-
aV0.7
p250
aV92.2
p251
aV1.7
p252
aV-
aV6.54
p253
aa(lp254
V2017/2018
p255
aVChelsea
p256
aVEPL
p257
aV24(3)
p258
aV2084
p259
aV-
aV-
aV1
aV1
aV0.4
p260
aV89
p261
aV3.4
p262
aV-
aV6.87
p263
aa(lp264
V2016/2017
p265
aVChelsea
p266
aVEPL
p267
aV36(1)
p268
aV3296
p269
aV6
aV-
aV5
aV-
aV0.6
p270
aV88.4
p271
aV2.5
p272
aV1
aV7.06
p273
aa(lp274
V2018
p275
aVEngland
p276
aVWC
p277
aV1
aV90
p278
aV-
aV-
aV-
aV-
aV-
aV93.3
p279
aV3
aV-
aV7.02
p280
aa(lp281
V2015/2016
p282
aVChelsea
p283
aVUCL
p284
aV6(1)
p285
aV541
p286
aV1
aV-
aV1
aV-
aV0.7
p287
aV88.3
p288
aV2.3
p289
aV-
aV6.95
p290
aa(lp291
V2015/2016
p292
aVChelsea
p293
aVEPL
p294
aV21(2)
p295
aV1955
p296
aV2
aV1
aV2
aV-
aV0.6
p297
aV83.6
p298
aV3
aV-
aV6.81
p299
aa(lp300
V2014/2015
p301
aVChelsea
p302
aVUCL
p303
aV6
aV570
p304
aV1
aV2
aV-
aV-
aV1.2
p305
aV89.5
p306
aV1.7
p307
aV-
aV7.09
p308
aa(lp309
V2014/2015
p310
aVChelsea
p311
aVEPL
p312
aV33(3)
p313
aV2985
p314
aV1
aV-
aV5
aV-
aV0.6
p315
aV86.5
p316
aV3.3
p317
aV-
aV6.96
p318
aa(lp319
V2016
p320
aVEngland
p321
aVUEC
p322
aV4
aV360
p323
aV-
aV-
aV1
aV-
aV1.5
p324
aV88.4
p325
aV5.8
p326
aV-
aV7.05
p327
aa(lp328
V2013/2014
p329
aVChelsea
p330
aVUCL
p331
aV10
p332
aV900
p333
aV1
aV-
aV2
aV-
aV0.4
p334
aV86
p335
aV2
aV1
aV7.01
p336
aa(lp337
V2013/2014
p338
aVChelsea
p339
aVEPL
p340
aV29(1)
p341
aV2623
p342
aV1
aV1
aV2
aV-
aV0.6
p343
aV88.3
p344
aV3.5
p345
aV-
aV7.29
p346
aa(lp347
V2014
p348
aVEngland
p349
aVWC
p350
aV3
aV270
p351
aV-
aV-
aV-
aV-
aV-
aV88.5
p352
aV3
aV-
aV7.21
p353
aa(lp354
V2012/2013
p355
aVChelsea
p356
aVUEL
p357
aV4
aV360
p358
aV-
aV-
aV1
aV-
aV0.3
p359
aV88.5
p360
aV3.5
p361
aV-
aV7.21
p362
aa(lp363
V2012/2013
p364
aVChelsea
p365
aVUCL
p366
aV4
aV360
p367
aV1
aV-
aV-
aV-
aV1.3
p368
aV96.3
p369
aV1.3
p370
aV-
aV6.83
p371
aa(lp372
V2012/2013
p373
aVChelsea
p374
aVEPL
p375
aV24(2)
p376
aV2216
p377
aV2
aV2
aV1
aV-
aV0.6
p378
aV88.4
p379
aV3
aV-
aV7.07
p380
aa(lp381
V2011/2012
p382
aVChelsea
p383
aVUCL
p384
aV4(1)
p385
aV344
p386
aV-
aV-
aV1
aV-
aV0.4
p387
aV89.9
p388
aV0.6
p389
aV-
aV6.46
p390
aa(lp391
V2011/2012
p392
aVChelsea
p393
aVEPL
p394
aV9(1)
p395
aV855
p396
aV1
aV-
aV2
aV-
aV0.9
p397
aV85.3
p398
aV0.8
p399
aV-
aV6.98
p400
aa(lp401
V2011/2012
p402
aVBolton
p403
aVEPL
p404
aV19
p405
aV1638
p406
aV2
aV-
aV2
aV1
aV0.8
p407
aV74.4
p408
aV3.3
p409
aV1
aV6.93
p410
aa(lp411
V2010/2011
p412
aVBolton
p413
aVEPL
p414
aV36
p415
aV3214
p416
aV3
aV-
aV7
aV1
aV1.2
p417
aV71.6
p418
aV4
aV7
aV7.30
p419
aa(lp420
V2009/2010
p421
aVBolton
p422
aVEPL
p423
aV29
p424
aV2610
p425
aV5
aV1
aV3
aV-
aV1.3
p426
aV68.4
p427
aV4.4
p428
aV5
aV7.33
p429
aa(lp430
VTotal / Average
p431
aV
aV
aV328
p432
aV28100
p433
aV27
p434
aV7
aV38
p435
aV3
aV0.7
p436
aV83.6
p437
aV3.1
p438
aV15
p439
aV7.05
p440
aasS'defensive_data'
p441
(lp442
(lp443
a(lp444
V2018/2019
p445
aVChelsea
p446
aVEPL
p447
aV0(1)
p448
aV21
p449
aV-
aV-
aV-
aV-
aV-
aV88.9
p450
aV1
aV-
aV6.16
p451
aa(lp452
V2018/2019
p453
aVChelsea
p454
aVUEL
p455
aV4
aV360
p456
aV-
aV-
aV1
aV-
aV0.8
p457
aV93.4
p458
aV2.8
p459
aV-
aV7.03
p460
aa(lp461
V2017/2018
p462
aVChelsea
p463
aVUCL
p464
aV5(1)
p465
aV448
p466
aV-
aV-
aV1
aV-
aV0.7
p467
aV92.2
p468
aV1.7
p469
aV-
aV6.54
p470
aa(lp471
V2017/2018
p472
aVChelsea
p473
aVEPL
p474
aV24(3)
p475
aV2084
p476
aV-
aV-
aV1
aV1
aV0.4
p477
aV89
p478
aV3.4
p479
aV-
aV6.87
p480
aa(lp481
V2016/2017
p482
aVChelsea
p483
aVEPL
p484
aV36(1)
p485
aV3296
p486
aV6
aV-
aV5
aV-
aV0.6
p487
aV88.4
p488
aV2.5
p489
aV1
aV7.06
p490
aa(lp491
V2018
p492
aVEngland
p493
aVWC
p494
aV1
aV90
p495
aV-
aV-
aV-
aV-
aV-
aV93.3
p496
aV3
aV-
aV7.02
p497
aa(lp498
V2015/2016
p499
aVChelsea
p500
aVUCL
p501
aV6(1)
p502
aV541
p503
aV1
aV-
aV1
aV-
aV0.7
p504
aV88.3
p505
aV2.3
p506
aV-
aV6.95
p507
aa(lp508
V2015/2016
p509
aVChelsea
p510
aVEPL
p511
aV21(2)
p512
aV1955
p513
aV2
aV1
aV2
aV-
aV0.6
p514
aV83.6
p515
aV3
aV-
aV6.81
p516
aa(lp517
V2014/2015
p518
aVChelsea
p519
aVUCL
p520
aV6
aV570
p521
aV1
aV2
aV-
aV-
aV1.2
p522
aV89.5
p523
aV1.7
p524
aV-
aV7.09
p525
aa(lp526
V2014/2015
p527
aVChelsea
p528
aVEPL
p529
aV33(3)
p530
aV2985
p531
aV1
aV-
aV5
aV-
aV0.6
p532
aV86.5
p533
aV3.3
p534
aV-
aV6.96
p535
aa(lp536
V2016
p537
aVEngland
p538
aVUEC
p539
aV4
aV360
p540
aV-
aV-
aV1
aV-
aV1.5
p541
aV88.4
p542
aV5.8
p543
aV-
aV7.05
p544
aa(lp545
V2013/2014
p546
aVChelsea
p547
aVUCL
p548
aV10
p549
aV900
p550
aV1
aV-
aV2
aV-
aV0.4
p551
aV86
p552
aV2
aV1
aV7.01
p553
aa(lp554
V2013/2014
p555
aVChelsea
p556
aVEPL
p557
aV29(1)
p558
aV2623
p559
aV1
aV1
aV2
aV-
aV0.6
p560
aV88.3
p561
aV3.5
p562
aV-
aV7.29
p563
aa(lp564
V2014
p565
aVEngland
p566
aVWC
p567
aV3
aV270
p568
aV-
aV-
aV-
aV-
aV-
aV88.5
p569
aV3
aV-
aV7.21
p570
aa(lp571
V2012/2013
p572
aVChelsea
p573
aVUEL
p574
aV4
aV360
p575
aV-
aV-
aV1
aV-
aV0.3
p576
aV88.5
p577
aV3.5
p578
aV-
aV7.21
p579
aa(lp580
V2012/2013
p581
aVChelsea
p582
aVUCL
p583
aV4
aV360
p584
aV1
aV-
aV-
aV-
aV1.3
p585
aV96.3
p586
aV1.3
p587
aV-
aV6.83
p588
aa(lp589
V2012/2013
p590
aVChelsea
p591
aVEPL
p592
aV24(2)
p593
aV2216
p594
aV2
aV2
aV1
aV-
aV0.6
p595
aV88.4
p596
aV3
aV-
aV7.07
p597
aa(lp598
V2011/2012
p599
aVChelsea
p600
aVUCL
p601
aV4(1)
p602
aV344
p603
aV-
aV-
aV1
aV-
aV0.4
p604
aV89.9
p605
aV0.6
p606
aV-
aV6.46
p607
aa(lp608
V2011/2012
p609
aVChelsea
p610
aVEPL
p611
aV9(1)
p612
aV855
p613
aV1
aV-
aV2
aV-
aV0.9
p614
aV85.3
p615
aV0.8
p616
aV-
aV6.98
p617
aa(lp618
V2011/2012
p619
aVBolton
p620
aVEPL
p621
aV19
p622
aV1638
p623
aV2
aV-
aV2
aV1
aV0.8
p624
aV74.4
p625
aV3.3
p626
aV1
aV6.93
p627
aa(lp628
V2010/2011
p629
aVBolton
p630
aVEPL
p631
aV36
p632
aV3214
p633
aV3
aV-
aV7
aV1
aV1.2
p634
aV71.6
p635
aV4
aV7
aV7.30
p636
aa(lp637
V2009/2010
p638
aVBolton
p639
aVEPL
p640
aV29
p641
aV2610
p642
aV5
aV1
aV3
aV-
aV1.3
p643
aV68.4
p644
aV4.4
p645
aV5
aV7.33
p646
aa(lp647
VTotal / Average
p648
aV
aV
aV328
p649
aV28100
p650
aV27
p651
aV7
aV38
p652
aV3
aV0.7
p653
aV83.6
p654
aV3.1
p655
aV15
p656
aV7.05
p657
aasS'sumary_data'
p658
(lp659
(lp660
a(lp661
V2018/2019
p662
aVChelsea
p663
aVEPL
p664
aV0(1)
p665
aV21
p666
aV-
aV-
aV-
aV-
aV-
aV88.9
p667
aV1
aV-
aV6.16
p668
aa(lp669
V2018/2019
p670
aVChelsea
p671
aVUEL
p672
aV4
aV360
p673
aV-
aV-
aV1
aV-
aV0.8
p674
aV93.4
p675
aV2.8
p676
aV-
aV7.03
p677
aa(lp678
V2017/2018
p679
aVChelsea
p680
aVUCL
p681
aV5(1)
p682
aV448
p683
aV-
aV-
aV1
aV-
aV0.7
p684
aV92.2
p685
aV1.7
p686
aV-
aV6.54
p687
aa(lp688
V2017/2018
p689
aVChelsea
p690
aVEPL
p691
aV24(3)
p692
aV2084
p693
aV-
aV-
aV1
aV1
aV0.4
p694
aV89
p695
aV3.4
p696
aV-
aV6.87
p697
aa(lp698
V2016/2017
p699
aVChelsea
p700
aVEPL
p701
aV36(1)
p702
aV3296
p703
aV6
aV-
aV5
aV-
aV0.6
p704
aV88.4
p705
aV2.5
p706
aV1
aV7.06
p707
aa(lp708
V2018
p709
aVEngland
p710
aVWC
p711
aV1
aV90
p712
aV-
aV-
aV-
aV-
aV-
aV93.3
p713
aV3
aV-
aV7.02
p714
aa(lp715
V2015/2016
p716
aVChelsea
p717
aVUCL
p718
aV6(1)
p719
aV541
p720
aV1
aV-
aV1
aV-
aV0.7
p721
aV88.3
p722
aV2.3
p723
aV-
aV6.95
p724
aa(lp725
V2015/2016
p726
aVChelsea
p727
aVEPL
p728
aV21(2)
p729
aV1955
p730
aV2
aV1
aV2
aV-
aV0.6
p731
aV83.6
p732
aV3
aV-
aV6.81
p733
aa(lp734
V2014/2015
p735
aVChelsea
p736
aVUCL
p737
aV6
aV570
p738
aV1
aV2
aV-
aV-
aV1.2
p739
aV89.5
p740
aV1.7
p741
aV-
aV7.09
p742
aa(lp743
V2014/2015
p744
aVChelsea
p745
aVEPL
p746
aV33(3)
p747
aV2985
p748
aV1
aV-
aV5
aV-
aV0.6
p749
aV86.5
p750
aV3.3
p751
aV-
aV6.96
p752
aa(lp753
V2016
p754
aVEngland
p755
aVUEC
p756
aV4
aV360
p757
aV-
aV-
aV1
aV-
aV1.5
p758
aV88.4
p759
aV5.8
p760
aV-
aV7.05
p761
aa(lp762
V2013/2014
p763
aVChelsea
p764
aVUCL
p765
aV10
p766
aV900
p767
aV1
aV-
aV2
aV-
aV0.4
p768
aV86
p769
aV2
aV1
aV7.01
p770
aa(lp771
V2013/2014
p772
aVChelsea
p773
aVEPL
p774
aV29(1)
p775
aV2623
p776
aV1
aV1
aV2
aV-
aV0.6
p777
aV88.3
p778
aV3.5
p779
aV-
aV7.29
p780
aa(lp781
V2014
p782
aVEngland
p783
aVWC
p784
aV3
aV270
p785
aV-
aV-
aV-
aV-
aV-
aV88.5
p786
aV3
aV-
aV7.21
p787
aa(lp788
V2012/2013
p789
aVChelsea
p790
aVUEL
p791
aV4
aV360
p792
aV-
aV-
aV1
aV-
aV0.3
p793
aV88.5
p794
aV3.5
p795
aV-
aV7.21
p796
aa(lp797
V2012/2013
p798
aVChelsea
p799
aVUCL
p800
aV4
aV360
p801
aV1
aV-
aV-
aV-
aV1.3
p802
aV96.3
p803
aV1.3
p804
aV-
aV6.83
p805
aa(lp806
V2012/2013
p807
aVChelsea
p808
aVEPL
p809
aV24(2)
p810
aV2216
p811
aV2
aV2
aV1
aV-
aV0.6
p812
aV88.4
p813
aV3
aV-
aV7.07
p814
aa(lp815
V2011/2012
p816
aVChelsea
p817
aVUCL
p818
aV4(1)
p819
aV344
p820
aV-
aV-
aV1
aV-
aV0.4
p821
aV89.9
p822
aV0.6
p823
aV-
aV6.46
p824
aa(lp825
V2011/2012
p826
aVChelsea
p827
aVEPL
p828
aV9(1)
p829
aV855
p830
aV1
aV-
aV2
aV-
aV0.9
p831
aV85.3
p832
aV0.8
p833
aV-
aV6.98
p834
aa(lp835
V2011/2012
p836
aVBolton
p837
aVEPL
p838
aV19
p839
aV1638
p840
aV2
aV-
aV2
aV1
aV0.8
p841
aV74.4
p842
aV3.3
p843
aV1
aV6.93
p844
aa(lp845
V2010/2011
p846
aVBolton
p847
aVEPL
p848
aV36
p849
aV3214
p850
aV3
aV-
aV7
aV1
aV1.2
p851
aV71.6
p852
aV4
aV7
aV7.30
p853
aa(lp854
V2009/2010
p855
aVBolton
p856
aVEPL
p857
aV29
p858
aV2610
p859
aV5
aV1
aV3
aV-
aV1.3
p860
aV68.4
p861
aV4.4
p862
aV5
aV7.33
p863
aa(lp864
VTotal / Average
p865
aV
aV
aV328
p866
aV28100
p867
aV27
p868
aV7
aV38
p869
aV3
aV0.7
p870
aV83.6
p871
aV3.1
p872
aV15
p873
aV7.05
p874
aasS'id'
p875
V11981
p876
sb.