(i__main__
Player
p1
(dp2
S'name'
p3
VRicardo Pereira 
p4
sS'offensive_data'
p5
(lp6
(lp7
a(lp8
V2018/2019
p9
aVLeicester
p10
aVEPL
p11
aV14
p12
aV1235
p13
aV1
aV1
aV3
aV-
aV0.6
p14
aV73.7
p15
aV1.8
p16
aV1
aV7.09
p17
aa(lp18
V2017/2018
p19
aVFC Porto
p20
aVPLN
p21
aV26(1)
p22
aV2271
p23
aV2
aV4
aV3
aV-
aV0.7
p24
aV80.3
p25
aV1
aV3
aV7.59
p26
aa(lp27
V2017/2018
p28
aVFC Porto
p29
aVUCL
p30
aV6(1)
p31
aV552
p32
aV-
aV2
aV1
aV-
aV0.3
p33
aV76.9
p34
aV0.6
p35
aV-
aV6.96
p36
aa(lp37
V2016/2017
p38
aVNice
p39
aVFL1
p40
aV23(1)
p41
aV2058
p42
aV2
aV4
aV2
aV-
aV0.8
p43
aV86.5
p44
aV1.1
p45
aV4
aV7.36
p46
aa(lp47
V2016/2017
p48
aVNice
p49
aVUEL
p50
aV5
aV426
p51
aV-
aV-
aV-
aV-
aV0.2
p52
aV78.9
p53
aV0.8
p54
aV-
aV7.14
p55
aa(lp56
V2018
p57
aVPortugal
p58
aVWC
p59
aV1
aV90
p60
aV-
aV-
aV-
aV-
aV-
aV90.2
p61
aV1
aV-
aV5.94
p62
aa(lp63
V2015/2016
p64
aVNice
p65
aVFL1
p66
aV26
p67
aV2281
p68
aV-
aV4
aV6
aV-
aV0.1
p69
aV84.4
p70
aV1.9
p71
aV5
aV7.48
p72
aa(lp73
V2015
p74
aVPortugal U21
p75
aVIEU
p76
aV4
aV313
p77
aV1
aV1
aV-
aV-
aV1.8
p78
aV77.2
p79
aV3.3
p80
aV-
aV7.31
p81
aa(lp82
V2014/2015
p83
aVFC Porto
p84
aVUCL
p85
aV1(1)
p86
aV147
p87
aV-
aV-
aV1
aV-
aV-
aV89.6
p88
aV1
aV1
aV7.79
p89
aa(lp90
V2013/2014
p91
aVFC Porto
p92
aVUCL
p93
aV0(1)
p94
aV25
p95
aV-
aV-
aV-
aV-
aV-
aV81.8
p96
aV-
aV-
aV5.91
p97
aa(lp98
V2013/2014
p99
aVFC Porto
p100
aVUEL
p101
aV1(1)
p102
aV135
p103
aV-
aV-
aV1
aV-
aV-
aV88.8
p104
aV-
aV-
aV6.97
p105
aa(lp106
VTotal / Average
p107
aV
aV
aV113
p108
aV9533
p109
aV6
aV16
p110
aV17
p111
aV0
aV0.5
p112
aV81.8
p113
aV1.3
p114
aV14
p115
aV7.35
p116
aasS'url'
p117
S'https://www.whoscored.com/Players/120763/History/'
p118
sS'passing_data'
p119
(lp120
(lp121
a(lp122
V2018/2019
p123
aVLeicester
p124
aVEPL
p125
aV14
p126
aV1235
p127
aV1
aV1
aV3
aV-
aV0.6
p128
aV73.7
p129
aV1.8
p130
aV1
aV7.09
p131
aa(lp132
V2017/2018
p133
aVFC Porto
p134
aVPLN
p135
aV26(1)
p136
aV2271
p137
aV2
aV4
aV3
aV-
aV0.7
p138
aV80.3
p139
aV1
aV3
aV7.59
p140
aa(lp141
V2017/2018
p142
aVFC Porto
p143
aVUCL
p144
aV6(1)
p145
aV552
p146
aV-
aV2
aV1
aV-
aV0.3
p147
aV76.9
p148
aV0.6
p149
aV-
aV6.96
p150
aa(lp151
V2016/2017
p152
aVNice
p153
aVFL1
p154
aV23(1)
p155
aV2058
p156
aV2
aV4
aV2
aV-
aV0.8
p157
aV86.5
p158
aV1.1
p159
aV4
aV7.36
p160
aa(lp161
V2016/2017
p162
aVNice
p163
aVUEL
p164
aV5
aV426
p165
aV-
aV-
aV-
aV-
aV0.2
p166
aV78.9
p167
aV0.8
p168
aV-
aV7.14
p169
aa(lp170
V2018
p171
aVPortugal
p172
aVWC
p173
aV1
aV90
p174
aV-
aV-
aV-
aV-
aV-
aV90.2
p175
aV1
aV-
aV5.94
p176
aa(lp177
V2015/2016
p178
aVNice
p179
aVFL1
p180
aV26
p181
aV2281
p182
aV-
aV4
aV6
aV-
aV0.1
p183
aV84.4
p184
aV1.9
p185
aV5
aV7.48
p186
aa(lp187
V2015
p188
aVPortugal U21
p189
aVIEU
p190
aV4
aV313
p191
aV1
aV1
aV-
aV-
aV1.8
p192
aV77.2
p193
aV3.3
p194
aV-
aV7.31
p195
aa(lp196
V2014/2015
p197
aVFC Porto
p198
aVUCL
p199
aV1(1)
p200
aV147
p201
aV-
aV-
aV1
aV-
aV-
aV89.6
p202
aV1
aV1
aV7.79
p203
aa(lp204
V2013/2014
p205
aVFC Porto
p206
aVUCL
p207
aV0(1)
p208
aV25
p209
aV-
aV-
aV-
aV-
aV-
aV81.8
p210
aV-
aV-
aV5.91
p211
aa(lp212
V2013/2014
p213
aVFC Porto
p214
aVUEL
p215
aV1(1)
p216
aV135
p217
aV-
aV-
aV1
aV-
aV-
aV88.8
p218
aV-
aV-
aV6.97
p219
aa(lp220
VTotal / Average
p221
aV
aV
aV113
p222
aV9533
p223
aV6
aV16
p224
aV17
p225
aV0
aV0.5
p226
aV81.8
p227
aV1.3
p228
aV14
p229
aV7.35
p230
aasS'defensive_data'
p231
(lp232
(lp233
a(lp234
V2018/2019
p235
aVLeicester
p236
aVEPL
p237
aV14
p238
aV1235
p239
aV1
aV1
aV3
aV-
aV0.6
p240
aV73.7
p241
aV1.8
p242
aV1
aV7.09
p243
aa(lp244
V2017/2018
p245
aVFC Porto
p246
aVPLN
p247
aV26(1)
p248
aV2271
p249
aV2
aV4
aV3
aV-
aV0.7
p250
aV80.3
p251
aV1
aV3
aV7.59
p252
aa(lp253
V2017/2018
p254
aVFC Porto
p255
aVUCL
p256
aV6(1)
p257
aV552
p258
aV-
aV2
aV1
aV-
aV0.3
p259
aV76.9
p260
aV0.6
p261
aV-
aV6.96
p262
aa(lp263
V2016/2017
p264
aVNice
p265
aVFL1
p266
aV23(1)
p267
aV2058
p268
aV2
aV4
aV2
aV-
aV0.8
p269
aV86.5
p270
aV1.1
p271
aV4
aV7.36
p272
aa(lp273
V2016/2017
p274
aVNice
p275
aVUEL
p276
aV5
aV426
p277
aV-
aV-
aV-
aV-
aV0.2
p278
aV78.9
p279
aV0.8
p280
aV-
aV7.14
p281
aa(lp282
V2018
p283
aVPortugal
p284
aVWC
p285
aV1
aV90
p286
aV-
aV-
aV-
aV-
aV-
aV90.2
p287
aV1
aV-
aV5.94
p288
aa(lp289
V2015/2016
p290
aVNice
p291
aVFL1
p292
aV26
p293
aV2281
p294
aV-
aV4
aV6
aV-
aV0.1
p295
aV84.4
p296
aV1.9
p297
aV5
aV7.48
p298
aa(lp299
V2015
p300
aVPortugal U21
p301
aVIEU
p302
aV4
aV313
p303
aV1
aV1
aV-
aV-
aV1.8
p304
aV77.2
p305
aV3.3
p306
aV-
aV7.31
p307
aa(lp308
V2014/2015
p309
aVFC Porto
p310
aVUCL
p311
aV1(1)
p312
aV147
p313
aV-
aV-
aV1
aV-
aV-
aV89.6
p314
aV1
aV1
aV7.79
p315
aa(lp316
V2013/2014
p317
aVFC Porto
p318
aVUCL
p319
aV0(1)
p320
aV25
p321
aV-
aV-
aV-
aV-
aV-
aV81.8
p322
aV-
aV-
aV5.91
p323
aa(lp324
V2013/2014
p325
aVFC Porto
p326
aVUEL
p327
aV1(1)
p328
aV135
p329
aV-
aV-
aV1
aV-
aV-
aV88.8
p330
aV-
aV-
aV6.97
p331
aa(lp332
VTotal / Average
p333
aV
aV
aV113
p334
aV9533
p335
aV6
aV16
p336
aV17
p337
aV0
aV0.5
p338
aV81.8
p339
aV1.3
p340
aV14
p341
aV7.35
p342
aasS'sumary_data'
p343
(lp344
(lp345
a(lp346
V2018/2019
p347
aVLeicester
p348
aVEPL
p349
aV14
p350
aV1235
p351
aV1
aV1
aV3
aV-
aV0.6
p352
aV73.7
p353
aV1.8
p354
aV1
aV7.09
p355
aa(lp356
V2017/2018
p357
aVFC Porto
p358
aVPLN
p359
aV26(1)
p360
aV2271
p361
aV2
aV4
aV3
aV-
aV0.7
p362
aV80.3
p363
aV1
aV3
aV7.59
p364
aa(lp365
V2017/2018
p366
aVFC Porto
p367
aVUCL
p368
aV6(1)
p369
aV552
p370
aV-
aV2
aV1
aV-
aV0.3
p371
aV76.9
p372
aV0.6
p373
aV-
aV6.96
p374
aa(lp375
V2016/2017
p376
aVNice
p377
aVFL1
p378
aV23(1)
p379
aV2058
p380
aV2
aV4
aV2
aV-
aV0.8
p381
aV86.5
p382
aV1.1
p383
aV4
aV7.36
p384
aa(lp385
V2016/2017
p386
aVNice
p387
aVUEL
p388
aV5
aV426
p389
aV-
aV-
aV-
aV-
aV0.2
p390
aV78.9
p391
aV0.8
p392
aV-
aV7.14
p393
aa(lp394
V2018
p395
aVPortugal
p396
aVWC
p397
aV1
aV90
p398
aV-
aV-
aV-
aV-
aV-
aV90.2
p399
aV1
aV-
aV5.94
p400
aa(lp401
V2015/2016
p402
aVNice
p403
aVFL1
p404
aV26
p405
aV2281
p406
aV-
aV4
aV6
aV-
aV0.1
p407
aV84.4
p408
aV1.9
p409
aV5
aV7.48
p410
aa(lp411
V2015
p412
aVPortugal U21
p413
aVIEU
p414
aV4
aV313
p415
aV1
aV1
aV-
aV-
aV1.8
p416
aV77.2
p417
aV3.3
p418
aV-
aV7.31
p419
aa(lp420
V2014/2015
p421
aVFC Porto
p422
aVUCL
p423
aV1(1)
p424
aV147
p425
aV-
aV-
aV1
aV-
aV-
aV89.6
p426
aV1
aV1
aV7.79
p427
aa(lp428
V2013/2014
p429
aVFC Porto
p430
aVUCL
p431
aV0(1)
p432
aV25
p433
aV-
aV-
aV-
aV-
aV-
aV81.8
p434
aV-
aV-
aV5.91
p435
aa(lp436
V2013/2014
p437
aVFC Porto
p438
aVUEL
p439
aV1(1)
p440
aV135
p441
aV-
aV-
aV1
aV-
aV-
aV88.8
p442
aV-
aV-
aV6.97
p443
aa(lp444
VTotal / Average
p445
aV
aV
aV113
p446
aV9533
p447
aV6
aV16
p448
aV17
p449
aV0
aV0.5
p450
aV81.8
p451
aV1.3
p452
aV14
p453
aV7.35
p454
aasS'id'
p455
V120763
p456
sb.