(i__main__
Player
p1
(dp2
S'name'
p3
VEderson 
p4
sS'offensive_data'
p5
(lp6
(lp7
a(lp8
V2018/2019
p9
aVManchester Ci..
p10
aVEPL
p11
aV17
p12
aV1530
p13
aV-
aV1
aV1
aV-
aV-
aV82.2
p14
aV0.4
p15
aV-
aV6.69
p16
aa(lp17
V2018/2019
p18
aVManchester Ci..
p19
aVUCL
p20
aV6
aV540
p21
aV-
aV-
aV-
aV-
aV-
aV89.8
p22
aV0.3
p23
aV-
aV6.71
p24
aa(lp25
V2017/2018
p26
aVManchester Ci..
p27
aVUCL
p28
aV9
aV810
p29
aV-
aV-
aV1
aV-
aV-
aV86
p30
aV0.1
p31
aV-
aV6.79
p32
aa(lp33
V2017/2018
p34
aVManchester Ci..
p35
aVEPL
p36
aV37
p37
aV3197
p38
aV-
aV-
aV1
aV-
aV-
aV85.3
p39
aV0.3
p40
aV1
aV6.68
p41
aa(lp42
V2016/2017
p43
aVBenfica
p44
aVPLN
p45
aV27
p46
aV2381
p47
aV-
aV1
aV4
aV1
aV-
aV65.3
p48
aV0.2
p49
aV-
aV6.85
p50
aa(lp51
V2016/2017
p52
aVBenfica
p53
aVUCL
p54
aV7
aV630
p55
aV-
aV-
aV-
aV-
aV-
aV48.1
p56
aV0.4
p57
aV2
aV7.13
p58
aa(lp59
V2015/2016
p60
aVBenfica
p61
aVUCL
p62
aV3
aV270
p63
aV-
aV-
aV-
aV-
aV-
aV47.7
p64
aV0.3
p65
aV-
aV7.18
p66
aa(lp67
V2014/2015
p68
aVRio Ave
p69
aVUEL
p70
aV2
aV180
p71
aV-
aV-
aV-
aV-
aV-
aV46.6
p72
aV0.5
p73
aV1
aV7.60
p74
aa(lp75
VTotal / Average
p76
aV
aV
aV108
p77
aV9538
p78
aV0
aV2
aV7
aV1
aV0
aV76
p79
aV0.3
p80
aV4
aV6.80
p81
aasS'url'
p82
S'https://www.whoscored.com/Players/121774/History/'
p83
sS'passing_data'
p84
(lp85
(lp86
a(lp87
V2018/2019
p88
aVManchester Ci..
p89
aVEPL
p90
aV17
p91
aV1530
p92
aV-
aV1
aV1
aV-
aV-
aV82.2
p93
aV0.4
p94
aV-
aV6.69
p95
aa(lp96
V2018/2019
p97
aVManchester Ci..
p98
aVUCL
p99
aV6
aV540
p100
aV-
aV-
aV-
aV-
aV-
aV89.8
p101
aV0.3
p102
aV-
aV6.71
p103
aa(lp104
V2017/2018
p105
aVManchester Ci..
p106
aVUCL
p107
aV9
aV810
p108
aV-
aV-
aV1
aV-
aV-
aV86
p109
aV0.1
p110
aV-
aV6.79
p111
aa(lp112
V2017/2018
p113
aVManchester Ci..
p114
aVEPL
p115
aV37
p116
aV3197
p117
aV-
aV-
aV1
aV-
aV-
aV85.3
p118
aV0.3
p119
aV1
aV6.68
p120
aa(lp121
V2016/2017
p122
aVBenfica
p123
aVPLN
p124
aV27
p125
aV2381
p126
aV-
aV1
aV4
aV1
aV-
aV65.3
p127
aV0.2
p128
aV-
aV6.85
p129
aa(lp130
V2016/2017
p131
aVBenfica
p132
aVUCL
p133
aV7
aV630
p134
aV-
aV-
aV-
aV-
aV-
aV48.1
p135
aV0.4
p136
aV2
aV7.13
p137
aa(lp138
V2015/2016
p139
aVBenfica
p140
aVUCL
p141
aV3
aV270
p142
aV-
aV-
aV-
aV-
aV-
aV47.7
p143
aV0.3
p144
aV-
aV7.18
p145
aa(lp146
V2014/2015
p147
aVRio Ave
p148
aVUEL
p149
aV2
aV180
p150
aV-
aV-
aV-
aV-
aV-
aV46.6
p151
aV0.5
p152
aV1
aV7.60
p153
aa(lp154
VTotal / Average
p155
aV
aV
aV108
p156
aV9538
p157
aV0
aV2
aV7
aV1
aV0
aV76
p158
aV0.3
p159
aV4
aV6.80
p160
aasS'defensive_data'
p161
(lp162
(lp163
a(lp164
V2018/2019
p165
aVManchester Ci..
p166
aVEPL
p167
aV17
p168
aV1530
p169
aV-
aV1
aV1
aV-
aV-
aV82.2
p170
aV0.4
p171
aV-
aV6.69
p172
aa(lp173
V2018/2019
p174
aVManchester Ci..
p175
aVUCL
p176
aV6
aV540
p177
aV-
aV-
aV-
aV-
aV-
aV89.8
p178
aV0.3
p179
aV-
aV6.71
p180
aa(lp181
V2017/2018
p182
aVManchester Ci..
p183
aVUCL
p184
aV9
aV810
p185
aV-
aV-
aV1
aV-
aV-
aV86
p186
aV0.1
p187
aV-
aV6.79
p188
aa(lp189
V2017/2018
p190
aVManchester Ci..
p191
aVEPL
p192
aV37
p193
aV3197
p194
aV-
aV-
aV1
aV-
aV-
aV85.3
p195
aV0.3
p196
aV1
aV6.68
p197
aa(lp198
V2016/2017
p199
aVBenfica
p200
aVPLN
p201
aV27
p202
aV2381
p203
aV-
aV1
aV4
aV1
aV-
aV65.3
p204
aV0.2
p205
aV-
aV6.85
p206
aa(lp207
V2016/2017
p208
aVBenfica
p209
aVUCL
p210
aV7
aV630
p211
aV-
aV-
aV-
aV-
aV-
aV48.1
p212
aV0.4
p213
aV2
aV7.13
p214
aa(lp215
V2015/2016
p216
aVBenfica
p217
aVUCL
p218
aV3
aV270
p219
aV-
aV-
aV-
aV-
aV-
aV47.7
p220
aV0.3
p221
aV-
aV7.18
p222
aa(lp223
V2014/2015
p224
aVRio Ave
p225
aVUEL
p226
aV2
aV180
p227
aV-
aV-
aV-
aV-
aV-
aV46.6
p228
aV0.5
p229
aV1
aV7.60
p230
aa(lp231
VTotal / Average
p232
aV
aV
aV108
p233
aV9538
p234
aV0
aV2
aV7
aV1
aV0
aV76
p235
aV0.3
p236
aV4
aV6.80
p237
aasS'sumary_data'
p238
(lp239
(lp240
a(lp241
V2018/2019
p242
aVManchester Ci..
p243
aVEPL
p244
aV17
p245
aV1530
p246
aV-
aV1
aV1
aV-
aV-
aV82.2
p247
aV0.4
p248
aV-
aV6.69
p249
aa(lp250
V2018/2019
p251
aVManchester Ci..
p252
aVUCL
p253
aV6
aV540
p254
aV-
aV-
aV-
aV-
aV-
aV89.8
p255
aV0.3
p256
aV-
aV6.71
p257
aa(lp258
V2017/2018
p259
aVManchester Ci..
p260
aVUCL
p261
aV9
aV810
p262
aV-
aV-
aV1
aV-
aV-
aV86
p263
aV0.1
p264
aV-
aV6.79
p265
aa(lp266
V2017/2018
p267
aVManchester Ci..
p268
aVEPL
p269
aV37
p270
aV3197
p271
aV-
aV-
aV1
aV-
aV-
aV85.3
p272
aV0.3
p273
aV1
aV6.68
p274
aa(lp275
V2016/2017
p276
aVBenfica
p277
aVPLN
p278
aV27
p279
aV2381
p280
aV-
aV1
aV4
aV1
aV-
aV65.3
p281
aV0.2
p282
aV-
aV6.85
p283
aa(lp284
V2016/2017
p285
aVBenfica
p286
aVUCL
p287
aV7
aV630
p288
aV-
aV-
aV-
aV-
aV-
aV48.1
p289
aV0.4
p290
aV2
aV7.13
p291
aa(lp292
V2015/2016
p293
aVBenfica
p294
aVUCL
p295
aV3
aV270
p296
aV-
aV-
aV-
aV-
aV-
aV47.7
p297
aV0.3
p298
aV-
aV7.18
p299
aa(lp300
V2014/2015
p301
aVRio Ave
p302
aVUEL
p303
aV2
aV180
p304
aV-
aV-
aV-
aV-
aV-
aV46.6
p305
aV0.5
p306
aV1
aV7.60
p307
aa(lp308
VTotal / Average
p309
aV
aV
aV108
p310
aV9538
p311
aV0
aV2
aV7
aV1
aV0
aV76
p312
aV0.3
p313
aV4
aV6.80
p314
aasS'id'
p315
V121774
p316
sb.