(i__main__
Player
p1
(dp2
S'name'
p3
VAymeric Laporte 
p4
sS'offensive_data'
p5
(lp6
(lp7
a(lp8
V2018/2019
p9
aVManchester Ci..
p10
aVEPL
p11
aV16(1)
p12
aV1441
p13
aV1
aV-
aV1
aV-
aV0.8
p14
aV92.4
p15
aV2.1
p16
aV-
aV6.93
p17
aa(lp18
V2018/2019
p19
aVManchester Ci..
p20
aVUCL
p21
aV6
aV540
p22
aV2
aV-
aV-
aV-
aV0.8
p23
aV93.8
p24
aV2.2
p25
aV-
aV7.20
p26
aa(lp27
V2017/2018
p28
aVAthletic Bilb..
p29
aVSLL
p30
aV19
p31
aV1710
p32
aV-
aV1
aV5
aV-
aV0.4
p33
aV83.7
p34
aV2.6
p35
aV1
aV7.05
p36
aa(lp37
V2017/2018
p38
aVAthletic Bilb..
p39
aVUEL
p40
aV6
aV540
p41
aV-
aV-
aV1
aV-
aV0.2
p42
aV84.6
p43
aV3.5
p44
aV-
aV7.20
p45
aa(lp46
V2017/2018
p47
aVManchester Ci..
p48
aVUCL
p49
aV3
aV270
p50
aV-
aV-
aV-
aV-
aV0.7
p51
aV92.2
p52
aV3.3
p53
aV-
aV6.90
p54
aa(lp55
V2017/2018
p56
aVManchester Ci..
p57
aVEPL
p58
aV9
aV807
p59
aV-
aV-
aV1
aV-
aV0.3
p60
aV92.5
p61
aV2.7
p62
aV-
aV7.09
p63
aa(lp64
V2016/2017
p65
aVAthletic Bilb..
p66
aVSLL
p67
aV33
p68
aV2866
p69
aV2
aV-
aV10
p70
aV-
aV0.5
p71
aV84.1
p72
aV2.3
p73
aV2
aV6.97
p74
aa(lp75
V2016/2017
p76
aVAthletic Bilb..
p77
aVUEL
p78
aV6
aV540
p79
aV-
aV-
aV2
aV-
aV0.7
p80
aV85.9
p81
aV1
aV-
aV6.49
p82
aa(lp83
V2015/2016
p84
aVAthletic Bilb..
p85
aVSLL
p86
aV25(1)
p87
aV2214
p88
aV3
aV1
aV7
aV2
aV0.7
p89
aV80.2
p90
aV2.1
p91
aV1
aV6.93
p92
aa(lp93
V2015/2016
p94
aVAthletic Bilb..
p95
aVUEL
p96
aV9
aV810
p97
aV-
aV-
aV2
aV-
aV0.4
p98
aV79.3
p99
aV2.9
p100
aV-
aV7.48
p101
aa(lp102
V2014/2015
p103
aVAthletic Bilb..
p104
aVSLL
p105
aV33
p106
aV2960
p107
aV-
aV1
aV10
p108
aV1
aV0.6
p109
aV80.1
p110
aV2.8
p111
aV1
aV7.19
p112
aa(lp113
V2014/2015
p114
aVAthletic Bilb..
p115
aVUCL
p116
aV5
aV450
p117
aV-
aV-
aV1
aV-
aV0.8
p118
aV77.4
p119
aV2.6
p120
aV-
aV7.11
p121
aa(lp122
V2014/2015
p123
aVAthletic Bilb..
p124
aVUEL
p125
aV2
aV180
p126
aV-
aV-
aV-
aV-
aV0.5
p127
aV83.9
p128
aV1
aV-
aV6.62
p129
aa(lp130
V2013/2014
p131
aVAthletic Bilb..
p132
aVSLL
p133
aV33(2)
p134
aV2948
p135
aV2
aV-
aV4
aV1
aV0.8
p136
aV81.9
p137
aV2.5
p138
aV1
aV7.20
p139
aa(lp140
V2012/2013
p141
aVAthletic Bilb..
p142
aVSLL
p143
aV14(1)
p144
aV1205
p145
aV-
aV-
aV5
aV2
aV0.4
p146
aV83.6
p147
aV1.3
p148
aV1
aV6.98
p149
aa(lp150
V2012/2013
p151
aVAthletic Bilb..
p152
aVUEL
p153
aV2
aV180
p154
aV-
aV-
aV-
aV-
aV0.5
p155
aV84.1
p156
aV3
aV1
aV8.12
p157
aa(lp158
VTotal / Average
p159
aV
aV
aV226
p160
aV19661
p161
aV10
p162
aV3
aV49
p163
aV6
aV0.6
p164
aV83.7
p165
aV2.4
p166
aV8
aV7.07
p167
aasS'url'
p168
S'https://www.whoscored.com/Players/122117/History/'
p169
sS'passing_data'
p170
(lp171
(lp172
a(lp173
V2018/2019
p174
aVManchester Ci..
p175
aVEPL
p176
aV16(1)
p177
aV1441
p178
aV1
aV-
aV1
aV-
aV0.8
p179
aV92.4
p180
aV2.1
p181
aV-
aV6.93
p182
aa(lp183
V2018/2019
p184
aVManchester Ci..
p185
aVUCL
p186
aV6
aV540
p187
aV2
aV-
aV-
aV-
aV0.8
p188
aV93.8
p189
aV2.2
p190
aV-
aV7.20
p191
aa(lp192
V2017/2018
p193
aVAthletic Bilb..
p194
aVSLL
p195
aV19
p196
aV1710
p197
aV-
aV1
aV5
aV-
aV0.4
p198
aV83.7
p199
aV2.6
p200
aV1
aV7.05
p201
aa(lp202
V2017/2018
p203
aVAthletic Bilb..
p204
aVUEL
p205
aV6
aV540
p206
aV-
aV-
aV1
aV-
aV0.2
p207
aV84.6
p208
aV3.5
p209
aV-
aV7.20
p210
aa(lp211
V2017/2018
p212
aVManchester Ci..
p213
aVUCL
p214
aV3
aV270
p215
aV-
aV-
aV-
aV-
aV0.7
p216
aV92.2
p217
aV3.3
p218
aV-
aV6.90
p219
aa(lp220
V2017/2018
p221
aVManchester Ci..
p222
aVEPL
p223
aV9
aV807
p224
aV-
aV-
aV1
aV-
aV0.3
p225
aV92.5
p226
aV2.7
p227
aV-
aV7.09
p228
aa(lp229
V2016/2017
p230
aVAthletic Bilb..
p231
aVSLL
p232
aV33
p233
aV2866
p234
aV2
aV-
aV10
p235
aV-
aV0.5
p236
aV84.1
p237
aV2.3
p238
aV2
aV6.97
p239
aa(lp240
V2016/2017
p241
aVAthletic Bilb..
p242
aVUEL
p243
aV6
aV540
p244
aV-
aV-
aV2
aV-
aV0.7
p245
aV85.9
p246
aV1
aV-
aV6.49
p247
aa(lp248
V2015/2016
p249
aVAthletic Bilb..
p250
aVSLL
p251
aV25(1)
p252
aV2214
p253
aV3
aV1
aV7
aV2
aV0.7
p254
aV80.2
p255
aV2.1
p256
aV1
aV6.93
p257
aa(lp258
V2015/2016
p259
aVAthletic Bilb..
p260
aVUEL
p261
aV9
aV810
p262
aV-
aV-
aV2
aV-
aV0.4
p263
aV79.3
p264
aV2.9
p265
aV-
aV7.48
p266
aa(lp267
V2014/2015
p268
aVAthletic Bilb..
p269
aVSLL
p270
aV33
p271
aV2960
p272
aV-
aV1
aV10
p273
aV1
aV0.6
p274
aV80.1
p275
aV2.8
p276
aV1
aV7.19
p277
aa(lp278
V2014/2015
p279
aVAthletic Bilb..
p280
aVUCL
p281
aV5
aV450
p282
aV-
aV-
aV1
aV-
aV0.8
p283
aV77.4
p284
aV2.6
p285
aV-
aV7.11
p286
aa(lp287
V2014/2015
p288
aVAthletic Bilb..
p289
aVUEL
p290
aV2
aV180
p291
aV-
aV-
aV-
aV-
aV0.5
p292
aV83.9
p293
aV1
aV-
aV6.62
p294
aa(lp295
V2013/2014
p296
aVAthletic Bilb..
p297
aVSLL
p298
aV33(2)
p299
aV2948
p300
aV2
aV-
aV4
aV1
aV0.8
p301
aV81.9
p302
aV2.5
p303
aV1
aV7.20
p304
aa(lp305
V2012/2013
p306
aVAthletic Bilb..
p307
aVSLL
p308
aV14(1)
p309
aV1205
p310
aV-
aV-
aV5
aV2
aV0.4
p311
aV83.6
p312
aV1.3
p313
aV1
aV6.98
p314
aa(lp315
V2012/2013
p316
aVAthletic Bilb..
p317
aVUEL
p318
aV2
aV180
p319
aV-
aV-
aV-
aV-
aV0.5
p320
aV84.1
p321
aV3
aV1
aV8.12
p322
aa(lp323
VTotal / Average
p324
aV
aV
aV226
p325
aV19661
p326
aV10
p327
aV3
aV49
p328
aV6
aV0.6
p329
aV83.7
p330
aV2.4
p331
aV8
aV7.07
p332
aasS'defensive_data'
p333
(lp334
(lp335
a(lp336
V2018/2019
p337
aVManchester Ci..
p338
aVEPL
p339
aV16(1)
p340
aV1441
p341
aV1
aV-
aV1
aV-
aV0.8
p342
aV92.4
p343
aV2.1
p344
aV-
aV6.93
p345
aa(lp346
V2018/2019
p347
aVManchester Ci..
p348
aVUCL
p349
aV6
aV540
p350
aV2
aV-
aV-
aV-
aV0.8
p351
aV93.8
p352
aV2.2
p353
aV-
aV7.20
p354
aa(lp355
V2017/2018
p356
aVAthletic Bilb..
p357
aVSLL
p358
aV19
p359
aV1710
p360
aV-
aV1
aV5
aV-
aV0.4
p361
aV83.7
p362
aV2.6
p363
aV1
aV7.05
p364
aa(lp365
V2017/2018
p366
aVAthletic Bilb..
p367
aVUEL
p368
aV6
aV540
p369
aV-
aV-
aV1
aV-
aV0.2
p370
aV84.6
p371
aV3.5
p372
aV-
aV7.20
p373
aa(lp374
V2017/2018
p375
aVManchester Ci..
p376
aVUCL
p377
aV3
aV270
p378
aV-
aV-
aV-
aV-
aV0.7
p379
aV92.2
p380
aV3.3
p381
aV-
aV6.90
p382
aa(lp383
V2017/2018
p384
aVManchester Ci..
p385
aVEPL
p386
aV9
aV807
p387
aV-
aV-
aV1
aV-
aV0.3
p388
aV92.5
p389
aV2.7
p390
aV-
aV7.09
p391
aa(lp392
V2016/2017
p393
aVAthletic Bilb..
p394
aVSLL
p395
aV33
p396
aV2866
p397
aV2
aV-
aV10
p398
aV-
aV0.5
p399
aV84.1
p400
aV2.3
p401
aV2
aV6.97
p402
aa(lp403
V2016/2017
p404
aVAthletic Bilb..
p405
aVUEL
p406
aV6
aV540
p407
aV-
aV-
aV2
aV-
aV0.7
p408
aV85.9
p409
aV1
aV-
aV6.49
p410
aa(lp411
V2015/2016
p412
aVAthletic Bilb..
p413
aVSLL
p414
aV25(1)
p415
aV2214
p416
aV3
aV1
aV7
aV2
aV0.7
p417
aV80.2
p418
aV2.1
p419
aV1
aV6.93
p420
aa(lp421
V2015/2016
p422
aVAthletic Bilb..
p423
aVUEL
p424
aV9
aV810
p425
aV-
aV-
aV2
aV-
aV0.4
p426
aV79.3
p427
aV2.9
p428
aV-
aV7.48
p429
aa(lp430
V2014/2015
p431
aVAthletic Bilb..
p432
aVSLL
p433
aV33
p434
aV2960
p435
aV-
aV1
aV10
p436
aV1
aV0.6
p437
aV80.1
p438
aV2.8
p439
aV1
aV7.19
p440
aa(lp441
V2014/2015
p442
aVAthletic Bilb..
p443
aVUCL
p444
aV5
aV450
p445
aV-
aV-
aV1
aV-
aV0.8
p446
aV77.4
p447
aV2.6
p448
aV-
aV7.11
p449
aa(lp450
V2014/2015
p451
aVAthletic Bilb..
p452
aVUEL
p453
aV2
aV180
p454
aV-
aV-
aV-
aV-
aV0.5
p455
aV83.9
p456
aV1
aV-
aV6.62
p457
aa(lp458
V2013/2014
p459
aVAthletic Bilb..
p460
aVSLL
p461
aV33(2)
p462
aV2948
p463
aV2
aV-
aV4
aV1
aV0.8
p464
aV81.9
p465
aV2.5
p466
aV1
aV7.20
p467
aa(lp468
V2012/2013
p469
aVAthletic Bilb..
p470
aVSLL
p471
aV14(1)
p472
aV1205
p473
aV-
aV-
aV5
aV2
aV0.4
p474
aV83.6
p475
aV1.3
p476
aV1
aV6.98
p477
aa(lp478
V2012/2013
p479
aVAthletic Bilb..
p480
aVUEL
p481
aV2
aV180
p482
aV-
aV-
aV-
aV-
aV0.5
p483
aV84.1
p484
aV3
aV1
aV8.12
p485
aa(lp486
VTotal / Average
p487
aV
aV
aV226
p488
aV19661
p489
aV10
p490
aV3
aV49
p491
aV6
aV0.6
p492
aV83.7
p493
aV2.4
p494
aV8
aV7.07
p495
aasS'sumary_data'
p496
(lp497
(lp498
a(lp499
V2018/2019
p500
aVManchester Ci..
p501
aVEPL
p502
aV16(1)
p503
aV1441
p504
aV1
aV-
aV1
aV-
aV0.8
p505
aV92.4
p506
aV2.1
p507
aV-
aV6.93
p508
aa(lp509
V2018/2019
p510
aVManchester Ci..
p511
aVUCL
p512
aV6
aV540
p513
aV2
aV-
aV-
aV-
aV0.8
p514
aV93.8
p515
aV2.2
p516
aV-
aV7.20
p517
aa(lp518
V2017/2018
p519
aVAthletic Bilb..
p520
aVSLL
p521
aV19
p522
aV1710
p523
aV-
aV1
aV5
aV-
aV0.4
p524
aV83.7
p525
aV2.6
p526
aV1
aV7.05
p527
aa(lp528
V2017/2018
p529
aVAthletic Bilb..
p530
aVUEL
p531
aV6
aV540
p532
aV-
aV-
aV1
aV-
aV0.2
p533
aV84.6
p534
aV3.5
p535
aV-
aV7.20
p536
aa(lp537
V2017/2018
p538
aVManchester Ci..
p539
aVUCL
p540
aV3
aV270
p541
aV-
aV-
aV-
aV-
aV0.7
p542
aV92.2
p543
aV3.3
p544
aV-
aV6.90
p545
aa(lp546
V2017/2018
p547
aVManchester Ci..
p548
aVEPL
p549
aV9
aV807
p550
aV-
aV-
aV1
aV-
aV0.3
p551
aV92.5
p552
aV2.7
p553
aV-
aV7.09
p554
aa(lp555
V2016/2017
p556
aVAthletic Bilb..
p557
aVSLL
p558
aV33
p559
aV2866
p560
aV2
aV-
aV10
p561
aV-
aV0.5
p562
aV84.1
p563
aV2.3
p564
aV2
aV6.97
p565
aa(lp566
V2016/2017
p567
aVAthletic Bilb..
p568
aVUEL
p569
aV6
aV540
p570
aV-
aV-
aV2
aV-
aV0.7
p571
aV85.9
p572
aV1
aV-
aV6.49
p573
aa(lp574
V2015/2016
p575
aVAthletic Bilb..
p576
aVSLL
p577
aV25(1)
p578
aV2214
p579
aV3
aV1
aV7
aV2
aV0.7
p580
aV80.2
p581
aV2.1
p582
aV1
aV6.93
p583
aa(lp584
V2015/2016
p585
aVAthletic Bilb..
p586
aVUEL
p587
aV9
aV810
p588
aV-
aV-
aV2
aV-
aV0.4
p589
aV79.3
p590
aV2.9
p591
aV-
aV7.48
p592
aa(lp593
V2014/2015
p594
aVAthletic Bilb..
p595
aVSLL
p596
aV33
p597
aV2960
p598
aV-
aV1
aV10
p599
aV1
aV0.6
p600
aV80.1
p601
aV2.8
p602
aV1
aV7.19
p603
aa(lp604
V2014/2015
p605
aVAthletic Bilb..
p606
aVUCL
p607
aV5
aV450
p608
aV-
aV-
aV1
aV-
aV0.8
p609
aV77.4
p610
aV2.6
p611
aV-
aV7.11
p612
aa(lp613
V2014/2015
p614
aVAthletic Bilb..
p615
aVUEL
p616
aV2
aV180
p617
aV-
aV-
aV-
aV-
aV0.5
p618
aV83.9
p619
aV1
aV-
aV6.62
p620
aa(lp621
V2013/2014
p622
aVAthletic Bilb..
p623
aVSLL
p624
aV33(2)
p625
aV2948
p626
aV2
aV-
aV4
aV1
aV0.8
p627
aV81.9
p628
aV2.5
p629
aV1
aV7.20
p630
aa(lp631
V2012/2013
p632
aVAthletic Bilb..
p633
aVSLL
p634
aV14(1)
p635
aV1205
p636
aV-
aV-
aV5
aV2
aV0.4
p637
aV83.6
p638
aV1.3
p639
aV1
aV6.98
p640
aa(lp641
V2012/2013
p642
aVAthletic Bilb..
p643
aVUEL
p644
aV2
aV180
p645
aV-
aV-
aV-
aV-
aV0.5
p646
aV84.1
p647
aV3
aV1
aV8.12
p648
aa(lp649
VTotal / Average
p650
aV
aV
aV226
p651
aV19661
p652
aV10
p653
aV3
aV49
p654
aV6
aV0.6
p655
aV83.7
p656
aV2.4
p657
aV8
aV7.07
p658
aasS'id'
p659
V122117
p660
sb.