(i__main__
Player
p1
(dp2
S'name'
p3
VAnthony Martial 
p4
sS'offensive_data'
p5
(lp6
(lp7
a(lp8
V2018/2019
p9
aVManchester Un..
p10
aVEPL
p11
aV9(4)
p12
aV798
p13
aV7
aV-
aV1
aV-
aV1.4
p14
aV81.4
p15
aV0.5
p16
aV2
aV6.86
p17
aa(lp18
V2018/2019
p19
aVManchester Un..
p20
aVUCL
p21
aV4(1)
p22
aV374
p23
aV1
aV-
aV1
aV-
aV2.2
p24
aV84.7
p25
aV0.4
p26
aV-
aV6.89
p27
aa(lp28
V2017/2018
p29
aVManchester Un..
p30
aVUCL
p31
aV4(4)
p32
aV343
p33
aV1
aV2
aV-
aV-
aV1.4
p34
aV79.3
p35
aV0.5
p36
aV1
aV6.91
p37
aa(lp38
V2017/2018
p39
aVManchester Un..
p40
aVEPL
p41
aV18(12)
p42
aV1584
p43
aV9
aV5
aV1
aV-
aV1.6
p44
aV81.9
p45
aV0.5
p46
aV-
aV6.87
p47
aa(lp48
V2016/2017
p49
aVManchester Un..
p50
aVEPL
p51
aV18(7)
p52
aV1558
p53
aV4
aV6
aV2
aV-
aV1.7
p54
aV81.3
p55
aV0.8
p56
aV3
aV6.94
p57
aa(lp58
V2016/2017
p59
aVManchester Un..
p60
aVUEL
p61
aV4(6)
p62
aV440
p63
aV1
aV-
aV1
aV-
aV1
aV81.4
p64
aV0.5
p65
aV-
aV6.58
p66
aa(lp67
V2015/2016
p68
aVManchester Un..
p69
aVUEL
p70
aV3
aV270
p71
aV1
aV-
aV-
aV-
aV1.3
p72
aV75.6
p73
aV0.7
p74
aV-
aV6.58
p75
aa(lp76
V2015/2016
p77
aVManchester Un..
p78
aVUCL
p79
aV6
aV516
p80
aV2
aV-
aV1
aV-
aV1.8
p81
aV74.7
p82
aV1.2
p83
aV-
aV6.61
p84
aa(lp85
V2015/2016
p86
aVMonaco
p87
aVFL1
p88
aV2(1)
p89
aV202
p90
aV-
aV1
aV-
aV-
aV0.3
p91
aV69.5
p92
aV1
aV-
aV6.52
p93
aa(lp94
V2015/2016
p95
aVManchester Un..
p96
aVEPL
p97
aV29(2)
p98
aV2632
p99
aV11
p100
aV4
aV2
aV-
aV1.8
p101
aV76.7
p102
aV1.8
p103
aV3
aV7.23
p104
aa(lp105
V2014/2015
p106
aVMonaco
p107
aVUCL
p108
aV4(3)
p109
aV415
p110
aV-
aV1
aV1
aV-
aV0.7
p111
aV76.3
p112
aV1.4
p113
aV-
aV6.41
p114
aa(lp115
V2014/2015
p116
aVMonaco
p117
aVFL1
p118
aV19(16)
p119
aV1828
p120
aV9
aV3
aV1
aV-
aV1.5
p121
aV71.6
p122
aV1.2
p123
aV-
aV6.73
p124
aa(lp125
V2016
p126
aVFrance
p127
aVUEC
p128
aV1(2)
p129
aV69
p130
aV-
aV-
aV-
aV-
aV1.3
p131
aV62.5
p132
aV-
aV-
aV6.05
p133
aa(lp134
V2013/2014
p135
aVMonaco
p136
aVFL1
p137
aV8(3)
p138
aV571
p139
aV2
aV1
aV-
aV-
aV1.2
p140
aV81.8
p141
aV0.5
p142
aV-
aV6.67
p143
aa(lp144
V2012/2013
p145
aVLyon
p146
aVUEL
p147
aV0(1)
p148
aV10
p149
aV-
aV-
aV-
aV-
aV2
aV71.4
p150
aV-
aV-
aV6.26
p151
aa(lp152
V2012/2013
p153
aVLyon
p154
aVFL1
p155
aV0(3)
p156
aV47
p157
aV-
aV-
aV1
aV-
aV0.7
p158
aV87.5
p159
aV-
aV-
aV5.96
p160
aa(lp161
VTotal / Average
p162
aV
aV
aV194
p163
aV11657
p164
aV48
p165
aV23
p166
aV12
p167
aV0
aV1.5
p168
aV78
p169
aV0.9
p170
aV9
aV6.82
p171
aasS'url'
p172
S'https://www.whoscored.com/Players/122366/History/'
p173
sS'passing_data'
p174
(lp175
(lp176
a(lp177
V2018/2019
p178
aVManchester Un..
p179
aVEPL
p180
aV9(4)
p181
aV798
p182
aV7
aV-
aV1
aV-
aV1.4
p183
aV81.4
p184
aV0.5
p185
aV2
aV6.86
p186
aa(lp187
V2018/2019
p188
aVManchester Un..
p189
aVUCL
p190
aV4(1)
p191
aV374
p192
aV1
aV-
aV1
aV-
aV2.2
p193
aV84.7
p194
aV0.4
p195
aV-
aV6.89
p196
aa(lp197
V2017/2018
p198
aVManchester Un..
p199
aVUCL
p200
aV4(4)
p201
aV343
p202
aV1
aV2
aV-
aV-
aV1.4
p203
aV79.3
p204
aV0.5
p205
aV1
aV6.91
p206
aa(lp207
V2017/2018
p208
aVManchester Un..
p209
aVEPL
p210
aV18(12)
p211
aV1584
p212
aV9
aV5
aV1
aV-
aV1.6
p213
aV81.9
p214
aV0.5
p215
aV-
aV6.87
p216
aa(lp217
V2016/2017
p218
aVManchester Un..
p219
aVEPL
p220
aV18(7)
p221
aV1558
p222
aV4
aV6
aV2
aV-
aV1.7
p223
aV81.3
p224
aV0.8
p225
aV3
aV6.94
p226
aa(lp227
V2016/2017
p228
aVManchester Un..
p229
aVUEL
p230
aV4(6)
p231
aV440
p232
aV1
aV-
aV1
aV-
aV1
aV81.4
p233
aV0.5
p234
aV-
aV6.58
p235
aa(lp236
V2015/2016
p237
aVManchester Un..
p238
aVUEL
p239
aV3
aV270
p240
aV1
aV-
aV-
aV-
aV1.3
p241
aV75.6
p242
aV0.7
p243
aV-
aV6.58
p244
aa(lp245
V2015/2016
p246
aVManchester Un..
p247
aVUCL
p248
aV6
aV516
p249
aV2
aV-
aV1
aV-
aV1.8
p250
aV74.7
p251
aV1.2
p252
aV-
aV6.61
p253
aa(lp254
V2015/2016
p255
aVMonaco
p256
aVFL1
p257
aV2(1)
p258
aV202
p259
aV-
aV1
aV-
aV-
aV0.3
p260
aV69.5
p261
aV1
aV-
aV6.52
p262
aa(lp263
V2015/2016
p264
aVManchester Un..
p265
aVEPL
p266
aV29(2)
p267
aV2632
p268
aV11
p269
aV4
aV2
aV-
aV1.8
p270
aV76.7
p271
aV1.8
p272
aV3
aV7.23
p273
aa(lp274
V2014/2015
p275
aVMonaco
p276
aVUCL
p277
aV4(3)
p278
aV415
p279
aV-
aV1
aV1
aV-
aV0.7
p280
aV76.3
p281
aV1.4
p282
aV-
aV6.41
p283
aa(lp284
V2014/2015
p285
aVMonaco
p286
aVFL1
p287
aV19(16)
p288
aV1828
p289
aV9
aV3
aV1
aV-
aV1.5
p290
aV71.6
p291
aV1.2
p292
aV-
aV6.73
p293
aa(lp294
V2016
p295
aVFrance
p296
aVUEC
p297
aV1(2)
p298
aV69
p299
aV-
aV-
aV-
aV-
aV1.3
p300
aV62.5
p301
aV-
aV-
aV6.05
p302
aa(lp303
V2013/2014
p304
aVMonaco
p305
aVFL1
p306
aV8(3)
p307
aV571
p308
aV2
aV1
aV-
aV-
aV1.2
p309
aV81.8
p310
aV0.5
p311
aV-
aV6.67
p312
aa(lp313
V2012/2013
p314
aVLyon
p315
aVUEL
p316
aV0(1)
p317
aV10
p318
aV-
aV-
aV-
aV-
aV2
aV71.4
p319
aV-
aV-
aV6.26
p320
aa(lp321
V2012/2013
p322
aVLyon
p323
aVFL1
p324
aV0(3)
p325
aV47
p326
aV-
aV-
aV1
aV-
aV0.7
p327
aV87.5
p328
aV-
aV-
aV5.96
p329
aa(lp330
VTotal / Average
p331
aV
aV
aV194
p332
aV11657
p333
aV48
p334
aV23
p335
aV12
p336
aV0
aV1.5
p337
aV78
p338
aV0.9
p339
aV9
aV6.82
p340
aasS'defensive_data'
p341
(lp342
(lp343
a(lp344
V2018/2019
p345
aVManchester Un..
p346
aVEPL
p347
aV9(4)
p348
aV798
p349
aV7
aV-
aV1
aV-
aV1.4
p350
aV81.4
p351
aV0.5
p352
aV2
aV6.86
p353
aa(lp354
V2018/2019
p355
aVManchester Un..
p356
aVUCL
p357
aV4(1)
p358
aV374
p359
aV1
aV-
aV1
aV-
aV2.2
p360
aV84.7
p361
aV0.4
p362
aV-
aV6.89
p363
aa(lp364
V2017/2018
p365
aVManchester Un..
p366
aVUCL
p367
aV4(4)
p368
aV343
p369
aV1
aV2
aV-
aV-
aV1.4
p370
aV79.3
p371
aV0.5
p372
aV1
aV6.91
p373
aa(lp374
V2017/2018
p375
aVManchester Un..
p376
aVEPL
p377
aV18(12)
p378
aV1584
p379
aV9
aV5
aV1
aV-
aV1.6
p380
aV81.9
p381
aV0.5
p382
aV-
aV6.87
p383
aa(lp384
V2016/2017
p385
aVManchester Un..
p386
aVEPL
p387
aV18(7)
p388
aV1558
p389
aV4
aV6
aV2
aV-
aV1.7
p390
aV81.3
p391
aV0.8
p392
aV3
aV6.94
p393
aa(lp394
V2016/2017
p395
aVManchester Un..
p396
aVUEL
p397
aV4(6)
p398
aV440
p399
aV1
aV-
aV1
aV-
aV1
aV81.4
p400
aV0.5
p401
aV-
aV6.58
p402
aa(lp403
V2015/2016
p404
aVManchester Un..
p405
aVUEL
p406
aV3
aV270
p407
aV1
aV-
aV-
aV-
aV1.3
p408
aV75.6
p409
aV0.7
p410
aV-
aV6.58
p411
aa(lp412
V2015/2016
p413
aVManchester Un..
p414
aVUCL
p415
aV6
aV516
p416
aV2
aV-
aV1
aV-
aV1.8
p417
aV74.7
p418
aV1.2
p419
aV-
aV6.61
p420
aa(lp421
V2015/2016
p422
aVMonaco
p423
aVFL1
p424
aV2(1)
p425
aV202
p426
aV-
aV1
aV-
aV-
aV0.3
p427
aV69.5
p428
aV1
aV-
aV6.52
p429
aa(lp430
V2015/2016
p431
aVManchester Un..
p432
aVEPL
p433
aV29(2)
p434
aV2632
p435
aV11
p436
aV4
aV2
aV-
aV1.8
p437
aV76.7
p438
aV1.8
p439
aV3
aV7.23
p440
aa(lp441
V2014/2015
p442
aVMonaco
p443
aVUCL
p444
aV4(3)
p445
aV415
p446
aV-
aV1
aV1
aV-
aV0.7
p447
aV76.3
p448
aV1.4
p449
aV-
aV6.41
p450
aa(lp451
V2014/2015
p452
aVMonaco
p453
aVFL1
p454
aV19(16)
p455
aV1828
p456
aV9
aV3
aV1
aV-
aV1.5
p457
aV71.6
p458
aV1.2
p459
aV-
aV6.73
p460
aa(lp461
V2016
p462
aVFrance
p463
aVUEC
p464
aV1(2)
p465
aV69
p466
aV-
aV-
aV-
aV-
aV1.3
p467
aV62.5
p468
aV-
aV-
aV6.05
p469
aa(lp470
V2013/2014
p471
aVMonaco
p472
aVFL1
p473
aV8(3)
p474
aV571
p475
aV2
aV1
aV-
aV-
aV1.2
p476
aV81.8
p477
aV0.5
p478
aV-
aV6.67
p479
aa(lp480
V2012/2013
p481
aVLyon
p482
aVUEL
p483
aV0(1)
p484
aV10
p485
aV-
aV-
aV-
aV-
aV2
aV71.4
p486
aV-
aV-
aV6.26
p487
aa(lp488
V2012/2013
p489
aVLyon
p490
aVFL1
p491
aV0(3)
p492
aV47
p493
aV-
aV-
aV1
aV-
aV0.7
p494
aV87.5
p495
aV-
aV-
aV5.96
p496
aa(lp497
VTotal / Average
p498
aV
aV
aV194
p499
aV11657
p500
aV48
p501
aV23
p502
aV12
p503
aV0
aV1.5
p504
aV78
p505
aV0.9
p506
aV9
aV6.82
p507
aasS'sumary_data'
p508
(lp509
(lp510
a(lp511
V2018/2019
p512
aVManchester Un..
p513
aVEPL
p514
aV9(4)
p515
aV798
p516
aV7
aV-
aV1
aV-
aV1.4
p517
aV81.4
p518
aV0.5
p519
aV2
aV6.86
p520
aa(lp521
V2018/2019
p522
aVManchester Un..
p523
aVUCL
p524
aV4(1)
p525
aV374
p526
aV1
aV-
aV1
aV-
aV2.2
p527
aV84.7
p528
aV0.4
p529
aV-
aV6.89
p530
aa(lp531
V2017/2018
p532
aVManchester Un..
p533
aVUCL
p534
aV4(4)
p535
aV343
p536
aV1
aV2
aV-
aV-
aV1.4
p537
aV79.3
p538
aV0.5
p539
aV1
aV6.91
p540
aa(lp541
V2017/2018
p542
aVManchester Un..
p543
aVEPL
p544
aV18(12)
p545
aV1584
p546
aV9
aV5
aV1
aV-
aV1.6
p547
aV81.9
p548
aV0.5
p549
aV-
aV6.87
p550
aa(lp551
V2016/2017
p552
aVManchester Un..
p553
aVEPL
p554
aV18(7)
p555
aV1558
p556
aV4
aV6
aV2
aV-
aV1.7
p557
aV81.3
p558
aV0.8
p559
aV3
aV6.94
p560
aa(lp561
V2016/2017
p562
aVManchester Un..
p563
aVUEL
p564
aV4(6)
p565
aV440
p566
aV1
aV-
aV1
aV-
aV1
aV81.4
p567
aV0.5
p568
aV-
aV6.58
p569
aa(lp570
V2015/2016
p571
aVManchester Un..
p572
aVUEL
p573
aV3
aV270
p574
aV1
aV-
aV-
aV-
aV1.3
p575
aV75.6
p576
aV0.7
p577
aV-
aV6.58
p578
aa(lp579
V2015/2016
p580
aVManchester Un..
p581
aVUCL
p582
aV6
aV516
p583
aV2
aV-
aV1
aV-
aV1.8
p584
aV74.7
p585
aV1.2
p586
aV-
aV6.61
p587
aa(lp588
V2015/2016
p589
aVMonaco
p590
aVFL1
p591
aV2(1)
p592
aV202
p593
aV-
aV1
aV-
aV-
aV0.3
p594
aV69.5
p595
aV1
aV-
aV6.52
p596
aa(lp597
V2015/2016
p598
aVManchester Un..
p599
aVEPL
p600
aV29(2)
p601
aV2632
p602
aV11
p603
aV4
aV2
aV-
aV1.8
p604
aV76.7
p605
aV1.8
p606
aV3
aV7.23
p607
aa(lp608
V2014/2015
p609
aVMonaco
p610
aVUCL
p611
aV4(3)
p612
aV415
p613
aV-
aV1
aV1
aV-
aV0.7
p614
aV76.3
p615
aV1.4
p616
aV-
aV6.41
p617
aa(lp618
V2014/2015
p619
aVMonaco
p620
aVFL1
p621
aV19(16)
p622
aV1828
p623
aV9
aV3
aV1
aV-
aV1.5
p624
aV71.6
p625
aV1.2
p626
aV-
aV6.73
p627
aa(lp628
V2016
p629
aVFrance
p630
aVUEC
p631
aV1(2)
p632
aV69
p633
aV-
aV-
aV-
aV-
aV1.3
p634
aV62.5
p635
aV-
aV-
aV6.05
p636
aa(lp637
V2013/2014
p638
aVMonaco
p639
aVFL1
p640
aV8(3)
p641
aV571
p642
aV2
aV1
aV-
aV-
aV1.2
p643
aV81.8
p644
aV0.5
p645
aV-
aV6.67
p646
aa(lp647
V2012/2013
p648
aVLyon
p649
aVUEL
p650
aV0(1)
p651
aV10
p652
aV-
aV-
aV-
aV-
aV2
aV71.4
p653
aV-
aV-
aV6.26
p654
aa(lp655
V2012/2013
p656
aVLyon
p657
aVFL1
p658
aV0(3)
p659
aV47
p660
aV-
aV-
aV1
aV-
aV0.7
p661
aV87.5
p662
aV-
aV-
aV5.96
p663
aa(lp664
VTotal / Average
p665
aV
aV
aV194
p666
aV11657
p667
aV48
p668
aV23
p669
aV12
p670
aV0
aV1.5
p671
aV78
p672
aV0.9
p673
aV9
aV6.82
p674
aasS'id'
p675
V122366
p676
sb.