(i__main__
Player
p1
(dp2
S'name'
p3
VArthur Masuaku 
p4
sS'offensive_data'
p5
(lp6
(lp7
a(lp8
V2018/2019
p9
aVWest Ham
p10
aVEPL
p11
aV12(1)
p12
aV1070
p13
aV-
aV1
aV1
aV-
aV0.1
p14
aV84.2
p15
aV0.8
p16
aV1
aV6.86
p17
aa(lp18
V2017/2018
p19
aVWest Ham
p20
aVEPL
p21
aV21(6)
p22
aV1873
p23
aV-
aV3
aV5
aV-
aV0.3
p24
aV80.6
p25
aV0.9
p26
aV2
aV7.02
p27
aa(lp28
V2016/2017
p29
aVWest Ham
p30
aVEPL
p31
aV11(2)
p32
aV972
p33
aV-
aV1
aV1
aV-
aV0.3
p34
aV87.6
p35
aV1.2
p36
aV1
aV7.13
p37
aa(lp38
V2015/2016
p39
aVOlympiacos
p40
aVUEL
p41
aV2
aV210
p42
aV-
aV-
aV2
aV-
aV-
aV77.3
p43
aV3
aV-
aV6.33
p44
aa(lp45
V2015/2016
p46
aVOlympiacos
p47
aVUCL
p48
aV5
aV450
p49
aV-
aV-
aV-
aV-
aV0.8
p50
aV80.7
p51
aV2.4
p52
aV1
aV7.29
p53
aa(lp54
V2014/2015
p55
aVOlympiacos
p56
aVUCL
p57
aV6
aV540
p58
aV1
aV-
aV1
aV-
aV0.7
p59
aV80.8
p60
aV1.8
p61
aV2
aV7.65
p62
aa(lp63
V2014/2015
p64
aVOlympiacos
p65
aVUEL
p66
aV2
aV180
p67
aV-
aV-
aV-
aV-
aV0.5
p68
aV82.2
p69
aV1.5
p70
aV-
aV7.60
p71
aa(lp72
V2013/2014
p73
aVValenciennes
p74
aVFL1
p75
aV27
p76
aV2363
p77
aV1
aV4
aV4
aV-
aV0.6
p78
aV73.2
p79
aV1.5
p80
aV-
aV6.75
p81
aa(lp82
VTotal / Average
p83
aV
aV
aV95
p84
aV7658
p85
aV2
aV9
aV14
p86
aV0
aV0.4
p87
aV79.9
p88
aV1.3
p89
aV7
aV6.99
p90
aasS'url'
p91
S'https://www.whoscored.com/Players/122980/History/'
p92
sS'passing_data'
p93
(lp94
(lp95
a(lp96
V2018/2019
p97
aVWest Ham
p98
aVEPL
p99
aV12(1)
p100
aV1070
p101
aV-
aV1
aV1
aV-
aV0.1
p102
aV84.2
p103
aV0.8
p104
aV1
aV6.86
p105
aa(lp106
V2017/2018
p107
aVWest Ham
p108
aVEPL
p109
aV21(6)
p110
aV1873
p111
aV-
aV3
aV5
aV-
aV0.3
p112
aV80.6
p113
aV0.9
p114
aV2
aV7.02
p115
aa(lp116
V2016/2017
p117
aVWest Ham
p118
aVEPL
p119
aV11(2)
p120
aV972
p121
aV-
aV1
aV1
aV-
aV0.3
p122
aV87.6
p123
aV1.2
p124
aV1
aV7.13
p125
aa(lp126
V2015/2016
p127
aVOlympiacos
p128
aVUEL
p129
aV2
aV210
p130
aV-
aV-
aV2
aV-
aV-
aV77.3
p131
aV3
aV-
aV6.33
p132
aa(lp133
V2015/2016
p134
aVOlympiacos
p135
aVUCL
p136
aV5
aV450
p137
aV-
aV-
aV-
aV-
aV0.8
p138
aV80.7
p139
aV2.4
p140
aV1
aV7.29
p141
aa(lp142
V2014/2015
p143
aVOlympiacos
p144
aVUCL
p145
aV6
aV540
p146
aV1
aV-
aV1
aV-
aV0.7
p147
aV80.8
p148
aV1.8
p149
aV2
aV7.65
p150
aa(lp151
V2014/2015
p152
aVOlympiacos
p153
aVUEL
p154
aV2
aV180
p155
aV-
aV-
aV-
aV-
aV0.5
p156
aV82.2
p157
aV1.5
p158
aV-
aV7.60
p159
aa(lp160
V2013/2014
p161
aVValenciennes
p162
aVFL1
p163
aV27
p164
aV2363
p165
aV1
aV4
aV4
aV-
aV0.6
p166
aV73.2
p167
aV1.5
p168
aV-
aV6.75
p169
aa(lp170
VTotal / Average
p171
aV
aV
aV95
p172
aV7658
p173
aV2
aV9
aV14
p174
aV0
aV0.4
p175
aV79.9
p176
aV1.3
p177
aV7
aV6.99
p178
aasS'defensive_data'
p179
(lp180
(lp181
a(lp182
V2018/2019
p183
aVWest Ham
p184
aVEPL
p185
aV12(1)
p186
aV1070
p187
aV-
aV1
aV1
aV-
aV0.1
p188
aV84.2
p189
aV0.8
p190
aV1
aV6.86
p191
aa(lp192
V2017/2018
p193
aVWest Ham
p194
aVEPL
p195
aV21(6)
p196
aV1873
p197
aV-
aV3
aV5
aV-
aV0.3
p198
aV80.6
p199
aV0.9
p200
aV2
aV7.02
p201
aa(lp202
V2016/2017
p203
aVWest Ham
p204
aVEPL
p205
aV11(2)
p206
aV972
p207
aV-
aV1
aV1
aV-
aV0.3
p208
aV87.6
p209
aV1.2
p210
aV1
aV7.13
p211
aa(lp212
V2015/2016
p213
aVOlympiacos
p214
aVUEL
p215
aV2
aV210
p216
aV-
aV-
aV2
aV-
aV-
aV77.3
p217
aV3
aV-
aV6.33
p218
aa(lp219
V2015/2016
p220
aVOlympiacos
p221
aVUCL
p222
aV5
aV450
p223
aV-
aV-
aV-
aV-
aV0.8
p224
aV80.7
p225
aV2.4
p226
aV1
aV7.29
p227
aa(lp228
V2014/2015
p229
aVOlympiacos
p230
aVUCL
p231
aV6
aV540
p232
aV1
aV-
aV1
aV-
aV0.7
p233
aV80.8
p234
aV1.8
p235
aV2
aV7.65
p236
aa(lp237
V2014/2015
p238
aVOlympiacos
p239
aVUEL
p240
aV2
aV180
p241
aV-
aV-
aV-
aV-
aV0.5
p242
aV82.2
p243
aV1.5
p244
aV-
aV7.60
p245
aa(lp246
V2013/2014
p247
aVValenciennes
p248
aVFL1
p249
aV27
p250
aV2363
p251
aV1
aV4
aV4
aV-
aV0.6
p252
aV73.2
p253
aV1.5
p254
aV-
aV6.75
p255
aa(lp256
VTotal / Average
p257
aV
aV
aV95
p258
aV7658
p259
aV2
aV9
aV14
p260
aV0
aV0.4
p261
aV79.9
p262
aV1.3
p263
aV7
aV6.99
p264
aasS'sumary_data'
p265
(lp266
(lp267
a(lp268
V2018/2019
p269
aVWest Ham
p270
aVEPL
p271
aV12(1)
p272
aV1070
p273
aV-
aV1
aV1
aV-
aV0.1
p274
aV84.2
p275
aV0.8
p276
aV1
aV6.86
p277
aa(lp278
V2017/2018
p279
aVWest Ham
p280
aVEPL
p281
aV21(6)
p282
aV1873
p283
aV-
aV3
aV5
aV-
aV0.3
p284
aV80.6
p285
aV0.9
p286
aV2
aV7.02
p287
aa(lp288
V2016/2017
p289
aVWest Ham
p290
aVEPL
p291
aV11(2)
p292
aV972
p293
aV-
aV1
aV1
aV-
aV0.3
p294
aV87.6
p295
aV1.2
p296
aV1
aV7.13
p297
aa(lp298
V2015/2016
p299
aVOlympiacos
p300
aVUEL
p301
aV2
aV210
p302
aV-
aV-
aV2
aV-
aV-
aV77.3
p303
aV3
aV-
aV6.33
p304
aa(lp305
V2015/2016
p306
aVOlympiacos
p307
aVUCL
p308
aV5
aV450
p309
aV-
aV-
aV-
aV-
aV0.8
p310
aV80.7
p311
aV2.4
p312
aV1
aV7.29
p313
aa(lp314
V2014/2015
p315
aVOlympiacos
p316
aVUCL
p317
aV6
aV540
p318
aV1
aV-
aV1
aV-
aV0.7
p319
aV80.8
p320
aV1.8
p321
aV2
aV7.65
p322
aa(lp323
V2014/2015
p324
aVOlympiacos
p325
aVUEL
p326
aV2
aV180
p327
aV-
aV-
aV-
aV-
aV0.5
p328
aV82.2
p329
aV1.5
p330
aV-
aV7.60
p331
aa(lp332
V2013/2014
p333
aVValenciennes
p334
aVFL1
p335
aV27
p336
aV2363
p337
aV1
aV4
aV4
aV-
aV0.6
p338
aV73.2
p339
aV1.5
p340
aV-
aV6.75
p341
aa(lp342
VTotal / Average
p343
aV
aV
aV95
p344
aV7658
p345
aV2
aV9
aV14
p346
aV0
aV0.4
p347
aV79.9
p348
aV1.3
p349
aV7
aV6.99
p350
aasS'id'
p351
V122980
p352
sb.