(i__main__
Player
p1
(dp2
S'name'
p3
VSolly March 
p4
sS'offensive_data'
p5
(lp6
(lp7
a(lp8
V2018/2019
p9
aVBrighton
p10
aVEPL
p11
aV16(1)
p12
aV1286
p13
aV1
aV5
aV-
aV-
aV1.4
p14
aV69.8
p15
aV0.5
p16
aV-
aV6.82
p17
aa(lp18
V2017/2018
p19
aVBrighton
p20
aVEPL
p21
aV18(18)
p22
aV1844
p23
aV1
aV1
aV3
aV-
aV0.8
p24
aV77.8
p25
aV0.6
p26
aV1
aV6.60
p27
aa(lp28
V2016/2017
p29
aVBrighton
p30
aVEC
p31
aV9(16)
p32
aV1062
p33
aV3
aV2
aV-
aV-
aV1
aV77.7
p34
aV0.4
p35
aV1
aV6.81
p36
aa(lp37
V2015/2016
p38
aVBrighton
p39
aVEC
p40
aV13(3)
p41
aV1142
p42
aV3
aV1
aV4
aV-
aV1.9
p43
aV79
p44
aV0.6
p45
aV3
aV7.19
p46
aa(lp47
V2014/2015
p48
aVBrighton
p49
aVEC
p50
aV6(5)
p51
aV449
p52
aV1
aV1
aV-
aV-
aV1.5
p53
aV83.1
p54
aV-
aV1
aV6.67
p55
aa(lp56
V2013/2014
p57
aVBrighton
p58
aVEC
p59
aV7(17)
p60
aV779
p61
aV-
aV1
aV2
aV-
aV0.8
p62
aV81.7
p63
aV0.3
p64
aV-
aV6.63
p65
aa(lp66
VTotal / Average
p67
aV
aV
aV129
p68
aV6562
p69
aV9
aV11
p70
aV9
aV0
aV1.1
p71
aV78
p72
aV0.4
p73
aV6
aV6.75
p74
aasS'url'
p75
S'https://www.whoscored.com/Players/122926/History/'
p76
sS'passing_data'
p77
(lp78
(lp79
a(lp80
V2018/2019
p81
aVBrighton
p82
aVEPL
p83
aV16(1)
p84
aV1286
p85
aV1
aV5
aV-
aV-
aV1.4
p86
aV69.8
p87
aV0.5
p88
aV-
aV6.82
p89
aa(lp90
V2017/2018
p91
aVBrighton
p92
aVEPL
p93
aV18(18)
p94
aV1844
p95
aV1
aV1
aV3
aV-
aV0.8
p96
aV77.8
p97
aV0.6
p98
aV1
aV6.60
p99
aa(lp100
V2016/2017
p101
aVBrighton
p102
aVEC
p103
aV9(16)
p104
aV1062
p105
aV3
aV2
aV-
aV-
aV1
aV77.7
p106
aV0.4
p107
aV1
aV6.81
p108
aa(lp109
V2015/2016
p110
aVBrighton
p111
aVEC
p112
aV13(3)
p113
aV1142
p114
aV3
aV1
aV4
aV-
aV1.9
p115
aV79
p116
aV0.6
p117
aV3
aV7.19
p118
aa(lp119
V2014/2015
p120
aVBrighton
p121
aVEC
p122
aV6(5)
p123
aV449
p124
aV1
aV1
aV-
aV-
aV1.5
p125
aV83.1
p126
aV-
aV1
aV6.67
p127
aa(lp128
V2013/2014
p129
aVBrighton
p130
aVEC
p131
aV7(17)
p132
aV779
p133
aV-
aV1
aV2
aV-
aV0.8
p134
aV81.7
p135
aV0.3
p136
aV-
aV6.63
p137
aa(lp138
VTotal / Average
p139
aV
aV
aV129
p140
aV6562
p141
aV9
aV11
p142
aV9
aV0
aV1.1
p143
aV78
p144
aV0.4
p145
aV6
aV6.75
p146
aasS'defensive_data'
p147
(lp148
(lp149
a(lp150
V2018/2019
p151
aVBrighton
p152
aVEPL
p153
aV16(1)
p154
aV1286
p155
aV1
aV5
aV-
aV-
aV1.4
p156
aV69.8
p157
aV0.5
p158
aV-
aV6.82
p159
aa(lp160
V2017/2018
p161
aVBrighton
p162
aVEPL
p163
aV18(18)
p164
aV1844
p165
aV1
aV1
aV3
aV-
aV0.8
p166
aV77.8
p167
aV0.6
p168
aV1
aV6.60
p169
aa(lp170
V2016/2017
p171
aVBrighton
p172
aVEC
p173
aV9(16)
p174
aV1062
p175
aV3
aV2
aV-
aV-
aV1
aV77.7
p176
aV0.4
p177
aV1
aV6.81
p178
aa(lp179
V2015/2016
p180
aVBrighton
p181
aVEC
p182
aV13(3)
p183
aV1142
p184
aV3
aV1
aV4
aV-
aV1.9
p185
aV79
p186
aV0.6
p187
aV3
aV7.19
p188
aa(lp189
V2014/2015
p190
aVBrighton
p191
aVEC
p192
aV6(5)
p193
aV449
p194
aV1
aV1
aV-
aV-
aV1.5
p195
aV83.1
p196
aV-
aV1
aV6.67
p197
aa(lp198
V2013/2014
p199
aVBrighton
p200
aVEC
p201
aV7(17)
p202
aV779
p203
aV-
aV1
aV2
aV-
aV0.8
p204
aV81.7
p205
aV0.3
p206
aV-
aV6.63
p207
aa(lp208
VTotal / Average
p209
aV
aV
aV129
p210
aV6562
p211
aV9
aV11
p212
aV9
aV0
aV1.1
p213
aV78
p214
aV0.4
p215
aV6
aV6.75
p216
aasS'sumary_data'
p217
(lp218
(lp219
a(lp220
V2018/2019
p221
aVBrighton
p222
aVEPL
p223
aV16(1)
p224
aV1286
p225
aV1
aV5
aV-
aV-
aV1.4
p226
aV69.8
p227
aV0.5
p228
aV-
aV6.82
p229
aa(lp230
V2017/2018
p231
aVBrighton
p232
aVEPL
p233
aV18(18)
p234
aV1844
p235
aV1
aV1
aV3
aV-
aV0.8
p236
aV77.8
p237
aV0.6
p238
aV1
aV6.60
p239
aa(lp240
V2016/2017
p241
aVBrighton
p242
aVEC
p243
aV9(16)
p244
aV1062
p245
aV3
aV2
aV-
aV-
aV1
aV77.7
p246
aV0.4
p247
aV1
aV6.81
p248
aa(lp249
V2015/2016
p250
aVBrighton
p251
aVEC
p252
aV13(3)
p253
aV1142
p254
aV3
aV1
aV4
aV-
aV1.9
p255
aV79
p256
aV0.6
p257
aV3
aV7.19
p258
aa(lp259
V2014/2015
p260
aVBrighton
p261
aVEC
p262
aV6(5)
p263
aV449
p264
aV1
aV1
aV-
aV-
aV1.5
p265
aV83.1
p266
aV-
aV1
aV6.67
p267
aa(lp268
V2013/2014
p269
aVBrighton
p270
aVEC
p271
aV7(17)
p272
aV779
p273
aV-
aV1
aV2
aV-
aV0.8
p274
aV81.7
p275
aV0.3
p276
aV-
aV6.63
p277
aa(lp278
VTotal / Average
p279
aV
aV
aV129
p280
aV6562
p281
aV9
aV11
p282
aV9
aV0
aV1.1
p283
aV78
p284
aV0.4
p285
aV6
aV6.75
p286
aasS'id'
p287
V122926
p288
sb.