(i__main__
Player
p1
(dp2
S'name'
p3
VTyrone Mings 
p4
sS'offensive_data'
p5
(lp6
(lp7
a(lp8
V2018/2019
p9
aVBournemouth
p10
aVEPL
p11
aV2(2)
p12
aV134
p13
aV-
aV-
aV-
aV-
aV-
aV84.5
p14
aV0.8
p15
aV-
aV6.46
p16
aa(lp17
V2017/2018
p18
aVBournemouth
p19
aVEPL
p20
aV3(1)
p21
aV203
p22
aV-
aV-
aV1
aV-
aV0.3
p23
aV77.9
p24
aV0.5
p25
aV-
aV6.20
p26
aa(lp27
V2016/2017
p28
aVBournemouth
p29
aVEPL
p30
aV5(2)
p31
aV506
p32
aV-
aV-
aV-
aV-
aV0.1
p33
aV83.2
p34
aV2
aV-
aV6.34
p35
aa(lp36
V2015/2016
p37
aVBournemouth
p38
aVEPL
p39
aV0(1)
p40
aV12
p41
aV-
aV-
aV-
aV-
aV-
aV100
p42
aV-
aV-
aV6.21
p43
aa(lp44
V2014/2015
p45
aVIpswich
p46
aVEC
p47
aV40(2)
p48
aV3659
p49
aV1
aV4
aV10
p50
aV-
aV0.7
p51
aV62.8
p52
aV1.7
p53
aV2
aV7.23
p54
aa(lp55
V2013/2014
p56
aVIpswich
p57
aVEC
p58
aV4(12)
p59
aV443
p60
aV-
aV2
aV1
aV-
aV0.3
p61
aV61.9
p62
aV1.4
p63
aV-
aV6.40
p64
aa(lp65
VTotal / Average
p66
aV
aV
aV74
p67
aV4957
p68
aV1
aV6
aV12
p69
aV0
aV0.5
p70
aV67
p71
aV1.5
p72
aV2
aV6.86
p73
aasS'url'
p74
S'https://www.whoscored.com/Players/123167/History/'
p75
sS'passing_data'
p76
(lp77
(lp78
a(lp79
V2018/2019
p80
aVBournemouth
p81
aVEPL
p82
aV2(2)
p83
aV134
p84
aV-
aV-
aV-
aV-
aV-
aV84.5
p85
aV0.8
p86
aV-
aV6.46
p87
aa(lp88
V2017/2018
p89
aVBournemouth
p90
aVEPL
p91
aV3(1)
p92
aV203
p93
aV-
aV-
aV1
aV-
aV0.3
p94
aV77.9
p95
aV0.5
p96
aV-
aV6.20
p97
aa(lp98
V2016/2017
p99
aVBournemouth
p100
aVEPL
p101
aV5(2)
p102
aV506
p103
aV-
aV-
aV-
aV-
aV0.1
p104
aV83.2
p105
aV2
aV-
aV6.34
p106
aa(lp107
V2015/2016
p108
aVBournemouth
p109
aVEPL
p110
aV0(1)
p111
aV12
p112
aV-
aV-
aV-
aV-
aV-
aV100
p113
aV-
aV-
aV6.21
p114
aa(lp115
V2014/2015
p116
aVIpswich
p117
aVEC
p118
aV40(2)
p119
aV3659
p120
aV1
aV4
aV10
p121
aV-
aV0.7
p122
aV62.8
p123
aV1.7
p124
aV2
aV7.23
p125
aa(lp126
V2013/2014
p127
aVIpswich
p128
aVEC
p129
aV4(12)
p130
aV443
p131
aV-
aV2
aV1
aV-
aV0.3
p132
aV61.9
p133
aV1.4
p134
aV-
aV6.40
p135
aa(lp136
VTotal / Average
p137
aV
aV
aV74
p138
aV4957
p139
aV1
aV6
aV12
p140
aV0
aV0.5
p141
aV67
p142
aV1.5
p143
aV2
aV6.86
p144
aasS'defensive_data'
p145
(lp146
(lp147
a(lp148
V2018/2019
p149
aVBournemouth
p150
aVEPL
p151
aV2(2)
p152
aV134
p153
aV-
aV-
aV-
aV-
aV-
aV84.5
p154
aV0.8
p155
aV-
aV6.46
p156
aa(lp157
V2017/2018
p158
aVBournemouth
p159
aVEPL
p160
aV3(1)
p161
aV203
p162
aV-
aV-
aV1
aV-
aV0.3
p163
aV77.9
p164
aV0.5
p165
aV-
aV6.20
p166
aa(lp167
V2016/2017
p168
aVBournemouth
p169
aVEPL
p170
aV5(2)
p171
aV506
p172
aV-
aV-
aV-
aV-
aV0.1
p173
aV83.2
p174
aV2
aV-
aV6.34
p175
aa(lp176
V2015/2016
p177
aVBournemouth
p178
aVEPL
p179
aV0(1)
p180
aV12
p181
aV-
aV-
aV-
aV-
aV-
aV100
p182
aV-
aV-
aV6.21
p183
aa(lp184
V2014/2015
p185
aVIpswich
p186
aVEC
p187
aV40(2)
p188
aV3659
p189
aV1
aV4
aV10
p190
aV-
aV0.7
p191
aV62.8
p192
aV1.7
p193
aV2
aV7.23
p194
aa(lp195
V2013/2014
p196
aVIpswich
p197
aVEC
p198
aV4(12)
p199
aV443
p200
aV-
aV2
aV1
aV-
aV0.3
p201
aV61.9
p202
aV1.4
p203
aV-
aV6.40
p204
aa(lp205
VTotal / Average
p206
aV
aV
aV74
p207
aV4957
p208
aV1
aV6
aV12
p209
aV0
aV0.5
p210
aV67
p211
aV1.5
p212
aV2
aV6.86
p213
aasS'sumary_data'
p214
(lp215
(lp216
a(lp217
V2018/2019
p218
aVBournemouth
p219
aVEPL
p220
aV2(2)
p221
aV134
p222
aV-
aV-
aV-
aV-
aV-
aV84.5
p223
aV0.8
p224
aV-
aV6.46
p225
aa(lp226
V2017/2018
p227
aVBournemouth
p228
aVEPL
p229
aV3(1)
p230
aV203
p231
aV-
aV-
aV1
aV-
aV0.3
p232
aV77.9
p233
aV0.5
p234
aV-
aV6.20
p235
aa(lp236
V2016/2017
p237
aVBournemouth
p238
aVEPL
p239
aV5(2)
p240
aV506
p241
aV-
aV-
aV-
aV-
aV0.1
p242
aV83.2
p243
aV2
aV-
aV6.34
p244
aa(lp245
V2015/2016
p246
aVBournemouth
p247
aVEPL
p248
aV0(1)
p249
aV12
p250
aV-
aV-
aV-
aV-
aV-
aV100
p251
aV-
aV-
aV6.21
p252
aa(lp253
V2014/2015
p254
aVIpswich
p255
aVEC
p256
aV40(2)
p257
aV3659
p258
aV1
aV4
aV10
p259
aV-
aV0.7
p260
aV62.8
p261
aV1.7
p262
aV2
aV7.23
p263
aa(lp264
V2013/2014
p265
aVIpswich
p266
aVEC
p267
aV4(12)
p268
aV443
p269
aV-
aV2
aV1
aV-
aV0.3
p270
aV61.9
p271
aV1.4
p272
aV-
aV6.40
p273
aa(lp274
VTotal / Average
p275
aV
aV
aV74
p276
aV4957
p277
aV1
aV6
aV12
p278
aV0
aV0.5
p279
aV67
p280
aV1.5
p281
aV2
aV6.86
p282
aasS'id'
p283
V123167
p284
sb.