(i__main__
Player
p1
(dp2
S'name'
p3
VMario Lemina 
p4
sS'offensive_data'
p5
(lp6
(lp7
a(lp8
V2018/2019
p9
aVSouthampton
p10
aVEPL
p11
aV15
p12
aV1326
p13
aV-
aV1
aV5
aV-
aV1.5
p14
aV86.3
p15
aV1.5
p16
aV-
aV6.93
p17
aa(lp18
V2017/2018
p19
aVSouthampton
p20
aVEPL
p21
aV20(5)
p22
aV1723
p23
aV1
aV1
aV2
aV-
aV0.9
p24
aV87.8
p25
aV1
aV3
aV6.93
p26
aa(lp27
V2016/2017
p28
aVJuventus
p29
aVISA
p30
aV8(11)
p31
aV896
p32
aV1
aV1
aV1
aV-
aV0.9
p33
aV90
p34
aV0.2
p35
aV-
aV6.66
p36
aa(lp37
V2016/2017
p38
aVJuventus
p39
aVUCL
p40
aV3(4)
p41
aV270
p42
aV-
aV-
aV1
aV1
aV0.9
p43
aV89.5
p44
aV0.3
p45
aV1
aV6.40
p46
aa(lp47
V2015/2016
p48
aVJuventus
p49
aVISA
p50
aV7(3)
p51
aV727
p52
aV2
aV-
aV4
aV-
aV0.5
p53
aV89.8
p54
aV0.7
p55
aV-
aV7.32
p56
aa(lp57
V2015/2016
p58
aVJuventus
p59
aVUCL
p60
aV0(1)
p61
aV3
aV-
aV-
aV-
aV-
aV-
aV-
aV-
aV-
aV6.56
p62
aa(lp63
V2015/2016
p64
aVMarseille
p65
aVFL1
p66
aV4
aV335
p67
aV-
aV-
aV1
aV-
aV1.5
p68
aV87.5
p69
aV1.8
p70
aV-
aV7.01
p71
aa(lp72
V2014/2015
p73
aVMarseille
p74
aVFL1
p75
aV13(9)
p76
aV1218
p77
aV2
aV-
aV2
aV1
aV0.4
p78
aV90
p79
aV0.5
p80
aV-
aV6.64
p81
aa(lp82
V2013/2014
p83
aVMarseille
p84
aVUCL
p85
aV2(2)
p86
aV196
p87
aV-
aV-
aV-
aV-
aV0.3
p88
aV80.2
p89
aV0.3
p90
aV-
aV6.42
p91
aa(lp92
V2013/2014
p93
aVLorient
p94
aVFL1
p95
aV4
aV311
p96
aV-
aV-
aV-
aV-
aV1.3
p97
aV82.2
p98
aV0.5
p99
aV-
aV6.83
p100
aa(lp101
V2013/2014
p102
aVMarseille
p103
aVFL1
p104
aV8(6)
p105
aV692
p106
aV-
aV-
aV2
aV-
aV0.1
p107
aV87.7
p108
aV0.6
p109
aV-
aV6.53
p110
aa(lp111
V2012/2013
p112
aVLorient
p113
aVFL1
p114
aV5(5)
p115
aV505
p116
aV-
aV-
aV2
aV-
aV0.5
p117
aV86.7
p118
aV0.5
p119
aV-
aV6.83
p120
aa(lp121
VTotal / Average
p122
aV
aV
aV135
p123
aV8202
p124
aV6
aV3
aV20
p125
aV2
aV0.7
p126
aV87.4
p127
aV0.7
p128
aV4
aV6.78
p129
aasS'url'
p130
S'https://www.whoscored.com/Players/123481/History/'
p131
sS'passing_data'
p132
(lp133
(lp134
a(lp135
V2018/2019
p136
aVSouthampton
p137
aVEPL
p138
aV15
p139
aV1326
p140
aV-
aV1
aV5
aV-
aV1.5
p141
aV86.3
p142
aV1.5
p143
aV-
aV6.93
p144
aa(lp145
V2017/2018
p146
aVSouthampton
p147
aVEPL
p148
aV20(5)
p149
aV1723
p150
aV1
aV1
aV2
aV-
aV0.9
p151
aV87.8
p152
aV1
aV3
aV6.93
p153
aa(lp154
V2016/2017
p155
aVJuventus
p156
aVISA
p157
aV8(11)
p158
aV896
p159
aV1
aV1
aV1
aV-
aV0.9
p160
aV90
p161
aV0.2
p162
aV-
aV6.66
p163
aa(lp164
V2016/2017
p165
aVJuventus
p166
aVUCL
p167
aV3(4)
p168
aV270
p169
aV-
aV-
aV1
aV1
aV0.9
p170
aV89.5
p171
aV0.3
p172
aV1
aV6.40
p173
aa(lp174
V2015/2016
p175
aVJuventus
p176
aVISA
p177
aV7(3)
p178
aV727
p179
aV2
aV-
aV4
aV-
aV0.5
p180
aV89.8
p181
aV0.7
p182
aV-
aV7.32
p183
aa(lp184
V2015/2016
p185
aVJuventus
p186
aVUCL
p187
aV0(1)
p188
aV3
aV-
aV-
aV-
aV-
aV-
aV-
aV-
aV-
aV6.56
p189
aa(lp190
V2015/2016
p191
aVMarseille
p192
aVFL1
p193
aV4
aV335
p194
aV-
aV-
aV1
aV-
aV1.5
p195
aV87.5
p196
aV1.8
p197
aV-
aV7.01
p198
aa(lp199
V2014/2015
p200
aVMarseille
p201
aVFL1
p202
aV13(9)
p203
aV1218
p204
aV2
aV-
aV2
aV1
aV0.4
p205
aV90
p206
aV0.5
p207
aV-
aV6.64
p208
aa(lp209
V2013/2014
p210
aVMarseille
p211
aVUCL
p212
aV2(2)
p213
aV196
p214
aV-
aV-
aV-
aV-
aV0.3
p215
aV80.2
p216
aV0.3
p217
aV-
aV6.42
p218
aa(lp219
V2013/2014
p220
aVLorient
p221
aVFL1
p222
aV4
aV311
p223
aV-
aV-
aV-
aV-
aV1.3
p224
aV82.2
p225
aV0.5
p226
aV-
aV6.83
p227
aa(lp228
V2013/2014
p229
aVMarseille
p230
aVFL1
p231
aV8(6)
p232
aV692
p233
aV-
aV-
aV2
aV-
aV0.1
p234
aV87.7
p235
aV0.6
p236
aV-
aV6.53
p237
aa(lp238
V2012/2013
p239
aVLorient
p240
aVFL1
p241
aV5(5)
p242
aV505
p243
aV-
aV-
aV2
aV-
aV0.5
p244
aV86.7
p245
aV0.5
p246
aV-
aV6.83
p247
aa(lp248
VTotal / Average
p249
aV
aV
aV135
p250
aV8202
p251
aV6
aV3
aV20
p252
aV2
aV0.7
p253
aV87.4
p254
aV0.7
p255
aV4
aV6.78
p256
aasS'defensive_data'
p257
(lp258
(lp259
a(lp260
V2018/2019
p261
aVSouthampton
p262
aVEPL
p263
aV15
p264
aV1326
p265
aV-
aV1
aV5
aV-
aV1.5
p266
aV86.3
p267
aV1.5
p268
aV-
aV6.93
p269
aa(lp270
V2017/2018
p271
aVSouthampton
p272
aVEPL
p273
aV20(5)
p274
aV1723
p275
aV1
aV1
aV2
aV-
aV0.9
p276
aV87.8
p277
aV1
aV3
aV6.93
p278
aa(lp279
V2016/2017
p280
aVJuventus
p281
aVISA
p282
aV8(11)
p283
aV896
p284
aV1
aV1
aV1
aV-
aV0.9
p285
aV90
p286
aV0.2
p287
aV-
aV6.66
p288
aa(lp289
V2016/2017
p290
aVJuventus
p291
aVUCL
p292
aV3(4)
p293
aV270
p294
aV-
aV-
aV1
aV1
aV0.9
p295
aV89.5
p296
aV0.3
p297
aV1
aV6.40
p298
aa(lp299
V2015/2016
p300
aVJuventus
p301
aVISA
p302
aV7(3)
p303
aV727
p304
aV2
aV-
aV4
aV-
aV0.5
p305
aV89.8
p306
aV0.7
p307
aV-
aV7.32
p308
aa(lp309
V2015/2016
p310
aVJuventus
p311
aVUCL
p312
aV0(1)
p313
aV3
aV-
aV-
aV-
aV-
aV-
aV-
aV-
aV-
aV6.56
p314
aa(lp315
V2015/2016
p316
aVMarseille
p317
aVFL1
p318
aV4
aV335
p319
aV-
aV-
aV1
aV-
aV1.5
p320
aV87.5
p321
aV1.8
p322
aV-
aV7.01
p323
aa(lp324
V2014/2015
p325
aVMarseille
p326
aVFL1
p327
aV13(9)
p328
aV1218
p329
aV2
aV-
aV2
aV1
aV0.4
p330
aV90
p331
aV0.5
p332
aV-
aV6.64
p333
aa(lp334
V2013/2014
p335
aVMarseille
p336
aVUCL
p337
aV2(2)
p338
aV196
p339
aV-
aV-
aV-
aV-
aV0.3
p340
aV80.2
p341
aV0.3
p342
aV-
aV6.42
p343
aa(lp344
V2013/2014
p345
aVLorient
p346
aVFL1
p347
aV4
aV311
p348
aV-
aV-
aV-
aV-
aV1.3
p349
aV82.2
p350
aV0.5
p351
aV-
aV6.83
p352
aa(lp353
V2013/2014
p354
aVMarseille
p355
aVFL1
p356
aV8(6)
p357
aV692
p358
aV-
aV-
aV2
aV-
aV0.1
p359
aV87.7
p360
aV0.6
p361
aV-
aV6.53
p362
aa(lp363
V2012/2013
p364
aVLorient
p365
aVFL1
p366
aV5(5)
p367
aV505
p368
aV-
aV-
aV2
aV-
aV0.5
p369
aV86.7
p370
aV0.5
p371
aV-
aV6.83
p372
aa(lp373
VTotal / Average
p374
aV
aV
aV135
p375
aV8202
p376
aV6
aV3
aV20
p377
aV2
aV0.7
p378
aV87.4
p379
aV0.7
p380
aV4
aV6.78
p381
aasS'sumary_data'
p382
(lp383
(lp384
a(lp385
V2018/2019
p386
aVSouthampton
p387
aVEPL
p388
aV15
p389
aV1326
p390
aV-
aV1
aV5
aV-
aV1.5
p391
aV86.3
p392
aV1.5
p393
aV-
aV6.93
p394
aa(lp395
V2017/2018
p396
aVSouthampton
p397
aVEPL
p398
aV20(5)
p399
aV1723
p400
aV1
aV1
aV2
aV-
aV0.9
p401
aV87.8
p402
aV1
aV3
aV6.93
p403
aa(lp404
V2016/2017
p405
aVJuventus
p406
aVISA
p407
aV8(11)
p408
aV896
p409
aV1
aV1
aV1
aV-
aV0.9
p410
aV90
p411
aV0.2
p412
aV-
aV6.66
p413
aa(lp414
V2016/2017
p415
aVJuventus
p416
aVUCL
p417
aV3(4)
p418
aV270
p419
aV-
aV-
aV1
aV1
aV0.9
p420
aV89.5
p421
aV0.3
p422
aV1
aV6.40
p423
aa(lp424
V2015/2016
p425
aVJuventus
p426
aVISA
p427
aV7(3)
p428
aV727
p429
aV2
aV-
aV4
aV-
aV0.5
p430
aV89.8
p431
aV0.7
p432
aV-
aV7.32
p433
aa(lp434
V2015/2016
p435
aVJuventus
p436
aVUCL
p437
aV0(1)
p438
aV3
aV-
aV-
aV-
aV-
aV-
aV-
aV-
aV-
aV6.56
p439
aa(lp440
V2015/2016
p441
aVMarseille
p442
aVFL1
p443
aV4
aV335
p444
aV-
aV-
aV1
aV-
aV1.5
p445
aV87.5
p446
aV1.8
p447
aV-
aV7.01
p448
aa(lp449
V2014/2015
p450
aVMarseille
p451
aVFL1
p452
aV13(9)
p453
aV1218
p454
aV2
aV-
aV2
aV1
aV0.4
p455
aV90
p456
aV0.5
p457
aV-
aV6.64
p458
aa(lp459
V2013/2014
p460
aVMarseille
p461
aVUCL
p462
aV2(2)
p463
aV196
p464
aV-
aV-
aV-
aV-
aV0.3
p465
aV80.2
p466
aV0.3
p467
aV-
aV6.42
p468
aa(lp469
V2013/2014
p470
aVLorient
p471
aVFL1
p472
aV4
aV311
p473
aV-
aV-
aV-
aV-
aV1.3
p474
aV82.2
p475
aV0.5
p476
aV-
aV6.83
p477
aa(lp478
V2013/2014
p479
aVMarseille
p480
aVFL1
p481
aV8(6)
p482
aV692
p483
aV-
aV-
aV2
aV-
aV0.1
p484
aV87.7
p485
aV0.6
p486
aV-
aV6.53
p487
aa(lp488
V2012/2013
p489
aVLorient
p490
aVFL1
p491
aV5(5)
p492
aV505
p493
aV-
aV-
aV2
aV-
aV0.5
p494
aV86.7
p495
aV0.5
p496
aV-
aV6.83
p497
aa(lp498
VTotal / Average
p499
aV
aV
aV135
p500
aV8202
p501
aV6
aV3
aV20
p502
aV2
aV0.7
p503
aV87.4
p504
aV0.7
p505
aV4
aV6.78
p506
aasS'id'
p507
V123481
p508
sb.