(i__main__
Player
p1
(dp2
S'name'
p3
VLeander Dendoncker 
p4
sS'offensive_data'
p5
(lp6
(lp7
a(lp8
V2018/2019
p9
aVWolverhampton..
p10
aVEPL
p11
aV0(1)
p12
aV9
aV-
aV-
aV-
aV-
aV-
aV100
p13
aV-
aV-
aV6.07
p14
aa(lp15
V2017/2018
p16
aVAnderlecht
p17
aVUCL
p18
aV6
aV540
p19
aV-
aV-
aV1
aV-
aV0.5
p20
aV89.6
p21
aV0.8
p22
aV-
aV6.10
p23
aa(lp24
V2016/2017
p25
aVAnderlecht
p26
aVUEL
p27
aV12
p28
aV1110
p29
aV1
aV-
aV2
aV-
aV1
aV85
p30
aV2.7
p31
aV-
aV7.25
p32
aa(lp33
V2018
p34
aVBelgium
p35
aVWC
p36
aV1
aV90
p37
aV-
aV-
aV1
aV-
aV-
aV91.4
p38
aV-
aV-
aV6.58
p39
aa(lp40
V2015/2016
p41
aVAnderlecht
p42
aVUEL
p43
aV6
aV547
p44
aV-
aV-
aV1
aV-
aV0.7
p45
aV82.9
p46
aV1.2
p47
aV-
aV6.78
p48
aa(lp49
V2014/2015
p50
aVAnderlecht
p51
aVUCL
p52
aV1(3)
p53
aV140
p54
aV-
aV-
aV-
aV-
aV-
aV83
p55
aV0.8
p56
aV-
aV6.43
p57
aa(lp58
V2014/2015
p59
aVAnderlecht
p60
aVUEL
p61
aV2
aV171
p62
aV-
aV-
aV-
aV-
aV1
aV80
p63
aV3
aV-
aV7.00
p64
aa(lp65
VTotal / Average
p66
aV
aV
aV32
p67
aV2607
p68
aV1
aV0
aV5
aV0
aV0.7
p69
aV85.6
p70
aV1.7
p71
aV0
aV6.77
p72
aasS'url'
p73
S'https://www.whoscored.com/Players/124106/History/'
p74
sS'passing_data'
p75
(lp76
(lp77
a(lp78
V2018/2019
p79
aVWolverhampton..
p80
aVEPL
p81
aV0(1)
p82
aV9
aV-
aV-
aV-
aV-
aV-
aV100
p83
aV-
aV-
aV6.07
p84
aa(lp85
V2017/2018
p86
aVAnderlecht
p87
aVUCL
p88
aV6
aV540
p89
aV-
aV-
aV1
aV-
aV0.5
p90
aV89.6
p91
aV0.8
p92
aV-
aV6.10
p93
aa(lp94
V2016/2017
p95
aVAnderlecht
p96
aVUEL
p97
aV12
p98
aV1110
p99
aV1
aV-
aV2
aV-
aV1
aV85
p100
aV2.7
p101
aV-
aV7.25
p102
aa(lp103
V2018
p104
aVBelgium
p105
aVWC
p106
aV1
aV90
p107
aV-
aV-
aV1
aV-
aV-
aV91.4
p108
aV-
aV-
aV6.58
p109
aa(lp110
V2015/2016
p111
aVAnderlecht
p112
aVUEL
p113
aV6
aV547
p114
aV-
aV-
aV1
aV-
aV0.7
p115
aV82.9
p116
aV1.2
p117
aV-
aV6.78
p118
aa(lp119
V2014/2015
p120
aVAnderlecht
p121
aVUCL
p122
aV1(3)
p123
aV140
p124
aV-
aV-
aV-
aV-
aV-
aV83
p125
aV0.8
p126
aV-
aV6.43
p127
aa(lp128
V2014/2015
p129
aVAnderlecht
p130
aVUEL
p131
aV2
aV171
p132
aV-
aV-
aV-
aV-
aV1
aV80
p133
aV3
aV-
aV7.00
p134
aa(lp135
VTotal / Average
p136
aV
aV
aV32
p137
aV2607
p138
aV1
aV0
aV5
aV0
aV0.7
p139
aV85.6
p140
aV1.7
p141
aV0
aV6.77
p142
aasS'defensive_data'
p143
(lp144
(lp145
a(lp146
V2018/2019
p147
aVWolverhampton..
p148
aVEPL
p149
aV0(1)
p150
aV9
aV-
aV-
aV-
aV-
aV-
aV100
p151
aV-
aV-
aV6.07
p152
aa(lp153
V2017/2018
p154
aVAnderlecht
p155
aVUCL
p156
aV6
aV540
p157
aV-
aV-
aV1
aV-
aV0.5
p158
aV89.6
p159
aV0.8
p160
aV-
aV6.10
p161
aa(lp162
V2016/2017
p163
aVAnderlecht
p164
aVUEL
p165
aV12
p166
aV1110
p167
aV1
aV-
aV2
aV-
aV1
aV85
p168
aV2.7
p169
aV-
aV7.25
p170
aa(lp171
V2018
p172
aVBelgium
p173
aVWC
p174
aV1
aV90
p175
aV-
aV-
aV1
aV-
aV-
aV91.4
p176
aV-
aV-
aV6.58
p177
aa(lp178
V2015/2016
p179
aVAnderlecht
p180
aVUEL
p181
aV6
aV547
p182
aV-
aV-
aV1
aV-
aV0.7
p183
aV82.9
p184
aV1.2
p185
aV-
aV6.78
p186
aa(lp187
V2014/2015
p188
aVAnderlecht
p189
aVUCL
p190
aV1(3)
p191
aV140
p192
aV-
aV-
aV-
aV-
aV-
aV83
p193
aV0.8
p194
aV-
aV6.43
p195
aa(lp196
V2014/2015
p197
aVAnderlecht
p198
aVUEL
p199
aV2
aV171
p200
aV-
aV-
aV-
aV-
aV1
aV80
p201
aV3
aV-
aV7.00
p202
aa(lp203
VTotal / Average
p204
aV
aV
aV32
p205
aV2607
p206
aV1
aV0
aV5
aV0
aV0.7
p207
aV85.6
p208
aV1.7
p209
aV0
aV6.77
p210
aasS'sumary_data'
p211
(lp212
(lp213
a(lp214
V2018/2019
p215
aVWolverhampton..
p216
aVEPL
p217
aV0(1)
p218
aV9
aV-
aV-
aV-
aV-
aV-
aV100
p219
aV-
aV-
aV6.07
p220
aa(lp221
V2017/2018
p222
aVAnderlecht
p223
aVUCL
p224
aV6
aV540
p225
aV-
aV-
aV1
aV-
aV0.5
p226
aV89.6
p227
aV0.8
p228
aV-
aV6.10
p229
aa(lp230
V2016/2017
p231
aVAnderlecht
p232
aVUEL
p233
aV12
p234
aV1110
p235
aV1
aV-
aV2
aV-
aV1
aV85
p236
aV2.7
p237
aV-
aV7.25
p238
aa(lp239
V2018
p240
aVBelgium
p241
aVWC
p242
aV1
aV90
p243
aV-
aV-
aV1
aV-
aV-
aV91.4
p244
aV-
aV-
aV6.58
p245
aa(lp246
V2015/2016
p247
aVAnderlecht
p248
aVUEL
p249
aV6
aV547
p250
aV-
aV-
aV1
aV-
aV0.7
p251
aV82.9
p252
aV1.2
p253
aV-
aV6.78
p254
aa(lp255
V2014/2015
p256
aVAnderlecht
p257
aVUCL
p258
aV1(3)
p259
aV140
p260
aV-
aV-
aV-
aV-
aV-
aV83
p261
aV0.8
p262
aV-
aV6.43
p263
aa(lp264
V2014/2015
p265
aVAnderlecht
p266
aVUEL
p267
aV2
aV171
p268
aV-
aV-
aV-
aV-
aV1
aV80
p269
aV3
aV-
aV7.00
p270
aa(lp271
VTotal / Average
p272
aV
aV
aV32
p273
aV2607
p274
aV1
aV0
aV5
aV0
aV0.7
p275
aV85.6
p276
aV1.7
p277
aV0
aV6.77
p278
aasS'id'
p279
V124106
p280
sb.