(i__main__
Player
p1
(dp2
S'name'
p3
VChristian Fuchs 
p4
sS'offensive_data'
p5
(lp6
(lp7
a(lp8
V2018/2019
p9
aVLeicester
p10
aVEPL
p11
aV1
aV90
p12
aV-
aV-
aV-
aV-
aV-
aV87.5
p13
aV-
aV-
aV6.68
p14
aa(lp15
V2017/2018
p16
aVLeicester
p17
aVEPL
p18
aV21(4)
p19
aV1918
p20
aV-
aV1
aV1
aV-
aV0.4
p21
aV74.1
p22
aV2.4
p23
aV2
aV6.81
p24
aa(lp25
V2016/2017
p26
aVLeicester
p27
aVUCL
p28
aV9
aV810
p29
aV-
aV1
aV1
aV-
aV0.4
p30
aV68.2
p31
aV1.8
p32
aV1
aV7.23
p33
aa(lp34
V2016/2017
p35
aVLeicester
p36
aVEPL
p37
aV35(1)
p38
aV3104
p39
aV2
aV4
aV10
p40
aV-
aV0.6
p41
aV72.3
p42
aV1.9
p43
aV2
aV7.05
p44
aa(lp45
V2015/2016
p46
aVLeicester
p47
aVEPL
p48
aV30(2)
p49
aV2710
p50
aV-
aV4
aV4
aV-
aV0.6
p51
aV72.4
p52
aV1.5
p53
aV4
aV7.50
p54
aa(lp55
V2014/2015
p56
aVSchalke 04
p57
aVGB
p58
aV20(5)
p59
aV1713
p60
aV2
aV4
aV3
aV-
aV0.6
p61
aV71.8
p62
aV3.5
p63
aV2
aV7.30
p64
aa(lp65
V2014/2015
p66
aVSchalke 04
p67
aVUCL
p68
aV5
aV438
p69
aV1
aV1
aV1
aV-
aV0.4
p70
aV78.3
p71
aV3.2
p72
aV1
aV7.73
p73
aa(lp74
V2016
p75
aVAustria
p76
aVUEC
p77
aV3
aV270
p78
aV-
aV-
aV1
aV-
aV1
aV70.4
p79
aV2.7
p80
aV-
aV6.94
p81
aa(lp82
V2013/2014
p83
aVSchalke 04
p84
aVUCL
p85
aV2(3)
p86
aV201
p87
aV-
aV2
aV1
aV-
aV0.8
p88
aV74.2
p89
aV0.8
p90
aV-
aV6.50
p91
aa(lp92
V2013/2014
p93
aVSchalke 04
p94
aVGB
p95
aV9(7)
p96
aV856
p97
aV-
aV2
aV1
aV1
aV0.4
p98
aV72
p99
aV3
aV-
aV6.86
p100
aa(lp101
V2012/2013
p102
aVSchalke 04
p103
aVGB
p104
aV23(6)
p105
aV2144
p106
aV-
aV5
aV7
aV-
aV0.7
p107
aV77.8
p108
aV1.3
p109
aV-
aV6.92
p110
aa(lp111
V2012/2013
p112
aVSchalke 04
p113
aVUCL
p114
aV5(1)
p115
aV495
p116
aV1
aV-
aV1
aV-
aV1.5
p117
aV78.2
p118
aV1.3
p119
aV1
aV7.47
p120
aa(lp121
V2011/2012
p122
aVSchalke 04
p123
aVGB
p124
aV29
p125
aV2610
p126
aV2
aV7
aV5
aV-
aV0.9
p127
aV76.3
p128
aV1.3
p129
aV1
aV7.58
p130
aa(lp131
V2010/2011
p132
aVMainz 05
p133
aVGB
p134
aV30(1)
p135
aV2649
p136
aV-
aV8
aV6
aV-
aV1.1
p137
aV71
p138
aV1.1
p139
aV2
aV7.43
p140
aa(lp141
V2009/2010
p142
aVBochum
p143
aVGB
p144
aV29(2)
p145
aV2594
p146
aV4
aV3
aV3
aV-
aV1.2
p147
aV71.8
p148
aV0.3
p149
aV2
aV6.90
p150
aa(lp151
VTotal / Average
p152
aV
aV
aV283
p153
aV22602
p154
aV12
p155
aV42
p156
aV45
p157
aV1
aV0.8
p158
aV73.3
p159
aV1.7
p160
aV18
p161
aV7.17
p162
aasS'url'
p163
S'https://www.whoscored.com/Players/12431/History/'
p164
sS'passing_data'
p165
(lp166
(lp167
a(lp168
V2018/2019
p169
aVLeicester
p170
aVEPL
p171
aV1
aV90
p172
aV-
aV-
aV-
aV-
aV-
aV87.5
p173
aV-
aV-
aV6.68
p174
aa(lp175
V2017/2018
p176
aVLeicester
p177
aVEPL
p178
aV21(4)
p179
aV1918
p180
aV-
aV1
aV1
aV-
aV0.4
p181
aV74.1
p182
aV2.4
p183
aV2
aV6.81
p184
aa(lp185
V2016/2017
p186
aVLeicester
p187
aVUCL
p188
aV9
aV810
p189
aV-
aV1
aV1
aV-
aV0.4
p190
aV68.2
p191
aV1.8
p192
aV1
aV7.23
p193
aa(lp194
V2016/2017
p195
aVLeicester
p196
aVEPL
p197
aV35(1)
p198
aV3104
p199
aV2
aV4
aV10
p200
aV-
aV0.6
p201
aV72.3
p202
aV1.9
p203
aV2
aV7.05
p204
aa(lp205
V2015/2016
p206
aVLeicester
p207
aVEPL
p208
aV30(2)
p209
aV2710
p210
aV-
aV4
aV4
aV-
aV0.6
p211
aV72.4
p212
aV1.5
p213
aV4
aV7.50
p214
aa(lp215
V2014/2015
p216
aVSchalke 04
p217
aVGB
p218
aV20(5)
p219
aV1713
p220
aV2
aV4
aV3
aV-
aV0.6
p221
aV71.8
p222
aV3.5
p223
aV2
aV7.30
p224
aa(lp225
V2014/2015
p226
aVSchalke 04
p227
aVUCL
p228
aV5
aV438
p229
aV1
aV1
aV1
aV-
aV0.4
p230
aV78.3
p231
aV3.2
p232
aV1
aV7.73
p233
aa(lp234
V2016
p235
aVAustria
p236
aVUEC
p237
aV3
aV270
p238
aV-
aV-
aV1
aV-
aV1
aV70.4
p239
aV2.7
p240
aV-
aV6.94
p241
aa(lp242
V2013/2014
p243
aVSchalke 04
p244
aVUCL
p245
aV2(3)
p246
aV201
p247
aV-
aV2
aV1
aV-
aV0.8
p248
aV74.2
p249
aV0.8
p250
aV-
aV6.50
p251
aa(lp252
V2013/2014
p253
aVSchalke 04
p254
aVGB
p255
aV9(7)
p256
aV856
p257
aV-
aV2
aV1
aV1
aV0.4
p258
aV72
p259
aV3
aV-
aV6.86
p260
aa(lp261
V2012/2013
p262
aVSchalke 04
p263
aVGB
p264
aV23(6)
p265
aV2144
p266
aV-
aV5
aV7
aV-
aV0.7
p267
aV77.8
p268
aV1.3
p269
aV-
aV6.92
p270
aa(lp271
V2012/2013
p272
aVSchalke 04
p273
aVUCL
p274
aV5(1)
p275
aV495
p276
aV1
aV-
aV1
aV-
aV1.5
p277
aV78.2
p278
aV1.3
p279
aV1
aV7.47
p280
aa(lp281
V2011/2012
p282
aVSchalke 04
p283
aVGB
p284
aV29
p285
aV2610
p286
aV2
aV7
aV5
aV-
aV0.9
p287
aV76.3
p288
aV1.3
p289
aV1
aV7.58
p290
aa(lp291
V2010/2011
p292
aVMainz 05
p293
aVGB
p294
aV30(1)
p295
aV2649
p296
aV-
aV8
aV6
aV-
aV1.1
p297
aV71
p298
aV1.1
p299
aV2
aV7.43
p300
aa(lp301
V2009/2010
p302
aVBochum
p303
aVGB
p304
aV29(2)
p305
aV2594
p306
aV4
aV3
aV3
aV-
aV1.2
p307
aV71.8
p308
aV0.3
p309
aV2
aV6.90
p310
aa(lp311
VTotal / Average
p312
aV
aV
aV283
p313
aV22602
p314
aV12
p315
aV42
p316
aV45
p317
aV1
aV0.8
p318
aV73.3
p319
aV1.7
p320
aV18
p321
aV7.17
p322
aasS'defensive_data'
p323
(lp324
(lp325
a(lp326
V2018/2019
p327
aVLeicester
p328
aVEPL
p329
aV1
aV90
p330
aV-
aV-
aV-
aV-
aV-
aV87.5
p331
aV-
aV-
aV6.68
p332
aa(lp333
V2017/2018
p334
aVLeicester
p335
aVEPL
p336
aV21(4)
p337
aV1918
p338
aV-
aV1
aV1
aV-
aV0.4
p339
aV74.1
p340
aV2.4
p341
aV2
aV6.81
p342
aa(lp343
V2016/2017
p344
aVLeicester
p345
aVUCL
p346
aV9
aV810
p347
aV-
aV1
aV1
aV-
aV0.4
p348
aV68.2
p349
aV1.8
p350
aV1
aV7.23
p351
aa(lp352
V2016/2017
p353
aVLeicester
p354
aVEPL
p355
aV35(1)
p356
aV3104
p357
aV2
aV4
aV10
p358
aV-
aV0.6
p359
aV72.3
p360
aV1.9
p361
aV2
aV7.05
p362
aa(lp363
V2015/2016
p364
aVLeicester
p365
aVEPL
p366
aV30(2)
p367
aV2710
p368
aV-
aV4
aV4
aV-
aV0.6
p369
aV72.4
p370
aV1.5
p371
aV4
aV7.50
p372
aa(lp373
V2014/2015
p374
aVSchalke 04
p375
aVGB
p376
aV20(5)
p377
aV1713
p378
aV2
aV4
aV3
aV-
aV0.6
p379
aV71.8
p380
aV3.5
p381
aV2
aV7.30
p382
aa(lp383
V2014/2015
p384
aVSchalke 04
p385
aVUCL
p386
aV5
aV438
p387
aV1
aV1
aV1
aV-
aV0.4
p388
aV78.3
p389
aV3.2
p390
aV1
aV7.73
p391
aa(lp392
V2016
p393
aVAustria
p394
aVUEC
p395
aV3
aV270
p396
aV-
aV-
aV1
aV-
aV1
aV70.4
p397
aV2.7
p398
aV-
aV6.94
p399
aa(lp400
V2013/2014
p401
aVSchalke 04
p402
aVUCL
p403
aV2(3)
p404
aV201
p405
aV-
aV2
aV1
aV-
aV0.8
p406
aV74.2
p407
aV0.8
p408
aV-
aV6.50
p409
aa(lp410
V2013/2014
p411
aVSchalke 04
p412
aVGB
p413
aV9(7)
p414
aV856
p415
aV-
aV2
aV1
aV1
aV0.4
p416
aV72
p417
aV3
aV-
aV6.86
p418
aa(lp419
V2012/2013
p420
aVSchalke 04
p421
aVGB
p422
aV23(6)
p423
aV2144
p424
aV-
aV5
aV7
aV-
aV0.7
p425
aV77.8
p426
aV1.3
p427
aV-
aV6.92
p428
aa(lp429
V2012/2013
p430
aVSchalke 04
p431
aVUCL
p432
aV5(1)
p433
aV495
p434
aV1
aV-
aV1
aV-
aV1.5
p435
aV78.2
p436
aV1.3
p437
aV1
aV7.47
p438
aa(lp439
V2011/2012
p440
aVSchalke 04
p441
aVGB
p442
aV29
p443
aV2610
p444
aV2
aV7
aV5
aV-
aV0.9
p445
aV76.3
p446
aV1.3
p447
aV1
aV7.58
p448
aa(lp449
V2010/2011
p450
aVMainz 05
p451
aVGB
p452
aV30(1)
p453
aV2649
p454
aV-
aV8
aV6
aV-
aV1.1
p455
aV71
p456
aV1.1
p457
aV2
aV7.43
p458
aa(lp459
V2009/2010
p460
aVBochum
p461
aVGB
p462
aV29(2)
p463
aV2594
p464
aV4
aV3
aV3
aV-
aV1.2
p465
aV71.8
p466
aV0.3
p467
aV2
aV6.90
p468
aa(lp469
VTotal / Average
p470
aV
aV
aV283
p471
aV22602
p472
aV12
p473
aV42
p474
aV45
p475
aV1
aV0.8
p476
aV73.3
p477
aV1.7
p478
aV18
p479
aV7.17
p480
aasS'sumary_data'
p481
(lp482
(lp483
a(lp484
V2018/2019
p485
aVLeicester
p486
aVEPL
p487
aV1
aV90
p488
aV-
aV-
aV-
aV-
aV-
aV87.5
p489
aV-
aV-
aV6.68
p490
aa(lp491
V2017/2018
p492
aVLeicester
p493
aVEPL
p494
aV21(4)
p495
aV1918
p496
aV-
aV1
aV1
aV-
aV0.4
p497
aV74.1
p498
aV2.4
p499
aV2
aV6.81
p500
aa(lp501
V2016/2017
p502
aVLeicester
p503
aVUCL
p504
aV9
aV810
p505
aV-
aV1
aV1
aV-
aV0.4
p506
aV68.2
p507
aV1.8
p508
aV1
aV7.23
p509
aa(lp510
V2016/2017
p511
aVLeicester
p512
aVEPL
p513
aV35(1)
p514
aV3104
p515
aV2
aV4
aV10
p516
aV-
aV0.6
p517
aV72.3
p518
aV1.9
p519
aV2
aV7.05
p520
aa(lp521
V2015/2016
p522
aVLeicester
p523
aVEPL
p524
aV30(2)
p525
aV2710
p526
aV-
aV4
aV4
aV-
aV0.6
p527
aV72.4
p528
aV1.5
p529
aV4
aV7.50
p530
aa(lp531
V2014/2015
p532
aVSchalke 04
p533
aVGB
p534
aV20(5)
p535
aV1713
p536
aV2
aV4
aV3
aV-
aV0.6
p537
aV71.8
p538
aV3.5
p539
aV2
aV7.30
p540
aa(lp541
V2014/2015
p542
aVSchalke 04
p543
aVUCL
p544
aV5
aV438
p545
aV1
aV1
aV1
aV-
aV0.4
p546
aV78.3
p547
aV3.2
p548
aV1
aV7.73
p549
aa(lp550
V2016
p551
aVAustria
p552
aVUEC
p553
aV3
aV270
p554
aV-
aV-
aV1
aV-
aV1
aV70.4
p555
aV2.7
p556
aV-
aV6.94
p557
aa(lp558
V2013/2014
p559
aVSchalke 04
p560
aVUCL
p561
aV2(3)
p562
aV201
p563
aV-
aV2
aV1
aV-
aV0.8
p564
aV74.2
p565
aV0.8
p566
aV-
aV6.50
p567
aa(lp568
V2013/2014
p569
aVSchalke 04
p570
aVGB
p571
aV9(7)
p572
aV856
p573
aV-
aV2
aV1
aV1
aV0.4
p574
aV72
p575
aV3
aV-
aV6.86
p576
aa(lp577
V2012/2013
p578
aVSchalke 04
p579
aVGB
p580
aV23(6)
p581
aV2144
p582
aV-
aV5
aV7
aV-
aV0.7
p583
aV77.8
p584
aV1.3
p585
aV-
aV6.92
p586
aa(lp587
V2012/2013
p588
aVSchalke 04
p589
aVUCL
p590
aV5(1)
p591
aV495
p592
aV1
aV-
aV1
aV-
aV1.5
p593
aV78.2
p594
aV1.3
p595
aV1
aV7.47
p596
aa(lp597
V2011/2012
p598
aVSchalke 04
p599
aVGB
p600
aV29
p601
aV2610
p602
aV2
aV7
aV5
aV-
aV0.9
p603
aV76.3
p604
aV1.3
p605
aV1
aV7.58
p606
aa(lp607
V2010/2011
p608
aVMainz 05
p609
aVGB
p610
aV30(1)
p611
aV2649
p612
aV-
aV8
aV6
aV-
aV1.1
p613
aV71
p614
aV1.1
p615
aV2
aV7.43
p616
aa(lp617
V2009/2010
p618
aVBochum
p619
aVGB
p620
aV29(2)
p621
aV2594
p622
aV4
aV3
aV3
aV-
aV1.2
p623
aV71.8
p624
aV0.3
p625
aV2
aV6.90
p626
aa(lp627
VTotal / Average
p628
aV
aV
aV283
p629
aV22602
p630
aV12
p631
aV42
p632
aV45
p633
aV1
aV0.8
p634
aV73.3
p635
aV1.7
p636
aV18
p637
aV7.17
p638
aasS'id'
p639
V12431
p640
sb.