(i__main__
Player
p1
(dp2
S'name'
p3
VCalum Chambers 
p4
sS'offensive_data'
p5
(lp6
(lp7
a(lp8
V2018/2019
p9
aVFulham
p10
aVEPL
p11
aV9(2)
p12
aV787
p13
aV-
aV-
aV2
aV-
aV1.2
p14
aV75.5
p15
aV1.6
p16
aV-
aV6.69
p17
aa(lp18
V2017/2018
p19
aVArsenal
p20
aVUEL
p21
aV5(3)
p22
aV600
p23
aV-
aV-
aV-
aV-
aV0.8
p24
aV85.6
p25
aV3.4
p26
aV-
aV7.03
p27
aa(lp28
V2017/2018
p29
aVArsenal
p30
aVEPL
p31
aV10(2)
p32
aV869
p33
aV-
aV-
aV1
aV-
aV0.8
p34
aV83.3
p35
aV2.3
p36
aV-
aV6.77
p37
aa(lp38
V2016/2017
p39
aVMiddlesbrough
p40
aVEPL
p41
aV24
p42
aV2160
p43
aV1
aV1
aV4
aV-
aV0.3
p44
aV78
p45
aV2.6
p46
aV1
aV7.05
p47
aa(lp48
V2016/2017
p49
aVArsenal
p50
aVEPL
p51
aV1
aV90
p52
aV1
aV-
aV-
aV-
aV2
aV82.4
p53
aV8
aV-
aV7.63
p54
aa(lp55
V2015/2016
p56
aVArsenal
p57
aVUCL
p58
aV0(3)
p59
aV12
p60
aV-
aV-
aV-
aV-
aV-
aV86.7
p61
aV-
aV-
aV6.07
p62
aa(lp63
V2015/2016
p64
aVArsenal
p65
aVEPL
p66
aV2(10)
p67
aV315
p68
aV-
aV-
aV2
aV-
aV0.2
p69
aV84
p70
aV1.1
p71
aV-
aV6.52
p72
aa(lp73
V2014/2015
p74
aVArsenal
p75
aVUCL
p76
aV5
aV450
p77
aV-
aV1
aV-
aV-
aV0.8
p78
aV83.6
p79
aV1.4
p80
aV-
aV7.34
p81
aa(lp82
V2014/2015
p83
aVArsenal
p84
aVEPL
p85
aV17(6)
p86
aV1571
p87
aV1
aV1
aV7
aV1
aV0.3
p88
aV82.8
p89
aV2
aV-
aV7.00
p90
aa(lp91
V2013/2014
p92
aVSouthampton
p93
aVEPL
p94
aV18(4)
p95
aV1641
p96
aV-
aV-
aV-
aV-
aV0.2
p97
aV79.5
p98
aV1.9
p99
aV-
aV6.85
p100
aa(lp101
VTotal / Average
p102
aV
aV
aV121
p103
aV8495
p104
aV3
aV3
aV16
p105
aV1
aV0.5
p106
aV81.1
p107
aV2.1
p108
aV1
aV6.88
p109
aasS'url'
p110
S'https://www.whoscored.com/Players/124316/History/'
p111
sS'passing_data'
p112
(lp113
(lp114
a(lp115
V2018/2019
p116
aVFulham
p117
aVEPL
p118
aV9(2)
p119
aV787
p120
aV-
aV-
aV2
aV-
aV1.2
p121
aV75.5
p122
aV1.6
p123
aV-
aV6.69
p124
aa(lp125
V2017/2018
p126
aVArsenal
p127
aVUEL
p128
aV5(3)
p129
aV600
p130
aV-
aV-
aV-
aV-
aV0.8
p131
aV85.6
p132
aV3.4
p133
aV-
aV7.03
p134
aa(lp135
V2017/2018
p136
aVArsenal
p137
aVEPL
p138
aV10(2)
p139
aV869
p140
aV-
aV-
aV1
aV-
aV0.8
p141
aV83.3
p142
aV2.3
p143
aV-
aV6.77
p144
aa(lp145
V2016/2017
p146
aVMiddlesbrough
p147
aVEPL
p148
aV24
p149
aV2160
p150
aV1
aV1
aV4
aV-
aV0.3
p151
aV78
p152
aV2.6
p153
aV1
aV7.05
p154
aa(lp155
V2016/2017
p156
aVArsenal
p157
aVEPL
p158
aV1
aV90
p159
aV1
aV-
aV-
aV-
aV2
aV82.4
p160
aV8
aV-
aV7.63
p161
aa(lp162
V2015/2016
p163
aVArsenal
p164
aVUCL
p165
aV0(3)
p166
aV12
p167
aV-
aV-
aV-
aV-
aV-
aV86.7
p168
aV-
aV-
aV6.07
p169
aa(lp170
V2015/2016
p171
aVArsenal
p172
aVEPL
p173
aV2(10)
p174
aV315
p175
aV-
aV-
aV2
aV-
aV0.2
p176
aV84
p177
aV1.1
p178
aV-
aV6.52
p179
aa(lp180
V2014/2015
p181
aVArsenal
p182
aVUCL
p183
aV5
aV450
p184
aV-
aV1
aV-
aV-
aV0.8
p185
aV83.6
p186
aV1.4
p187
aV-
aV7.34
p188
aa(lp189
V2014/2015
p190
aVArsenal
p191
aVEPL
p192
aV17(6)
p193
aV1571
p194
aV1
aV1
aV7
aV1
aV0.3
p195
aV82.8
p196
aV2
aV-
aV7.00
p197
aa(lp198
V2013/2014
p199
aVSouthampton
p200
aVEPL
p201
aV18(4)
p202
aV1641
p203
aV-
aV-
aV-
aV-
aV0.2
p204
aV79.5
p205
aV1.9
p206
aV-
aV6.85
p207
aa(lp208
VTotal / Average
p209
aV
aV
aV121
p210
aV8495
p211
aV3
aV3
aV16
p212
aV1
aV0.5
p213
aV81.1
p214
aV2.1
p215
aV1
aV6.88
p216
aasS'defensive_data'
p217
(lp218
(lp219
a(lp220
V2018/2019
p221
aVFulham
p222
aVEPL
p223
aV9(2)
p224
aV787
p225
aV-
aV-
aV2
aV-
aV1.2
p226
aV75.5
p227
aV1.6
p228
aV-
aV6.69
p229
aa(lp230
V2017/2018
p231
aVArsenal
p232
aVUEL
p233
aV5(3)
p234
aV600
p235
aV-
aV-
aV-
aV-
aV0.8
p236
aV85.6
p237
aV3.4
p238
aV-
aV7.03
p239
aa(lp240
V2017/2018
p241
aVArsenal
p242
aVEPL
p243
aV10(2)
p244
aV869
p245
aV-
aV-
aV1
aV-
aV0.8
p246
aV83.3
p247
aV2.3
p248
aV-
aV6.77
p249
aa(lp250
V2016/2017
p251
aVMiddlesbrough
p252
aVEPL
p253
aV24
p254
aV2160
p255
aV1
aV1
aV4
aV-
aV0.3
p256
aV78
p257
aV2.6
p258
aV1
aV7.05
p259
aa(lp260
V2016/2017
p261
aVArsenal
p262
aVEPL
p263
aV1
aV90
p264
aV1
aV-
aV-
aV-
aV2
aV82.4
p265
aV8
aV-
aV7.63
p266
aa(lp267
V2015/2016
p268
aVArsenal
p269
aVUCL
p270
aV0(3)
p271
aV12
p272
aV-
aV-
aV-
aV-
aV-
aV86.7
p273
aV-
aV-
aV6.07
p274
aa(lp275
V2015/2016
p276
aVArsenal
p277
aVEPL
p278
aV2(10)
p279
aV315
p280
aV-
aV-
aV2
aV-
aV0.2
p281
aV84
p282
aV1.1
p283
aV-
aV6.52
p284
aa(lp285
V2014/2015
p286
aVArsenal
p287
aVUCL
p288
aV5
aV450
p289
aV-
aV1
aV-
aV-
aV0.8
p290
aV83.6
p291
aV1.4
p292
aV-
aV7.34
p293
aa(lp294
V2014/2015
p295
aVArsenal
p296
aVEPL
p297
aV17(6)
p298
aV1571
p299
aV1
aV1
aV7
aV1
aV0.3
p300
aV82.8
p301
aV2
aV-
aV7.00
p302
aa(lp303
V2013/2014
p304
aVSouthampton
p305
aVEPL
p306
aV18(4)
p307
aV1641
p308
aV-
aV-
aV-
aV-
aV0.2
p309
aV79.5
p310
aV1.9
p311
aV-
aV6.85
p312
aa(lp313
VTotal / Average
p314
aV
aV
aV121
p315
aV8495
p316
aV3
aV3
aV16
p317
aV1
aV0.5
p318
aV81.1
p319
aV2.1
p320
aV1
aV6.88
p321
aasS'sumary_data'
p322
(lp323
(lp324
a(lp325
V2018/2019
p326
aVFulham
p327
aVEPL
p328
aV9(2)
p329
aV787
p330
aV-
aV-
aV2
aV-
aV1.2
p331
aV75.5
p332
aV1.6
p333
aV-
aV6.69
p334
aa(lp335
V2017/2018
p336
aVArsenal
p337
aVUEL
p338
aV5(3)
p339
aV600
p340
aV-
aV-
aV-
aV-
aV0.8
p341
aV85.6
p342
aV3.4
p343
aV-
aV7.03
p344
aa(lp345
V2017/2018
p346
aVArsenal
p347
aVEPL
p348
aV10(2)
p349
aV869
p350
aV-
aV-
aV1
aV-
aV0.8
p351
aV83.3
p352
aV2.3
p353
aV-
aV6.77
p354
aa(lp355
V2016/2017
p356
aVMiddlesbrough
p357
aVEPL
p358
aV24
p359
aV2160
p360
aV1
aV1
aV4
aV-
aV0.3
p361
aV78
p362
aV2.6
p363
aV1
aV7.05
p364
aa(lp365
V2016/2017
p366
aVArsenal
p367
aVEPL
p368
aV1
aV90
p369
aV1
aV-
aV-
aV-
aV2
aV82.4
p370
aV8
aV-
aV7.63
p371
aa(lp372
V2015/2016
p373
aVArsenal
p374
aVUCL
p375
aV0(3)
p376
aV12
p377
aV-
aV-
aV-
aV-
aV-
aV86.7
p378
aV-
aV-
aV6.07
p379
aa(lp380
V2015/2016
p381
aVArsenal
p382
aVEPL
p383
aV2(10)
p384
aV315
p385
aV-
aV-
aV2
aV-
aV0.2
p386
aV84
p387
aV1.1
p388
aV-
aV6.52
p389
aa(lp390
V2014/2015
p391
aVArsenal
p392
aVUCL
p393
aV5
aV450
p394
aV-
aV1
aV-
aV-
aV0.8
p395
aV83.6
p396
aV1.4
p397
aV-
aV7.34
p398
aa(lp399
V2014/2015
p400
aVArsenal
p401
aVEPL
p402
aV17(6)
p403
aV1571
p404
aV1
aV1
aV7
aV1
aV0.3
p405
aV82.8
p406
aV2
aV-
aV7.00
p407
aa(lp408
V2013/2014
p409
aVSouthampton
p410
aVEPL
p411
aV18(4)
p412
aV1641
p413
aV-
aV-
aV-
aV-
aV0.2
p414
aV79.5
p415
aV1.9
p416
aV-
aV6.85
p417
aa(lp418
VTotal / Average
p419
aV
aV
aV121
p420
aV8495
p421
aV3
aV3
aV16
p422
aV1
aV0.5
p423
aV81.1
p424
aV2.1
p425
aV1
aV6.88
p426
aasS'id'
p427
V124316
p428
sb.