(i__main__
Player
p1
(dp2
S'name'
p3
VMax Meyer 
p4
sS'offensive_data'
p5
(lp6
(lp7
a(lp8
V2018/2019
p9
aVCrystal Palac..
p10
aVEPL
p11
aV8(6)
p12
aV786
p13
aV-
aV2
aV2
aV-
aV1.6
p14
aV85.1
p15
aV0.1
p16
aV-
aV6.49
p17
aa(lp18
V2017/2018
p19
aVSchalke 04
p20
aVGB
p21
aV21(3)
p22
aV1733
p23
aV-
aV-
aV6
aV-
aV0.3
p24
aV89.1
p25
aV0.6
p26
aV-
aV6.77
p27
aa(lp28
V2016/2017
p29
aVSchalke 04
p30
aVGB
p31
aV18(9)
p32
aV1669
p33
aV1
aV1
aV4
aV-
aV1.1
p34
aV85
p35
aV0.3
p36
aV-
aV6.54
p37
aa(lp38
V2016/2017
p39
aVSchalke 04
p40
aVUEL
p41
aV7(2)
p42
aV648
p43
aV1
aV1
aV-
aV-
aV1.8
p44
aV85.2
p45
aV-
aV-
aV7.00
p46
aa(lp47
V2015/2016
p48
aVSchalke 04
p49
aVGB
p50
aV27(5)
p51
aV2324
p52
aV5
aV6
aV4
aV-
aV1.4
p53
aV85.2
p54
aV0.3
p55
aV1
aV6.81
p56
aa(lp57
V2015/2016
p58
aVSchalke 04
p59
aVUEL
p60
aV3(4)
p61
aV325
p62
aV1
aV2
aV-
aV-
aV1.6
p63
aV86.8
p64
aV0.1
p65
aV-
aV7.02
p66
aa(lp67
V2015
p68
aVGermany U21
p69
aVIEU
p70
aV3(1)
p71
aV293
p72
aV-
aV-
aV-
aV-
aV2.8
p73
aV85.2
p74
aV-
aV-
aV6.51
p75
aa(lp76
V2014/2015
p77
aVSchalke 04
p78
aVGB
p79
aV22(6)
p80
aV1855
p81
aV5
aV1
aV-
aV-
aV1.1
p82
aV82.4
p83
aV0.3
p84
aV1
aV6.70
p85
aa(lp86
V2014/2015
p87
aVSchalke 04
p88
aVUCL
p89
aV3(5)
p90
aV336
p91
aV1
aV-
aV-
aV-
aV0.9
p92
aV85.1
p93
aV0.1
p94
aV-
aV6.30
p95
aa(lp96
V2013/2014
p97
aVSchalke 04
p98
aVUCL
p99
aV6(1)
p100
aV528
p101
aV-
aV-
aV-
aV-
aV1
aV87.1
p102
aV-
aV-
aV6.26
p103
aa(lp104
V2013/2014
p105
aVSchalke 04
p106
aVGB
p107
aV21(9)
p108
aV1837
p109
aV6
aV3
aV3
aV-
aV1.1
p110
aV84.5
p111
aV0.3
p112
aV-
aV7.09
p113
aa(lp114
V2012/2013
p115
aVSchalke 04
p116
aVGB
p117
aV0(5)
p118
aV79
p119
aV-
aV1
aV-
aV-
aV0.2
p120
aV84.8
p121
aV-
aV-
aV6.18
p122
aa(lp123
V2012/2013
p124
aVSchalke 04
p125
aVUCL
p126
aV0(1)
p127
aV5
aV-
aV-
aV-
aV-
aV-
aV80
p128
aV-
aV-
aV5.94
p129
aa(lp130
VTotal / Average
p131
aV
aV
aV196
p132
aV12418
p133
aV20
p134
aV17
p135
aV19
p136
aV0
aV1.1
p137
aV85.2
p138
aV0.3
p139
aV2
aV6.72
p140
aasS'url'
p141
S'https://www.whoscored.com/Players/124598/History/'
p142
sS'passing_data'
p143
(lp144
(lp145
a(lp146
V2018/2019
p147
aVCrystal Palac..
p148
aVEPL
p149
aV8(6)
p150
aV786
p151
aV-
aV2
aV2
aV-
aV1.6
p152
aV85.1
p153
aV0.1
p154
aV-
aV6.49
p155
aa(lp156
V2017/2018
p157
aVSchalke 04
p158
aVGB
p159
aV21(3)
p160
aV1733
p161
aV-
aV-
aV6
aV-
aV0.3
p162
aV89.1
p163
aV0.6
p164
aV-
aV6.77
p165
aa(lp166
V2016/2017
p167
aVSchalke 04
p168
aVGB
p169
aV18(9)
p170
aV1669
p171
aV1
aV1
aV4
aV-
aV1.1
p172
aV85
p173
aV0.3
p174
aV-
aV6.54
p175
aa(lp176
V2016/2017
p177
aVSchalke 04
p178
aVUEL
p179
aV7(2)
p180
aV648
p181
aV1
aV1
aV-
aV-
aV1.8
p182
aV85.2
p183
aV-
aV-
aV7.00
p184
aa(lp185
V2015/2016
p186
aVSchalke 04
p187
aVGB
p188
aV27(5)
p189
aV2324
p190
aV5
aV6
aV4
aV-
aV1.4
p191
aV85.2
p192
aV0.3
p193
aV1
aV6.81
p194
aa(lp195
V2015/2016
p196
aVSchalke 04
p197
aVUEL
p198
aV3(4)
p199
aV325
p200
aV1
aV2
aV-
aV-
aV1.6
p201
aV86.8
p202
aV0.1
p203
aV-
aV7.02
p204
aa(lp205
V2015
p206
aVGermany U21
p207
aVIEU
p208
aV3(1)
p209
aV293
p210
aV-
aV-
aV-
aV-
aV2.8
p211
aV85.2
p212
aV-
aV-
aV6.51
p213
aa(lp214
V2014/2015
p215
aVSchalke 04
p216
aVGB
p217
aV22(6)
p218
aV1855
p219
aV5
aV1
aV-
aV-
aV1.1
p220
aV82.4
p221
aV0.3
p222
aV1
aV6.70
p223
aa(lp224
V2014/2015
p225
aVSchalke 04
p226
aVUCL
p227
aV3(5)
p228
aV336
p229
aV1
aV-
aV-
aV-
aV0.9
p230
aV85.1
p231
aV0.1
p232
aV-
aV6.30
p233
aa(lp234
V2013/2014
p235
aVSchalke 04
p236
aVUCL
p237
aV6(1)
p238
aV528
p239
aV-
aV-
aV-
aV-
aV1
aV87.1
p240
aV-
aV-
aV6.26
p241
aa(lp242
V2013/2014
p243
aVSchalke 04
p244
aVGB
p245
aV21(9)
p246
aV1837
p247
aV6
aV3
aV3
aV-
aV1.1
p248
aV84.5
p249
aV0.3
p250
aV-
aV7.09
p251
aa(lp252
V2012/2013
p253
aVSchalke 04
p254
aVGB
p255
aV0(5)
p256
aV79
p257
aV-
aV1
aV-
aV-
aV0.2
p258
aV84.8
p259
aV-
aV-
aV6.18
p260
aa(lp261
V2012/2013
p262
aVSchalke 04
p263
aVUCL
p264
aV0(1)
p265
aV5
aV-
aV-
aV-
aV-
aV-
aV80
p266
aV-
aV-
aV5.94
p267
aa(lp268
VTotal / Average
p269
aV
aV
aV196
p270
aV12418
p271
aV20
p272
aV17
p273
aV19
p274
aV0
aV1.1
p275
aV85.2
p276
aV0.3
p277
aV2
aV6.72
p278
aasS'defensive_data'
p279
(lp280
(lp281
a(lp282
V2018/2019
p283
aVCrystal Palac..
p284
aVEPL
p285
aV8(6)
p286
aV786
p287
aV-
aV2
aV2
aV-
aV1.6
p288
aV85.1
p289
aV0.1
p290
aV-
aV6.49
p291
aa(lp292
V2017/2018
p293
aVSchalke 04
p294
aVGB
p295
aV21(3)
p296
aV1733
p297
aV-
aV-
aV6
aV-
aV0.3
p298
aV89.1
p299
aV0.6
p300
aV-
aV6.77
p301
aa(lp302
V2016/2017
p303
aVSchalke 04
p304
aVGB
p305
aV18(9)
p306
aV1669
p307
aV1
aV1
aV4
aV-
aV1.1
p308
aV85
p309
aV0.3
p310
aV-
aV6.54
p311
aa(lp312
V2016/2017
p313
aVSchalke 04
p314
aVUEL
p315
aV7(2)
p316
aV648
p317
aV1
aV1
aV-
aV-
aV1.8
p318
aV85.2
p319
aV-
aV-
aV7.00
p320
aa(lp321
V2015/2016
p322
aVSchalke 04
p323
aVGB
p324
aV27(5)
p325
aV2324
p326
aV5
aV6
aV4
aV-
aV1.4
p327
aV85.2
p328
aV0.3
p329
aV1
aV6.81
p330
aa(lp331
V2015/2016
p332
aVSchalke 04
p333
aVUEL
p334
aV3(4)
p335
aV325
p336
aV1
aV2
aV-
aV-
aV1.6
p337
aV86.8
p338
aV0.1
p339
aV-
aV7.02
p340
aa(lp341
V2015
p342
aVGermany U21
p343
aVIEU
p344
aV3(1)
p345
aV293
p346
aV-
aV-
aV-
aV-
aV2.8
p347
aV85.2
p348
aV-
aV-
aV6.51
p349
aa(lp350
V2014/2015
p351
aVSchalke 04
p352
aVGB
p353
aV22(6)
p354
aV1855
p355
aV5
aV1
aV-
aV-
aV1.1
p356
aV82.4
p357
aV0.3
p358
aV1
aV6.70
p359
aa(lp360
V2014/2015
p361
aVSchalke 04
p362
aVUCL
p363
aV3(5)
p364
aV336
p365
aV1
aV-
aV-
aV-
aV0.9
p366
aV85.1
p367
aV0.1
p368
aV-
aV6.30
p369
aa(lp370
V2013/2014
p371
aVSchalke 04
p372
aVUCL
p373
aV6(1)
p374
aV528
p375
aV-
aV-
aV-
aV-
aV1
aV87.1
p376
aV-
aV-
aV6.26
p377
aa(lp378
V2013/2014
p379
aVSchalke 04
p380
aVGB
p381
aV21(9)
p382
aV1837
p383
aV6
aV3
aV3
aV-
aV1.1
p384
aV84.5
p385
aV0.3
p386
aV-
aV7.09
p387
aa(lp388
V2012/2013
p389
aVSchalke 04
p390
aVGB
p391
aV0(5)
p392
aV79
p393
aV-
aV1
aV-
aV-
aV0.2
p394
aV84.8
p395
aV-
aV-
aV6.18
p396
aa(lp397
V2012/2013
p398
aVSchalke 04
p399
aVUCL
p400
aV0(1)
p401
aV5
aV-
aV-
aV-
aV-
aV-
aV80
p402
aV-
aV-
aV5.94
p403
aa(lp404
VTotal / Average
p405
aV
aV
aV196
p406
aV12418
p407
aV20
p408
aV17
p409
aV19
p410
aV0
aV1.1
p411
aV85.2
p412
aV0.3
p413
aV2
aV6.72
p414
aasS'sumary_data'
p415
(lp416
(lp417
a(lp418
V2018/2019
p419
aVCrystal Palac..
p420
aVEPL
p421
aV8(6)
p422
aV786
p423
aV-
aV2
aV2
aV-
aV1.6
p424
aV85.1
p425
aV0.1
p426
aV-
aV6.49
p427
aa(lp428
V2017/2018
p429
aVSchalke 04
p430
aVGB
p431
aV21(3)
p432
aV1733
p433
aV-
aV-
aV6
aV-
aV0.3
p434
aV89.1
p435
aV0.6
p436
aV-
aV6.77
p437
aa(lp438
V2016/2017
p439
aVSchalke 04
p440
aVGB
p441
aV18(9)
p442
aV1669
p443
aV1
aV1
aV4
aV-
aV1.1
p444
aV85
p445
aV0.3
p446
aV-
aV6.54
p447
aa(lp448
V2016/2017
p449
aVSchalke 04
p450
aVUEL
p451
aV7(2)
p452
aV648
p453
aV1
aV1
aV-
aV-
aV1.8
p454
aV85.2
p455
aV-
aV-
aV7.00
p456
aa(lp457
V2015/2016
p458
aVSchalke 04
p459
aVGB
p460
aV27(5)
p461
aV2324
p462
aV5
aV6
aV4
aV-
aV1.4
p463
aV85.2
p464
aV0.3
p465
aV1
aV6.81
p466
aa(lp467
V2015/2016
p468
aVSchalke 04
p469
aVUEL
p470
aV3(4)
p471
aV325
p472
aV1
aV2
aV-
aV-
aV1.6
p473
aV86.8
p474
aV0.1
p475
aV-
aV7.02
p476
aa(lp477
V2015
p478
aVGermany U21
p479
aVIEU
p480
aV3(1)
p481
aV293
p482
aV-
aV-
aV-
aV-
aV2.8
p483
aV85.2
p484
aV-
aV-
aV6.51
p485
aa(lp486
V2014/2015
p487
aVSchalke 04
p488
aVGB
p489
aV22(6)
p490
aV1855
p491
aV5
aV1
aV-
aV-
aV1.1
p492
aV82.4
p493
aV0.3
p494
aV1
aV6.70
p495
aa(lp496
V2014/2015
p497
aVSchalke 04
p498
aVUCL
p499
aV3(5)
p500
aV336
p501
aV1
aV-
aV-
aV-
aV0.9
p502
aV85.1
p503
aV0.1
p504
aV-
aV6.30
p505
aa(lp506
V2013/2014
p507
aVSchalke 04
p508
aVUCL
p509
aV6(1)
p510
aV528
p511
aV-
aV-
aV-
aV-
aV1
aV87.1
p512
aV-
aV-
aV6.26
p513
aa(lp514
V2013/2014
p515
aVSchalke 04
p516
aVGB
p517
aV21(9)
p518
aV1837
p519
aV6
aV3
aV3
aV-
aV1.1
p520
aV84.5
p521
aV0.3
p522
aV-
aV7.09
p523
aa(lp524
V2012/2013
p525
aVSchalke 04
p526
aVGB
p527
aV0(5)
p528
aV79
p529
aV-
aV1
aV-
aV-
aV0.2
p530
aV84.8
p531
aV-
aV-
aV6.18
p532
aa(lp533
V2012/2013
p534
aVSchalke 04
p535
aVUCL
p536
aV0(1)
p537
aV5
aV-
aV-
aV-
aV-
aV-
aV80
p538
aV-
aV-
aV5.94
p539
aa(lp540
VTotal / Average
p541
aV
aV
aV196
p542
aV12418
p543
aV20
p544
aV17
p545
aV19
p546
aV0
aV1.1
p547
aV85.2
p548
aV0.3
p549
aV2
aV6.72
p550
aasS'id'
p551
V124598
p552
sb.