(i__main__
Player
p1
(dp2
S'name'
p3
VDivock Origi 
p4
sS'offensive_data'
p5
(lp6
(lp7
a(lp8
V2018/2019
p9
aVLiverpool
p10
aVEPL
p11
aV1(1)
p12
aV72
p13
aV1
aV1
aV-
aV-
aV1
aV78.6
p14
aV-
aV-
aV6.91
p15
aa(lp16
V2018/2019
p17
aVLiverpool
p18
aVUCL
p19
aV0(1)
p20
aV11
p21
aV-
aV-
aV-
aV-
aV-
aV100
p22
aV1
aV-
aV6.02
p23
aa(lp24
V2018/2019
p25
aVBelgium
p26
aVUNL
p27
aV0(1)
p28
aV1
aV-
aV-
aV-
aV-
aV-
aV100
p29
aV-
aV-
aV6.00
p30
aa(lp31
V2017/2018
p32
aVWolfsburg
p33
aVGB
p34
aV22(9)
p35
aV1966
p36
aV6
aV2
aV2
aV-
aV2
aV76.8
p37
aV1.5
p38
aV-
aV6.61
p39
aa(lp40
V2017/2018
p41
aVLiverpool
p42
aVEPL
p43
aV0(1)
p44
aV9
aV-
aV-
aV-
aV-
aV-
aV50
p45
aV-
aV-
aV5.80
p46
aa(lp47
V2016/2017
p48
aVLiverpool
p49
aVEPL
p50
aV14(20)
p51
aV1460
p52
aV7
aV3
aV-
aV-
aV1.1
p53
aV76.2
p54
aV0.9
p55
aV-
aV6.50
p56
aa(lp57
V2015/2016
p58
aVLiverpool
p59
aVUEL
p60
aV6(6)
p61
aV597
p62
aV2
aV1
aV1
aV-
aV1.6
p63
aV80
p64
aV0.8
p65
aV-
aV6.55
p66
aa(lp67
V2015/2016
p68
aVLiverpool
p69
aVEPL
p70
aV7(9)
p71
aV669
p72
aV5
aV1
aV-
aV-
aV1.5
p73
aV75
p74
aV0.4
p75
aV-
aV6.63
p76
aa(lp77
V2014/2015
p78
aVLille
p79
aVUEL
p80
aV5
aV445
p81
aV1
aV-
aV-
aV-
aV1.8
p82
aV72
p83
aV2
aV-
aV6.44
p84
aa(lp85
V2014/2015
p86
aVLille
p87
aVFL1
p88
aV22(11)
p89
aV2157
p90
aV8
aV3
aV-
aV-
aV1.6
p91
aV77
p92
aV1
aV2
aV6.73
p93
aa(lp94
V2016
p95
aVBelgium
p96
aVUEC
p97
aV0(2)
p98
aV18
p99
aV-
aV-
aV-
aV-
aV0.5
p100
aV-
aV-
aV-
aV5.87
p101
aa(lp102
V2013/2014
p103
aVLille
p104
aVFL1
p105
aV13(17)
p106
aV1275
p107
aV5
aV-
aV1
aV-
aV0.8
p108
aV79
p109
aV0.8
p110
aV-
aV6.52
p111
aa(lp112
V2014
p113
aVBelgium
p114
aVWC
p115
aV2(3)
p116
aV246
p117
aV1
aV-
aV-
aV-
aV2.2
p118
aV80
p119
aV1
aV-
aV6.87
p120
aa(lp121
V2012/2013
p122
aVLille
p123
aVFL1
p124
aV0(10)
p125
aV152
p126
aV1
aV-
aV-
aV-
aV0.1
p127
aV77.8
p128
aV0.1
p129
aV-
aV6.15
p130
aa(lp131
VTotal / Average
p132
aV
aV
aV183
p133
aV9078
p134
aV37
p135
aV11
p136
aV4
aV0
aV1.3
p137
aV76.4
p138
aV0.9
p139
aV2
aV6.55
p140
aasS'url'
p141
S'https://www.whoscored.com/Players/124688/History/'
p142
sS'passing_data'
p143
(lp144
(lp145
a(lp146
V2018/2019
p147
aVLiverpool
p148
aVEPL
p149
aV1(1)
p150
aV72
p151
aV1
aV1
aV-
aV-
aV1
aV78.6
p152
aV-
aV-
aV6.91
p153
aa(lp154
V2018/2019
p155
aVLiverpool
p156
aVUCL
p157
aV0(1)
p158
aV11
p159
aV-
aV-
aV-
aV-
aV-
aV100
p160
aV1
aV-
aV6.02
p161
aa(lp162
V2018/2019
p163
aVBelgium
p164
aVUNL
p165
aV0(1)
p166
aV1
aV-
aV-
aV-
aV-
aV-
aV100
p167
aV-
aV-
aV6.00
p168
aa(lp169
V2017/2018
p170
aVWolfsburg
p171
aVGB
p172
aV22(9)
p173
aV1966
p174
aV6
aV2
aV2
aV-
aV2
aV76.8
p175
aV1.5
p176
aV-
aV6.61
p177
aa(lp178
V2017/2018
p179
aVLiverpool
p180
aVEPL
p181
aV0(1)
p182
aV9
aV-
aV-
aV-
aV-
aV-
aV50
p183
aV-
aV-
aV5.80
p184
aa(lp185
V2016/2017
p186
aVLiverpool
p187
aVEPL
p188
aV14(20)
p189
aV1460
p190
aV7
aV3
aV-
aV-
aV1.1
p191
aV76.2
p192
aV0.9
p193
aV-
aV6.50
p194
aa(lp195
V2015/2016
p196
aVLiverpool
p197
aVUEL
p198
aV6(6)
p199
aV597
p200
aV2
aV1
aV1
aV-
aV1.6
p201
aV80
p202
aV0.8
p203
aV-
aV6.55
p204
aa(lp205
V2015/2016
p206
aVLiverpool
p207
aVEPL
p208
aV7(9)
p209
aV669
p210
aV5
aV1
aV-
aV-
aV1.5
p211
aV75
p212
aV0.4
p213
aV-
aV6.63
p214
aa(lp215
V2014/2015
p216
aVLille
p217
aVUEL
p218
aV5
aV445
p219
aV1
aV-
aV-
aV-
aV1.8
p220
aV72
p221
aV2
aV-
aV6.44
p222
aa(lp223
V2014/2015
p224
aVLille
p225
aVFL1
p226
aV22(11)
p227
aV2157
p228
aV8
aV3
aV-
aV-
aV1.6
p229
aV77
p230
aV1
aV2
aV6.73
p231
aa(lp232
V2016
p233
aVBelgium
p234
aVUEC
p235
aV0(2)
p236
aV18
p237
aV-
aV-
aV-
aV-
aV0.5
p238
aV-
aV-
aV-
aV5.87
p239
aa(lp240
V2013/2014
p241
aVLille
p242
aVFL1
p243
aV13(17)
p244
aV1275
p245
aV5
aV-
aV1
aV-
aV0.8
p246
aV79
p247
aV0.8
p248
aV-
aV6.52
p249
aa(lp250
V2014
p251
aVBelgium
p252
aVWC
p253
aV2(3)
p254
aV246
p255
aV1
aV-
aV-
aV-
aV2.2
p256
aV80
p257
aV1
aV-
aV6.87
p258
aa(lp259
V2012/2013
p260
aVLille
p261
aVFL1
p262
aV0(10)
p263
aV152
p264
aV1
aV-
aV-
aV-
aV0.1
p265
aV77.8
p266
aV0.1
p267
aV-
aV6.15
p268
aa(lp269
VTotal / Average
p270
aV
aV
aV183
p271
aV9078
p272
aV37
p273
aV11
p274
aV4
aV0
aV1.3
p275
aV76.4
p276
aV0.9
p277
aV2
aV6.55
p278
aasS'defensive_data'
p279
(lp280
(lp281
a(lp282
V2018/2019
p283
aVLiverpool
p284
aVEPL
p285
aV1(1)
p286
aV72
p287
aV1
aV1
aV-
aV-
aV1
aV78.6
p288
aV-
aV-
aV6.91
p289
aa(lp290
V2018/2019
p291
aVLiverpool
p292
aVUCL
p293
aV0(1)
p294
aV11
p295
aV-
aV-
aV-
aV-
aV-
aV100
p296
aV1
aV-
aV6.02
p297
aa(lp298
V2018/2019
p299
aVBelgium
p300
aVUNL
p301
aV0(1)
p302
aV1
aV-
aV-
aV-
aV-
aV-
aV100
p303
aV-
aV-
aV6.00
p304
aa(lp305
V2017/2018
p306
aVWolfsburg
p307
aVGB
p308
aV22(9)
p309
aV1966
p310
aV6
aV2
aV2
aV-
aV2
aV76.8
p311
aV1.5
p312
aV-
aV6.61
p313
aa(lp314
V2017/2018
p315
aVLiverpool
p316
aVEPL
p317
aV0(1)
p318
aV9
aV-
aV-
aV-
aV-
aV-
aV50
p319
aV-
aV-
aV5.80
p320
aa(lp321
V2016/2017
p322
aVLiverpool
p323
aVEPL
p324
aV14(20)
p325
aV1460
p326
aV7
aV3
aV-
aV-
aV1.1
p327
aV76.2
p328
aV0.9
p329
aV-
aV6.50
p330
aa(lp331
V2015/2016
p332
aVLiverpool
p333
aVUEL
p334
aV6(6)
p335
aV597
p336
aV2
aV1
aV1
aV-
aV1.6
p337
aV80
p338
aV0.8
p339
aV-
aV6.55
p340
aa(lp341
V2015/2016
p342
aVLiverpool
p343
aVEPL
p344
aV7(9)
p345
aV669
p346
aV5
aV1
aV-
aV-
aV1.5
p347
aV75
p348
aV0.4
p349
aV-
aV6.63
p350
aa(lp351
V2014/2015
p352
aVLille
p353
aVUEL
p354
aV5
aV445
p355
aV1
aV-
aV-
aV-
aV1.8
p356
aV72
p357
aV2
aV-
aV6.44
p358
aa(lp359
V2014/2015
p360
aVLille
p361
aVFL1
p362
aV22(11)
p363
aV2157
p364
aV8
aV3
aV-
aV-
aV1.6
p365
aV77
p366
aV1
aV2
aV6.73
p367
aa(lp368
V2016
p369
aVBelgium
p370
aVUEC
p371
aV0(2)
p372
aV18
p373
aV-
aV-
aV-
aV-
aV0.5
p374
aV-
aV-
aV-
aV5.87
p375
aa(lp376
V2013/2014
p377
aVLille
p378
aVFL1
p379
aV13(17)
p380
aV1275
p381
aV5
aV-
aV1
aV-
aV0.8
p382
aV79
p383
aV0.8
p384
aV-
aV6.52
p385
aa(lp386
V2014
p387
aVBelgium
p388
aVWC
p389
aV2(3)
p390
aV246
p391
aV1
aV-
aV-
aV-
aV2.2
p392
aV80
p393
aV1
aV-
aV6.87
p394
aa(lp395
V2012/2013
p396
aVLille
p397
aVFL1
p398
aV0(10)
p399
aV152
p400
aV1
aV-
aV-
aV-
aV0.1
p401
aV77.8
p402
aV0.1
p403
aV-
aV6.15
p404
aa(lp405
VTotal / Average
p406
aV
aV
aV183
p407
aV9078
p408
aV37
p409
aV11
p410
aV4
aV0
aV1.3
p411
aV76.4
p412
aV0.9
p413
aV2
aV6.55
p414
aasS'sumary_data'
p415
(lp416
(lp417
a(lp418
V2018/2019
p419
aVLiverpool
p420
aVEPL
p421
aV1(1)
p422
aV72
p423
aV1
aV1
aV-
aV-
aV1
aV78.6
p424
aV-
aV-
aV6.91
p425
aa(lp426
V2018/2019
p427
aVLiverpool
p428
aVUCL
p429
aV0(1)
p430
aV11
p431
aV-
aV-
aV-
aV-
aV-
aV100
p432
aV1
aV-
aV6.02
p433
aa(lp434
V2018/2019
p435
aVBelgium
p436
aVUNL
p437
aV0(1)
p438
aV1
aV-
aV-
aV-
aV-
aV-
aV100
p439
aV-
aV-
aV6.00
p440
aa(lp441
V2017/2018
p442
aVWolfsburg
p443
aVGB
p444
aV22(9)
p445
aV1966
p446
aV6
aV2
aV2
aV-
aV2
aV76.8
p447
aV1.5
p448
aV-
aV6.61
p449
aa(lp450
V2017/2018
p451
aVLiverpool
p452
aVEPL
p453
aV0(1)
p454
aV9
aV-
aV-
aV-
aV-
aV-
aV50
p455
aV-
aV-
aV5.80
p456
aa(lp457
V2016/2017
p458
aVLiverpool
p459
aVEPL
p460
aV14(20)
p461
aV1460
p462
aV7
aV3
aV-
aV-
aV1.1
p463
aV76.2
p464
aV0.9
p465
aV-
aV6.50
p466
aa(lp467
V2015/2016
p468
aVLiverpool
p469
aVUEL
p470
aV6(6)
p471
aV597
p472
aV2
aV1
aV1
aV-
aV1.6
p473
aV80
p474
aV0.8
p475
aV-
aV6.55
p476
aa(lp477
V2015/2016
p478
aVLiverpool
p479
aVEPL
p480
aV7(9)
p481
aV669
p482
aV5
aV1
aV-
aV-
aV1.5
p483
aV75
p484
aV0.4
p485
aV-
aV6.63
p486
aa(lp487
V2014/2015
p488
aVLille
p489
aVUEL
p490
aV5
aV445
p491
aV1
aV-
aV-
aV-
aV1.8
p492
aV72
p493
aV2
aV-
aV6.44
p494
aa(lp495
V2014/2015
p496
aVLille
p497
aVFL1
p498
aV22(11)
p499
aV2157
p500
aV8
aV3
aV-
aV-
aV1.6
p501
aV77
p502
aV1
aV2
aV6.73
p503
aa(lp504
V2016
p505
aVBelgium
p506
aVUEC
p507
aV0(2)
p508
aV18
p509
aV-
aV-
aV-
aV-
aV0.5
p510
aV-
aV-
aV-
aV5.87
p511
aa(lp512
V2013/2014
p513
aVLille
p514
aVFL1
p515
aV13(17)
p516
aV1275
p517
aV5
aV-
aV1
aV-
aV0.8
p518
aV79
p519
aV0.8
p520
aV-
aV6.52
p521
aa(lp522
V2014
p523
aVBelgium
p524
aVWC
p525
aV2(3)
p526
aV246
p527
aV1
aV-
aV-
aV-
aV2.2
p528
aV80
p529
aV1
aV-
aV6.87
p530
aa(lp531
V2012/2013
p532
aVLille
p533
aVFL1
p534
aV0(10)
p535
aV152
p536
aV1
aV-
aV-
aV-
aV0.1
p537
aV77.8
p538
aV0.1
p539
aV-
aV6.15
p540
aa(lp541
VTotal / Average
p542
aV
aV
aV183
p543
aV9078
p544
aV37
p545
aV11
p546
aV4
aV0
aV1.3
p547
aV76.4
p548
aV0.9
p549
aV2
aV6.55
p550
aasS'id'
p551
V124688
p552
sb.