(i__main__
Player
p1
(dp2
S'name'
p3
VLuciano Vietto 
p4
sS'offensive_data'
p5
(lp6
(lp7
a(lp8
V2018/2019
p9
aVFulham
p10
aVEPL
p11
aV8(4)
p12
aV646
p13
aV-
aV4
aV1
aV-
aV1.1
p14
aV80.5
p15
aV0.3
p16
aV-
aV6.50
p17
aa(lp18
V2017/2018
p19
aVAtletico Madr..
p20
aVSLL
p21
aV4(2)
p22
aV272
p23
aV-
aV-
aV1
aV-
aV1.3
p24
aV86.1
p25
aV0.2
p26
aV-
aV6.36
p27
aa(lp28
V2017/2018
p29
aVValencia
p30
aVSLL
p31
aV5(9)
p32
aV524
p33
aV2
aV1
aV1
aV-
aV0.4
p34
aV79.5
p35
aV0.2
p36
aV-
aV6.39
p37
aa(lp38
V2017/2018
p39
aVAtletico Madr..
p40
aVUCL
p41
aV1(1)
p42
aV69
p43
aV-
aV-
aV-
aV-
aV1
aV63.2
p44
aV-
aV-
aV6.22
p45
aa(lp46
V2016/2017
p47
aVSevilla
p48
aVSLL
p49
aV14(7)
p50
aV1313
p51
aV6
aV3
aV3
aV-
aV1.5
p52
aV80.8
p53
aV-
aV1
aV6.68
p54
aa(lp55
V2016/2017
p56
aVSevilla
p57
aVUCL
p58
aV4
aV291
p59
aV1
aV1
aV-
aV-
aV3
aV83.1
p60
aV0.3
p61
aV-
aV6.65
p62
aa(lp63
V2015/2016
p64
aVAtletico Madr..
p65
aVSLL
p66
aV12(7)
p67
aV966
p68
aV1
aV3
aV3
aV-
aV1.3
p69
aV79.7
p70
aV0.3
p71
aV-
aV6.48
p72
aa(lp73
V2015/2016
p74
aVAtletico Madr..
p75
aVUCL
p76
aV3(2)
p77
aV227
p78
aV1
aV1
aV-
aV-
aV1.6
p79
aV79.6
p80
aV0.4
p81
aV1
aV6.82
p82
aa(lp83
V2014/2015
p84
aVVillarreal
p85
aVSLL
p86
aV17(15)
p87
aV1895
p88
aV12
p89
aV2
aV5
aV-
aV2.4
p90
aV72.8
p91
aV0.3
p92
aV1
aV6.79
p93
aa(lp94
V2014/2015
p95
aVVillarreal
p96
aVUEL
p97
aV9(1)
p98
aV732
p99
aV6
aV4
aV1
aV-
aV3.1
p100
aV79.3
p101
aV0.9
p102
aV2
aV7.62
p103
aa(lp104
VTotal / Average
p105
aV
aV
aV125
p106
aV6935
p107
aV29
p108
aV19
p109
aV15
p110
aV0
aV1.7
p111
aV78.3
p112
aV0.3
p113
aV5
aV6.69
p114
aasS'url'
p115
S'https://www.whoscored.com/Players/125543/History/'
p116
sS'passing_data'
p117
(lp118
(lp119
a(lp120
V2018/2019
p121
aVFulham
p122
aVEPL
p123
aV8(4)
p124
aV646
p125
aV-
aV4
aV1
aV-
aV1.1
p126
aV80.5
p127
aV0.3
p128
aV-
aV6.50
p129
aa(lp130
V2017/2018
p131
aVAtletico Madr..
p132
aVSLL
p133
aV4(2)
p134
aV272
p135
aV-
aV-
aV1
aV-
aV1.3
p136
aV86.1
p137
aV0.2
p138
aV-
aV6.36
p139
aa(lp140
V2017/2018
p141
aVValencia
p142
aVSLL
p143
aV5(9)
p144
aV524
p145
aV2
aV1
aV1
aV-
aV0.4
p146
aV79.5
p147
aV0.2
p148
aV-
aV6.39
p149
aa(lp150
V2017/2018
p151
aVAtletico Madr..
p152
aVUCL
p153
aV1(1)
p154
aV69
p155
aV-
aV-
aV-
aV-
aV1
aV63.2
p156
aV-
aV-
aV6.22
p157
aa(lp158
V2016/2017
p159
aVSevilla
p160
aVSLL
p161
aV14(7)
p162
aV1313
p163
aV6
aV3
aV3
aV-
aV1.5
p164
aV80.8
p165
aV-
aV1
aV6.68
p166
aa(lp167
V2016/2017
p168
aVSevilla
p169
aVUCL
p170
aV4
aV291
p171
aV1
aV1
aV-
aV-
aV3
aV83.1
p172
aV0.3
p173
aV-
aV6.65
p174
aa(lp175
V2015/2016
p176
aVAtletico Madr..
p177
aVSLL
p178
aV12(7)
p179
aV966
p180
aV1
aV3
aV3
aV-
aV1.3
p181
aV79.7
p182
aV0.3
p183
aV-
aV6.48
p184
aa(lp185
V2015/2016
p186
aVAtletico Madr..
p187
aVUCL
p188
aV3(2)
p189
aV227
p190
aV1
aV1
aV-
aV-
aV1.6
p191
aV79.6
p192
aV0.4
p193
aV1
aV6.82
p194
aa(lp195
V2014/2015
p196
aVVillarreal
p197
aVSLL
p198
aV17(15)
p199
aV1895
p200
aV12
p201
aV2
aV5
aV-
aV2.4
p202
aV72.8
p203
aV0.3
p204
aV1
aV6.79
p205
aa(lp206
V2014/2015
p207
aVVillarreal
p208
aVUEL
p209
aV9(1)
p210
aV732
p211
aV6
aV4
aV1
aV-
aV3.1
p212
aV79.3
p213
aV0.9
p214
aV2
aV7.62
p215
aa(lp216
VTotal / Average
p217
aV
aV
aV125
p218
aV6935
p219
aV29
p220
aV19
p221
aV15
p222
aV0
aV1.7
p223
aV78.3
p224
aV0.3
p225
aV5
aV6.69
p226
aasS'defensive_data'
p227
(lp228
(lp229
a(lp230
V2018/2019
p231
aVFulham
p232
aVEPL
p233
aV8(4)
p234
aV646
p235
aV-
aV4
aV1
aV-
aV1.1
p236
aV80.5
p237
aV0.3
p238
aV-
aV6.50
p239
aa(lp240
V2017/2018
p241
aVAtletico Madr..
p242
aVSLL
p243
aV4(2)
p244
aV272
p245
aV-
aV-
aV1
aV-
aV1.3
p246
aV86.1
p247
aV0.2
p248
aV-
aV6.36
p249
aa(lp250
V2017/2018
p251
aVValencia
p252
aVSLL
p253
aV5(9)
p254
aV524
p255
aV2
aV1
aV1
aV-
aV0.4
p256
aV79.5
p257
aV0.2
p258
aV-
aV6.39
p259
aa(lp260
V2017/2018
p261
aVAtletico Madr..
p262
aVUCL
p263
aV1(1)
p264
aV69
p265
aV-
aV-
aV-
aV-
aV1
aV63.2
p266
aV-
aV-
aV6.22
p267
aa(lp268
V2016/2017
p269
aVSevilla
p270
aVSLL
p271
aV14(7)
p272
aV1313
p273
aV6
aV3
aV3
aV-
aV1.5
p274
aV80.8
p275
aV-
aV1
aV6.68
p276
aa(lp277
V2016/2017
p278
aVSevilla
p279
aVUCL
p280
aV4
aV291
p281
aV1
aV1
aV-
aV-
aV3
aV83.1
p282
aV0.3
p283
aV-
aV6.65
p284
aa(lp285
V2015/2016
p286
aVAtletico Madr..
p287
aVSLL
p288
aV12(7)
p289
aV966
p290
aV1
aV3
aV3
aV-
aV1.3
p291
aV79.7
p292
aV0.3
p293
aV-
aV6.48
p294
aa(lp295
V2015/2016
p296
aVAtletico Madr..
p297
aVUCL
p298
aV3(2)
p299
aV227
p300
aV1
aV1
aV-
aV-
aV1.6
p301
aV79.6
p302
aV0.4
p303
aV1
aV6.82
p304
aa(lp305
V2014/2015
p306
aVVillarreal
p307
aVSLL
p308
aV17(15)
p309
aV1895
p310
aV12
p311
aV2
aV5
aV-
aV2.4
p312
aV72.8
p313
aV0.3
p314
aV1
aV6.79
p315
aa(lp316
V2014/2015
p317
aVVillarreal
p318
aVUEL
p319
aV9(1)
p320
aV732
p321
aV6
aV4
aV1
aV-
aV3.1
p322
aV79.3
p323
aV0.9
p324
aV2
aV7.62
p325
aa(lp326
VTotal / Average
p327
aV
aV
aV125
p328
aV6935
p329
aV29
p330
aV19
p331
aV15
p332
aV0
aV1.7
p333
aV78.3
p334
aV0.3
p335
aV5
aV6.69
p336
aasS'sumary_data'
p337
(lp338
(lp339
a(lp340
V2018/2019
p341
aVFulham
p342
aVEPL
p343
aV8(4)
p344
aV646
p345
aV-
aV4
aV1
aV-
aV1.1
p346
aV80.5
p347
aV0.3
p348
aV-
aV6.50
p349
aa(lp350
V2017/2018
p351
aVAtletico Madr..
p352
aVSLL
p353
aV4(2)
p354
aV272
p355
aV-
aV-
aV1
aV-
aV1.3
p356
aV86.1
p357
aV0.2
p358
aV-
aV6.36
p359
aa(lp360
V2017/2018
p361
aVValencia
p362
aVSLL
p363
aV5(9)
p364
aV524
p365
aV2
aV1
aV1
aV-
aV0.4
p366
aV79.5
p367
aV0.2
p368
aV-
aV6.39
p369
aa(lp370
V2017/2018
p371
aVAtletico Madr..
p372
aVUCL
p373
aV1(1)
p374
aV69
p375
aV-
aV-
aV-
aV-
aV1
aV63.2
p376
aV-
aV-
aV6.22
p377
aa(lp378
V2016/2017
p379
aVSevilla
p380
aVSLL
p381
aV14(7)
p382
aV1313
p383
aV6
aV3
aV3
aV-
aV1.5
p384
aV80.8
p385
aV-
aV1
aV6.68
p386
aa(lp387
V2016/2017
p388
aVSevilla
p389
aVUCL
p390
aV4
aV291
p391
aV1
aV1
aV-
aV-
aV3
aV83.1
p392
aV0.3
p393
aV-
aV6.65
p394
aa(lp395
V2015/2016
p396
aVAtletico Madr..
p397
aVSLL
p398
aV12(7)
p399
aV966
p400
aV1
aV3
aV3
aV-
aV1.3
p401
aV79.7
p402
aV0.3
p403
aV-
aV6.48
p404
aa(lp405
V2015/2016
p406
aVAtletico Madr..
p407
aVUCL
p408
aV3(2)
p409
aV227
p410
aV1
aV1
aV-
aV-
aV1.6
p411
aV79.6
p412
aV0.4
p413
aV1
aV6.82
p414
aa(lp415
V2014/2015
p416
aVVillarreal
p417
aVSLL
p418
aV17(15)
p419
aV1895
p420
aV12
p421
aV2
aV5
aV-
aV2.4
p422
aV72.8
p423
aV0.3
p424
aV1
aV6.79
p425
aa(lp426
V2014/2015
p427
aVVillarreal
p428
aVUEL
p429
aV9(1)
p430
aV732
p431
aV6
aV4
aV1
aV-
aV3.1
p432
aV79.3
p433
aV0.9
p434
aV2
aV7.62
p435
aa(lp436
VTotal / Average
p437
aV
aV
aV125
p438
aV6935
p439
aV29
p440
aV19
p441
aV15
p442
aV0
aV1.7
p443
aV78.3
p444
aV0.3
p445
aV5
aV6.69
p446
aasS'id'
p447
V125543
p448
sb.