(i__main__
Player
p1
(dp2
S'name'
p3
VDeAndre Yedlin 
p4
sS'offensive_data'
p5
(lp6
(lp7
a(lp8
V2018/2019
p9
aVNewcastle Uni..
p10
aVEPL
p11
aV15
p12
aV1307
p13
aV1
aV1
aV3
aV1
aV0.3
p14
aV72.8
p15
aV1.3
p16
aV-
aV6.49
p17
aa(lp18
V2017/2018
p19
aVNewcastle Uni..
p20
aVEPL
p21
aV31(3)
p22
aV2842
p23
aV-
aV2
aV5
aV-
aV0.2
p24
aV75
p25
aV1.4
p26
aV-
aV6.75
p27
aa(lp28
V2016/2017
p29
aVNewcastle Uni..
p30
aVEC
p31
aV21(6)
p32
aV1921
p33
aV1
aV5
aV3
aV-
aV0.2
p34
aV78.6
p35
aV1.7
p36
aV1
aV7.05
p37
aa(lp38
V2015/2016
p39
aVSunderland
p40
aVEPL
p41
aV21(2)
p42
aV1813
p43
aV-
aV1
aV2
aV-
aV0.2
p44
aV67.6
p45
aV1
aV-
aV6.84
p46
aa(lp47
V2014/2015
p48
aVTottenham
p49
aVEPL
p50
aV0(1)
p51
aV11
p52
aV-
aV-
aV-
aV-
aV-
aV100
p53
aV-
aV-
aV6.11
p54
aa(lp55
V2014
p56
aVSeattle Sound..
p57
aVUMLS
p58
aV29
p59
aV2580
p60
aV-
aV2
aV5
aV-
aV0.2
p61
aV81.5
p62
aV0.7
p63
aV1
aV7.10
p64
aa(lp65
V2014
p66
aVUSA
p67
aVWC
p68
aV0(3)
p69
aV112
p70
aV-
aV-
aV-
aV-
aV0.3
p71
aV76.2
p72
aV1
aV-
aV6.55
p73
aa(lp74
V2013
p75
aVSeattle Sound..
p76
aVUMLS
p77
aV32(1)
p78
aV2847
p79
aV2
aV2
aV2
aV1
aV0.4
p80
aV74.5
p81
aV1.5
p82
aV1
aV7.09
p83
aa(lp84
VTotal / Average
p85
aV
aV
aV165
p86
aV13433
p87
aV4
aV13
p88
aV20
p89
aV2
aV0.3
p90
aV75.6
p91
aV1.3
p92
aV3
aV6.91
p93
aasS'url'
p94
S'https://www.whoscored.com/Players/126958/History/'
p95
sS'passing_data'
p96
(lp97
(lp98
a(lp99
V2018/2019
p100
aVNewcastle Uni..
p101
aVEPL
p102
aV15
p103
aV1307
p104
aV1
aV1
aV3
aV1
aV0.3
p105
aV72.8
p106
aV1.3
p107
aV-
aV6.49
p108
aa(lp109
V2017/2018
p110
aVNewcastle Uni..
p111
aVEPL
p112
aV31(3)
p113
aV2842
p114
aV-
aV2
aV5
aV-
aV0.2
p115
aV75
p116
aV1.4
p117
aV-
aV6.75
p118
aa(lp119
V2016/2017
p120
aVNewcastle Uni..
p121
aVEC
p122
aV21(6)
p123
aV1921
p124
aV1
aV5
aV3
aV-
aV0.2
p125
aV78.6
p126
aV1.7
p127
aV1
aV7.05
p128
aa(lp129
V2015/2016
p130
aVSunderland
p131
aVEPL
p132
aV21(2)
p133
aV1813
p134
aV-
aV1
aV2
aV-
aV0.2
p135
aV67.6
p136
aV1
aV-
aV6.84
p137
aa(lp138
V2014/2015
p139
aVTottenham
p140
aVEPL
p141
aV0(1)
p142
aV11
p143
aV-
aV-
aV-
aV-
aV-
aV100
p144
aV-
aV-
aV6.11
p145
aa(lp146
V2014
p147
aVSeattle Sound..
p148
aVUMLS
p149
aV29
p150
aV2580
p151
aV-
aV2
aV5
aV-
aV0.2
p152
aV81.5
p153
aV0.7
p154
aV1
aV7.10
p155
aa(lp156
V2014
p157
aVUSA
p158
aVWC
p159
aV0(3)
p160
aV112
p161
aV-
aV-
aV-
aV-
aV0.3
p162
aV76.2
p163
aV1
aV-
aV6.55
p164
aa(lp165
V2013
p166
aVSeattle Sound..
p167
aVUMLS
p168
aV32(1)
p169
aV2847
p170
aV2
aV2
aV2
aV1
aV0.4
p171
aV74.5
p172
aV1.5
p173
aV1
aV7.09
p174
aa(lp175
VTotal / Average
p176
aV
aV
aV165
p177
aV13433
p178
aV4
aV13
p179
aV20
p180
aV2
aV0.3
p181
aV75.6
p182
aV1.3
p183
aV3
aV6.91
p184
aasS'defensive_data'
p185
(lp186
(lp187
a(lp188
V2018/2019
p189
aVNewcastle Uni..
p190
aVEPL
p191
aV15
p192
aV1307
p193
aV1
aV1
aV3
aV1
aV0.3
p194
aV72.8
p195
aV1.3
p196
aV-
aV6.49
p197
aa(lp198
V2017/2018
p199
aVNewcastle Uni..
p200
aVEPL
p201
aV31(3)
p202
aV2842
p203
aV-
aV2
aV5
aV-
aV0.2
p204
aV75
p205
aV1.4
p206
aV-
aV6.75
p207
aa(lp208
V2016/2017
p209
aVNewcastle Uni..
p210
aVEC
p211
aV21(6)
p212
aV1921
p213
aV1
aV5
aV3
aV-
aV0.2
p214
aV78.6
p215
aV1.7
p216
aV1
aV7.05
p217
aa(lp218
V2015/2016
p219
aVSunderland
p220
aVEPL
p221
aV21(2)
p222
aV1813
p223
aV-
aV1
aV2
aV-
aV0.2
p224
aV67.6
p225
aV1
aV-
aV6.84
p226
aa(lp227
V2014/2015
p228
aVTottenham
p229
aVEPL
p230
aV0(1)
p231
aV11
p232
aV-
aV-
aV-
aV-
aV-
aV100
p233
aV-
aV-
aV6.11
p234
aa(lp235
V2014
p236
aVSeattle Sound..
p237
aVUMLS
p238
aV29
p239
aV2580
p240
aV-
aV2
aV5
aV-
aV0.2
p241
aV81.5
p242
aV0.7
p243
aV1
aV7.10
p244
aa(lp245
V2014
p246
aVUSA
p247
aVWC
p248
aV0(3)
p249
aV112
p250
aV-
aV-
aV-
aV-
aV0.3
p251
aV76.2
p252
aV1
aV-
aV6.55
p253
aa(lp254
V2013
p255
aVSeattle Sound..
p256
aVUMLS
p257
aV32(1)
p258
aV2847
p259
aV2
aV2
aV2
aV1
aV0.4
p260
aV74.5
p261
aV1.5
p262
aV1
aV7.09
p263
aa(lp264
VTotal / Average
p265
aV
aV
aV165
p266
aV13433
p267
aV4
aV13
p268
aV20
p269
aV2
aV0.3
p270
aV75.6
p271
aV1.3
p272
aV3
aV6.91
p273
aasS'sumary_data'
p274
(lp275
(lp276
a(lp277
V2018/2019
p278
aVNewcastle Uni..
p279
aVEPL
p280
aV15
p281
aV1307
p282
aV1
aV1
aV3
aV1
aV0.3
p283
aV72.8
p284
aV1.3
p285
aV-
aV6.49
p286
aa(lp287
V2017/2018
p288
aVNewcastle Uni..
p289
aVEPL
p290
aV31(3)
p291
aV2842
p292
aV-
aV2
aV5
aV-
aV0.2
p293
aV75
p294
aV1.4
p295
aV-
aV6.75
p296
aa(lp297
V2016/2017
p298
aVNewcastle Uni..
p299
aVEC
p300
aV21(6)
p301
aV1921
p302
aV1
aV5
aV3
aV-
aV0.2
p303
aV78.6
p304
aV1.7
p305
aV1
aV7.05
p306
aa(lp307
V2015/2016
p308
aVSunderland
p309
aVEPL
p310
aV21(2)
p311
aV1813
p312
aV-
aV1
aV2
aV-
aV0.2
p313
aV67.6
p314
aV1
aV-
aV6.84
p315
aa(lp316
V2014/2015
p317
aVTottenham
p318
aVEPL
p319
aV0(1)
p320
aV11
p321
aV-
aV-
aV-
aV-
aV-
aV100
p322
aV-
aV-
aV6.11
p323
aa(lp324
V2014
p325
aVSeattle Sound..
p326
aVUMLS
p327
aV29
p328
aV2580
p329
aV-
aV2
aV5
aV-
aV0.2
p330
aV81.5
p331
aV0.7
p332
aV1
aV7.10
p333
aa(lp334
V2014
p335
aVUSA
p336
aVWC
p337
aV0(3)
p338
aV112
p339
aV-
aV-
aV-
aV-
aV0.3
p340
aV76.2
p341
aV1
aV-
aV6.55
p342
aa(lp343
V2013
p344
aVSeattle Sound..
p345
aVUMLS
p346
aV32(1)
p347
aV2847
p348
aV2
aV2
aV2
aV1
aV0.4
p349
aV74.5
p350
aV1.5
p351
aV1
aV7.09
p352
aa(lp353
VTotal / Average
p354
aV
aV
aV165
p355
aV13433
p356
aV4
aV13
p357
aV20
p358
aV2
aV0.3
p359
aV75.6
p360
aV1.3
p361
aV3
aV6.91
p362
aasS'id'
p363
V126958
p364
sb.