(i__main__
Player
p1
(dp2
S'name'
p3
VAndreas Christensen 
p4
sS'offensive_data'
p5
(lp6
(lp7
a(lp8
V2018/2019
p9
aVChelsea
p10
aVEPL
p11
aV1
aV90
p12
aV-
aV-
aV1
aV-
aV-
aV93.7
p13
aV2
aV-
aV6.38
p14
aa(lp15
V2018/2019
p16
aVChelsea
p17
aVUEL
p18
aV6
aV540
p19
aV-
aV-
aV-
aV-
aV0.5
p20
aV93.5
p21
aV3.2
p22
aV-
aV7.05
p23
aa(lp24
V2018/2019
p25
aVDenmark
p26
aVUNL
p27
aV1(1)
p28
aV101
p29
aV-
aV-
aV-
aV-
aV-
aV94.5
p30
aV2.5
p31
aV-
aV6.60
p32
aa(lp33
V2017/2018
p34
aVChelsea
p35
aVUCL
p36
aV5(1)
p37
aV454
p38
aV-
aV-
aV-
aV-
aV0.3
p39
aV94.7
p40
aV1
aV-
aV6.45
p41
aa(lp42
V2017/2018
p43
aVChelsea
p44
aVEPL
p45
aV23(4)
p46
aV2071
p47
aV-
aV-
aV-
aV-
aV0.4
p48
aV93.4
p49
aV2.1
p50
aV-
aV6.80
p51
aa(lp52
V2016/2017
p53
aVBorussia M.Gl..
p54
aVGB
p55
aV31
p56
aV2782
p57
aV2
aV-
aV1
aV-
aV0.4
p58
aV91.5
p59
aV2.7
p60
aV1
aV7.01
p61
aa(lp62
V2016/2017
p63
aVBorussia M.Gl..
p64
aVUCL
p65
aV4
aV360
p66
aV-
aV-
aV-
aV-
aV-
aV88.3
p67
aV0.5
p68
aV-
aV6.50
p69
aa(lp70
V2016/2017
p71
aVBorussia M.Gl..
p72
aVUEL
p73
aV3
aV270
p74
aV2
aV-
aV-
aV-
aV1.3
p75
aV90.7
p76
aV2.7
p77
aV1
aV7.61
p78
aa(lp79
V2018
p80
aVDenmark
p81
aVWC
p82
aV4
aV307
p83
aV-
aV-
aV-
aV-
aV-
aV93.1
p84
aV1
aV-
aV6.68
p85
aa(lp86
V2015/2016
p87
aVBorussia M.Gl..
p88
aVGB
p89
aV31
p90
aV2790
p91
aV3
aV1
aV1
aV-
aV0.5
p92
aV87.6
p93
aV2.9
p94
aV-
aV7.08
p95
aa(lp96
V2015/2016
p97
aVBorussia M.Gl..
p98
aVUCL
p99
aV5
aV450
p100
aV-
aV-
aV-
aV-
aV-
aV87.1
p101
aV2
aV-
aV7.10
p102
aa(lp103
V2015
p104
aVDenmark U21
p105
aVIEU
p106
aV4
aV360
p107
aV-
aV1
aV1
aV-
aV0.3
p108
aV89.8
p109
aV1.5
p110
aV-
aV6.67
p111
aa(lp112
V2014/2015
p113
aVChelsea
p114
aVEPL
p115
aV0(1)
p116
aV12
p117
aV-
aV-
aV-
aV-
aV-
aV100
p118
aV-
aV-
aV6.08
p119
aa(lp120
VTotal / Average
p121
aV
aV
aV125
p122
aV10587
p123
aV7
aV2
aV4
aV0
aV0.4
p124
aV91
p125
aV2.4
p126
aV2
aV6.92
p127
aasS'url'
p128
S'https://www.whoscored.com/Players/130331/History/'
p129
sS'passing_data'
p130
(lp131
(lp132
a(lp133
V2018/2019
p134
aVChelsea
p135
aVEPL
p136
aV1
aV90
p137
aV-
aV-
aV1
aV-
aV-
aV93.7
p138
aV2
aV-
aV6.38
p139
aa(lp140
V2018/2019
p141
aVChelsea
p142
aVUEL
p143
aV6
aV540
p144
aV-
aV-
aV-
aV-
aV0.5
p145
aV93.5
p146
aV3.2
p147
aV-
aV7.05
p148
aa(lp149
V2018/2019
p150
aVDenmark
p151
aVUNL
p152
aV1(1)
p153
aV101
p154
aV-
aV-
aV-
aV-
aV-
aV94.5
p155
aV2.5
p156
aV-
aV6.60
p157
aa(lp158
V2017/2018
p159
aVChelsea
p160
aVUCL
p161
aV5(1)
p162
aV454
p163
aV-
aV-
aV-
aV-
aV0.3
p164
aV94.7
p165
aV1
aV-
aV6.45
p166
aa(lp167
V2017/2018
p168
aVChelsea
p169
aVEPL
p170
aV23(4)
p171
aV2071
p172
aV-
aV-
aV-
aV-
aV0.4
p173
aV93.4
p174
aV2.1
p175
aV-
aV6.80
p176
aa(lp177
V2016/2017
p178
aVBorussia M.Gl..
p179
aVGB
p180
aV31
p181
aV2782
p182
aV2
aV-
aV1
aV-
aV0.4
p183
aV91.5
p184
aV2.7
p185
aV1
aV7.01
p186
aa(lp187
V2016/2017
p188
aVBorussia M.Gl..
p189
aVUCL
p190
aV4
aV360
p191
aV-
aV-
aV-
aV-
aV-
aV88.3
p192
aV0.5
p193
aV-
aV6.50
p194
aa(lp195
V2016/2017
p196
aVBorussia M.Gl..
p197
aVUEL
p198
aV3
aV270
p199
aV2
aV-
aV-
aV-
aV1.3
p200
aV90.7
p201
aV2.7
p202
aV1
aV7.61
p203
aa(lp204
V2018
p205
aVDenmark
p206
aVWC
p207
aV4
aV307
p208
aV-
aV-
aV-
aV-
aV-
aV93.1
p209
aV1
aV-
aV6.68
p210
aa(lp211
V2015/2016
p212
aVBorussia M.Gl..
p213
aVGB
p214
aV31
p215
aV2790
p216
aV3
aV1
aV1
aV-
aV0.5
p217
aV87.6
p218
aV2.9
p219
aV-
aV7.08
p220
aa(lp221
V2015/2016
p222
aVBorussia M.Gl..
p223
aVUCL
p224
aV5
aV450
p225
aV-
aV-
aV-
aV-
aV-
aV87.1
p226
aV2
aV-
aV7.10
p227
aa(lp228
V2015
p229
aVDenmark U21
p230
aVIEU
p231
aV4
aV360
p232
aV-
aV1
aV1
aV-
aV0.3
p233
aV89.8
p234
aV1.5
p235
aV-
aV6.67
p236
aa(lp237
V2014/2015
p238
aVChelsea
p239
aVEPL
p240
aV0(1)
p241
aV12
p242
aV-
aV-
aV-
aV-
aV-
aV100
p243
aV-
aV-
aV6.08
p244
aa(lp245
VTotal / Average
p246
aV
aV
aV125
p247
aV10587
p248
aV7
aV2
aV4
aV0
aV0.4
p249
aV91
p250
aV2.4
p251
aV2
aV6.92
p252
aasS'defensive_data'
p253
(lp254
(lp255
a(lp256
V2018/2019
p257
aVChelsea
p258
aVEPL
p259
aV1
aV90
p260
aV-
aV-
aV1
aV-
aV-
aV93.7
p261
aV2
aV-
aV6.38
p262
aa(lp263
V2018/2019
p264
aVChelsea
p265
aVUEL
p266
aV6
aV540
p267
aV-
aV-
aV-
aV-
aV0.5
p268
aV93.5
p269
aV3.2
p270
aV-
aV7.05
p271
aa(lp272
V2018/2019
p273
aVDenmark
p274
aVUNL
p275
aV1(1)
p276
aV101
p277
aV-
aV-
aV-
aV-
aV-
aV94.5
p278
aV2.5
p279
aV-
aV6.60
p280
aa(lp281
V2017/2018
p282
aVChelsea
p283
aVUCL
p284
aV5(1)
p285
aV454
p286
aV-
aV-
aV-
aV-
aV0.3
p287
aV94.7
p288
aV1
aV-
aV6.45
p289
aa(lp290
V2017/2018
p291
aVChelsea
p292
aVEPL
p293
aV23(4)
p294
aV2071
p295
aV-
aV-
aV-
aV-
aV0.4
p296
aV93.4
p297
aV2.1
p298
aV-
aV6.80
p299
aa(lp300
V2016/2017
p301
aVBorussia M.Gl..
p302
aVGB
p303
aV31
p304
aV2782
p305
aV2
aV-
aV1
aV-
aV0.4
p306
aV91.5
p307
aV2.7
p308
aV1
aV7.01
p309
aa(lp310
V2016/2017
p311
aVBorussia M.Gl..
p312
aVUCL
p313
aV4
aV360
p314
aV-
aV-
aV-
aV-
aV-
aV88.3
p315
aV0.5
p316
aV-
aV6.50
p317
aa(lp318
V2016/2017
p319
aVBorussia M.Gl..
p320
aVUEL
p321
aV3
aV270
p322
aV2
aV-
aV-
aV-
aV1.3
p323
aV90.7
p324
aV2.7
p325
aV1
aV7.61
p326
aa(lp327
V2018
p328
aVDenmark
p329
aVWC
p330
aV4
aV307
p331
aV-
aV-
aV-
aV-
aV-
aV93.1
p332
aV1
aV-
aV6.68
p333
aa(lp334
V2015/2016
p335
aVBorussia M.Gl..
p336
aVGB
p337
aV31
p338
aV2790
p339
aV3
aV1
aV1
aV-
aV0.5
p340
aV87.6
p341
aV2.9
p342
aV-
aV7.08
p343
aa(lp344
V2015/2016
p345
aVBorussia M.Gl..
p346
aVUCL
p347
aV5
aV450
p348
aV-
aV-
aV-
aV-
aV-
aV87.1
p349
aV2
aV-
aV7.10
p350
aa(lp351
V2015
p352
aVDenmark U21
p353
aVIEU
p354
aV4
aV360
p355
aV-
aV1
aV1
aV-
aV0.3
p356
aV89.8
p357
aV1.5
p358
aV-
aV6.67
p359
aa(lp360
V2014/2015
p361
aVChelsea
p362
aVEPL
p363
aV0(1)
p364
aV12
p365
aV-
aV-
aV-
aV-
aV-
aV100
p366
aV-
aV-
aV6.08
p367
aa(lp368
VTotal / Average
p369
aV
aV
aV125
p370
aV10587
p371
aV7
aV2
aV4
aV0
aV0.4
p372
aV91
p373
aV2.4
p374
aV2
aV6.92
p375
aasS'sumary_data'
p376
(lp377
(lp378
a(lp379
V2018/2019
p380
aVChelsea
p381
aVEPL
p382
aV1
aV90
p383
aV-
aV-
aV1
aV-
aV-
aV93.7
p384
aV2
aV-
aV6.38
p385
aa(lp386
V2018/2019
p387
aVChelsea
p388
aVUEL
p389
aV6
aV540
p390
aV-
aV-
aV-
aV-
aV0.5
p391
aV93.5
p392
aV3.2
p393
aV-
aV7.05
p394
aa(lp395
V2018/2019
p396
aVDenmark
p397
aVUNL
p398
aV1(1)
p399
aV101
p400
aV-
aV-
aV-
aV-
aV-
aV94.5
p401
aV2.5
p402
aV-
aV6.60
p403
aa(lp404
V2017/2018
p405
aVChelsea
p406
aVUCL
p407
aV5(1)
p408
aV454
p409
aV-
aV-
aV-
aV-
aV0.3
p410
aV94.7
p411
aV1
aV-
aV6.45
p412
aa(lp413
V2017/2018
p414
aVChelsea
p415
aVEPL
p416
aV23(4)
p417
aV2071
p418
aV-
aV-
aV-
aV-
aV0.4
p419
aV93.4
p420
aV2.1
p421
aV-
aV6.80
p422
aa(lp423
V2016/2017
p424
aVBorussia M.Gl..
p425
aVGB
p426
aV31
p427
aV2782
p428
aV2
aV-
aV1
aV-
aV0.4
p429
aV91.5
p430
aV2.7
p431
aV1
aV7.01
p432
aa(lp433
V2016/2017
p434
aVBorussia M.Gl..
p435
aVUCL
p436
aV4
aV360
p437
aV-
aV-
aV-
aV-
aV-
aV88.3
p438
aV0.5
p439
aV-
aV6.50
p440
aa(lp441
V2016/2017
p442
aVBorussia M.Gl..
p443
aVUEL
p444
aV3
aV270
p445
aV2
aV-
aV-
aV-
aV1.3
p446
aV90.7
p447
aV2.7
p448
aV1
aV7.61
p449
aa(lp450
V2018
p451
aVDenmark
p452
aVWC
p453
aV4
aV307
p454
aV-
aV-
aV-
aV-
aV-
aV93.1
p455
aV1
aV-
aV6.68
p456
aa(lp457
V2015/2016
p458
aVBorussia M.Gl..
p459
aVGB
p460
aV31
p461
aV2790
p462
aV3
aV1
aV1
aV-
aV0.5
p463
aV87.6
p464
aV2.9
p465
aV-
aV7.08
p466
aa(lp467
V2015/2016
p468
aVBorussia M.Gl..
p469
aVUCL
p470
aV5
aV450
p471
aV-
aV-
aV-
aV-
aV-
aV87.1
p472
aV2
aV-
aV7.10
p473
aa(lp474
V2015
p475
aVDenmark U21
p476
aVIEU
p477
aV4
aV360
p478
aV-
aV1
aV1
aV-
aV0.3
p479
aV89.8
p480
aV1.5
p481
aV-
aV6.67
p482
aa(lp483
V2014/2015
p484
aVChelsea
p485
aVEPL
p486
aV0(1)
p487
aV12
p488
aV-
aV-
aV-
aV-
aV-
aV100
p489
aV-
aV-
aV6.08
p490
aa(lp491
VTotal / Average
p492
aV
aV
aV125
p493
aV10587
p494
aV7
aV2
aV4
aV0
aV0.4
p495
aV91
p496
aV2.4
p497
aV2
aV6.92
p498
aasS'id'
p499
V130331
p500
sb.