(i__main__
Player
p1
(dp2
S'name'
p3
VAndre Gray 
p4
sS'offensive_data'
p5
(lp6
(lp7
a(lp8
V2018/2019
p9
aVWatford
p10
aVEPL
p11
aV8(7)
p12
aV723
p13
aV3
aV-
aV1
aV-
aV1.2
p14
aV71.8
p15
aV0.7
p16
aV-
aV6.30
p17
aa(lp18
V2017/2018
p19
aVWatford
p20
aVEPL
p21
aV16(15)
p22
aV1499
p23
aV5
aV2
aV1
aV-
aV1.1
p24
aV71.9
p25
aV0.5
p26
aV-
aV6.24
p27
aa(lp28
V2016/2017
p29
aVBurnley
p30
aVEPL
p31
aV26(6)
p32
aV2268
p33
aV9
aV3
aV2
aV-
aV1.5
p34
aV71.8
p35
aV0.1
p36
aV1
aV6.42
p37
aa(lp38
V2015/2016
p39
aVBrentford
p40
aVEC
p41
aV1(1)
p42
aV125
p43
aV2
aV1
aV-
aV-
aV4.5
p44
aV83.3
p45
aV0.5
p46
aV-
aV7.89
p47
aa(lp48
V2015/2016
p49
aVBurnley
p50
aVEC
p51
aV41
p52
aV3410
p53
aV23
p54
aV8
aV2
aV-
aV2.7
p55
aV68.2
p56
aV0.3
p57
aV5
aV6.95
p58
aa(lp59
V2014/2015
p60
aVBrentford
p61
aVEC
p62
aV45(2)
p63
aV3670
p64
aV17
p65
aV6
aV1
aV-
aV2.3
p66
aV72.6
p67
aV0.1
p68
aV1
aV6.67
p69
aa(lp70
VTotal / Average
p71
aV
aV
aV168
p72
aV11695
p73
aV59
p74
aV20
p75
aV7
aV0
aV1.9
p76
aV71.3
p77
aV0.3
p78
aV7
aV6.59
p79
aasS'url'
p80
S'https://www.whoscored.com/Players/131487/History/'
p81
sS'passing_data'
p82
(lp83
(lp84
a(lp85
V2018/2019
p86
aVWatford
p87
aVEPL
p88
aV8(7)
p89
aV723
p90
aV3
aV-
aV1
aV-
aV1.2
p91
aV71.8
p92
aV0.7
p93
aV-
aV6.30
p94
aa(lp95
V2017/2018
p96
aVWatford
p97
aVEPL
p98
aV16(15)
p99
aV1499
p100
aV5
aV2
aV1
aV-
aV1.1
p101
aV71.9
p102
aV0.5
p103
aV-
aV6.24
p104
aa(lp105
V2016/2017
p106
aVBurnley
p107
aVEPL
p108
aV26(6)
p109
aV2268
p110
aV9
aV3
aV2
aV-
aV1.5
p111
aV71.8
p112
aV0.1
p113
aV1
aV6.42
p114
aa(lp115
V2015/2016
p116
aVBrentford
p117
aVEC
p118
aV1(1)
p119
aV125
p120
aV2
aV1
aV-
aV-
aV4.5
p121
aV83.3
p122
aV0.5
p123
aV-
aV7.89
p124
aa(lp125
V2015/2016
p126
aVBurnley
p127
aVEC
p128
aV41
p129
aV3410
p130
aV23
p131
aV8
aV2
aV-
aV2.7
p132
aV68.2
p133
aV0.3
p134
aV5
aV6.95
p135
aa(lp136
V2014/2015
p137
aVBrentford
p138
aVEC
p139
aV45(2)
p140
aV3670
p141
aV17
p142
aV6
aV1
aV-
aV2.3
p143
aV72.6
p144
aV0.1
p145
aV1
aV6.67
p146
aa(lp147
VTotal / Average
p148
aV
aV
aV168
p149
aV11695
p150
aV59
p151
aV20
p152
aV7
aV0
aV1.9
p153
aV71.3
p154
aV0.3
p155
aV7
aV6.59
p156
aasS'defensive_data'
p157
(lp158
(lp159
a(lp160
V2018/2019
p161
aVWatford
p162
aVEPL
p163
aV8(7)
p164
aV723
p165
aV3
aV-
aV1
aV-
aV1.2
p166
aV71.8
p167
aV0.7
p168
aV-
aV6.30
p169
aa(lp170
V2017/2018
p171
aVWatford
p172
aVEPL
p173
aV16(15)
p174
aV1499
p175
aV5
aV2
aV1
aV-
aV1.1
p176
aV71.9
p177
aV0.5
p178
aV-
aV6.24
p179
aa(lp180
V2016/2017
p181
aVBurnley
p182
aVEPL
p183
aV26(6)
p184
aV2268
p185
aV9
aV3
aV2
aV-
aV1.5
p186
aV71.8
p187
aV0.1
p188
aV1
aV6.42
p189
aa(lp190
V2015/2016
p191
aVBrentford
p192
aVEC
p193
aV1(1)
p194
aV125
p195
aV2
aV1
aV-
aV-
aV4.5
p196
aV83.3
p197
aV0.5
p198
aV-
aV7.89
p199
aa(lp200
V2015/2016
p201
aVBurnley
p202
aVEC
p203
aV41
p204
aV3410
p205
aV23
p206
aV8
aV2
aV-
aV2.7
p207
aV68.2
p208
aV0.3
p209
aV5
aV6.95
p210
aa(lp211
V2014/2015
p212
aVBrentford
p213
aVEC
p214
aV45(2)
p215
aV3670
p216
aV17
p217
aV6
aV1
aV-
aV2.3
p218
aV72.6
p219
aV0.1
p220
aV1
aV6.67
p221
aa(lp222
VTotal / Average
p223
aV
aV
aV168
p224
aV11695
p225
aV59
p226
aV20
p227
aV7
aV0
aV1.9
p228
aV71.3
p229
aV0.3
p230
aV7
aV6.59
p231
aasS'sumary_data'
p232
(lp233
(lp234
a(lp235
V2018/2019
p236
aVWatford
p237
aVEPL
p238
aV8(7)
p239
aV723
p240
aV3
aV-
aV1
aV-
aV1.2
p241
aV71.8
p242
aV0.7
p243
aV-
aV6.30
p244
aa(lp245
V2017/2018
p246
aVWatford
p247
aVEPL
p248
aV16(15)
p249
aV1499
p250
aV5
aV2
aV1
aV-
aV1.1
p251
aV71.9
p252
aV0.5
p253
aV-
aV6.24
p254
aa(lp255
V2016/2017
p256
aVBurnley
p257
aVEPL
p258
aV26(6)
p259
aV2268
p260
aV9
aV3
aV2
aV-
aV1.5
p261
aV71.8
p262
aV0.1
p263
aV1
aV6.42
p264
aa(lp265
V2015/2016
p266
aVBrentford
p267
aVEC
p268
aV1(1)
p269
aV125
p270
aV2
aV1
aV-
aV-
aV4.5
p271
aV83.3
p272
aV0.5
p273
aV-
aV7.89
p274
aa(lp275
V2015/2016
p276
aVBurnley
p277
aVEC
p278
aV41
p279
aV3410
p280
aV23
p281
aV8
aV2
aV-
aV2.7
p282
aV68.2
p283
aV0.3
p284
aV5
aV6.95
p285
aa(lp286
V2014/2015
p287
aVBrentford
p288
aVEC
p289
aV45(2)
p290
aV3670
p291
aV17
p292
aV6
aV1
aV-
aV2.3
p293
aV72.6
p294
aV0.1
p295
aV1
aV6.67
p296
aa(lp297
VTotal / Average
p298
aV
aV
aV168
p299
aV11695
p300
aV59
p301
aV20
p302
aV7
aV0
aV1.9
p303
aV71.3
p304
aV0.3
p305
aV7
aV6.59
p306
aasS'id'
p307
V131487
p308
sb.