(i__main__
Player
p1
(dp2
S'name'
p3
VJames Tarkowski 
p4
sS'offensive_data'
p5
(lp6
(lp7
a(lp8
V2018/2019
p9
aVBurnley
p10
aVEPL
p11
aV14
p12
aV1197
p13
aV3
aV-
aV4
aV-
aV0.6
p14
aV72.1
p15
aV4.1
p16
aV1
aV7.06
p17
aa(lp18
V2017/2018
p19
aVBurnley
p20
aVEPL
p21
aV31
p22
aV2790
p23
aV-
aV-
aV5
aV-
aV0.6
p24
aV73.1
p25
aV4.7
p26
aV4
aV7.22
p27
aa(lp28
V2016/2017
p29
aVBurnley
p30
aVEPL
p31
aV4(15)
p32
aV556
p33
aV-
aV-
aV1
aV-
aV0.3
p34
aV68.1
p35
aV1.4
p36
aV-
aV6.39
p37
aa(lp38
V2015/2016
p39
aVBrentford
p40
aVEC
p41
aV23
p42
aV1976
p43
aV1
aV3
aV6
aV1
aV0.5
p44
aV77.2
p45
aV3.7
p46
aV4
aV7.44
p47
aa(lp48
V2015/2016
p49
aVBurnley
p50
aVEC
p51
aV2(2)
p52
aV239
p53
aV-
aV-
aV-
aV-
aV0.3
p54
aV64.3
p55
aV3.5
p56
aV-
aV7.02
p57
aa(lp58
V2014/2015
p59
aVBrentford
p60
aVEC
p61
aV36
p62
aV3201
p63
aV1
aV2
aV7
aV-
aV0.6
p64
aV80.1
p65
aV3.1
p66
aV4
aV7.40
p67
aa(lp68
VTotal / Average
p69
aV
aV
aV127
p70
aV9959
p71
aV5
aV5
aV23
p72
aV1
aV0.5
p73
aV74.7
p74
aV3.5
p75
aV13
p76
aV7.16
p77
aasS'url'
p78
S'https://www.whoscored.com/Players/131464/History/'
p79
sS'passing_data'
p80
(lp81
(lp82
a(lp83
V2018/2019
p84
aVBurnley
p85
aVEPL
p86
aV14
p87
aV1197
p88
aV3
aV-
aV4
aV-
aV0.6
p89
aV72.1
p90
aV4.1
p91
aV1
aV7.06
p92
aa(lp93
V2017/2018
p94
aVBurnley
p95
aVEPL
p96
aV31
p97
aV2790
p98
aV-
aV-
aV5
aV-
aV0.6
p99
aV73.1
p100
aV4.7
p101
aV4
aV7.22
p102
aa(lp103
V2016/2017
p104
aVBurnley
p105
aVEPL
p106
aV4(15)
p107
aV556
p108
aV-
aV-
aV1
aV-
aV0.3
p109
aV68.1
p110
aV1.4
p111
aV-
aV6.39
p112
aa(lp113
V2015/2016
p114
aVBrentford
p115
aVEC
p116
aV23
p117
aV1976
p118
aV1
aV3
aV6
aV1
aV0.5
p119
aV77.2
p120
aV3.7
p121
aV4
aV7.44
p122
aa(lp123
V2015/2016
p124
aVBurnley
p125
aVEC
p126
aV2(2)
p127
aV239
p128
aV-
aV-
aV-
aV-
aV0.3
p129
aV64.3
p130
aV3.5
p131
aV-
aV7.02
p132
aa(lp133
V2014/2015
p134
aVBrentford
p135
aVEC
p136
aV36
p137
aV3201
p138
aV1
aV2
aV7
aV-
aV0.6
p139
aV80.1
p140
aV3.1
p141
aV4
aV7.40
p142
aa(lp143
VTotal / Average
p144
aV
aV
aV127
p145
aV9959
p146
aV5
aV5
aV23
p147
aV1
aV0.5
p148
aV74.7
p149
aV3.5
p150
aV13
p151
aV7.16
p152
aasS'defensive_data'
p153
(lp154
(lp155
a(lp156
V2018/2019
p157
aVBurnley
p158
aVEPL
p159
aV14
p160
aV1197
p161
aV3
aV-
aV4
aV-
aV0.6
p162
aV72.1
p163
aV4.1
p164
aV1
aV7.06
p165
aa(lp166
V2017/2018
p167
aVBurnley
p168
aVEPL
p169
aV31
p170
aV2790
p171
aV-
aV-
aV5
aV-
aV0.6
p172
aV73.1
p173
aV4.7
p174
aV4
aV7.22
p175
aa(lp176
V2016/2017
p177
aVBurnley
p178
aVEPL
p179
aV4(15)
p180
aV556
p181
aV-
aV-
aV1
aV-
aV0.3
p182
aV68.1
p183
aV1.4
p184
aV-
aV6.39
p185
aa(lp186
V2015/2016
p187
aVBrentford
p188
aVEC
p189
aV23
p190
aV1976
p191
aV1
aV3
aV6
aV1
aV0.5
p192
aV77.2
p193
aV3.7
p194
aV4
aV7.44
p195
aa(lp196
V2015/2016
p197
aVBurnley
p198
aVEC
p199
aV2(2)
p200
aV239
p201
aV-
aV-
aV-
aV-
aV0.3
p202
aV64.3
p203
aV3.5
p204
aV-
aV7.02
p205
aa(lp206
V2014/2015
p207
aVBrentford
p208
aVEC
p209
aV36
p210
aV3201
p211
aV1
aV2
aV7
aV-
aV0.6
p212
aV80.1
p213
aV3.1
p214
aV4
aV7.40
p215
aa(lp216
VTotal / Average
p217
aV
aV
aV127
p218
aV9959
p219
aV5
aV5
aV23
p220
aV1
aV0.5
p221
aV74.7
p222
aV3.5
p223
aV13
p224
aV7.16
p225
aasS'sumary_data'
p226
(lp227
(lp228
a(lp229
V2018/2019
p230
aVBurnley
p231
aVEPL
p232
aV14
p233
aV1197
p234
aV3
aV-
aV4
aV-
aV0.6
p235
aV72.1
p236
aV4.1
p237
aV1
aV7.06
p238
aa(lp239
V2017/2018
p240
aVBurnley
p241
aVEPL
p242
aV31
p243
aV2790
p244
aV-
aV-
aV5
aV-
aV0.6
p245
aV73.1
p246
aV4.7
p247
aV4
aV7.22
p248
aa(lp249
V2016/2017
p250
aVBurnley
p251
aVEPL
p252
aV4(15)
p253
aV556
p254
aV-
aV-
aV1
aV-
aV0.3
p255
aV68.1
p256
aV1.4
p257
aV-
aV6.39
p258
aa(lp259
V2015/2016
p260
aVBrentford
p261
aVEC
p262
aV23
p263
aV1976
p264
aV1
aV3
aV6
aV1
aV0.5
p265
aV77.2
p266
aV3.7
p267
aV4
aV7.44
p268
aa(lp269
V2015/2016
p270
aVBurnley
p271
aVEC
p272
aV2(2)
p273
aV239
p274
aV-
aV-
aV-
aV-
aV0.3
p275
aV64.3
p276
aV3.5
p277
aV-
aV7.02
p278
aa(lp279
V2014/2015
p280
aVBrentford
p281
aVEC
p282
aV36
p283
aV3201
p284
aV1
aV2
aV7
aV-
aV0.6
p285
aV80.1
p286
aV3.1
p287
aV4
aV7.40
p288
aa(lp289
VTotal / Average
p290
aV
aV
aV127
p291
aV9959
p292
aV5
aV5
aV23
p293
aV1
aV0.5
p294
aV74.7
p295
aV3.5
p296
aV13
p297
aV7.16
p298
aasS'id'
p299
V131464
p300
sb.