(i__main__
Player
p1
(dp2
S'name'
p3
VDele Alli 
p4
sS'offensive_data'
p5
(lp6
(lp7
a(lp8
V2018/2019
p9
aVTottenham
p10
aVEPL
p11
aV9(3)
p12
aV825
p13
aV3
aV1
aV1
aV-
aV1.4
p14
aV79.3
p15
aV0.8
p16
aV1
aV7.08
p17
aa(lp18
V2018/2019
p19
aVTottenham
p20
aVUCL
p21
aV3
aV270
p22
aV-
aV1
aV-
aV-
aV2.7
p23
aV83.3
p24
aV0.7
p25
aV-
aV7.10
p26
aa(lp27
V2018/2019
p28
aVEngland
p29
aVUNL
p30
aV1(1)
p31
aV117
p32
aV-
aV-
aV-
aV-
aV-
aV85.4
p33
aV-
aV-
aV6.24
p34
aa(lp35
V2017/2018
p36
aVTottenham
p37
aVUCL
p38
aV5
aV427
p39
aV2
aV4
aV1
aV-
aV1.6
p40
aV80.7
p41
aV0.6
p42
aV1
aV7.73
p43
aa(lp44
V2017/2018
p45
aVTottenham
p46
aVEPL
p47
aV34(2)
p48
aV2972
p49
aV9
aV10
p50
aV7
aV-
aV1.9
p51
aV77.2
p52
aV0.8
p53
aV1
aV7.09
p54
aa(lp55
V2016/2017
p56
aVTottenham
p57
aVUCL
p58
aV6
aV532
p59
aV1
aV-
aV-
aV-
aV3.2
p60
aV78.6
p61
aV1.2
p62
aV-
aV6.89
p63
aa(lp64
V2016/2017
p65
aVTottenham
p66
aVEPL
p67
aV35(2)
p68
aV3045
p69
aV18
p70
aV7
aV4
aV-
aV2.5
p71
aV80.7
p72
aV0.4
p73
aV2
aV7.35
p74
aa(lp75
V2016/2017
p76
aVTottenham
p77
aVUEL
p78
aV2
aV129
p79
aV-
aV-
aV1
aV1
aV3.5
p80
aV82
p81
aV0.5
p82
aV-
aV5.59
p83
aa(lp84
V2018
p85
aVEngland
p86
aVWC
p87
aV4(1)
p88
aV364
p89
aV1
aV-
aV-
aV-
aV1
aV78.1
p90
aV1.2
p91
aV-
aV6.68
p92
aa(lp93
V2015/2016
p94
aVTottenham
p95
aVUEL
p96
aV7(2)
p97
aV627
p98
aV-
aV2
aV3
aV-
aV1.3
p99
aV79.5
p100
aV0.6
p101
aV-
aV6.85
p102
aa(lp103
V2015/2016
p104
aVTottenham
p105
aVEPL
p106
aV28(5)
p107
aV2482
p108
aV10
p109
aV9
aV7
aV-
aV2.2
p110
aV75.9
p111
aV1.1
p112
aV2
aV7.35
p113
aa(lp114
V2016
p115
aVEngland
p116
aVUEC
p117
aV3(1)
p118
aV301
p119
aV-
aV1
aV-
aV-
aV2.8
p120
aV82.1
p121
aV1.3
p122
aV-
aV6.79
p123
aa(lp124
VTotal / Average
p125
aV
aV
aV154
p126
aV12091
p127
aV44
p128
aV35
p129
aV24
p130
aV1
aV2.1
p131
aV78.7
p132
aV0.8
p133
aV7
aV7.15
p134
aasS'url'
p135
S'https://www.whoscored.com/Players/131519/History/'
p136
sS'passing_data'
p137
(lp138
(lp139
a(lp140
V2018/2019
p141
aVTottenham
p142
aVEPL
p143
aV9(3)
p144
aV825
p145
aV3
aV1
aV1
aV-
aV1.4
p146
aV79.3
p147
aV0.8
p148
aV1
aV7.08
p149
aa(lp150
V2018/2019
p151
aVTottenham
p152
aVUCL
p153
aV3
aV270
p154
aV-
aV1
aV-
aV-
aV2.7
p155
aV83.3
p156
aV0.7
p157
aV-
aV7.10
p158
aa(lp159
V2018/2019
p160
aVEngland
p161
aVUNL
p162
aV1(1)
p163
aV117
p164
aV-
aV-
aV-
aV-
aV-
aV85.4
p165
aV-
aV-
aV6.24
p166
aa(lp167
V2017/2018
p168
aVTottenham
p169
aVUCL
p170
aV5
aV427
p171
aV2
aV4
aV1
aV-
aV1.6
p172
aV80.7
p173
aV0.6
p174
aV1
aV7.73
p175
aa(lp176
V2017/2018
p177
aVTottenham
p178
aVEPL
p179
aV34(2)
p180
aV2972
p181
aV9
aV10
p182
aV7
aV-
aV1.9
p183
aV77.2
p184
aV0.8
p185
aV1
aV7.09
p186
aa(lp187
V2016/2017
p188
aVTottenham
p189
aVUCL
p190
aV6
aV532
p191
aV1
aV-
aV-
aV-
aV3.2
p192
aV78.6
p193
aV1.2
p194
aV-
aV6.89
p195
aa(lp196
V2016/2017
p197
aVTottenham
p198
aVEPL
p199
aV35(2)
p200
aV3045
p201
aV18
p202
aV7
aV4
aV-
aV2.5
p203
aV80.7
p204
aV0.4
p205
aV2
aV7.35
p206
aa(lp207
V2016/2017
p208
aVTottenham
p209
aVUEL
p210
aV2
aV129
p211
aV-
aV-
aV1
aV1
aV3.5
p212
aV82
p213
aV0.5
p214
aV-
aV5.59
p215
aa(lp216
V2018
p217
aVEngland
p218
aVWC
p219
aV4(1)
p220
aV364
p221
aV1
aV-
aV-
aV-
aV1
aV78.1
p222
aV1.2
p223
aV-
aV6.68
p224
aa(lp225
V2015/2016
p226
aVTottenham
p227
aVUEL
p228
aV7(2)
p229
aV627
p230
aV-
aV2
aV3
aV-
aV1.3
p231
aV79.5
p232
aV0.6
p233
aV-
aV6.85
p234
aa(lp235
V2015/2016
p236
aVTottenham
p237
aVEPL
p238
aV28(5)
p239
aV2482
p240
aV10
p241
aV9
aV7
aV-
aV2.2
p242
aV75.9
p243
aV1.1
p244
aV2
aV7.35
p245
aa(lp246
V2016
p247
aVEngland
p248
aVUEC
p249
aV3(1)
p250
aV301
p251
aV-
aV1
aV-
aV-
aV2.8
p252
aV82.1
p253
aV1.3
p254
aV-
aV6.79
p255
aa(lp256
VTotal / Average
p257
aV
aV
aV154
p258
aV12091
p259
aV44
p260
aV35
p261
aV24
p262
aV1
aV2.1
p263
aV78.7
p264
aV0.8
p265
aV7
aV7.15
p266
aasS'defensive_data'
p267
(lp268
(lp269
a(lp270
V2018/2019
p271
aVTottenham
p272
aVEPL
p273
aV9(3)
p274
aV825
p275
aV3
aV1
aV1
aV-
aV1.4
p276
aV79.3
p277
aV0.8
p278
aV1
aV7.08
p279
aa(lp280
V2018/2019
p281
aVTottenham
p282
aVUCL
p283
aV3
aV270
p284
aV-
aV1
aV-
aV-
aV2.7
p285
aV83.3
p286
aV0.7
p287
aV-
aV7.10
p288
aa(lp289
V2018/2019
p290
aVEngland
p291
aVUNL
p292
aV1(1)
p293
aV117
p294
aV-
aV-
aV-
aV-
aV-
aV85.4
p295
aV-
aV-
aV6.24
p296
aa(lp297
V2017/2018
p298
aVTottenham
p299
aVUCL
p300
aV5
aV427
p301
aV2
aV4
aV1
aV-
aV1.6
p302
aV80.7
p303
aV0.6
p304
aV1
aV7.73
p305
aa(lp306
V2017/2018
p307
aVTottenham
p308
aVEPL
p309
aV34(2)
p310
aV2972
p311
aV9
aV10
p312
aV7
aV-
aV1.9
p313
aV77.2
p314
aV0.8
p315
aV1
aV7.09
p316
aa(lp317
V2016/2017
p318
aVTottenham
p319
aVUCL
p320
aV6
aV532
p321
aV1
aV-
aV-
aV-
aV3.2
p322
aV78.6
p323
aV1.2
p324
aV-
aV6.89
p325
aa(lp326
V2016/2017
p327
aVTottenham
p328
aVEPL
p329
aV35(2)
p330
aV3045
p331
aV18
p332
aV7
aV4
aV-
aV2.5
p333
aV80.7
p334
aV0.4
p335
aV2
aV7.35
p336
aa(lp337
V2016/2017
p338
aVTottenham
p339
aVUEL
p340
aV2
aV129
p341
aV-
aV-
aV1
aV1
aV3.5
p342
aV82
p343
aV0.5
p344
aV-
aV5.59
p345
aa(lp346
V2018
p347
aVEngland
p348
aVWC
p349
aV4(1)
p350
aV364
p351
aV1
aV-
aV-
aV-
aV1
aV78.1
p352
aV1.2
p353
aV-
aV6.68
p354
aa(lp355
V2015/2016
p356
aVTottenham
p357
aVUEL
p358
aV7(2)
p359
aV627
p360
aV-
aV2
aV3
aV-
aV1.3
p361
aV79.5
p362
aV0.6
p363
aV-
aV6.85
p364
aa(lp365
V2015/2016
p366
aVTottenham
p367
aVEPL
p368
aV28(5)
p369
aV2482
p370
aV10
p371
aV9
aV7
aV-
aV2.2
p372
aV75.9
p373
aV1.1
p374
aV2
aV7.35
p375
aa(lp376
V2016
p377
aVEngland
p378
aVUEC
p379
aV3(1)
p380
aV301
p381
aV-
aV1
aV-
aV-
aV2.8
p382
aV82.1
p383
aV1.3
p384
aV-
aV6.79
p385
aa(lp386
VTotal / Average
p387
aV
aV
aV154
p388
aV12091
p389
aV44
p390
aV35
p391
aV24
p392
aV1
aV2.1
p393
aV78.7
p394
aV0.8
p395
aV7
aV7.15
p396
aasS'sumary_data'
p397
(lp398
(lp399
a(lp400
V2018/2019
p401
aVTottenham
p402
aVEPL
p403
aV9(3)
p404
aV825
p405
aV3
aV1
aV1
aV-
aV1.4
p406
aV79.3
p407
aV0.8
p408
aV1
aV7.08
p409
aa(lp410
V2018/2019
p411
aVTottenham
p412
aVUCL
p413
aV3
aV270
p414
aV-
aV1
aV-
aV-
aV2.7
p415
aV83.3
p416
aV0.7
p417
aV-
aV7.10
p418
aa(lp419
V2018/2019
p420
aVEngland
p421
aVUNL
p422
aV1(1)
p423
aV117
p424
aV-
aV-
aV-
aV-
aV-
aV85.4
p425
aV-
aV-
aV6.24
p426
aa(lp427
V2017/2018
p428
aVTottenham
p429
aVUCL
p430
aV5
aV427
p431
aV2
aV4
aV1
aV-
aV1.6
p432
aV80.7
p433
aV0.6
p434
aV1
aV7.73
p435
aa(lp436
V2017/2018
p437
aVTottenham
p438
aVEPL
p439
aV34(2)
p440
aV2972
p441
aV9
aV10
p442
aV7
aV-
aV1.9
p443
aV77.2
p444
aV0.8
p445
aV1
aV7.09
p446
aa(lp447
V2016/2017
p448
aVTottenham
p449
aVUCL
p450
aV6
aV532
p451
aV1
aV-
aV-
aV-
aV3.2
p452
aV78.6
p453
aV1.2
p454
aV-
aV6.89
p455
aa(lp456
V2016/2017
p457
aVTottenham
p458
aVEPL
p459
aV35(2)
p460
aV3045
p461
aV18
p462
aV7
aV4
aV-
aV2.5
p463
aV80.7
p464
aV0.4
p465
aV2
aV7.35
p466
aa(lp467
V2016/2017
p468
aVTottenham
p469
aVUEL
p470
aV2
aV129
p471
aV-
aV-
aV1
aV1
aV3.5
p472
aV82
p473
aV0.5
p474
aV-
aV5.59
p475
aa(lp476
V2018
p477
aVEngland
p478
aVWC
p479
aV4(1)
p480
aV364
p481
aV1
aV-
aV-
aV-
aV1
aV78.1
p482
aV1.2
p483
aV-
aV6.68
p484
aa(lp485
V2015/2016
p486
aVTottenham
p487
aVUEL
p488
aV7(2)
p489
aV627
p490
aV-
aV2
aV3
aV-
aV1.3
p491
aV79.5
p492
aV0.6
p493
aV-
aV6.85
p494
aa(lp495
V2015/2016
p496
aVTottenham
p497
aVEPL
p498
aV28(5)
p499
aV2482
p500
aV10
p501
aV9
aV7
aV-
aV2.2
p502
aV75.9
p503
aV1.1
p504
aV2
aV7.35
p505
aa(lp506
V2016
p507
aVEngland
p508
aVUEC
p509
aV3(1)
p510
aV301
p511
aV-
aV1
aV-
aV-
aV2.8
p512
aV82.1
p513
aV1.3
p514
aV-
aV6.79
p515
aa(lp516
VTotal / Average
p517
aV
aV
aV154
p518
aV12091
p519
aV44
p520
aV35
p521
aV24
p522
aV1
aV2.1
p523
aV78.7
p524
aV0.8
p525
aV7
aV7.15
p526
aasS'id'
p527
V131519
p528
sb.