(i__main__
Player
p1
(dp2
S'name'
p3
VYoshinori Muto 
p4
sS'offensive_data'
p5
(lp6
(lp7
a(lp8
V2018/2019
p9
aVNewcastle Uni..
p10
aVEPL
p11
aV4(6)
p12
aV365
p13
aV1
aV-
aV-
aV-
aV0.5
p14
aV70.7
p15
aV0.8
p16
aV-
aV6.27
p17
aa(lp18
V2017/2018
p19
aVMainz 05
p20
aVGB
p21
aV20(7)
p22
aV1906
p23
aV8
aV2
aV2
aV-
aV1.4
p24
aV74.9
p25
aV1.3
p26
aV1
aV6.75
p27
aa(lp28
V2016/2017
p29
aVMainz 05
p30
aVGB
p31
aV10(9)
p32
aV1021
p33
aV5
aV-
aV3
aV-
aV0.9
p34
aV62.8
p35
aV1
aV-
aV6.51
p36
aa(lp37
V2016/2017
p38
aVMainz 05
p39
aVUEL
p40
aV2
aV153
p41
aV1
aV-
aV-
aV-
aV1.5
p42
aV67.5
p43
aV4
aV-
aV7.45
p44
aa(lp45
V2018
p46
aVJapan
p47
aVWC
p48
aV1
aV82
p49
aV-
aV-
aV-
aV-
aV2
aV82.4
p50
aV2
aV-
aV6.35
p51
aa(lp52
V2015/2016
p53
aVMainz 05
p54
aVGB
p55
aV18(2)
p56
aV1497
p57
aV7
aV2
aV2
aV-
aV1.7
p58
aV64.6
p59
aV2.2
p60
aV2
aV6.94
p61
aa(lp62
VTotal / Average
p63
aV
aV
aV79
p64
aV5024
p65
aV22
p66
aV4
aV7
aV0
aV1.3
p67
aV68.8
p68
aV1.4
p69
aV3
aV6.69
p70
aasS'url'
p71
S'https://www.whoscored.com/Players/132210/History/'
p72
sS'passing_data'
p73
(lp74
(lp75
a(lp76
V2018/2019
p77
aVNewcastle Uni..
p78
aVEPL
p79
aV4(6)
p80
aV365
p81
aV1
aV-
aV-
aV-
aV0.5
p82
aV70.7
p83
aV0.8
p84
aV-
aV6.27
p85
aa(lp86
V2017/2018
p87
aVMainz 05
p88
aVGB
p89
aV20(7)
p90
aV1906
p91
aV8
aV2
aV2
aV-
aV1.4
p92
aV74.9
p93
aV1.3
p94
aV1
aV6.75
p95
aa(lp96
V2016/2017
p97
aVMainz 05
p98
aVGB
p99
aV10(9)
p100
aV1021
p101
aV5
aV-
aV3
aV-
aV0.9
p102
aV62.8
p103
aV1
aV-
aV6.51
p104
aa(lp105
V2016/2017
p106
aVMainz 05
p107
aVUEL
p108
aV2
aV153
p109
aV1
aV-
aV-
aV-
aV1.5
p110
aV67.5
p111
aV4
aV-
aV7.45
p112
aa(lp113
V2018
p114
aVJapan
p115
aVWC
p116
aV1
aV82
p117
aV-
aV-
aV-
aV-
aV2
aV82.4
p118
aV2
aV-
aV6.35
p119
aa(lp120
V2015/2016
p121
aVMainz 05
p122
aVGB
p123
aV18(2)
p124
aV1497
p125
aV7
aV2
aV2
aV-
aV1.7
p126
aV64.6
p127
aV2.2
p128
aV2
aV6.94
p129
aa(lp130
VTotal / Average
p131
aV
aV
aV79
p132
aV5024
p133
aV22
p134
aV4
aV7
aV0
aV1.3
p135
aV68.8
p136
aV1.4
p137
aV3
aV6.69
p138
aasS'defensive_data'
p139
(lp140
(lp141
a(lp142
V2018/2019
p143
aVNewcastle Uni..
p144
aVEPL
p145
aV4(6)
p146
aV365
p147
aV1
aV-
aV-
aV-
aV0.5
p148
aV70.7
p149
aV0.8
p150
aV-
aV6.27
p151
aa(lp152
V2017/2018
p153
aVMainz 05
p154
aVGB
p155
aV20(7)
p156
aV1906
p157
aV8
aV2
aV2
aV-
aV1.4
p158
aV74.9
p159
aV1.3
p160
aV1
aV6.75
p161
aa(lp162
V2016/2017
p163
aVMainz 05
p164
aVGB
p165
aV10(9)
p166
aV1021
p167
aV5
aV-
aV3
aV-
aV0.9
p168
aV62.8
p169
aV1
aV-
aV6.51
p170
aa(lp171
V2016/2017
p172
aVMainz 05
p173
aVUEL
p174
aV2
aV153
p175
aV1
aV-
aV-
aV-
aV1.5
p176
aV67.5
p177
aV4
aV-
aV7.45
p178
aa(lp179
V2018
p180
aVJapan
p181
aVWC
p182
aV1
aV82
p183
aV-
aV-
aV-
aV-
aV2
aV82.4
p184
aV2
aV-
aV6.35
p185
aa(lp186
V2015/2016
p187
aVMainz 05
p188
aVGB
p189
aV18(2)
p190
aV1497
p191
aV7
aV2
aV2
aV-
aV1.7
p192
aV64.6
p193
aV2.2
p194
aV2
aV6.94
p195
aa(lp196
VTotal / Average
p197
aV
aV
aV79
p198
aV5024
p199
aV22
p200
aV4
aV7
aV0
aV1.3
p201
aV68.8
p202
aV1.4
p203
aV3
aV6.69
p204
aasS'sumary_data'
p205
(lp206
(lp207
a(lp208
V2018/2019
p209
aVNewcastle Uni..
p210
aVEPL
p211
aV4(6)
p212
aV365
p213
aV1
aV-
aV-
aV-
aV0.5
p214
aV70.7
p215
aV0.8
p216
aV-
aV6.27
p217
aa(lp218
V2017/2018
p219
aVMainz 05
p220
aVGB
p221
aV20(7)
p222
aV1906
p223
aV8
aV2
aV2
aV-
aV1.4
p224
aV74.9
p225
aV1.3
p226
aV1
aV6.75
p227
aa(lp228
V2016/2017
p229
aVMainz 05
p230
aVGB
p231
aV10(9)
p232
aV1021
p233
aV5
aV-
aV3
aV-
aV0.9
p234
aV62.8
p235
aV1
aV-
aV6.51
p236
aa(lp237
V2016/2017
p238
aVMainz 05
p239
aVUEL
p240
aV2
aV153
p241
aV1
aV-
aV-
aV-
aV1.5
p242
aV67.5
p243
aV4
aV-
aV7.45
p244
aa(lp245
V2018
p246
aVJapan
p247
aVWC
p248
aV1
aV82
p249
aV-
aV-
aV-
aV-
aV2
aV82.4
p250
aV2
aV-
aV6.35
p251
aa(lp252
V2015/2016
p253
aVMainz 05
p254
aVGB
p255
aV18(2)
p256
aV1497
p257
aV7
aV2
aV2
aV-
aV1.7
p258
aV64.6
p259
aV2.2
p260
aV2
aV6.94
p261
aa(lp262
VTotal / Average
p263
aV
aV
aV79
p264
aV5024
p265
aV22
p266
aV4
aV7
aV0
aV1.3
p267
aV68.8
p268
aV1.4
p269
aV3
aV6.69
p270
aasS'id'
p271
V132210
p272
sb.