(i__main__
Player
p1
(dp2
S'name'
p3
VChristopher Schindler 
p4
sS'offensive_data'
p5
(lp6
(lp7
a(lp8
V2018/2019
p9
aVHuddersfield
p10
aVEPL
p11
aV17
p12
aV1511
p13
aV1
aV-
aV2
aV-
aV0.5
p14
aV82.6
p15
aV4.5
p16
aV-
aV6.68
p17
aa(lp18
V2017/2018
p19
aVHuddersfield
p20
aVEPL
p21
aV37
p22
aV3266
p23
aV-
aV1
aV6
aV1
aV0.3
p24
aV81.4
p25
aV4.2
p26
aV3
aV7.11
p27
aa(lp28
V2016/2017
p29
aVHuddersfield
p30
aVEC
p31
aV46(1)
p32
aV4197
p33
aV2
aV2
aV4
aV-
aV0.3
p34
aV83
p35
aV4.4
p36
aV4
aV7.12
p37
aa(lp38
V2015/2016
p39
aV1860 Muenchen
p40
aVGB2
p41
aV33
p42
aV2970
p43
aV1
aV-
aV4
aV-
aV0.6
p44
aV75.9
p45
aV5.5
p46
aV-
aV7.01
p47
aa(lp48
VTotal / Average
p49
aV
aV
aV134
p50
aV11944
p51
aV4
aV3
aV16
p52
aV1
aV0.4
p53
aV80.7
p54
aV4.6
p55
aV7
aV7.03
p56
aasS'url'
p57
S'https://www.whoscored.com/Players/132360/History/'
p58
sS'passing_data'
p59
(lp60
(lp61
a(lp62
V2018/2019
p63
aVHuddersfield
p64
aVEPL
p65
aV17
p66
aV1511
p67
aV1
aV-
aV2
aV-
aV0.5
p68
aV82.6
p69
aV4.5
p70
aV-
aV6.68
p71
aa(lp72
V2017/2018
p73
aVHuddersfield
p74
aVEPL
p75
aV37
p76
aV3266
p77
aV-
aV1
aV6
aV1
aV0.3
p78
aV81.4
p79
aV4.2
p80
aV3
aV7.11
p81
aa(lp82
V2016/2017
p83
aVHuddersfield
p84
aVEC
p85
aV46(1)
p86
aV4197
p87
aV2
aV2
aV4
aV-
aV0.3
p88
aV83
p89
aV4.4
p90
aV4
aV7.12
p91
aa(lp92
V2015/2016
p93
aV1860 Muenchen
p94
aVGB2
p95
aV33
p96
aV2970
p97
aV1
aV-
aV4
aV-
aV0.6
p98
aV75.9
p99
aV5.5
p100
aV-
aV7.01
p101
aa(lp102
VTotal / Average
p103
aV
aV
aV134
p104
aV11944
p105
aV4
aV3
aV16
p106
aV1
aV0.4
p107
aV80.7
p108
aV4.6
p109
aV7
aV7.03
p110
aasS'defensive_data'
p111
(lp112
(lp113
a(lp114
V2018/2019
p115
aVHuddersfield
p116
aVEPL
p117
aV17
p118
aV1511
p119
aV1
aV-
aV2
aV-
aV0.5
p120
aV82.6
p121
aV4.5
p122
aV-
aV6.68
p123
aa(lp124
V2017/2018
p125
aVHuddersfield
p126
aVEPL
p127
aV37
p128
aV3266
p129
aV-
aV1
aV6
aV1
aV0.3
p130
aV81.4
p131
aV4.2
p132
aV3
aV7.11
p133
aa(lp134
V2016/2017
p135
aVHuddersfield
p136
aVEC
p137
aV46(1)
p138
aV4197
p139
aV2
aV2
aV4
aV-
aV0.3
p140
aV83
p141
aV4.4
p142
aV4
aV7.12
p143
aa(lp144
V2015/2016
p145
aV1860 Muenchen
p146
aVGB2
p147
aV33
p148
aV2970
p149
aV1
aV-
aV4
aV-
aV0.6
p150
aV75.9
p151
aV5.5
p152
aV-
aV7.01
p153
aa(lp154
VTotal / Average
p155
aV
aV
aV134
p156
aV11944
p157
aV4
aV3
aV16
p158
aV1
aV0.4
p159
aV80.7
p160
aV4.6
p161
aV7
aV7.03
p162
aasS'sumary_data'
p163
(lp164
(lp165
a(lp166
V2018/2019
p167
aVHuddersfield
p168
aVEPL
p169
aV17
p170
aV1511
p171
aV1
aV-
aV2
aV-
aV0.5
p172
aV82.6
p173
aV4.5
p174
aV-
aV6.68
p175
aa(lp176
V2017/2018
p177
aVHuddersfield
p178
aVEPL
p179
aV37
p180
aV3266
p181
aV-
aV1
aV6
aV1
aV0.3
p182
aV81.4
p183
aV4.2
p184
aV3
aV7.11
p185
aa(lp186
V2016/2017
p187
aVHuddersfield
p188
aVEC
p189
aV46(1)
p190
aV4197
p191
aV2
aV2
aV4
aV-
aV0.3
p192
aV83
p193
aV4.4
p194
aV4
aV7.12
p195
aa(lp196
V2015/2016
p197
aV1860 Muenchen
p198
aVGB2
p199
aV33
p200
aV2970
p201
aV1
aV-
aV4
aV-
aV0.6
p202
aV75.9
p203
aV5.5
p204
aV-
aV7.01
p205
aa(lp206
VTotal / Average
p207
aV
aV
aV134
p208
aV11944
p209
aV4
aV3
aV16
p210
aV1
aV0.4
p211
aV80.7
p212
aV4.6
p213
aV7
aV7.03
p214
aasS'id'
p215
V132360
p216
sb.