(i__main__
Player
p1
(dp2
S'name'
p3
VKenedy 
p4
sS'offensive_data'
p5
(lp6
(lp7
a(lp8
V2018/2019
p9
aVNewcastle Uni..
p10
aVEPL
p11
aV13(2)
p12
aV1101
p13
aV1
aV1
aV-
aV-
aV1.9
p14
aV69.3
p15
aV0.4
p16
aV1
aV6.74
p17
aa(lp18
V2017/2018
p19
aVNewcastle Uni..
p20
aVEPL
p21
aV13
p22
aV1030
p23
aV2
aV2
aV1
aV-
aV1.8
p24
aV77.2
p25
aV0.2
p26
aV-
aV6.95
p27
aa(lp28
V2016/2017
p29
aVChelsea
p30
aVEPL
p31
aV1
aV75
p32
aV-
aV-
aV-
aV-
aV3
aV59.1
p33
aV-
aV-
aV6.40
p34
aa(lp35
V2016/2017
p36
aVWatford
p37
aVEPL
p38
aV0(1)
p39
aV16
p40
aV-
aV-
aV-
aV-
aV-
aV100
p41
aV-
aV-
aV6.12
p42
aa(lp43
V2015/2016
p44
aVChelsea
p45
aVUCL
p46
aV1(1)
p47
aV107
p48
aV-
aV-
aV-
aV-
aV0.5
p49
aV90.5
p50
aV-
aV-
aV6.79
p51
aa(lp52
V2015/2016
p53
aVChelsea
p54
aVEPL
p55
aV4(10)
p56
aV552
p57
aV1
aV-
aV-
aV-
aV0.9
p58
aV86.2
p59
aV0.4
p60
aV1
aV6.65
p61
aa(lp62
V2015
p63
aVFluminense
p64
aVBSA
p65
aV1
aV90
p66
aV-
aV-
aV-
aV-
aV3
aV85.3
p67
aV-
aV-
aV6.97
p68
aa(lp69
V2014
p70
aVFluminense
p71
aVBSA
p72
aV2(18)
p73
aV507
p74
aV2
aV1
aV1
aV-
aV1.2
p75
aV84.3
p76
aV0.2
p77
aV-
aV6.39
p78
aa(lp79
V2013
p80
aVFluminense
p81
aVBSA
p82
aV3(6)
p83
aV348
p84
aV-
aV2
aV1
aV-
aV1.2
p85
aV77.9
p86
aV0.1
p87
aV-
aV6.24
p88
aa(lp89
VTotal / Average
p90
aV
aV
aV76
p91
aV3826
p92
aV6
aV6
aV3
aV0
aV1.4
p93
aV79.8
p94
aV0.3
p95
aV2
aV6.60
p96
aasS'url'
p97
S'https://www.whoscored.com/Players/132838/History/'
p98
sS'passing_data'
p99
(lp100
(lp101
a(lp102
V2018/2019
p103
aVNewcastle Uni..
p104
aVEPL
p105
aV13(2)
p106
aV1101
p107
aV1
aV1
aV-
aV-
aV1.9
p108
aV69.3
p109
aV0.4
p110
aV1
aV6.74
p111
aa(lp112
V2017/2018
p113
aVNewcastle Uni..
p114
aVEPL
p115
aV13
p116
aV1030
p117
aV2
aV2
aV1
aV-
aV1.8
p118
aV77.2
p119
aV0.2
p120
aV-
aV6.95
p121
aa(lp122
V2016/2017
p123
aVChelsea
p124
aVEPL
p125
aV1
aV75
p126
aV-
aV-
aV-
aV-
aV3
aV59.1
p127
aV-
aV-
aV6.40
p128
aa(lp129
V2016/2017
p130
aVWatford
p131
aVEPL
p132
aV0(1)
p133
aV16
p134
aV-
aV-
aV-
aV-
aV-
aV100
p135
aV-
aV-
aV6.12
p136
aa(lp137
V2015/2016
p138
aVChelsea
p139
aVUCL
p140
aV1(1)
p141
aV107
p142
aV-
aV-
aV-
aV-
aV0.5
p143
aV90.5
p144
aV-
aV-
aV6.79
p145
aa(lp146
V2015/2016
p147
aVChelsea
p148
aVEPL
p149
aV4(10)
p150
aV552
p151
aV1
aV-
aV-
aV-
aV0.9
p152
aV86.2
p153
aV0.4
p154
aV1
aV6.65
p155
aa(lp156
V2015
p157
aVFluminense
p158
aVBSA
p159
aV1
aV90
p160
aV-
aV-
aV-
aV-
aV3
aV85.3
p161
aV-
aV-
aV6.97
p162
aa(lp163
V2014
p164
aVFluminense
p165
aVBSA
p166
aV2(18)
p167
aV507
p168
aV2
aV1
aV1
aV-
aV1.2
p169
aV84.3
p170
aV0.2
p171
aV-
aV6.39
p172
aa(lp173
V2013
p174
aVFluminense
p175
aVBSA
p176
aV3(6)
p177
aV348
p178
aV-
aV2
aV1
aV-
aV1.2
p179
aV77.9
p180
aV0.1
p181
aV-
aV6.24
p182
aa(lp183
VTotal / Average
p184
aV
aV
aV76
p185
aV3826
p186
aV6
aV6
aV3
aV0
aV1.4
p187
aV79.8
p188
aV0.3
p189
aV2
aV6.60
p190
aasS'defensive_data'
p191
(lp192
(lp193
a(lp194
V2018/2019
p195
aVNewcastle Uni..
p196
aVEPL
p197
aV13(2)
p198
aV1101
p199
aV1
aV1
aV-
aV-
aV1.9
p200
aV69.3
p201
aV0.4
p202
aV1
aV6.74
p203
aa(lp204
V2017/2018
p205
aVNewcastle Uni..
p206
aVEPL
p207
aV13
p208
aV1030
p209
aV2
aV2
aV1
aV-
aV1.8
p210
aV77.2
p211
aV0.2
p212
aV-
aV6.95
p213
aa(lp214
V2016/2017
p215
aVChelsea
p216
aVEPL
p217
aV1
aV75
p218
aV-
aV-
aV-
aV-
aV3
aV59.1
p219
aV-
aV-
aV6.40
p220
aa(lp221
V2016/2017
p222
aVWatford
p223
aVEPL
p224
aV0(1)
p225
aV16
p226
aV-
aV-
aV-
aV-
aV-
aV100
p227
aV-
aV-
aV6.12
p228
aa(lp229
V2015/2016
p230
aVChelsea
p231
aVUCL
p232
aV1(1)
p233
aV107
p234
aV-
aV-
aV-
aV-
aV0.5
p235
aV90.5
p236
aV-
aV-
aV6.79
p237
aa(lp238
V2015/2016
p239
aVChelsea
p240
aVEPL
p241
aV4(10)
p242
aV552
p243
aV1
aV-
aV-
aV-
aV0.9
p244
aV86.2
p245
aV0.4
p246
aV1
aV6.65
p247
aa(lp248
V2015
p249
aVFluminense
p250
aVBSA
p251
aV1
aV90
p252
aV-
aV-
aV-
aV-
aV3
aV85.3
p253
aV-
aV-
aV6.97
p254
aa(lp255
V2014
p256
aVFluminense
p257
aVBSA
p258
aV2(18)
p259
aV507
p260
aV2
aV1
aV1
aV-
aV1.2
p261
aV84.3
p262
aV0.2
p263
aV-
aV6.39
p264
aa(lp265
V2013
p266
aVFluminense
p267
aVBSA
p268
aV3(6)
p269
aV348
p270
aV-
aV2
aV1
aV-
aV1.2
p271
aV77.9
p272
aV0.1
p273
aV-
aV6.24
p274
aa(lp275
VTotal / Average
p276
aV
aV
aV76
p277
aV3826
p278
aV6
aV6
aV3
aV0
aV1.4
p279
aV79.8
p280
aV0.3
p281
aV2
aV6.60
p282
aasS'sumary_data'
p283
(lp284
(lp285
a(lp286
V2018/2019
p287
aVNewcastle Uni..
p288
aVEPL
p289
aV13(2)
p290
aV1101
p291
aV1
aV1
aV-
aV-
aV1.9
p292
aV69.3
p293
aV0.4
p294
aV1
aV6.74
p295
aa(lp296
V2017/2018
p297
aVNewcastle Uni..
p298
aVEPL
p299
aV13
p300
aV1030
p301
aV2
aV2
aV1
aV-
aV1.8
p302
aV77.2
p303
aV0.2
p304
aV-
aV6.95
p305
aa(lp306
V2016/2017
p307
aVChelsea
p308
aVEPL
p309
aV1
aV75
p310
aV-
aV-
aV-
aV-
aV3
aV59.1
p311
aV-
aV-
aV6.40
p312
aa(lp313
V2016/2017
p314
aVWatford
p315
aVEPL
p316
aV0(1)
p317
aV16
p318
aV-
aV-
aV-
aV-
aV-
aV100
p319
aV-
aV-
aV6.12
p320
aa(lp321
V2015/2016
p322
aVChelsea
p323
aVUCL
p324
aV1(1)
p325
aV107
p326
aV-
aV-
aV-
aV-
aV0.5
p327
aV90.5
p328
aV-
aV-
aV6.79
p329
aa(lp330
V2015/2016
p331
aVChelsea
p332
aVEPL
p333
aV4(10)
p334
aV552
p335
aV1
aV-
aV-
aV-
aV0.9
p336
aV86.2
p337
aV0.4
p338
aV1
aV6.65
p339
aa(lp340
V2015
p341
aVFluminense
p342
aVBSA
p343
aV1
aV90
p344
aV-
aV-
aV-
aV-
aV3
aV85.3
p345
aV-
aV-
aV6.97
p346
aa(lp347
V2014
p348
aVFluminense
p349
aVBSA
p350
aV2(18)
p351
aV507
p352
aV2
aV1
aV1
aV-
aV1.2
p353
aV84.3
p354
aV0.2
p355
aV-
aV6.39
p356
aa(lp357
V2013
p358
aVFluminense
p359
aVBSA
p360
aV3(6)
p361
aV348
p362
aV-
aV2
aV1
aV-
aV1.2
p363
aV77.9
p364
aV0.1
p365
aV-
aV6.24
p366
aa(lp367
VTotal / Average
p368
aV
aV
aV76
p369
aV3826
p370
aV6
aV6
aV3
aV0
aV1.4
p371
aV79.8
p372
aV0.3
p373
aV2
aV6.60
p374
aasS'id'
p375
V132838
p376
sb.