(i__main__
Player
p1
(dp2
S'name'
p3
VAlireza Jahanbakhsh 
p4
sS'offensive_data'
p5
(lp6
(lp7
a(lp8
V2018/2019
p9
aVBrighton
p10
aVEPL
p11
aV4(6)
p12
aV438
p13
aV-
aV-
aV2
aV-
aV1
aV70.9
p14
aV0.4
p15
aV-
aV6.38
p16
aa(lp17
V2017/2018
p18
aVAZ Alkmaar
p19
aVNE
p20
aV33
p21
aV2840
p22
aV21
p23
aV12
p24
aV3
aV-
aV4.3
p25
aV73.4
p26
aV0.7
p27
aV14
p28
aV8.20
p29
aa(lp30
V2016/2017
p31
aVAZ Alkmaar
p32
aVNE
p33
aV26(4)
p34
aV2277
p35
aV11
p36
aV8
aV4
aV-
aV2.7
p37
aV68.6
p38
aV0.7
p39
aV4
aV7.41
p40
aa(lp41
V2016/2017
p42
aVAZ Alkmaar
p43
aVUEL
p44
aV4(1)
p45
aV333
p46
aV1
aV-
aV1
aV-
aV3.4
p47
aV70.2
p48
aV0.4
p49
aV-
aV6.67
p50
aa(lp51
V2018
p52
aVIran
p53
aVWC
p54
aV2(1)
p55
aV171
p56
aV-
aV-
aV1
aV-
aV0.7
p57
aV60
p58
aV0.7
p59
aV-
aV6.60
p60
aa(lp61
V2015/2016
p62
aVAZ Alkmaar
p63
aVUEL
p64
aV2(1)
p65
aV169
p66
aV-
aV-
aV-
aV-
aV2
aV72.9
p67
aV0.7
p68
aV-
aV6.43
p69
aa(lp70
V2015/2016
p71
aVAZ Alkmaar
p72
aVNE
p73
aV21(2)
p74
aV1673
p75
aV3
aV5
aV5
aV-
aV2.3
p76
aV69.8
p77
aV0.8
p78
aV1
aV7.36
p79
aa(lp80
V2013/2014
p81
aVNEC Nijmegen
p82
aVNE
p83
aV11(16)
p84
aV1289
p85
aV5
aV4
aV6
aV-
aV1.6
p86
aV65.7
p87
aV0.9
p88
aV1
aV6.75
p89
aa(lp90
V2014
p91
aVIran
p92
aVWC
p93
aV0(3)
p94
aV44
p95
aV-
aV-
aV-
aV-
aV0.3
p96
aV75
p97
aV0.7
p98
aV-
aV6.25
p99
aa(lp100
VTotal / Average
p101
aV
aV
aV137
p102
aV9234
p103
aV41
p104
aV29
p105
aV22
p106
aV0
aV2.6
p107
aV69.7
p108
aV0.7
p109
aV20
p110
aV7.29
p111
aasS'url'
p112
S'https://www.whoscored.com/Players/133390/History/'
p113
sS'passing_data'
p114
(lp115
(lp116
a(lp117
V2018/2019
p118
aVBrighton
p119
aVEPL
p120
aV4(6)
p121
aV438
p122
aV-
aV-
aV2
aV-
aV1
aV70.9
p123
aV0.4
p124
aV-
aV6.38
p125
aa(lp126
V2017/2018
p127
aVAZ Alkmaar
p128
aVNE
p129
aV33
p130
aV2840
p131
aV21
p132
aV12
p133
aV3
aV-
aV4.3
p134
aV73.4
p135
aV0.7
p136
aV14
p137
aV8.20
p138
aa(lp139
V2016/2017
p140
aVAZ Alkmaar
p141
aVNE
p142
aV26(4)
p143
aV2277
p144
aV11
p145
aV8
aV4
aV-
aV2.7
p146
aV68.6
p147
aV0.7
p148
aV4
aV7.41
p149
aa(lp150
V2016/2017
p151
aVAZ Alkmaar
p152
aVUEL
p153
aV4(1)
p154
aV333
p155
aV1
aV-
aV1
aV-
aV3.4
p156
aV70.2
p157
aV0.4
p158
aV-
aV6.67
p159
aa(lp160
V2018
p161
aVIran
p162
aVWC
p163
aV2(1)
p164
aV171
p165
aV-
aV-
aV1
aV-
aV0.7
p166
aV60
p167
aV0.7
p168
aV-
aV6.60
p169
aa(lp170
V2015/2016
p171
aVAZ Alkmaar
p172
aVUEL
p173
aV2(1)
p174
aV169
p175
aV-
aV-
aV-
aV-
aV2
aV72.9
p176
aV0.7
p177
aV-
aV6.43
p178
aa(lp179
V2015/2016
p180
aVAZ Alkmaar
p181
aVNE
p182
aV21(2)
p183
aV1673
p184
aV3
aV5
aV5
aV-
aV2.3
p185
aV69.8
p186
aV0.8
p187
aV1
aV7.36
p188
aa(lp189
V2013/2014
p190
aVNEC Nijmegen
p191
aVNE
p192
aV11(16)
p193
aV1289
p194
aV5
aV4
aV6
aV-
aV1.6
p195
aV65.7
p196
aV0.9
p197
aV1
aV6.75
p198
aa(lp199
V2014
p200
aVIran
p201
aVWC
p202
aV0(3)
p203
aV44
p204
aV-
aV-
aV-
aV-
aV0.3
p205
aV75
p206
aV0.7
p207
aV-
aV6.25
p208
aa(lp209
VTotal / Average
p210
aV
aV
aV137
p211
aV9234
p212
aV41
p213
aV29
p214
aV22
p215
aV0
aV2.6
p216
aV69.7
p217
aV0.7
p218
aV20
p219
aV7.29
p220
aasS'defensive_data'
p221
(lp222
(lp223
a(lp224
V2018/2019
p225
aVBrighton
p226
aVEPL
p227
aV4(6)
p228
aV438
p229
aV-
aV-
aV2
aV-
aV1
aV70.9
p230
aV0.4
p231
aV-
aV6.38
p232
aa(lp233
V2017/2018
p234
aVAZ Alkmaar
p235
aVNE
p236
aV33
p237
aV2840
p238
aV21
p239
aV12
p240
aV3
aV-
aV4.3
p241
aV73.4
p242
aV0.7
p243
aV14
p244
aV8.20
p245
aa(lp246
V2016/2017
p247
aVAZ Alkmaar
p248
aVNE
p249
aV26(4)
p250
aV2277
p251
aV11
p252
aV8
aV4
aV-
aV2.7
p253
aV68.6
p254
aV0.7
p255
aV4
aV7.41
p256
aa(lp257
V2016/2017
p258
aVAZ Alkmaar
p259
aVUEL
p260
aV4(1)
p261
aV333
p262
aV1
aV-
aV1
aV-
aV3.4
p263
aV70.2
p264
aV0.4
p265
aV-
aV6.67
p266
aa(lp267
V2018
p268
aVIran
p269
aVWC
p270
aV2(1)
p271
aV171
p272
aV-
aV-
aV1
aV-
aV0.7
p273
aV60
p274
aV0.7
p275
aV-
aV6.60
p276
aa(lp277
V2015/2016
p278
aVAZ Alkmaar
p279
aVUEL
p280
aV2(1)
p281
aV169
p282
aV-
aV-
aV-
aV-
aV2
aV72.9
p283
aV0.7
p284
aV-
aV6.43
p285
aa(lp286
V2015/2016
p287
aVAZ Alkmaar
p288
aVNE
p289
aV21(2)
p290
aV1673
p291
aV3
aV5
aV5
aV-
aV2.3
p292
aV69.8
p293
aV0.8
p294
aV1
aV7.36
p295
aa(lp296
V2013/2014
p297
aVNEC Nijmegen
p298
aVNE
p299
aV11(16)
p300
aV1289
p301
aV5
aV4
aV6
aV-
aV1.6
p302
aV65.7
p303
aV0.9
p304
aV1
aV6.75
p305
aa(lp306
V2014
p307
aVIran
p308
aVWC
p309
aV0(3)
p310
aV44
p311
aV-
aV-
aV-
aV-
aV0.3
p312
aV75
p313
aV0.7
p314
aV-
aV6.25
p315
aa(lp316
VTotal / Average
p317
aV
aV
aV137
p318
aV9234
p319
aV41
p320
aV29
p321
aV22
p322
aV0
aV2.6
p323
aV69.7
p324
aV0.7
p325
aV20
p326
aV7.29
p327
aasS'sumary_data'
p328
(lp329
(lp330
a(lp331
V2018/2019
p332
aVBrighton
p333
aVEPL
p334
aV4(6)
p335
aV438
p336
aV-
aV-
aV2
aV-
aV1
aV70.9
p337
aV0.4
p338
aV-
aV6.38
p339
aa(lp340
V2017/2018
p341
aVAZ Alkmaar
p342
aVNE
p343
aV33
p344
aV2840
p345
aV21
p346
aV12
p347
aV3
aV-
aV4.3
p348
aV73.4
p349
aV0.7
p350
aV14
p351
aV8.20
p352
aa(lp353
V2016/2017
p354
aVAZ Alkmaar
p355
aVNE
p356
aV26(4)
p357
aV2277
p358
aV11
p359
aV8
aV4
aV-
aV2.7
p360
aV68.6
p361
aV0.7
p362
aV4
aV7.41
p363
aa(lp364
V2016/2017
p365
aVAZ Alkmaar
p366
aVUEL
p367
aV4(1)
p368
aV333
p369
aV1
aV-
aV1
aV-
aV3.4
p370
aV70.2
p371
aV0.4
p372
aV-
aV6.67
p373
aa(lp374
V2018
p375
aVIran
p376
aVWC
p377
aV2(1)
p378
aV171
p379
aV-
aV-
aV1
aV-
aV0.7
p380
aV60
p381
aV0.7
p382
aV-
aV6.60
p383
aa(lp384
V2015/2016
p385
aVAZ Alkmaar
p386
aVUEL
p387
aV2(1)
p388
aV169
p389
aV-
aV-
aV-
aV-
aV2
aV72.9
p390
aV0.7
p391
aV-
aV6.43
p392
aa(lp393
V2015/2016
p394
aVAZ Alkmaar
p395
aVNE
p396
aV21(2)
p397
aV1673
p398
aV3
aV5
aV5
aV-
aV2.3
p399
aV69.8
p400
aV0.8
p401
aV1
aV7.36
p402
aa(lp403
V2013/2014
p404
aVNEC Nijmegen
p405
aVNE
p406
aV11(16)
p407
aV1289
p408
aV5
aV4
aV6
aV-
aV1.6
p409
aV65.7
p410
aV0.9
p411
aV1
aV6.75
p412
aa(lp413
V2014
p414
aVIran
p415
aVWC
p416
aV0(3)
p417
aV44
p418
aV-
aV-
aV-
aV-
aV0.3
p419
aV75
p420
aV0.7
p421
aV-
aV6.25
p422
aa(lp423
VTotal / Average
p424
aV
aV
aV137
p425
aV9234
p426
aV41
p427
aV29
p428
aV22
p429
aV0
aV2.6
p430
aV69.7
p431
aV0.7
p432
aV20
p433
aV7.29
p434
aasS'id'
p435
V133390
p436
sb.