(i__main__
Player
p1
(dp2
S'name'
p3
VJefferson Lerma 
p4
sS'offensive_data'
p5
(lp6
(lp7
a(lp8
V2018/2019
p9
aVBournemouth
p10
aVEPL
p11
aV13
p12
aV1112
p13
aV1
aV-
aV7
aV-
aV1.2
p14
aV82.5
p15
aV2.5
p16
aV-
aV7.02
p17
aa(lp18
V2017/2018
p19
aVLevante
p20
aVSLL
p21
aV25(1)
p22
aV2138
p23
aV-
aV1
aV16
p24
aV-
aV1
aV81.7
p25
aV3.4
p26
aV-
aV6.99
p27
aa(lp28
V2018
p29
aVColombia
p30
aVWC
p31
aV2(2)
p32
aV176
p33
aV-
aV-
aV-
aV-
aV0.3
p34
aV84.6
p35
aV0.8
p36
aV-
aV6.22
p37
aa(lp38
V2015/2016
p39
aVLevante
p40
aVSLL
p41
aV31(2)
p42
aV2686
p43
aV1
aV2
aV11
p44
aV-
aV1.1
p45
aV75.1
p46
aV1.9
p47
aV-
aV6.68
p48
aa(lp49
VTotal / Average
p50
aV
aV
aV76
p51
aV6112
p52
aV2
aV3
aV34
p53
aV0
aV1
aV79.1
p54
aV2.5
p55
aV0
aV6.82
p56
aasS'url'
p57
S'https://www.whoscored.com/Players/133464/History/'
p58
sS'passing_data'
p59
(lp60
(lp61
a(lp62
V2018/2019
p63
aVBournemouth
p64
aVEPL
p65
aV13
p66
aV1112
p67
aV1
aV-
aV7
aV-
aV1.2
p68
aV82.5
p69
aV2.5
p70
aV-
aV7.02
p71
aa(lp72
V2017/2018
p73
aVLevante
p74
aVSLL
p75
aV25(1)
p76
aV2138
p77
aV-
aV1
aV16
p78
aV-
aV1
aV81.7
p79
aV3.4
p80
aV-
aV6.99
p81
aa(lp82
V2018
p83
aVColombia
p84
aVWC
p85
aV2(2)
p86
aV176
p87
aV-
aV-
aV-
aV-
aV0.3
p88
aV84.6
p89
aV0.8
p90
aV-
aV6.22
p91
aa(lp92
V2015/2016
p93
aVLevante
p94
aVSLL
p95
aV31(2)
p96
aV2686
p97
aV1
aV2
aV11
p98
aV-
aV1.1
p99
aV75.1
p100
aV1.9
p101
aV-
aV6.68
p102
aa(lp103
VTotal / Average
p104
aV
aV
aV76
p105
aV6112
p106
aV2
aV3
aV34
p107
aV0
aV1
aV79.1
p108
aV2.5
p109
aV0
aV6.82
p110
aasS'defensive_data'
p111
(lp112
(lp113
a(lp114
V2018/2019
p115
aVBournemouth
p116
aVEPL
p117
aV13
p118
aV1112
p119
aV1
aV-
aV7
aV-
aV1.2
p120
aV82.5
p121
aV2.5
p122
aV-
aV7.02
p123
aa(lp124
V2017/2018
p125
aVLevante
p126
aVSLL
p127
aV25(1)
p128
aV2138
p129
aV-
aV1
aV16
p130
aV-
aV1
aV81.7
p131
aV3.4
p132
aV-
aV6.99
p133
aa(lp134
V2018
p135
aVColombia
p136
aVWC
p137
aV2(2)
p138
aV176
p139
aV-
aV-
aV-
aV-
aV0.3
p140
aV84.6
p141
aV0.8
p142
aV-
aV6.22
p143
aa(lp144
V2015/2016
p145
aVLevante
p146
aVSLL
p147
aV31(2)
p148
aV2686
p149
aV1
aV2
aV11
p150
aV-
aV1.1
p151
aV75.1
p152
aV1.9
p153
aV-
aV6.68
p154
aa(lp155
VTotal / Average
p156
aV
aV
aV76
p157
aV6112
p158
aV2
aV3
aV34
p159
aV0
aV1
aV79.1
p160
aV2.5
p161
aV0
aV6.82
p162
aasS'sumary_data'
p163
(lp164
(lp165
a(lp166
V2018/2019
p167
aVBournemouth
p168
aVEPL
p169
aV13
p170
aV1112
p171
aV1
aV-
aV7
aV-
aV1.2
p172
aV82.5
p173
aV2.5
p174
aV-
aV7.02
p175
aa(lp176
V2017/2018
p177
aVLevante
p178
aVSLL
p179
aV25(1)
p180
aV2138
p181
aV-
aV1
aV16
p182
aV-
aV1
aV81.7
p183
aV3.4
p184
aV-
aV6.99
p185
aa(lp186
V2018
p187
aVColombia
p188
aVWC
p189
aV2(2)
p190
aV176
p191
aV-
aV-
aV-
aV-
aV0.3
p192
aV84.6
p193
aV0.8
p194
aV-
aV6.22
p195
aa(lp196
V2015/2016
p197
aVLevante
p198
aVSLL
p199
aV31(2)
p200
aV2686
p201
aV1
aV2
aV11
p202
aV-
aV1.1
p203
aV75.1
p204
aV1.9
p205
aV-
aV6.68
p206
aa(lp207
VTotal / Average
p208
aV
aV
aV76
p209
aV6112
p210
aV2
aV3
aV34
p211
aV0
aV1
aV79.1
p212
aV2.5
p213
aV0
aV6.82
p214
aasS'id'
p215
V133464
p216
sb.