(i__main__
Player
p1
(dp2
S'name'
p3
VFernando Llorente 
p4
sS'offensive_data'
p5
(lp6
(lp7
a(lp8
V2018/2019
p9
aVTottenham
p10
aVEPL
p11
aV0(3)
p12
aV21
p13
aV-
aV-
aV-
aV-
aV0.3
p14
aV80
p15
aV-
aV-
aV6.06
p16
aa(lp17
V2018/2019
p18
aVTottenham
p19
aVUCL
p20
aV0(3)
p21
aV34
p22
aV-
aV1
aV-
aV-
aV0.3
p23
aV70
p24
aV0.7
p25
aV-
aV6.30
p26
aa(lp27
V2017/2018
p28
aVTottenham
p29
aVUCL
p30
aV2(5)
p31
aV226
p32
aV1
aV1
aV-
aV-
aV0.7
p33
aV68.2
p34
aV1.4
p35
aV1
aV6.54
p36
aa(lp37
V2017/2018
p38
aVTottenham
p39
aVEPL
p40
aV1(15)
p41
aV227
p42
aV1
aV-
aV1
aV-
aV0.4
p43
aV68.2
p44
aV0.9
p45
aV-
aV6.20
p46
aa(lp47
V2016/2017
p48
aVSwansea
p49
aVEPL
p50
aV28(5)
p51
aV2454
p52
aV15
p53
aV1
aV2
aV-
aV1.6
p54
aV66.4
p55
aV4.7
p56
aV4
aV6.98
p57
aa(lp58
V2015/2016
p59
aVJuventus
p60
aVISA
p61
aV0(1)
p62
aV11
p63
aV-
aV-
aV-
aV-
aV-
aV50
p64
aV2
aV-
aV6.09
p65
aa(lp66
V2015/2016
p67
aVSevilla
p68
aVSLL
p69
aV14(9)
p70
aV1162
p71
aV4
aV3
aV4
aV-
aV1.3
p72
aV63.7
p73
aV2.8
p74
aV-
aV6.59
p75
aa(lp76
V2015/2016
p77
aVSevilla
p78
aVUEL
p79
aV2(2)
p80
aV157
p81
aV2
aV-
aV-
aV-
aV1.8
p82
aV74.4
p83
aV1.5
p84
aV-
aV6.80
p85
aa(lp86
V2015/2016
p87
aVSevilla
p88
aVUCL
p89
aV2(1)
p90
aV155
p91
aV1
aV1
aV-
aV-
aV3
aV73.7
p92
aV4
aV-
aV6.96
p93
aa(lp94
V2014/2015
p95
aVJuventus
p96
aVISA
p97
aV25(6)
p98
aV1962
p99
aV7
aV1
aV-
aV-
aV1.6
p100
aV70.2
p101
aV2.1
p102
aV-
aV6.70
p103
aa(lp104
V2014/2015
p105
aVJuventus
p106
aVUCL
p107
aV4(5)
p108
aV414
p109
aV1
aV-
aV-
aV-
aV1.4
p110
aV75.4
p111
aV2
aV-
aV6.55
p112
aa(lp113
V2013/2014
p114
aVJuventus
p115
aVISA
p116
aV29(5)
p117
aV2504
p118
aV16
p119
aV5
aV3
aV-
aV1.9
p120
aV72.5
p121
aV2.8
p122
aV5
aV7.21
p123
aa(lp124
V2013/2014
p125
aVJuventus
p126
aVUCL
p127
aV4(1)
p128
aV340
p129
aV2
aV-
aV-
aV-
aV2
aV68.8
p130
aV3.6
p131
aV-
aV7.00
p132
aa(lp133
V2013/2014
p134
aVJuventus
p135
aVUEL
p136
aV2(3)
p137
aV247
p138
aV-
aV-
aV-
aV-
aV1.2
p139
aV70.7
p140
aV1.2
p141
aV-
aV6.30
p142
aa(lp143
V2012/2013
p144
aVAthletic Bilb..
p145
aVSLL
p146
aV4(22)
p147
aV869
p148
aV4
aV1
aV2
aV-
aV1.4
p149
aV70.4
p150
aV1.5
p151
aV1
aV6.49
p152
aa(lp153
V2012/2013
p154
aVAthletic Bilb..
p155
aVUEL
p156
aV2(4)
p157
aV257
p158
aV1
aV2
aV-
aV-
aV3.5
p159
aV75.6
p160
aV1.2
p161
aV1
aV6.94
p162
aa(lp163
V2011/2012
p164
aVAthletic Bilb..
p165
aVSLL
p166
aV24(8)
p167
aV2253
p168
aV17
p169
aV1
aV-
aV-
aV2.5
p170
aV68
p171
aV1.4
p172
aV4
aV7.04
p173
aa(lp174
V2010/2011
p175
aVAthletic Bilb..
p176
aVSLL
p177
aV37(1)
p178
aV3176
p179
aV18
p180
aV2
aV4
aV-
aV3.2
p181
aV62.9
p182
aV4.3
p183
aV6
aV7.29
p184
aa(lp185
V2009/2010
p186
aVAthletic Bilb..
p187
aVSLL
p188
aV35(2)
p189
aV2870
p190
aV14
p191
aV5
aV-
aV-
aV3.1
p192
aV61.1
p193
aV4.1
p194
aV5
aV7.34
p195
aa(lp196
VTotal / Average
p197
aV
aV
aV316
p198
aV19339
p199
aV104
p200
aV24
p201
aV16
p202
aV0
aV2
aV67.6
p203
aV2.8
p204
aV27
p205
aV6.90
p206
aasS'url'
p207
S'https://www.whoscored.com/Players/13361/History/'
p208
sS'passing_data'
p209
(lp210
(lp211
a(lp212
V2018/2019
p213
aVTottenham
p214
aVEPL
p215
aV0(3)
p216
aV21
p217
aV-
aV-
aV-
aV-
aV0.3
p218
aV80
p219
aV-
aV-
aV6.06
p220
aa(lp221
V2018/2019
p222
aVTottenham
p223
aVUCL
p224
aV0(3)
p225
aV34
p226
aV-
aV1
aV-
aV-
aV0.3
p227
aV70
p228
aV0.7
p229
aV-
aV6.30
p230
aa(lp231
V2017/2018
p232
aVTottenham
p233
aVUCL
p234
aV2(5)
p235
aV226
p236
aV1
aV1
aV-
aV-
aV0.7
p237
aV68.2
p238
aV1.4
p239
aV1
aV6.54
p240
aa(lp241
V2017/2018
p242
aVTottenham
p243
aVEPL
p244
aV1(15)
p245
aV227
p246
aV1
aV-
aV1
aV-
aV0.4
p247
aV68.2
p248
aV0.9
p249
aV-
aV6.20
p250
aa(lp251
V2016/2017
p252
aVSwansea
p253
aVEPL
p254
aV28(5)
p255
aV2454
p256
aV15
p257
aV1
aV2
aV-
aV1.6
p258
aV66.4
p259
aV4.7
p260
aV4
aV6.98
p261
aa(lp262
V2015/2016
p263
aVJuventus
p264
aVISA
p265
aV0(1)
p266
aV11
p267
aV-
aV-
aV-
aV-
aV-
aV50
p268
aV2
aV-
aV6.09
p269
aa(lp270
V2015/2016
p271
aVSevilla
p272
aVSLL
p273
aV14(9)
p274
aV1162
p275
aV4
aV3
aV4
aV-
aV1.3
p276
aV63.7
p277
aV2.8
p278
aV-
aV6.59
p279
aa(lp280
V2015/2016
p281
aVSevilla
p282
aVUEL
p283
aV2(2)
p284
aV157
p285
aV2
aV-
aV-
aV-
aV1.8
p286
aV74.4
p287
aV1.5
p288
aV-
aV6.80
p289
aa(lp290
V2015/2016
p291
aVSevilla
p292
aVUCL
p293
aV2(1)
p294
aV155
p295
aV1
aV1
aV-
aV-
aV3
aV73.7
p296
aV4
aV-
aV6.96
p297
aa(lp298
V2014/2015
p299
aVJuventus
p300
aVISA
p301
aV25(6)
p302
aV1962
p303
aV7
aV1
aV-
aV-
aV1.6
p304
aV70.2
p305
aV2.1
p306
aV-
aV6.70
p307
aa(lp308
V2014/2015
p309
aVJuventus
p310
aVUCL
p311
aV4(5)
p312
aV414
p313
aV1
aV-
aV-
aV-
aV1.4
p314
aV75.4
p315
aV2
aV-
aV6.55
p316
aa(lp317
V2013/2014
p318
aVJuventus
p319
aVISA
p320
aV29(5)
p321
aV2504
p322
aV16
p323
aV5
aV3
aV-
aV1.9
p324
aV72.5
p325
aV2.8
p326
aV5
aV7.21
p327
aa(lp328
V2013/2014
p329
aVJuventus
p330
aVUCL
p331
aV4(1)
p332
aV340
p333
aV2
aV-
aV-
aV-
aV2
aV68.8
p334
aV3.6
p335
aV-
aV7.00
p336
aa(lp337
V2013/2014
p338
aVJuventus
p339
aVUEL
p340
aV2(3)
p341
aV247
p342
aV-
aV-
aV-
aV-
aV1.2
p343
aV70.7
p344
aV1.2
p345
aV-
aV6.30
p346
aa(lp347
V2012/2013
p348
aVAthletic Bilb..
p349
aVSLL
p350
aV4(22)
p351
aV869
p352
aV4
aV1
aV2
aV-
aV1.4
p353
aV70.4
p354
aV1.5
p355
aV1
aV6.49
p356
aa(lp357
V2012/2013
p358
aVAthletic Bilb..
p359
aVUEL
p360
aV2(4)
p361
aV257
p362
aV1
aV2
aV-
aV-
aV3.5
p363
aV75.6
p364
aV1.2
p365
aV1
aV6.94
p366
aa(lp367
V2011/2012
p368
aVAthletic Bilb..
p369
aVSLL
p370
aV24(8)
p371
aV2253
p372
aV17
p373
aV1
aV-
aV-
aV2.5
p374
aV68
p375
aV1.4
p376
aV4
aV7.04
p377
aa(lp378
V2010/2011
p379
aVAthletic Bilb..
p380
aVSLL
p381
aV37(1)
p382
aV3176
p383
aV18
p384
aV2
aV4
aV-
aV3.2
p385
aV62.9
p386
aV4.3
p387
aV6
aV7.29
p388
aa(lp389
V2009/2010
p390
aVAthletic Bilb..
p391
aVSLL
p392
aV35(2)
p393
aV2870
p394
aV14
p395
aV5
aV-
aV-
aV3.1
p396
aV61.1
p397
aV4.1
p398
aV5
aV7.34
p399
aa(lp400
VTotal / Average
p401
aV
aV
aV316
p402
aV19339
p403
aV104
p404
aV24
p405
aV16
p406
aV0
aV2
aV67.6
p407
aV2.8
p408
aV27
p409
aV6.90
p410
aasS'defensive_data'
p411
(lp412
(lp413
a(lp414
V2018/2019
p415
aVTottenham
p416
aVEPL
p417
aV0(3)
p418
aV21
p419
aV-
aV-
aV-
aV-
aV0.3
p420
aV80
p421
aV-
aV-
aV6.06
p422
aa(lp423
V2018/2019
p424
aVTottenham
p425
aVUCL
p426
aV0(3)
p427
aV34
p428
aV-
aV1
aV-
aV-
aV0.3
p429
aV70
p430
aV0.7
p431
aV-
aV6.30
p432
aa(lp433
V2017/2018
p434
aVTottenham
p435
aVUCL
p436
aV2(5)
p437
aV226
p438
aV1
aV1
aV-
aV-
aV0.7
p439
aV68.2
p440
aV1.4
p441
aV1
aV6.54
p442
aa(lp443
V2017/2018
p444
aVTottenham
p445
aVEPL
p446
aV1(15)
p447
aV227
p448
aV1
aV-
aV1
aV-
aV0.4
p449
aV68.2
p450
aV0.9
p451
aV-
aV6.20
p452
aa(lp453
V2016/2017
p454
aVSwansea
p455
aVEPL
p456
aV28(5)
p457
aV2454
p458
aV15
p459
aV1
aV2
aV-
aV1.6
p460
aV66.4
p461
aV4.7
p462
aV4
aV6.98
p463
aa(lp464
V2015/2016
p465
aVJuventus
p466
aVISA
p467
aV0(1)
p468
aV11
p469
aV-
aV-
aV-
aV-
aV-
aV50
p470
aV2
aV-
aV6.09
p471
aa(lp472
V2015/2016
p473
aVSevilla
p474
aVSLL
p475
aV14(9)
p476
aV1162
p477
aV4
aV3
aV4
aV-
aV1.3
p478
aV63.7
p479
aV2.8
p480
aV-
aV6.59
p481
aa(lp482
V2015/2016
p483
aVSevilla
p484
aVUEL
p485
aV2(2)
p486
aV157
p487
aV2
aV-
aV-
aV-
aV1.8
p488
aV74.4
p489
aV1.5
p490
aV-
aV6.80
p491
aa(lp492
V2015/2016
p493
aVSevilla
p494
aVUCL
p495
aV2(1)
p496
aV155
p497
aV1
aV1
aV-
aV-
aV3
aV73.7
p498
aV4
aV-
aV6.96
p499
aa(lp500
V2014/2015
p501
aVJuventus
p502
aVISA
p503
aV25(6)
p504
aV1962
p505
aV7
aV1
aV-
aV-
aV1.6
p506
aV70.2
p507
aV2.1
p508
aV-
aV6.70
p509
aa(lp510
V2014/2015
p511
aVJuventus
p512
aVUCL
p513
aV4(5)
p514
aV414
p515
aV1
aV-
aV-
aV-
aV1.4
p516
aV75.4
p517
aV2
aV-
aV6.55
p518
aa(lp519
V2013/2014
p520
aVJuventus
p521
aVISA
p522
aV29(5)
p523
aV2504
p524
aV16
p525
aV5
aV3
aV-
aV1.9
p526
aV72.5
p527
aV2.8
p528
aV5
aV7.21
p529
aa(lp530
V2013/2014
p531
aVJuventus
p532
aVUCL
p533
aV4(1)
p534
aV340
p535
aV2
aV-
aV-
aV-
aV2
aV68.8
p536
aV3.6
p537
aV-
aV7.00
p538
aa(lp539
V2013/2014
p540
aVJuventus
p541
aVUEL
p542
aV2(3)
p543
aV247
p544
aV-
aV-
aV-
aV-
aV1.2
p545
aV70.7
p546
aV1.2
p547
aV-
aV6.30
p548
aa(lp549
V2012/2013
p550
aVAthletic Bilb..
p551
aVSLL
p552
aV4(22)
p553
aV869
p554
aV4
aV1
aV2
aV-
aV1.4
p555
aV70.4
p556
aV1.5
p557
aV1
aV6.49
p558
aa(lp559
V2012/2013
p560
aVAthletic Bilb..
p561
aVUEL
p562
aV2(4)
p563
aV257
p564
aV1
aV2
aV-
aV-
aV3.5
p565
aV75.6
p566
aV1.2
p567
aV1
aV6.94
p568
aa(lp569
V2011/2012
p570
aVAthletic Bilb..
p571
aVSLL
p572
aV24(8)
p573
aV2253
p574
aV17
p575
aV1
aV-
aV-
aV2.5
p576
aV68
p577
aV1.4
p578
aV4
aV7.04
p579
aa(lp580
V2010/2011
p581
aVAthletic Bilb..
p582
aVSLL
p583
aV37(1)
p584
aV3176
p585
aV18
p586
aV2
aV4
aV-
aV3.2
p587
aV62.9
p588
aV4.3
p589
aV6
aV7.29
p590
aa(lp591
V2009/2010
p592
aVAthletic Bilb..
p593
aVSLL
p594
aV35(2)
p595
aV2870
p596
aV14
p597
aV5
aV-
aV-
aV3.1
p598
aV61.1
p599
aV4.1
p600
aV5
aV7.34
p601
aa(lp602
VTotal / Average
p603
aV
aV
aV316
p604
aV19339
p605
aV104
p606
aV24
p607
aV16
p608
aV0
aV2
aV67.6
p609
aV2.8
p610
aV27
p611
aV6.90
p612
aasS'sumary_data'
p613
(lp614
(lp615
a(lp616
V2018/2019
p617
aVTottenham
p618
aVEPL
p619
aV0(3)
p620
aV21
p621
aV-
aV-
aV-
aV-
aV0.3
p622
aV80
p623
aV-
aV-
aV6.06
p624
aa(lp625
V2018/2019
p626
aVTottenham
p627
aVUCL
p628
aV0(3)
p629
aV34
p630
aV-
aV1
aV-
aV-
aV0.3
p631
aV70
p632
aV0.7
p633
aV-
aV6.30
p634
aa(lp635
V2017/2018
p636
aVTottenham
p637
aVUCL
p638
aV2(5)
p639
aV226
p640
aV1
aV1
aV-
aV-
aV0.7
p641
aV68.2
p642
aV1.4
p643
aV1
aV6.54
p644
aa(lp645
V2017/2018
p646
aVTottenham
p647
aVEPL
p648
aV1(15)
p649
aV227
p650
aV1
aV-
aV1
aV-
aV0.4
p651
aV68.2
p652
aV0.9
p653
aV-
aV6.20
p654
aa(lp655
V2016/2017
p656
aVSwansea
p657
aVEPL
p658
aV28(5)
p659
aV2454
p660
aV15
p661
aV1
aV2
aV-
aV1.6
p662
aV66.4
p663
aV4.7
p664
aV4
aV6.98
p665
aa(lp666
V2015/2016
p667
aVJuventus
p668
aVISA
p669
aV0(1)
p670
aV11
p671
aV-
aV-
aV-
aV-
aV-
aV50
p672
aV2
aV-
aV6.09
p673
aa(lp674
V2015/2016
p675
aVSevilla
p676
aVSLL
p677
aV14(9)
p678
aV1162
p679
aV4
aV3
aV4
aV-
aV1.3
p680
aV63.7
p681
aV2.8
p682
aV-
aV6.59
p683
aa(lp684
V2015/2016
p685
aVSevilla
p686
aVUEL
p687
aV2(2)
p688
aV157
p689
aV2
aV-
aV-
aV-
aV1.8
p690
aV74.4
p691
aV1.5
p692
aV-
aV6.80
p693
aa(lp694
V2015/2016
p695
aVSevilla
p696
aVUCL
p697
aV2(1)
p698
aV155
p699
aV1
aV1
aV-
aV-
aV3
aV73.7
p700
aV4
aV-
aV6.96
p701
aa(lp702
V2014/2015
p703
aVJuventus
p704
aVISA
p705
aV25(6)
p706
aV1962
p707
aV7
aV1
aV-
aV-
aV1.6
p708
aV70.2
p709
aV2.1
p710
aV-
aV6.70
p711
aa(lp712
V2014/2015
p713
aVJuventus
p714
aVUCL
p715
aV4(5)
p716
aV414
p717
aV1
aV-
aV-
aV-
aV1.4
p718
aV75.4
p719
aV2
aV-
aV6.55
p720
aa(lp721
V2013/2014
p722
aVJuventus
p723
aVISA
p724
aV29(5)
p725
aV2504
p726
aV16
p727
aV5
aV3
aV-
aV1.9
p728
aV72.5
p729
aV2.8
p730
aV5
aV7.21
p731
aa(lp732
V2013/2014
p733
aVJuventus
p734
aVUCL
p735
aV4(1)
p736
aV340
p737
aV2
aV-
aV-
aV-
aV2
aV68.8
p738
aV3.6
p739
aV-
aV7.00
p740
aa(lp741
V2013/2014
p742
aVJuventus
p743
aVUEL
p744
aV2(3)
p745
aV247
p746
aV-
aV-
aV-
aV-
aV1.2
p747
aV70.7
p748
aV1.2
p749
aV-
aV6.30
p750
aa(lp751
V2012/2013
p752
aVAthletic Bilb..
p753
aVSLL
p754
aV4(22)
p755
aV869
p756
aV4
aV1
aV2
aV-
aV1.4
p757
aV70.4
p758
aV1.5
p759
aV1
aV6.49
p760
aa(lp761
V2012/2013
p762
aVAthletic Bilb..
p763
aVUEL
p764
aV2(4)
p765
aV257
p766
aV1
aV2
aV-
aV-
aV3.5
p767
aV75.6
p768
aV1.2
p769
aV1
aV6.94
p770
aa(lp771
V2011/2012
p772
aVAthletic Bilb..
p773
aVSLL
p774
aV24(8)
p775
aV2253
p776
aV17
p777
aV1
aV-
aV-
aV2.5
p778
aV68
p779
aV1.4
p780
aV4
aV7.04
p781
aa(lp782
V2010/2011
p783
aVAthletic Bilb..
p784
aVSLL
p785
aV37(1)
p786
aV3176
p787
aV18
p788
aV2
aV4
aV-
aV3.2
p789
aV62.9
p790
aV4.3
p791
aV6
aV7.29
p792
aa(lp793
V2009/2010
p794
aVAthletic Bilb..
p795
aVSLL
p796
aV35(2)
p797
aV2870
p798
aV14
p799
aV5
aV-
aV-
aV3.1
p800
aV61.1
p801
aV4.1
p802
aV5
aV7.34
p803
aa(lp804
VTotal / Average
p805
aV
aV
aV316
p806
aV19339
p807
aV104
p808
aV24
p809
aV16
p810
aV0
aV2
aV67.6
p811
aV2.8
p812
aV27
p813
aV6.90
p814
aasS'id'
p815
V13361
p816
sb.