(i__main__
Player
p1
(dp2
S'name'
p3
VCyrus Christie 
p4
sS'offensive_data'
p5
(lp6
(lp7
a(lp8
V2018/2019
p9
aVFulham
p10
aVEPL
p11
aV7(4)
p12
aV801
p13
aV-
aV-
aV1
aV-
aV0.5
p14
aV72.3
p15
aV1.9
p16
aV-
aV6.58
p17
aa(lp18
V2018/2019
p19
aVIreland
p20
aVUNL
p21
aV4
aV360
p22
aV-
aV-
aV2
aV-
aV0.5
p23
aV80.2
p24
aV2
aV-
aV6.64
p25
aa(lp26
V2017/2018
p27
aVMiddlesbrough
p28
aVEC
p29
aV24(1)
p30
aV2122
p31
aV1
aV4
aV7
aV-
aV0.7
p32
aV78.6
p33
aV2.1
p34
aV3
aV7.20
p35
aa(lp36
V2017/2018
p37
aVFulham
p38
aVEC
p39
aV1(5)
p40
aV142
p41
aV-
aV1
aV-
aV-
aV-
aV68.2
p42
aV1.5
p43
aV-
aV6.52
p44
aa(lp45
V2016/2017
p46
aVDerby
p47
aVEC
p48
aV24(3)
p49
aV2151
p50
aV1
aV-
aV4
aV-
aV0.6
p51
aV75.7
p52
aV2.3
p53
aV3
aV7.15
p54
aa(lp55
V2015/2016
p56
aVDerby
p57
aVEC
p58
aV42(2)
p59
aV3757
p60
aV1
aV3
aV8
aV-
aV0.5
p61
aV74.6
p62
aV1.8
p63
aV3
aV7.21
p64
aa(lp65
V2014/2015
p66
aVDerby
p67
aVEC
p68
aV34(4)
p69
aV3091
p70
aV-
aV6
aV8
aV-
aV0.3
p71
aV77.8
p72
aV1.4
p73
aV-
aV6.99
p74
aa(lp75
VTotal / Average
p76
aV
aV
aV155
p77
aV12424
p78
aV3
aV14
p79
aV30
p80
aV0
aV0.5
p81
aV76
p82
aV1.9
p83
aV9
aV7.06
p84
aasS'url'
p85
S'https://www.whoscored.com/Players/134111/History/'
p86
sS'passing_data'
p87
(lp88
(lp89
a(lp90
V2018/2019
p91
aVFulham
p92
aVEPL
p93
aV7(4)
p94
aV801
p95
aV-
aV-
aV1
aV-
aV0.5
p96
aV72.3
p97
aV1.9
p98
aV-
aV6.58
p99
aa(lp100
V2018/2019
p101
aVIreland
p102
aVUNL
p103
aV4
aV360
p104
aV-
aV-
aV2
aV-
aV0.5
p105
aV80.2
p106
aV2
aV-
aV6.64
p107
aa(lp108
V2017/2018
p109
aVMiddlesbrough
p110
aVEC
p111
aV24(1)
p112
aV2122
p113
aV1
aV4
aV7
aV-
aV0.7
p114
aV78.6
p115
aV2.1
p116
aV3
aV7.20
p117
aa(lp118
V2017/2018
p119
aVFulham
p120
aVEC
p121
aV1(5)
p122
aV142
p123
aV-
aV1
aV-
aV-
aV-
aV68.2
p124
aV1.5
p125
aV-
aV6.52
p126
aa(lp127
V2016/2017
p128
aVDerby
p129
aVEC
p130
aV24(3)
p131
aV2151
p132
aV1
aV-
aV4
aV-
aV0.6
p133
aV75.7
p134
aV2.3
p135
aV3
aV7.15
p136
aa(lp137
V2015/2016
p138
aVDerby
p139
aVEC
p140
aV42(2)
p141
aV3757
p142
aV1
aV3
aV8
aV-
aV0.5
p143
aV74.6
p144
aV1.8
p145
aV3
aV7.21
p146
aa(lp147
V2014/2015
p148
aVDerby
p149
aVEC
p150
aV34(4)
p151
aV3091
p152
aV-
aV6
aV8
aV-
aV0.3
p153
aV77.8
p154
aV1.4
p155
aV-
aV6.99
p156
aa(lp157
VTotal / Average
p158
aV
aV
aV155
p159
aV12424
p160
aV3
aV14
p161
aV30
p162
aV0
aV0.5
p163
aV76
p164
aV1.9
p165
aV9
aV7.06
p166
aasS'defensive_data'
p167
(lp168
(lp169
a(lp170
V2018/2019
p171
aVFulham
p172
aVEPL
p173
aV7(4)
p174
aV801
p175
aV-
aV-
aV1
aV-
aV0.5
p176
aV72.3
p177
aV1.9
p178
aV-
aV6.58
p179
aa(lp180
V2018/2019
p181
aVIreland
p182
aVUNL
p183
aV4
aV360
p184
aV-
aV-
aV2
aV-
aV0.5
p185
aV80.2
p186
aV2
aV-
aV6.64
p187
aa(lp188
V2017/2018
p189
aVMiddlesbrough
p190
aVEC
p191
aV24(1)
p192
aV2122
p193
aV1
aV4
aV7
aV-
aV0.7
p194
aV78.6
p195
aV2.1
p196
aV3
aV7.20
p197
aa(lp198
V2017/2018
p199
aVFulham
p200
aVEC
p201
aV1(5)
p202
aV142
p203
aV-
aV1
aV-
aV-
aV-
aV68.2
p204
aV1.5
p205
aV-
aV6.52
p206
aa(lp207
V2016/2017
p208
aVDerby
p209
aVEC
p210
aV24(3)
p211
aV2151
p212
aV1
aV-
aV4
aV-
aV0.6
p213
aV75.7
p214
aV2.3
p215
aV3
aV7.15
p216
aa(lp217
V2015/2016
p218
aVDerby
p219
aVEC
p220
aV42(2)
p221
aV3757
p222
aV1
aV3
aV8
aV-
aV0.5
p223
aV74.6
p224
aV1.8
p225
aV3
aV7.21
p226
aa(lp227
V2014/2015
p228
aVDerby
p229
aVEC
p230
aV34(4)
p231
aV3091
p232
aV-
aV6
aV8
aV-
aV0.3
p233
aV77.8
p234
aV1.4
p235
aV-
aV6.99
p236
aa(lp237
VTotal / Average
p238
aV
aV
aV155
p239
aV12424
p240
aV3
aV14
p241
aV30
p242
aV0
aV0.5
p243
aV76
p244
aV1.9
p245
aV9
aV7.06
p246
aasS'sumary_data'
p247
(lp248
(lp249
a(lp250
V2018/2019
p251
aVFulham
p252
aVEPL
p253
aV7(4)
p254
aV801
p255
aV-
aV-
aV1
aV-
aV0.5
p256
aV72.3
p257
aV1.9
p258
aV-
aV6.58
p259
aa(lp260
V2018/2019
p261
aVIreland
p262
aVUNL
p263
aV4
aV360
p264
aV-
aV-
aV2
aV-
aV0.5
p265
aV80.2
p266
aV2
aV-
aV6.64
p267
aa(lp268
V2017/2018
p269
aVMiddlesbrough
p270
aVEC
p271
aV24(1)
p272
aV2122
p273
aV1
aV4
aV7
aV-
aV0.7
p274
aV78.6
p275
aV2.1
p276
aV3
aV7.20
p277
aa(lp278
V2017/2018
p279
aVFulham
p280
aVEC
p281
aV1(5)
p282
aV142
p283
aV-
aV1
aV-
aV-
aV-
aV68.2
p284
aV1.5
p285
aV-
aV6.52
p286
aa(lp287
V2016/2017
p288
aVDerby
p289
aVEC
p290
aV24(3)
p291
aV2151
p292
aV1
aV-
aV4
aV-
aV0.6
p293
aV75.7
p294
aV2.3
p295
aV3
aV7.15
p296
aa(lp297
V2015/2016
p298
aVDerby
p299
aVEC
p300
aV42(2)
p301
aV3757
p302
aV1
aV3
aV8
aV-
aV0.5
p303
aV74.6
p304
aV1.8
p305
aV3
aV7.21
p306
aa(lp307
V2014/2015
p308
aVDerby
p309
aVEC
p310
aV34(4)
p311
aV3091
p312
aV-
aV6
aV8
aV-
aV0.3
p313
aV77.8
p314
aV1.4
p315
aV-
aV6.99
p316
aa(lp317
VTotal / Average
p318
aV
aV
aV155
p319
aV12424
p320
aV3
aV14
p321
aV30
p322
aV0
aV0.5
p323
aV76
p324
aV1.9
p325
aV9
aV7.06
p326
aasS'id'
p327
V134111
p328
sb.