(i__main__
Player
p1
(dp2
S'name'
p3
VCallum Wilson 
p4
sS'offensive_data'
p5
(lp6
(lp7
a(lp8
V2018/2019
p9
aVBournemouth
p10
aVEPL
p11
aV15(1)
p12
aV1355
p13
aV8
aV5
aV3
aV-
aV2.3
p14
aV66.7
p15
aV1.5
p16
aV3
aV7.03
p17
aa(lp18
V2017/2018
p19
aVBournemouth
p20
aVEPL
p21
aV23(5)
p22
aV1991
p23
aV8
aV2
aV-
aV-
aV1.9
p24
aV70.5
p25
aV0.8
p26
aV2
aV6.53
p27
aa(lp28
V2016/2017
p29
aVBournemouth
p30
aVEPL
p31
aV16(4)
p32
aV1367
p33
aV6
aV-
aV-
aV-
aV1.6
p34
aV72.8
p35
aV0.3
p36
aV-
aV6.49
p37
aa(lp38
V2015/2016
p39
aVBournemouth
p40
aVEPL
p41
aV9(4)
p42
aV773
p43
aV5
aV-
aV-
aV-
aV1.3
p44
aV73.3
p45
aV0.3
p46
aV1
aV6.53
p47
aa(lp48
V2014/2015
p49
aVBournemouth
p50
aVEC
p51
aV45
p52
aV3908
p53
aV20
p54
aV7
aV6
aV-
aV2.9
p55
aV74.2
p56
aV0.6
p57
aV1
aV7.22
p58
aa(lp59
VTotal / Average
p60
aV
aV
aV122
p61
aV9394
p62
aV47
p63
aV14
p64
aV9
aV0
aV2.2
p65
aV72
p66
aV0.7
p67
aV7
aV6.85
p68
aasS'url'
p69
S'https://www.whoscored.com/Players/134115/History/'
p70
sS'passing_data'
p71
(lp72
(lp73
a(lp74
V2018/2019
p75
aVBournemouth
p76
aVEPL
p77
aV15(1)
p78
aV1355
p79
aV8
aV5
aV3
aV-
aV2.3
p80
aV66.7
p81
aV1.5
p82
aV3
aV7.03
p83
aa(lp84
V2017/2018
p85
aVBournemouth
p86
aVEPL
p87
aV23(5)
p88
aV1991
p89
aV8
aV2
aV-
aV-
aV1.9
p90
aV70.5
p91
aV0.8
p92
aV2
aV6.53
p93
aa(lp94
V2016/2017
p95
aVBournemouth
p96
aVEPL
p97
aV16(4)
p98
aV1367
p99
aV6
aV-
aV-
aV-
aV1.6
p100
aV72.8
p101
aV0.3
p102
aV-
aV6.49
p103
aa(lp104
V2015/2016
p105
aVBournemouth
p106
aVEPL
p107
aV9(4)
p108
aV773
p109
aV5
aV-
aV-
aV-
aV1.3
p110
aV73.3
p111
aV0.3
p112
aV1
aV6.53
p113
aa(lp114
V2014/2015
p115
aVBournemouth
p116
aVEC
p117
aV45
p118
aV3908
p119
aV20
p120
aV7
aV6
aV-
aV2.9
p121
aV74.2
p122
aV0.6
p123
aV1
aV7.22
p124
aa(lp125
VTotal / Average
p126
aV
aV
aV122
p127
aV9394
p128
aV47
p129
aV14
p130
aV9
aV0
aV2.2
p131
aV72
p132
aV0.7
p133
aV7
aV6.85
p134
aasS'defensive_data'
p135
(lp136
(lp137
a(lp138
V2018/2019
p139
aVBournemouth
p140
aVEPL
p141
aV15(1)
p142
aV1355
p143
aV8
aV5
aV3
aV-
aV2.3
p144
aV66.7
p145
aV1.5
p146
aV3
aV7.03
p147
aa(lp148
V2017/2018
p149
aVBournemouth
p150
aVEPL
p151
aV23(5)
p152
aV1991
p153
aV8
aV2
aV-
aV-
aV1.9
p154
aV70.5
p155
aV0.8
p156
aV2
aV6.53
p157
aa(lp158
V2016/2017
p159
aVBournemouth
p160
aVEPL
p161
aV16(4)
p162
aV1367
p163
aV6
aV-
aV-
aV-
aV1.6
p164
aV72.8
p165
aV0.3
p166
aV-
aV6.49
p167
aa(lp168
V2015/2016
p169
aVBournemouth
p170
aVEPL
p171
aV9(4)
p172
aV773
p173
aV5
aV-
aV-
aV-
aV1.3
p174
aV73.3
p175
aV0.3
p176
aV1
aV6.53
p177
aa(lp178
V2014/2015
p179
aVBournemouth
p180
aVEC
p181
aV45
p182
aV3908
p183
aV20
p184
aV7
aV6
aV-
aV2.9
p185
aV74.2
p186
aV0.6
p187
aV1
aV7.22
p188
aa(lp189
VTotal / Average
p190
aV
aV
aV122
p191
aV9394
p192
aV47
p193
aV14
p194
aV9
aV0
aV2.2
p195
aV72
p196
aV0.7
p197
aV7
aV6.85
p198
aasS'sumary_data'
p199
(lp200
(lp201
a(lp202
V2018/2019
p203
aVBournemouth
p204
aVEPL
p205
aV15(1)
p206
aV1355
p207
aV8
aV5
aV3
aV-
aV2.3
p208
aV66.7
p209
aV1.5
p210
aV3
aV7.03
p211
aa(lp212
V2017/2018
p213
aVBournemouth
p214
aVEPL
p215
aV23(5)
p216
aV1991
p217
aV8
aV2
aV-
aV-
aV1.9
p218
aV70.5
p219
aV0.8
p220
aV2
aV6.53
p221
aa(lp222
V2016/2017
p223
aVBournemouth
p224
aVEPL
p225
aV16(4)
p226
aV1367
p227
aV6
aV-
aV-
aV-
aV1.6
p228
aV72.8
p229
aV0.3
p230
aV-
aV6.49
p231
aa(lp232
V2015/2016
p233
aVBournemouth
p234
aVEPL
p235
aV9(4)
p236
aV773
p237
aV5
aV-
aV-
aV-
aV1.3
p238
aV73.3
p239
aV0.3
p240
aV1
aV6.53
p241
aa(lp242
V2014/2015
p243
aVBournemouth
p244
aVEC
p245
aV45
p246
aV3908
p247
aV20
p248
aV7
aV6
aV-
aV2.9
p249
aV74.2
p250
aV0.6
p251
aV1
aV7.22
p252
aa(lp253
VTotal / Average
p254
aV
aV
aV122
p255
aV9394
p256
aV47
p257
aV14
p258
aV9
aV0
aV2.2
p259
aV72
p260
aV0.7
p261
aV7
aV6.85
p262
aasS'id'
p263
V134115
p264
sb.