(i__main__
Player
p1
(dp2
S'name'
p3
VJoe Bryan 
p4
sS'offensive_data'
p5
(lp6
(lp7
a(lp8
V2018/2019
p9
aVBristol City
p10
aVEC
p11
aV1
aV90
p12
aV-
aV-
aV-
aV-
aV2
aV58.8
p13
aV2
aV-
aV7.04
p14
aa(lp15
V2018/2019
p16
aVFulham
p17
aVEPL
p18
aV6(1)
p19
aV508
p20
aV-
aV-
aV-
aV-
aV0.6
p21
aV73.6
p22
aV0.1
p23
aV-
aV6.38
p24
aa(lp25
V2017/2018
p26
aVBristol City
p27
aVEC
p28
aV42(1)
p29
aV3740
p30
aV5
aV3
aV11
p31
aV-
aV1.1
p32
aV70.4
p33
aV1.7
p34
aV4
aV7.34
p35
aa(lp36
V2016/2017
p37
aVBristol City
p38
aVEC
p39
aV39(5)
p40
aV3521
p41
aV1
aV2
aV10
p42
aV-
aV1.2
p43
aV69.3
p44
aV1.7
p45
aV2
aV7.09
p46
aa(lp47
V2015/2016
p48
aVBristol City
p49
aVEC
p50
aV34(5)
p51
aV2967
p52
aV2
aV8
aV4
aV-
aV1.2
p53
aV66.7
p54
aV1.8
p55
aV1
aV6.92
p56
aa(lp57
VTotal / Average
p58
aV
aV
aV134
p59
aV10826
p60
aV8
aV13
p61
aV25
p62
aV0
aV1.1
p63
aV69
p64
aV1.7
p65
aV7
aV7.08
p66
aasS'url'
p67
S'https://www.whoscored.com/Players/134331/History/'
p68
sS'passing_data'
p69
(lp70
(lp71
a(lp72
V2018/2019
p73
aVBristol City
p74
aVEC
p75
aV1
aV90
p76
aV-
aV-
aV-
aV-
aV2
aV58.8
p77
aV2
aV-
aV7.04
p78
aa(lp79
V2018/2019
p80
aVFulham
p81
aVEPL
p82
aV6(1)
p83
aV508
p84
aV-
aV-
aV-
aV-
aV0.6
p85
aV73.6
p86
aV0.1
p87
aV-
aV6.38
p88
aa(lp89
V2017/2018
p90
aVBristol City
p91
aVEC
p92
aV42(1)
p93
aV3740
p94
aV5
aV3
aV11
p95
aV-
aV1.1
p96
aV70.4
p97
aV1.7
p98
aV4
aV7.34
p99
aa(lp100
V2016/2017
p101
aVBristol City
p102
aVEC
p103
aV39(5)
p104
aV3521
p105
aV1
aV2
aV10
p106
aV-
aV1.2
p107
aV69.3
p108
aV1.7
p109
aV2
aV7.09
p110
aa(lp111
V2015/2016
p112
aVBristol City
p113
aVEC
p114
aV34(5)
p115
aV2967
p116
aV2
aV8
aV4
aV-
aV1.2
p117
aV66.7
p118
aV1.8
p119
aV1
aV6.92
p120
aa(lp121
VTotal / Average
p122
aV
aV
aV134
p123
aV10826
p124
aV8
aV13
p125
aV25
p126
aV0
aV1.1
p127
aV69
p128
aV1.7
p129
aV7
aV7.08
p130
aasS'defensive_data'
p131
(lp132
(lp133
a(lp134
V2018/2019
p135
aVBristol City
p136
aVEC
p137
aV1
aV90
p138
aV-
aV-
aV-
aV-
aV2
aV58.8
p139
aV2
aV-
aV7.04
p140
aa(lp141
V2018/2019
p142
aVFulham
p143
aVEPL
p144
aV6(1)
p145
aV508
p146
aV-
aV-
aV-
aV-
aV0.6
p147
aV73.6
p148
aV0.1
p149
aV-
aV6.38
p150
aa(lp151
V2017/2018
p152
aVBristol City
p153
aVEC
p154
aV42(1)
p155
aV3740
p156
aV5
aV3
aV11
p157
aV-
aV1.1
p158
aV70.4
p159
aV1.7
p160
aV4
aV7.34
p161
aa(lp162
V2016/2017
p163
aVBristol City
p164
aVEC
p165
aV39(5)
p166
aV3521
p167
aV1
aV2
aV10
p168
aV-
aV1.2
p169
aV69.3
p170
aV1.7
p171
aV2
aV7.09
p172
aa(lp173
V2015/2016
p174
aVBristol City
p175
aVEC
p176
aV34(5)
p177
aV2967
p178
aV2
aV8
aV4
aV-
aV1.2
p179
aV66.7
p180
aV1.8
p181
aV1
aV6.92
p182
aa(lp183
VTotal / Average
p184
aV
aV
aV134
p185
aV10826
p186
aV8
aV13
p187
aV25
p188
aV0
aV1.1
p189
aV69
p190
aV1.7
p191
aV7
aV7.08
p192
aasS'sumary_data'
p193
(lp194
(lp195
a(lp196
V2018/2019
p197
aVBristol City
p198
aVEC
p199
aV1
aV90
p200
aV-
aV-
aV-
aV-
aV2
aV58.8
p201
aV2
aV-
aV7.04
p202
aa(lp203
V2018/2019
p204
aVFulham
p205
aVEPL
p206
aV6(1)
p207
aV508
p208
aV-
aV-
aV-
aV-
aV0.6
p209
aV73.6
p210
aV0.1
p211
aV-
aV6.38
p212
aa(lp213
V2017/2018
p214
aVBristol City
p215
aVEC
p216
aV42(1)
p217
aV3740
p218
aV5
aV3
aV11
p219
aV-
aV1.1
p220
aV70.4
p221
aV1.7
p222
aV4
aV7.34
p223
aa(lp224
V2016/2017
p225
aVBristol City
p226
aVEC
p227
aV39(5)
p228
aV3521
p229
aV1
aV2
aV10
p230
aV-
aV1.2
p231
aV69.3
p232
aV1.7
p233
aV2
aV7.09
p234
aa(lp235
V2015/2016
p236
aVBristol City
p237
aVEC
p238
aV34(5)
p239
aV2967
p240
aV2
aV8
aV4
aV-
aV1.2
p241
aV66.7
p242
aV1.8
p243
aV1
aV6.92
p244
aa(lp245
VTotal / Average
p246
aV
aV
aV134
p247
aV10826
p248
aV8
aV13
p249
aV25
p250
aV0
aV1.1
p251
aV69
p252
aV1.7
p253
aV7
aV7.08
p254
aasS'id'
p255
V134331
p256
sb.