(i__main__
Player
p1
(dp2
S'name'
p3
VBobby Reid 
p4
sS'offensive_data'
p5
(lp6
(lp7
a(lp8
V2018/2019
p9
aVCardiff
p10
aVEPL
p11
aV7(6)
p12
aV662
p13
aV2
aV1
aV-
aV-
aV1.2
p14
aV68.3
p15
aV0.5
p16
aV-
aV6.41
p17
aa(lp18
V2017/2018
p19
aVBristol City
p20
aVEC
p21
aV46
p22
aV4043
p23
aV19
p24
aV7
aV9
aV-
aV1.9
p25
aV79
p26
aV0.5
p27
aV3
aV7.11
p28
aa(lp29
V2016/2017
p30
aVBristol City
p31
aVEC
p32
aV18(12)
p33
aV1738
p34
aV3
aV1
aV2
aV-
aV2.1
p35
aV77.1
p36
aV0.6
p37
aV-
aV6.63
p38
aa(lp39
V2015/2016
p40
aVBristol City
p41
aVEC
p42
aV16(12)
p43
aV1546
p44
aV2
aV3
aV2
aV-
aV1.3
p45
aV78.2
p46
aV0.6
p47
aV-
aV6.84
p48
aa(lp49
VTotal / Average
p50
aV
aV
aV117
p51
aV7989
p52
aV26
p53
aV12
p54
aV13
p55
aV0
aV1.7
p56
aV77.1
p57
aV0.5
p58
aV3
aV6.84
p59
aasS'url'
p60
S'https://www.whoscored.com/Players/134332/History/'
p61
sS'passing_data'
p62
(lp63
(lp64
a(lp65
V2018/2019
p66
aVCardiff
p67
aVEPL
p68
aV7(6)
p69
aV662
p70
aV2
aV1
aV-
aV-
aV1.2
p71
aV68.3
p72
aV0.5
p73
aV-
aV6.41
p74
aa(lp75
V2017/2018
p76
aVBristol City
p77
aVEC
p78
aV46
p79
aV4043
p80
aV19
p81
aV7
aV9
aV-
aV1.9
p82
aV79
p83
aV0.5
p84
aV3
aV7.11
p85
aa(lp86
V2016/2017
p87
aVBristol City
p88
aVEC
p89
aV18(12)
p90
aV1738
p91
aV3
aV1
aV2
aV-
aV2.1
p92
aV77.1
p93
aV0.6
p94
aV-
aV6.63
p95
aa(lp96
V2015/2016
p97
aVBristol City
p98
aVEC
p99
aV16(12)
p100
aV1546
p101
aV2
aV3
aV2
aV-
aV1.3
p102
aV78.2
p103
aV0.6
p104
aV-
aV6.84
p105
aa(lp106
VTotal / Average
p107
aV
aV
aV117
p108
aV7989
p109
aV26
p110
aV12
p111
aV13
p112
aV0
aV1.7
p113
aV77.1
p114
aV0.5
p115
aV3
aV6.84
p116
aasS'defensive_data'
p117
(lp118
(lp119
a(lp120
V2018/2019
p121
aVCardiff
p122
aVEPL
p123
aV7(6)
p124
aV662
p125
aV2
aV1
aV-
aV-
aV1.2
p126
aV68.3
p127
aV0.5
p128
aV-
aV6.41
p129
aa(lp130
V2017/2018
p131
aVBristol City
p132
aVEC
p133
aV46
p134
aV4043
p135
aV19
p136
aV7
aV9
aV-
aV1.9
p137
aV79
p138
aV0.5
p139
aV3
aV7.11
p140
aa(lp141
V2016/2017
p142
aVBristol City
p143
aVEC
p144
aV18(12)
p145
aV1738
p146
aV3
aV1
aV2
aV-
aV2.1
p147
aV77.1
p148
aV0.6
p149
aV-
aV6.63
p150
aa(lp151
V2015/2016
p152
aVBristol City
p153
aVEC
p154
aV16(12)
p155
aV1546
p156
aV2
aV3
aV2
aV-
aV1.3
p157
aV78.2
p158
aV0.6
p159
aV-
aV6.84
p160
aa(lp161
VTotal / Average
p162
aV
aV
aV117
p163
aV7989
p164
aV26
p165
aV12
p166
aV13
p167
aV0
aV1.7
p168
aV77.1
p169
aV0.5
p170
aV3
aV6.84
p171
aasS'sumary_data'
p172
(lp173
(lp174
a(lp175
V2018/2019
p176
aVCardiff
p177
aVEPL
p178
aV7(6)
p179
aV662
p180
aV2
aV1
aV-
aV-
aV1.2
p181
aV68.3
p182
aV0.5
p183
aV-
aV6.41
p184
aa(lp185
V2017/2018
p186
aVBristol City
p187
aVEC
p188
aV46
p189
aV4043
p190
aV19
p191
aV7
aV9
aV-
aV1.9
p192
aV79
p193
aV0.5
p194
aV3
aV7.11
p195
aa(lp196
V2016/2017
p197
aVBristol City
p198
aVEC
p199
aV18(12)
p200
aV1738
p201
aV3
aV1
aV2
aV-
aV2.1
p202
aV77.1
p203
aV0.6
p204
aV-
aV6.63
p205
aa(lp206
V2015/2016
p207
aVBristol City
p208
aVEC
p209
aV16(12)
p210
aV1546
p211
aV2
aV3
aV2
aV-
aV1.3
p212
aV78.2
p213
aV0.6
p214
aV-
aV6.84
p215
aa(lp216
VTotal / Average
p217
aV
aV
aV117
p218
aV7989
p219
aV26
p220
aV12
p221
aV13
p222
aV0
aV1.7
p223
aV77.1
p224
aV0.5
p225
aV3
aV6.84
p226
aasS'id'
p227
V134332
p228
sb.