(i__main__
Player
p1
(dp2
S'name'
p3
VAndrew Surman 
p4
sS'offensive_data'
p5
(lp6
(lp7
a(lp8
V2018/2019
p9
aVBournemouth
p10
aVEPL
p11
aV7(2)
p12
aV629
p13
aV-
aV-
aV1
aV-
aV0.4
p14
aV86.9
p15
aV1.6
p16
aV-
aV6.31
p17
aa(lp18
V2017/2018
p19
aVBournemouth
p20
aVEPL
p21
aV20(5)
p22
aV1852
p23
aV2
aV5
aV2
aV-
aV0.7
p24
aV84.4
p25
aV1.4
p26
aV1
aV6.73
p27
aa(lp28
V2016/2017
p29
aVBournemouth
p30
aVEPL
p31
aV21(1)
p32
aV1792
p33
aV-
aV1
aV1
aV1
aV0.4
p34
aV86
p35
aV0.8
p36
aV-
aV6.58
p37
aa(lp38
V2015/2016
p39
aVBournemouth
p40
aVEPL
p41
aV38
p42
aV3420
p43
aV-
aV3
aV4
aV-
aV0.4
p44
aV85.3
p45
aV1.2
p46
aV1
aV6.79
p47
aa(lp48
V2014/2015
p49
aVNorwich
p50
aVEC
p51
aV1
aV65
p52
aV-
aV-
aV-
aV-
aV1
aV77.8
p53
aV-
aV-
aV6.53
p54
aa(lp55
V2014/2015
p56
aVBournemouth
p57
aVEC
p58
aV40(1)
p59
aV3596
p60
aV3
aV6
aV4
aV-
aV0.8
p61
aV86.7
p62
aV1
aV1
aV7.17
p63
aa(lp64
V2013/2014
p65
aVBournemouth
p66
aVEC
p67
aV30(5)
p68
aV2554
p69
aV-
aV4
aV2
aV-
aV1.1
p70
aV83.9
p71
aV0.9
p72
aV-
aV6.68
p73
aa(lp74
V2012/2013
p75
aVNorwich
p76
aVEPL
p77
aV4
aV274
p78
aV-
aV-
aV-
aV-
aV2.3
p79
aV78.8
p80
aV0.5
p81
aV-
aV6.15
p82
aa(lp83
V2011/2012
p84
aVNorwich
p85
aVEPL
p86
aV21(4)
p87
aV1915
p88
aV4
aV-
aV1
aV-
aV1.6
p89
aV82.5
p90
aV0.3
p91
aV2
aV6.67
p92
aa(lp93
V2009/2010
p94
aVWolverhampton..
p95
aVEPL
p96
aV3(4)
p97
aV315
p98
aV-
aV-
aV-
aV-
aV0.6
p99
aV81.8
p100
aV-
aV-
aV6.13
p101
aa(lp102
VTotal / Average
p103
aV
aV
aV207
p104
aV16412
p105
aV9
aV19
p106
aV15
p107
aV1
aV0.8
p108
aV84.8
p109
aV0.9
p110
aV5
aV6.74
p111
aasS'url'
p112
S'https://www.whoscored.com/Players/13447/History/'
p113
sS'passing_data'
p114
(lp115
(lp116
a(lp117
V2018/2019
p118
aVBournemouth
p119
aVEPL
p120
aV7(2)
p121
aV629
p122
aV-
aV-
aV1
aV-
aV0.4
p123
aV86.9
p124
aV1.6
p125
aV-
aV6.31
p126
aa(lp127
V2017/2018
p128
aVBournemouth
p129
aVEPL
p130
aV20(5)
p131
aV1852
p132
aV2
aV5
aV2
aV-
aV0.7
p133
aV84.4
p134
aV1.4
p135
aV1
aV6.73
p136
aa(lp137
V2016/2017
p138
aVBournemouth
p139
aVEPL
p140
aV21(1)
p141
aV1792
p142
aV-
aV1
aV1
aV1
aV0.4
p143
aV86
p144
aV0.8
p145
aV-
aV6.58
p146
aa(lp147
V2015/2016
p148
aVBournemouth
p149
aVEPL
p150
aV38
p151
aV3420
p152
aV-
aV3
aV4
aV-
aV0.4
p153
aV85.3
p154
aV1.2
p155
aV1
aV6.79
p156
aa(lp157
V2014/2015
p158
aVNorwich
p159
aVEC
p160
aV1
aV65
p161
aV-
aV-
aV-
aV-
aV1
aV77.8
p162
aV-
aV-
aV6.53
p163
aa(lp164
V2014/2015
p165
aVBournemouth
p166
aVEC
p167
aV40(1)
p168
aV3596
p169
aV3
aV6
aV4
aV-
aV0.8
p170
aV86.7
p171
aV1
aV1
aV7.17
p172
aa(lp173
V2013/2014
p174
aVBournemouth
p175
aVEC
p176
aV30(5)
p177
aV2554
p178
aV-
aV4
aV2
aV-
aV1.1
p179
aV83.9
p180
aV0.9
p181
aV-
aV6.68
p182
aa(lp183
V2012/2013
p184
aVNorwich
p185
aVEPL
p186
aV4
aV274
p187
aV-
aV-
aV-
aV-
aV2.3
p188
aV78.8
p189
aV0.5
p190
aV-
aV6.15
p191
aa(lp192
V2011/2012
p193
aVNorwich
p194
aVEPL
p195
aV21(4)
p196
aV1915
p197
aV4
aV-
aV1
aV-
aV1.6
p198
aV82.5
p199
aV0.3
p200
aV2
aV6.67
p201
aa(lp202
V2009/2010
p203
aVWolverhampton..
p204
aVEPL
p205
aV3(4)
p206
aV315
p207
aV-
aV-
aV-
aV-
aV0.6
p208
aV81.8
p209
aV-
aV-
aV6.13
p210
aa(lp211
VTotal / Average
p212
aV
aV
aV207
p213
aV16412
p214
aV9
aV19
p215
aV15
p216
aV1
aV0.8
p217
aV84.8
p218
aV0.9
p219
aV5
aV6.74
p220
aasS'defensive_data'
p221
(lp222
(lp223
a(lp224
V2018/2019
p225
aVBournemouth
p226
aVEPL
p227
aV7(2)
p228
aV629
p229
aV-
aV-
aV1
aV-
aV0.4
p230
aV86.9
p231
aV1.6
p232
aV-
aV6.31
p233
aa(lp234
V2017/2018
p235
aVBournemouth
p236
aVEPL
p237
aV20(5)
p238
aV1852
p239
aV2
aV5
aV2
aV-
aV0.7
p240
aV84.4
p241
aV1.4
p242
aV1
aV6.73
p243
aa(lp244
V2016/2017
p245
aVBournemouth
p246
aVEPL
p247
aV21(1)
p248
aV1792
p249
aV-
aV1
aV1
aV1
aV0.4
p250
aV86
p251
aV0.8
p252
aV-
aV6.58
p253
aa(lp254
V2015/2016
p255
aVBournemouth
p256
aVEPL
p257
aV38
p258
aV3420
p259
aV-
aV3
aV4
aV-
aV0.4
p260
aV85.3
p261
aV1.2
p262
aV1
aV6.79
p263
aa(lp264
V2014/2015
p265
aVNorwich
p266
aVEC
p267
aV1
aV65
p268
aV-
aV-
aV-
aV-
aV1
aV77.8
p269
aV-
aV-
aV6.53
p270
aa(lp271
V2014/2015
p272
aVBournemouth
p273
aVEC
p274
aV40(1)
p275
aV3596
p276
aV3
aV6
aV4
aV-
aV0.8
p277
aV86.7
p278
aV1
aV1
aV7.17
p279
aa(lp280
V2013/2014
p281
aVBournemouth
p282
aVEC
p283
aV30(5)
p284
aV2554
p285
aV-
aV4
aV2
aV-
aV1.1
p286
aV83.9
p287
aV0.9
p288
aV-
aV6.68
p289
aa(lp290
V2012/2013
p291
aVNorwich
p292
aVEPL
p293
aV4
aV274
p294
aV-
aV-
aV-
aV-
aV2.3
p295
aV78.8
p296
aV0.5
p297
aV-
aV6.15
p298
aa(lp299
V2011/2012
p300
aVNorwich
p301
aVEPL
p302
aV21(4)
p303
aV1915
p304
aV4
aV-
aV1
aV-
aV1.6
p305
aV82.5
p306
aV0.3
p307
aV2
aV6.67
p308
aa(lp309
V2009/2010
p310
aVWolverhampton..
p311
aVEPL
p312
aV3(4)
p313
aV315
p314
aV-
aV-
aV-
aV-
aV0.6
p315
aV81.8
p316
aV-
aV-
aV6.13
p317
aa(lp318
VTotal / Average
p319
aV
aV
aV207
p320
aV16412
p321
aV9
aV19
p322
aV15
p323
aV1
aV0.8
p324
aV84.8
p325
aV0.9
p326
aV5
aV6.74
p327
aasS'sumary_data'
p328
(lp329
(lp330
a(lp331
V2018/2019
p332
aVBournemouth
p333
aVEPL
p334
aV7(2)
p335
aV629
p336
aV-
aV-
aV1
aV-
aV0.4
p337
aV86.9
p338
aV1.6
p339
aV-
aV6.31
p340
aa(lp341
V2017/2018
p342
aVBournemouth
p343
aVEPL
p344
aV20(5)
p345
aV1852
p346
aV2
aV5
aV2
aV-
aV0.7
p347
aV84.4
p348
aV1.4
p349
aV1
aV6.73
p350
aa(lp351
V2016/2017
p352
aVBournemouth
p353
aVEPL
p354
aV21(1)
p355
aV1792
p356
aV-
aV1
aV1
aV1
aV0.4
p357
aV86
p358
aV0.8
p359
aV-
aV6.58
p360
aa(lp361
V2015/2016
p362
aVBournemouth
p363
aVEPL
p364
aV38
p365
aV3420
p366
aV-
aV3
aV4
aV-
aV0.4
p367
aV85.3
p368
aV1.2
p369
aV1
aV6.79
p370
aa(lp371
V2014/2015
p372
aVNorwich
p373
aVEC
p374
aV1
aV65
p375
aV-
aV-
aV-
aV-
aV1
aV77.8
p376
aV-
aV-
aV6.53
p377
aa(lp378
V2014/2015
p379
aVBournemouth
p380
aVEC
p381
aV40(1)
p382
aV3596
p383
aV3
aV6
aV4
aV-
aV0.8
p384
aV86.7
p385
aV1
aV1
aV7.17
p386
aa(lp387
V2013/2014
p388
aVBournemouth
p389
aVEC
p390
aV30(5)
p391
aV2554
p392
aV-
aV4
aV2
aV-
aV1.1
p393
aV83.9
p394
aV0.9
p395
aV-
aV6.68
p396
aa(lp397
V2012/2013
p398
aVNorwich
p399
aVEPL
p400
aV4
aV274
p401
aV-
aV-
aV-
aV-
aV2.3
p402
aV78.8
p403
aV0.5
p404
aV-
aV6.15
p405
aa(lp406
V2011/2012
p407
aVNorwich
p408
aVEPL
p409
aV21(4)
p410
aV1915
p411
aV4
aV-
aV1
aV-
aV1.6
p412
aV82.5
p413
aV0.3
p414
aV2
aV6.67
p415
aa(lp416
V2009/2010
p417
aVWolverhampton..
p418
aVEPL
p419
aV3(4)
p420
aV315
p421
aV-
aV-
aV-
aV-
aV0.6
p422
aV81.8
p423
aV-
aV-
aV6.13
p424
aa(lp425
VTotal / Average
p426
aV
aV
aV207
p427
aV16412
p428
aV9
aV19
p429
aV15
p430
aV1
aV0.8
p431
aV84.8
p432
aV0.9
p433
aV5
aV6.74
p434
aasS'id'
p435
V13447
p436
sb.