(i__main__
Player
p1
(dp2
S'name'
p3
VSteve Mounie 
p4
sS'offensive_data'
p5
(lp6
(lp7
a(lp8
V2018/2019
p9
aVHuddersfield
p10
aVEPL
p11
aV9(4)
p12
aV784
p13
aV-
aV1
aV-
aV1
aV2
aV63.8
p14
aV7.3
p15
aV1
aV6.75
p16
aa(lp17
V2017/2018
p18
aVHuddersfield
p19
aVEPL
p20
aV21(7)
p21
aV1858
p22
aV7
aV1
aV2
aV-
aV1.8
p23
aV62
p24
aV5.2
p25
aV3
aV6.78
p26
aa(lp27
V2016/2017
p28
aVMontpellier
p29
aVFL1
p30
aV32(3)
p31
aV2830
p32
aV14
p33
aV3
aV4
aV1
aV3
aV64.8
p34
aV8.4
p35
aV3
aV7.27
p36
aa(lp37
V2015/2016
p38
aVMontpellier
p39
aVFL1
p40
aV0(2)
p41
aV37
p42
aV-
aV-
aV-
aV-
aV-
aV85.7
p43
aV1
aV-
aV6.12
p44
aa(lp45
VTotal / Average
p46
aV
aV
aV78
p47
aV5509
p48
aV21
p49
aV5
aV6
aV2
aV2.3
p50
aV64.2
p51
aV6.9
p52
aV7
aV6.98
p53
aasS'url'
p54
S'https://www.whoscored.com/Players/135259/History/'
p55
sS'passing_data'
p56
(lp57
(lp58
a(lp59
V2018/2019
p60
aVHuddersfield
p61
aVEPL
p62
aV9(4)
p63
aV784
p64
aV-
aV1
aV-
aV1
aV2
aV63.8
p65
aV7.3
p66
aV1
aV6.75
p67
aa(lp68
V2017/2018
p69
aVHuddersfield
p70
aVEPL
p71
aV21(7)
p72
aV1858
p73
aV7
aV1
aV2
aV-
aV1.8
p74
aV62
p75
aV5.2
p76
aV3
aV6.78
p77
aa(lp78
V2016/2017
p79
aVMontpellier
p80
aVFL1
p81
aV32(3)
p82
aV2830
p83
aV14
p84
aV3
aV4
aV1
aV3
aV64.8
p85
aV8.4
p86
aV3
aV7.27
p87
aa(lp88
V2015/2016
p89
aVMontpellier
p90
aVFL1
p91
aV0(2)
p92
aV37
p93
aV-
aV-
aV-
aV-
aV-
aV85.7
p94
aV1
aV-
aV6.12
p95
aa(lp96
VTotal / Average
p97
aV
aV
aV78
p98
aV5509
p99
aV21
p100
aV5
aV6
aV2
aV2.3
p101
aV64.2
p102
aV6.9
p103
aV7
aV6.98
p104
aasS'defensive_data'
p105
(lp106
(lp107
a(lp108
V2018/2019
p109
aVHuddersfield
p110
aVEPL
p111
aV9(4)
p112
aV784
p113
aV-
aV1
aV-
aV1
aV2
aV63.8
p114
aV7.3
p115
aV1
aV6.75
p116
aa(lp117
V2017/2018
p118
aVHuddersfield
p119
aVEPL
p120
aV21(7)
p121
aV1858
p122
aV7
aV1
aV2
aV-
aV1.8
p123
aV62
p124
aV5.2
p125
aV3
aV6.78
p126
aa(lp127
V2016/2017
p128
aVMontpellier
p129
aVFL1
p130
aV32(3)
p131
aV2830
p132
aV14
p133
aV3
aV4
aV1
aV3
aV64.8
p134
aV8.4
p135
aV3
aV7.27
p136
aa(lp137
V2015/2016
p138
aVMontpellier
p139
aVFL1
p140
aV0(2)
p141
aV37
p142
aV-
aV-
aV-
aV-
aV-
aV85.7
p143
aV1
aV-
aV6.12
p144
aa(lp145
VTotal / Average
p146
aV
aV
aV78
p147
aV5509
p148
aV21
p149
aV5
aV6
aV2
aV2.3
p150
aV64.2
p151
aV6.9
p152
aV7
aV6.98
p153
aasS'sumary_data'
p154
(lp155
(lp156
a(lp157
V2018/2019
p158
aVHuddersfield
p159
aVEPL
p160
aV9(4)
p161
aV784
p162
aV-
aV1
aV-
aV1
aV2
aV63.8
p163
aV7.3
p164
aV1
aV6.75
p165
aa(lp166
V2017/2018
p167
aVHuddersfield
p168
aVEPL
p169
aV21(7)
p170
aV1858
p171
aV7
aV1
aV2
aV-
aV1.8
p172
aV62
p173
aV5.2
p174
aV3
aV6.78
p175
aa(lp176
V2016/2017
p177
aVMontpellier
p178
aVFL1
p179
aV32(3)
p180
aV2830
p181
aV14
p182
aV3
aV4
aV1
aV3
aV64.8
p183
aV8.4
p184
aV3
aV7.27
p185
aa(lp186
V2015/2016
p187
aVMontpellier
p188
aVFL1
p189
aV0(2)
p190
aV37
p191
aV-
aV-
aV-
aV-
aV-
aV85.7
p192
aV1
aV-
aV6.12
p193
aa(lp194
VTotal / Average
p195
aV
aV
aV78
p196
aV5509
p197
aV21
p198
aV5
aV6
aV2
aV2.3
p199
aV64.2
p200
aV6.9
p201
aV7
aV6.98
p202
aasS'id'
p203
V135259
p204
sb.