(i__main__
Player
p1
(dp2
S'name'
p3
VAlfie Mawson 
p4
sS'offensive_data'
p5
(lp6
(lp7
a(lp8
V2018/2019
p9
aVFulham
p10
aVEPL
p11
aV9(1)
p12
aV811
p13
aV-
aV-
aV2
aV-
aV0.2
p14
aV79.8
p15
aV2.1
p16
aV-
aV6.39
p17
aa(lp18
V2017/2018
p19
aVSwansea
p20
aVEPL
p21
aV38
p22
aV3420
p23
aV2
aV1
aV3
aV-
aV0.5
p24
aV81.1
p25
aV3.2
p26
aV-
aV6.81
p27
aa(lp28
V2016/2017
p29
aVBarnsley
p30
aVEC
p31
aV4
aV360
p32
aV2
aV-
aV-
aV-
aV1
aV55.6
p33
aV6
aV-
aV7.46
p34
aa(lp35
V2016/2017
p36
aVSwansea
p37
aVEPL
p38
aV27
p39
aV2430
p40
aV4
aV-
aV1
aV-
aV0.9
p41
aV82.9
p42
aV3.1
p43
aV2
aV6.99
p44
aa(lp45
VTotal / Average
p46
aV
aV
aV79
p47
aV7021
p48
aV8
aV1
aV6
aV0
aV0.6
p49
aV80.3
p50
aV3.2
p51
aV2
aV6.85
p52
aasS'url'
p53
S'https://www.whoscored.com/Players/135727/History/'
p54
sS'passing_data'
p55
(lp56
(lp57
a(lp58
V2018/2019
p59
aVFulham
p60
aVEPL
p61
aV9(1)
p62
aV811
p63
aV-
aV-
aV2
aV-
aV0.2
p64
aV79.8
p65
aV2.1
p66
aV-
aV6.39
p67
aa(lp68
V2017/2018
p69
aVSwansea
p70
aVEPL
p71
aV38
p72
aV3420
p73
aV2
aV1
aV3
aV-
aV0.5
p74
aV81.1
p75
aV3.2
p76
aV-
aV6.81
p77
aa(lp78
V2016/2017
p79
aVBarnsley
p80
aVEC
p81
aV4
aV360
p82
aV2
aV-
aV-
aV-
aV1
aV55.6
p83
aV6
aV-
aV7.46
p84
aa(lp85
V2016/2017
p86
aVSwansea
p87
aVEPL
p88
aV27
p89
aV2430
p90
aV4
aV-
aV1
aV-
aV0.9
p91
aV82.9
p92
aV3.1
p93
aV2
aV6.99
p94
aa(lp95
VTotal / Average
p96
aV
aV
aV79
p97
aV7021
p98
aV8
aV1
aV6
aV0
aV0.6
p99
aV80.3
p100
aV3.2
p101
aV2
aV6.85
p102
aasS'defensive_data'
p103
(lp104
(lp105
a(lp106
V2018/2019
p107
aVFulham
p108
aVEPL
p109
aV9(1)
p110
aV811
p111
aV-
aV-
aV2
aV-
aV0.2
p112
aV79.8
p113
aV2.1
p114
aV-
aV6.39
p115
aa(lp116
V2017/2018
p117
aVSwansea
p118
aVEPL
p119
aV38
p120
aV3420
p121
aV2
aV1
aV3
aV-
aV0.5
p122
aV81.1
p123
aV3.2
p124
aV-
aV6.81
p125
aa(lp126
V2016/2017
p127
aVBarnsley
p128
aVEC
p129
aV4
aV360
p130
aV2
aV-
aV-
aV-
aV1
aV55.6
p131
aV6
aV-
aV7.46
p132
aa(lp133
V2016/2017
p134
aVSwansea
p135
aVEPL
p136
aV27
p137
aV2430
p138
aV4
aV-
aV1
aV-
aV0.9
p139
aV82.9
p140
aV3.1
p141
aV2
aV6.99
p142
aa(lp143
VTotal / Average
p144
aV
aV
aV79
p145
aV7021
p146
aV8
aV1
aV6
aV0
aV0.6
p147
aV80.3
p148
aV3.2
p149
aV2
aV6.85
p150
aasS'sumary_data'
p151
(lp152
(lp153
a(lp154
V2018/2019
p155
aVFulham
p156
aVEPL
p157
aV9(1)
p158
aV811
p159
aV-
aV-
aV2
aV-
aV0.2
p160
aV79.8
p161
aV2.1
p162
aV-
aV6.39
p163
aa(lp164
V2017/2018
p165
aVSwansea
p166
aVEPL
p167
aV38
p168
aV3420
p169
aV2
aV1
aV3
aV-
aV0.5
p170
aV81.1
p171
aV3.2
p172
aV-
aV6.81
p173
aa(lp174
V2016/2017
p175
aVBarnsley
p176
aVEC
p177
aV4
aV360
p178
aV2
aV-
aV-
aV-
aV1
aV55.6
p179
aV6
aV-
aV7.46
p180
aa(lp181
V2016/2017
p182
aVSwansea
p183
aVEPL
p184
aV27
p185
aV2430
p186
aV4
aV-
aV1
aV-
aV0.9
p187
aV82.9
p188
aV3.1
p189
aV2
aV6.99
p190
aa(lp191
VTotal / Average
p192
aV
aV
aV79
p193
aV7021
p194
aV8
aV1
aV6
aV0
aV0.6
p195
aV80.3
p196
aV3.2
p197
aV2
aV6.85
p198
aasS'id'
p199
V135727
p200
sb.