(i__main__
Player
p1
(dp2
S'name'
p3
VMarcus Bettinelli 
p4
sS'offensive_data'
p5
(lp6
(lp7
a(lp8
V2018/2019
p9
aVFulham
p10
aVEPL
p11
aV7
aV630
p12
aV-
aV-
aV1
aV-
aV-
aV60.7
p13
aV0.3
p14
aV-
aV6.45
p15
aa(lp16
V2017/2018
p17
aVFulham
p18
aVEC
p19
aV29
p20
aV2610
p21
aV-
aV-
aV6
aV-
aV-
aV68.9
p22
aV0.4
p23
aV-
aV6.79
p24
aa(lp25
V2016/2017
p26
aVFulham
p27
aVEC
p28
aV8
aV720
p29
aV-
aV-
aV1
aV-
aV-
aV68.3
p30
aV-
aV-
aV6.69
p31
aa(lp32
V2015/2016
p33
aVFulham
p34
aVEC
p35
aV11
p36
aV947
p37
aV-
aV-
aV1
aV-
aV-
aV47.4
p38
aV0.1
p39
aV-
aV6.43
p40
aa(lp41
V2014/2015
p42
aVFulham
p43
aVEC
p44
aV39
p45
aV3438
p46
aV-
aV-
aV2
aV1
aV-
aV42.7
p47
aV0.4
p48
aV2
aV6.65
p49
aa(lp50
VTotal / Average
p51
aV
aV
aV94
p52
aV8345
p53
aV0
aV0
aV11
p54
aV1
aV0
aV54.8
p55
aV0.3
p56
aV2
aV6.66
p57
aasS'url'
p58
S'https://www.whoscored.com/Players/135768/History/'
p59
sS'passing_data'
p60
(lp61
(lp62
a(lp63
V2018/2019
p64
aVFulham
p65
aVEPL
p66
aV7
aV630
p67
aV-
aV-
aV1
aV-
aV-
aV60.7
p68
aV0.3
p69
aV-
aV6.45
p70
aa(lp71
V2017/2018
p72
aVFulham
p73
aVEC
p74
aV29
p75
aV2610
p76
aV-
aV-
aV6
aV-
aV-
aV68.9
p77
aV0.4
p78
aV-
aV6.79
p79
aa(lp80
V2016/2017
p81
aVFulham
p82
aVEC
p83
aV8
aV720
p84
aV-
aV-
aV1
aV-
aV-
aV68.3
p85
aV-
aV-
aV6.69
p86
aa(lp87
V2015/2016
p88
aVFulham
p89
aVEC
p90
aV11
p91
aV947
p92
aV-
aV-
aV1
aV-
aV-
aV47.4
p93
aV0.1
p94
aV-
aV6.43
p95
aa(lp96
V2014/2015
p97
aVFulham
p98
aVEC
p99
aV39
p100
aV3438
p101
aV-
aV-
aV2
aV1
aV-
aV42.7
p102
aV0.4
p103
aV2
aV6.65
p104
aa(lp105
VTotal / Average
p106
aV
aV
aV94
p107
aV8345
p108
aV0
aV0
aV11
p109
aV1
aV0
aV54.8
p110
aV0.3
p111
aV2
aV6.66
p112
aasS'defensive_data'
p113
(lp114
(lp115
a(lp116
V2018/2019
p117
aVFulham
p118
aVEPL
p119
aV7
aV630
p120
aV-
aV-
aV1
aV-
aV-
aV60.7
p121
aV0.3
p122
aV-
aV6.45
p123
aa(lp124
V2017/2018
p125
aVFulham
p126
aVEC
p127
aV29
p128
aV2610
p129
aV-
aV-
aV6
aV-
aV-
aV68.9
p130
aV0.4
p131
aV-
aV6.79
p132
aa(lp133
V2016/2017
p134
aVFulham
p135
aVEC
p136
aV8
aV720
p137
aV-
aV-
aV1
aV-
aV-
aV68.3
p138
aV-
aV-
aV6.69
p139
aa(lp140
V2015/2016
p141
aVFulham
p142
aVEC
p143
aV11
p144
aV947
p145
aV-
aV-
aV1
aV-
aV-
aV47.4
p146
aV0.1
p147
aV-
aV6.43
p148
aa(lp149
V2014/2015
p150
aVFulham
p151
aVEC
p152
aV39
p153
aV3438
p154
aV-
aV-
aV2
aV1
aV-
aV42.7
p155
aV0.4
p156
aV2
aV6.65
p157
aa(lp158
VTotal / Average
p159
aV
aV
aV94
p160
aV8345
p161
aV0
aV0
aV11
p162
aV1
aV0
aV54.8
p163
aV0.3
p164
aV2
aV6.66
p165
aasS'sumary_data'
p166
(lp167
(lp168
a(lp169
V2018/2019
p170
aVFulham
p171
aVEPL
p172
aV7
aV630
p173
aV-
aV-
aV1
aV-
aV-
aV60.7
p174
aV0.3
p175
aV-
aV6.45
p176
aa(lp177
V2017/2018
p178
aVFulham
p179
aVEC
p180
aV29
p181
aV2610
p182
aV-
aV-
aV6
aV-
aV-
aV68.9
p183
aV0.4
p184
aV-
aV6.79
p185
aa(lp186
V2016/2017
p187
aVFulham
p188
aVEC
p189
aV8
aV720
p190
aV-
aV-
aV1
aV-
aV-
aV68.3
p191
aV-
aV-
aV6.69
p192
aa(lp193
V2015/2016
p194
aVFulham
p195
aVEC
p196
aV11
p197
aV947
p198
aV-
aV-
aV1
aV-
aV-
aV47.4
p199
aV0.1
p200
aV-
aV6.43
p201
aa(lp202
V2014/2015
p203
aVFulham
p204
aVEC
p205
aV39
p206
aV3438
p207
aV-
aV-
aV2
aV1
aV-
aV42.7
p208
aV0.4
p209
aV2
aV6.65
p210
aa(lp211
VTotal / Average
p212
aV
aV
aV94
p213
aV8345
p214
aV0
aV0
aV11
p215
aV1
aV0
aV54.8
p216
aV0.3
p217
aV2
aV6.66
p218
aasS'id'
p219
V135768
p220
sb.