(i__main__
Player
p1
(dp2
S'name'
p3
VKadeem Harris 
p4
sS'offensive_data'
p5
(lp6
(lp7
a(lp8
V2018/2019
p9
aVCardiff
p10
aVEPL
p11
aV2(6)
p12
aV229
p13
aV1
aV-
aV1
aV-
aV0.3
p14
aV78.9
p15
aV0.3
p16
aV-
aV6.34
p17
aa(lp18
V2017/2018
p19
aVCardiff
p20
aVEC
p21
aV1(2)
p22
aV94
p23
aV-
aV-
aV-
aV-
aV0.7
p24
aV66.7
p25
aV0.7
p26
aV-
aV6.13
p27
aa(lp28
V2016/2017
p29
aVCardiff
p30
aVEC
p31
aV22(15)
p32
aV2175
p33
aV4
aV4
aV5
aV-
aV0.8
p34
aV75.6
p35
aV0.5
p36
aV-
aV6.58
p37
aa(lp38
V2015/2016
p39
aVCardiff
p40
aVEC
p41
aV0(3)
p42
aV44
p43
aV-
aV-
aV-
aV-
aV-
aV100
p44
aV-
aV-
aV6.27
p45
aa(lp46
V2014/2015
p47
aVCardiff
p48
aVEC
p49
aV3(11)
p50
aV483
p51
aV1
aV1
aV2
aV1
aV0.8
p52
aV83.3
p53
aV0.1
p54
aV-
aV6.11
p55
aa(lp56
VTotal / Average
p57
aV
aV
aV65
p58
aV3025
p59
aV6
aV5
aV8
aV1
aV0.7
p60
aV78.4
p61
aV0.3
p62
aV0
aV6.41
p63
aasS'url'
p64
S'https://www.whoscored.com/Players/135772/History/'
p65
sS'passing_data'
p66
(lp67
(lp68
a(lp69
V2018/2019
p70
aVCardiff
p71
aVEPL
p72
aV2(6)
p73
aV229
p74
aV1
aV-
aV1
aV-
aV0.3
p75
aV78.9
p76
aV0.3
p77
aV-
aV6.34
p78
aa(lp79
V2017/2018
p80
aVCardiff
p81
aVEC
p82
aV1(2)
p83
aV94
p84
aV-
aV-
aV-
aV-
aV0.7
p85
aV66.7
p86
aV0.7
p87
aV-
aV6.13
p88
aa(lp89
V2016/2017
p90
aVCardiff
p91
aVEC
p92
aV22(15)
p93
aV2175
p94
aV4
aV4
aV5
aV-
aV0.8
p95
aV75.6
p96
aV0.5
p97
aV-
aV6.58
p98
aa(lp99
V2015/2016
p100
aVCardiff
p101
aVEC
p102
aV0(3)
p103
aV44
p104
aV-
aV-
aV-
aV-
aV-
aV100
p105
aV-
aV-
aV6.27
p106
aa(lp107
V2014/2015
p108
aVCardiff
p109
aVEC
p110
aV3(11)
p111
aV483
p112
aV1
aV1
aV2
aV1
aV0.8
p113
aV83.3
p114
aV0.1
p115
aV-
aV6.11
p116
aa(lp117
VTotal / Average
p118
aV
aV
aV65
p119
aV3025
p120
aV6
aV5
aV8
aV1
aV0.7
p121
aV78.4
p122
aV0.3
p123
aV0
aV6.41
p124
aasS'defensive_data'
p125
(lp126
(lp127
a(lp128
V2018/2019
p129
aVCardiff
p130
aVEPL
p131
aV2(6)
p132
aV229
p133
aV1
aV-
aV1
aV-
aV0.3
p134
aV78.9
p135
aV0.3
p136
aV-
aV6.34
p137
aa(lp138
V2017/2018
p139
aVCardiff
p140
aVEC
p141
aV1(2)
p142
aV94
p143
aV-
aV-
aV-
aV-
aV0.7
p144
aV66.7
p145
aV0.7
p146
aV-
aV6.13
p147
aa(lp148
V2016/2017
p149
aVCardiff
p150
aVEC
p151
aV22(15)
p152
aV2175
p153
aV4
aV4
aV5
aV-
aV0.8
p154
aV75.6
p155
aV0.5
p156
aV-
aV6.58
p157
aa(lp158
V2015/2016
p159
aVCardiff
p160
aVEC
p161
aV0(3)
p162
aV44
p163
aV-
aV-
aV-
aV-
aV-
aV100
p164
aV-
aV-
aV6.27
p165
aa(lp166
V2014/2015
p167
aVCardiff
p168
aVEC
p169
aV3(11)
p170
aV483
p171
aV1
aV1
aV2
aV1
aV0.8
p172
aV83.3
p173
aV0.1
p174
aV-
aV6.11
p175
aa(lp176
VTotal / Average
p177
aV
aV
aV65
p178
aV3025
p179
aV6
aV5
aV8
aV1
aV0.7
p180
aV78.4
p181
aV0.3
p182
aV0
aV6.41
p183
aasS'sumary_data'
p184
(lp185
(lp186
a(lp187
V2018/2019
p188
aVCardiff
p189
aVEPL
p190
aV2(6)
p191
aV229
p192
aV1
aV-
aV1
aV-
aV0.3
p193
aV78.9
p194
aV0.3
p195
aV-
aV6.34
p196
aa(lp197
V2017/2018
p198
aVCardiff
p199
aVEC
p200
aV1(2)
p201
aV94
p202
aV-
aV-
aV-
aV-
aV0.7
p203
aV66.7
p204
aV0.7
p205
aV-
aV6.13
p206
aa(lp207
V2016/2017
p208
aVCardiff
p209
aVEC
p210
aV22(15)
p211
aV2175
p212
aV4
aV4
aV5
aV-
aV0.8
p213
aV75.6
p214
aV0.5
p215
aV-
aV6.58
p216
aa(lp217
V2015/2016
p218
aVCardiff
p219
aVEC
p220
aV0(3)
p221
aV44
p222
aV-
aV-
aV-
aV-
aV-
aV100
p223
aV-
aV-
aV6.27
p224
aa(lp225
V2014/2015
p226
aVCardiff
p227
aVEC
p228
aV3(11)
p229
aV483
p230
aV1
aV1
aV2
aV1
aV0.8
p231
aV83.3
p232
aV0.1
p233
aV-
aV6.11
p234
aa(lp235
VTotal / Average
p236
aV
aV
aV65
p237
aV3025
p238
aV6
aV5
aV8
aV1
aV0.7
p239
aV78.4
p240
aV0.3
p241
aV0
aV6.41
p242
aasS'id'
p243
V135772
p244
sb.