(i__main__
Player
p1
(dp2
S'name'
p3
VTommy Smith 
p4
sS'offensive_data'
p5
(lp6
(lp7
a(lp8
V2018/2019
p9
aVHuddersfield
p10
aVEPL
p11
aV3(1)
p12
aV267
p13
aV-
aV-
aV2
aV-
aV0.3
p14
aV78.4
p15
aV0.8
p16
aV-
aV6.36
p17
aa(lp18
V2017/2018
p19
aVHuddersfield
p20
aVEPL
p21
aV21(3)
p22
aV1908
p23
aV-
aV1
aV7
aV-
aV0.3
p24
aV70.7
p25
aV0.8
p26
aV1
aV6.51
p27
aa(lp28
V2016/2017
p29
aVHuddersfield
p30
aVEC
p31
aV43(2)
p32
aV3924
p33
aV4
aV10
p34
aV8
aV-
aV0.8
p35
aV73.2
p36
aV1.8
p37
aV2
aV6.74
p38
aa(lp39
V2015/2016
p40
aVHuddersfield
p41
aVEC
p42
aV33(3)
p43
aV2942
p44
aV-
aV4
aV7
aV1
aV0.6
p45
aV73.9
p46
aV1
aV-
aV6.64
p47
aa(lp48
V2014/2015
p49
aVHuddersfield
p50
aVEC
p51
aV40(1)
p52
aV3611
p53
aV-
aV3
aV8
aV-
aV0.3
p54
aV68.9
p55
aV1
aV1
aV6.79
p56
aa(lp57
V2013/2014
p58
aVHuddersfield
p59
aVEC
p60
aV23(1)
p61
aV2117
p62
aV-
aV1
aV6
aV-
aV0.3
p63
aV71.7
p64
aV1
aV-
aV6.68
p65
aa(lp66
VTotal / Average
p67
aV
aV
aV174
p68
aV14769
p69
aV4
aV19
p70
aV38
p71
aV1
aV0.5
p72
aV71.9
p73
aV1.2
p74
aV4
aV6.68
p75
aasS'url'
p76
S'https://www.whoscored.com/Players/135837/History/'
p77
sS'passing_data'
p78
(lp79
(lp80
a(lp81
V2018/2019
p82
aVHuddersfield
p83
aVEPL
p84
aV3(1)
p85
aV267
p86
aV-
aV-
aV2
aV-
aV0.3
p87
aV78.4
p88
aV0.8
p89
aV-
aV6.36
p90
aa(lp91
V2017/2018
p92
aVHuddersfield
p93
aVEPL
p94
aV21(3)
p95
aV1908
p96
aV-
aV1
aV7
aV-
aV0.3
p97
aV70.7
p98
aV0.8
p99
aV1
aV6.51
p100
aa(lp101
V2016/2017
p102
aVHuddersfield
p103
aVEC
p104
aV43(2)
p105
aV3924
p106
aV4
aV10
p107
aV8
aV-
aV0.8
p108
aV73.2
p109
aV1.8
p110
aV2
aV6.74
p111
aa(lp112
V2015/2016
p113
aVHuddersfield
p114
aVEC
p115
aV33(3)
p116
aV2942
p117
aV-
aV4
aV7
aV1
aV0.6
p118
aV73.9
p119
aV1
aV-
aV6.64
p120
aa(lp121
V2014/2015
p122
aVHuddersfield
p123
aVEC
p124
aV40(1)
p125
aV3611
p126
aV-
aV3
aV8
aV-
aV0.3
p127
aV68.9
p128
aV1
aV1
aV6.79
p129
aa(lp130
V2013/2014
p131
aVHuddersfield
p132
aVEC
p133
aV23(1)
p134
aV2117
p135
aV-
aV1
aV6
aV-
aV0.3
p136
aV71.7
p137
aV1
aV-
aV6.68
p138
aa(lp139
VTotal / Average
p140
aV
aV
aV174
p141
aV14769
p142
aV4
aV19
p143
aV38
p144
aV1
aV0.5
p145
aV71.9
p146
aV1.2
p147
aV4
aV6.68
p148
aasS'defensive_data'
p149
(lp150
(lp151
a(lp152
V2018/2019
p153
aVHuddersfield
p154
aVEPL
p155
aV3(1)
p156
aV267
p157
aV-
aV-
aV2
aV-
aV0.3
p158
aV78.4
p159
aV0.8
p160
aV-
aV6.36
p161
aa(lp162
V2017/2018
p163
aVHuddersfield
p164
aVEPL
p165
aV21(3)
p166
aV1908
p167
aV-
aV1
aV7
aV-
aV0.3
p168
aV70.7
p169
aV0.8
p170
aV1
aV6.51
p171
aa(lp172
V2016/2017
p173
aVHuddersfield
p174
aVEC
p175
aV43(2)
p176
aV3924
p177
aV4
aV10
p178
aV8
aV-
aV0.8
p179
aV73.2
p180
aV1.8
p181
aV2
aV6.74
p182
aa(lp183
V2015/2016
p184
aVHuddersfield
p185
aVEC
p186
aV33(3)
p187
aV2942
p188
aV-
aV4
aV7
aV1
aV0.6
p189
aV73.9
p190
aV1
aV-
aV6.64
p191
aa(lp192
V2014/2015
p193
aVHuddersfield
p194
aVEC
p195
aV40(1)
p196
aV3611
p197
aV-
aV3
aV8
aV-
aV0.3
p198
aV68.9
p199
aV1
aV1
aV6.79
p200
aa(lp201
V2013/2014
p202
aVHuddersfield
p203
aVEC
p204
aV23(1)
p205
aV2117
p206
aV-
aV1
aV6
aV-
aV0.3
p207
aV71.7
p208
aV1
aV-
aV6.68
p209
aa(lp210
VTotal / Average
p211
aV
aV
aV174
p212
aV14769
p213
aV4
aV19
p214
aV38
p215
aV1
aV0.5
p216
aV71.9
p217
aV1.2
p218
aV4
aV6.68
p219
aasS'sumary_data'
p220
(lp221
(lp222
a(lp223
V2018/2019
p224
aVHuddersfield
p225
aVEPL
p226
aV3(1)
p227
aV267
p228
aV-
aV-
aV2
aV-
aV0.3
p229
aV78.4
p230
aV0.8
p231
aV-
aV6.36
p232
aa(lp233
V2017/2018
p234
aVHuddersfield
p235
aVEPL
p236
aV21(3)
p237
aV1908
p238
aV-
aV1
aV7
aV-
aV0.3
p239
aV70.7
p240
aV0.8
p241
aV1
aV6.51
p242
aa(lp243
V2016/2017
p244
aVHuddersfield
p245
aVEC
p246
aV43(2)
p247
aV3924
p248
aV4
aV10
p249
aV8
aV-
aV0.8
p250
aV73.2
p251
aV1.8
p252
aV2
aV6.74
p253
aa(lp254
V2015/2016
p255
aVHuddersfield
p256
aVEC
p257
aV33(3)
p258
aV2942
p259
aV-
aV4
aV7
aV1
aV0.6
p260
aV73.9
p261
aV1
aV-
aV6.64
p262
aa(lp263
V2014/2015
p264
aVHuddersfield
p265
aVEC
p266
aV40(1)
p267
aV3611
p268
aV-
aV3
aV8
aV-
aV0.3
p269
aV68.9
p270
aV1
aV1
aV6.79
p271
aa(lp272
V2013/2014
p273
aVHuddersfield
p274
aVEC
p275
aV23(1)
p276
aV2117
p277
aV-
aV1
aV6
aV-
aV0.3
p278
aV71.7
p279
aV1
aV-
aV6.68
p280
aa(lp281
VTotal / Average
p282
aV
aV
aV174
p283
aV14769
p284
aV4
aV19
p285
aV38
p286
aV1
aV0.5
p287
aV71.9
p288
aV1.2
p289
aV4
aV6.68
p290
aasS'id'
p291
V135837
p292
sb.