(i__main__
Player
p1
(dp2
S'name'
p3
VJean Michael Seri 
p4
sS'offensive_data'
p5
(lp6
(lp7
a(lp8
V2018/2019
p9
aVFulham
p10
aVEPL
p11
aV16(1)
p12
aV1326
p13
aV1
aV2
aV2
aV-
aV0.6
p14
aV86.5
p15
aV0.5
p16
aV-
aV6.57
p17
aa(lp18
V2017/2018
p19
aVNice
p20
aVUEL
p21
aV5
aV397
p22
aV-
aV1
aV-
aV-
aV1
aV92.5
p23
aV0.2
p24
aV-
aV6.88
p25
aa(lp26
V2017/2018
p27
aVNice
p28
aVFL1
p29
aV30(1)
p30
aV2623
p31
aV2
aV5
aV5
aV-
aV1.1
p32
aV90.4
p33
aV0.4
p34
aV1
aV6.92
p35
aa(lp36
V2016/2017
p37
aVNice
p38
aVFL1
p39
aV34
p40
aV2990
p41
aV7
aV9
aV4
aV-
aV0.9
p42
aV89.5
p43
aV0.4
p44
aV2
aV7.23
p45
aa(lp46
V2016/2017
p47
aVNice
p48
aVUEL
p49
aV3(1)
p50
aV273
p51
aV-
aV-
aV2
aV-
aV0.5
p52
aV85.5
p53
aV0.3
p54
aV-
aV6.40
p55
aa(lp56
V2015/2016
p57
aVNice
p58
aVFL1
p59
aV35(3)
p60
aV3113
p61
aV3
aV6
aV2
aV-
aV1.3
p62
aV88.9
p63
aV0.6
p64
aV-
aV7.01
p65
aa(lp66
V2013/2014
p67
aVPacos de Ferr..
p68
aVUEL
p69
aV5(1)
p70
aV413
p71
aV-
aV1
aV1
aV-
aV1
aV84.5
p72
aV0.5
p73
aV-
aV6.69
p74
aa(lp75
VTotal / Average
p76
aV
aV
aV135
p77
aV11135
p78
aV13
p79
aV24
p80
aV16
p81
aV0
aV1
aV88.9
p82
aV0.5
p83
aV3
aV6.95
p84
aasS'url'
p85
S'https://www.whoscored.com/Players/136262/History/'
p86
sS'passing_data'
p87
(lp88
(lp89
a(lp90
V2018/2019
p91
aVFulham
p92
aVEPL
p93
aV16(1)
p94
aV1326
p95
aV1
aV2
aV2
aV-
aV0.6
p96
aV86.5
p97
aV0.5
p98
aV-
aV6.57
p99
aa(lp100
V2017/2018
p101
aVNice
p102
aVUEL
p103
aV5
aV397
p104
aV-
aV1
aV-
aV-
aV1
aV92.5
p105
aV0.2
p106
aV-
aV6.88
p107
aa(lp108
V2017/2018
p109
aVNice
p110
aVFL1
p111
aV30(1)
p112
aV2623
p113
aV2
aV5
aV5
aV-
aV1.1
p114
aV90.4
p115
aV0.4
p116
aV1
aV6.92
p117
aa(lp118
V2016/2017
p119
aVNice
p120
aVFL1
p121
aV34
p122
aV2990
p123
aV7
aV9
aV4
aV-
aV0.9
p124
aV89.5
p125
aV0.4
p126
aV2
aV7.23
p127
aa(lp128
V2016/2017
p129
aVNice
p130
aVUEL
p131
aV3(1)
p132
aV273
p133
aV-
aV-
aV2
aV-
aV0.5
p134
aV85.5
p135
aV0.3
p136
aV-
aV6.40
p137
aa(lp138
V2015/2016
p139
aVNice
p140
aVFL1
p141
aV35(3)
p142
aV3113
p143
aV3
aV6
aV2
aV-
aV1.3
p144
aV88.9
p145
aV0.6
p146
aV-
aV7.01
p147
aa(lp148
V2013/2014
p149
aVPacos de Ferr..
p150
aVUEL
p151
aV5(1)
p152
aV413
p153
aV-
aV1
aV1
aV-
aV1
aV84.5
p154
aV0.5
p155
aV-
aV6.69
p156
aa(lp157
VTotal / Average
p158
aV
aV
aV135
p159
aV11135
p160
aV13
p161
aV24
p162
aV16
p163
aV0
aV1
aV88.9
p164
aV0.5
p165
aV3
aV6.95
p166
aasS'defensive_data'
p167
(lp168
(lp169
a(lp170
V2018/2019
p171
aVFulham
p172
aVEPL
p173
aV16(1)
p174
aV1326
p175
aV1
aV2
aV2
aV-
aV0.6
p176
aV86.5
p177
aV0.5
p178
aV-
aV6.57
p179
aa(lp180
V2017/2018
p181
aVNice
p182
aVUEL
p183
aV5
aV397
p184
aV-
aV1
aV-
aV-
aV1
aV92.5
p185
aV0.2
p186
aV-
aV6.88
p187
aa(lp188
V2017/2018
p189
aVNice
p190
aVFL1
p191
aV30(1)
p192
aV2623
p193
aV2
aV5
aV5
aV-
aV1.1
p194
aV90.4
p195
aV0.4
p196
aV1
aV6.92
p197
aa(lp198
V2016/2017
p199
aVNice
p200
aVFL1
p201
aV34
p202
aV2990
p203
aV7
aV9
aV4
aV-
aV0.9
p204
aV89.5
p205
aV0.4
p206
aV2
aV7.23
p207
aa(lp208
V2016/2017
p209
aVNice
p210
aVUEL
p211
aV3(1)
p212
aV273
p213
aV-
aV-
aV2
aV-
aV0.5
p214
aV85.5
p215
aV0.3
p216
aV-
aV6.40
p217
aa(lp218
V2015/2016
p219
aVNice
p220
aVFL1
p221
aV35(3)
p222
aV3113
p223
aV3
aV6
aV2
aV-
aV1.3
p224
aV88.9
p225
aV0.6
p226
aV-
aV7.01
p227
aa(lp228
V2013/2014
p229
aVPacos de Ferr..
p230
aVUEL
p231
aV5(1)
p232
aV413
p233
aV-
aV1
aV1
aV-
aV1
aV84.5
p234
aV0.5
p235
aV-
aV6.69
p236
aa(lp237
VTotal / Average
p238
aV
aV
aV135
p239
aV11135
p240
aV13
p241
aV24
p242
aV16
p243
aV0
aV1
aV88.9
p244
aV0.5
p245
aV3
aV6.95
p246
aasS'sumary_data'
p247
(lp248
(lp249
a(lp250
V2018/2019
p251
aVFulham
p252
aVEPL
p253
aV16(1)
p254
aV1326
p255
aV1
aV2
aV2
aV-
aV0.6
p256
aV86.5
p257
aV0.5
p258
aV-
aV6.57
p259
aa(lp260
V2017/2018
p261
aVNice
p262
aVUEL
p263
aV5
aV397
p264
aV-
aV1
aV-
aV-
aV1
aV92.5
p265
aV0.2
p266
aV-
aV6.88
p267
aa(lp268
V2017/2018
p269
aVNice
p270
aVFL1
p271
aV30(1)
p272
aV2623
p273
aV2
aV5
aV5
aV-
aV1.1
p274
aV90.4
p275
aV0.4
p276
aV1
aV6.92
p277
aa(lp278
V2016/2017
p279
aVNice
p280
aVFL1
p281
aV34
p282
aV2990
p283
aV7
aV9
aV4
aV-
aV0.9
p284
aV89.5
p285
aV0.4
p286
aV2
aV7.23
p287
aa(lp288
V2016/2017
p289
aVNice
p290
aVUEL
p291
aV3(1)
p292
aV273
p293
aV-
aV-
aV2
aV-
aV0.5
p294
aV85.5
p295
aV0.3
p296
aV-
aV6.40
p297
aa(lp298
V2015/2016
p299
aVNice
p300
aVFL1
p301
aV35(3)
p302
aV3113
p303
aV3
aV6
aV2
aV-
aV1.3
p304
aV88.9
p305
aV0.6
p306
aV-
aV7.01
p307
aa(lp308
V2013/2014
p309
aVPacos de Ferr..
p310
aVUEL
p311
aV5(1)
p312
aV413
p313
aV-
aV1
aV1
aV-
aV1
aV84.5
p314
aV0.5
p315
aV-
aV6.69
p316
aa(lp317
VTotal / Average
p318
aV
aV
aV135
p319
aV11135
p320
aV13
p321
aV24
p322
aV16
p323
aV0
aV1
aV88.9
p324
aV0.5
p325
aV3
aV6.95
p326
aasS'id'
p327
V136262
p328
sb.