(i__main__
Player
p1
(dp2
S'name'
p3
VIsaac Hayden 
p4
sS'offensive_data'
p5
(lp6
(lp7
a(lp8
V2018/2019
p9
aVNewcastle Uni..
p10
aVEPL
p11
aV1(4)
p12
aV146
p13
aV-
aV-
aV-
aV1
aV-
aV67.4
p14
aV1.2
p15
aV-
aV6.27
p16
aa(lp17
V2017/2018
p18
aVNewcastle Uni..
p19
aVEPL
p20
aV15(11)
p21
aV1372
p22
aV1
aV-
aV7
aV-
aV0.5
p23
aV75.3
p24
aV2
aV-
aV6.53
p25
aa(lp26
V2016/2017
p27
aVNewcastle Uni..
p28
aVEC
p29
aV28(5)
p30
aV2338
p31
aV2
aV3
aV7
aV-
aV1.2
p32
aV79.8
p33
aV3.7
p34
aV4
aV7.28
p35
aa(lp36
V2015/2016
p37
aVHull
p38
aVEC
p39
aV9(9)
p40
aV861
p41
aV1
aV-
aV5
aV-
aV0.9
p42
aV88.3
p43
aV0.6
p44
aV-
aV6.78
p45
aa(lp46
VTotal / Average
p47
aV
aV
aV82
p48
aV4717
p49
aV4
aV3
aV19
p50
aV1
aV0.9
p51
aV79.5
p52
aV2.3
p53
aV4
aV6.87
p54
aasS'url'
p55
S'https://www.whoscored.com/Players/136356/History/'
p56
sS'passing_data'
p57
(lp58
(lp59
a(lp60
V2018/2019
p61
aVNewcastle Uni..
p62
aVEPL
p63
aV1(4)
p64
aV146
p65
aV-
aV-
aV-
aV1
aV-
aV67.4
p66
aV1.2
p67
aV-
aV6.27
p68
aa(lp69
V2017/2018
p70
aVNewcastle Uni..
p71
aVEPL
p72
aV15(11)
p73
aV1372
p74
aV1
aV-
aV7
aV-
aV0.5
p75
aV75.3
p76
aV2
aV-
aV6.53
p77
aa(lp78
V2016/2017
p79
aVNewcastle Uni..
p80
aVEC
p81
aV28(5)
p82
aV2338
p83
aV2
aV3
aV7
aV-
aV1.2
p84
aV79.8
p85
aV3.7
p86
aV4
aV7.28
p87
aa(lp88
V2015/2016
p89
aVHull
p90
aVEC
p91
aV9(9)
p92
aV861
p93
aV1
aV-
aV5
aV-
aV0.9
p94
aV88.3
p95
aV0.6
p96
aV-
aV6.78
p97
aa(lp98
VTotal / Average
p99
aV
aV
aV82
p100
aV4717
p101
aV4
aV3
aV19
p102
aV1
aV0.9
p103
aV79.5
p104
aV2.3
p105
aV4
aV6.87
p106
aasS'defensive_data'
p107
(lp108
(lp109
a(lp110
V2018/2019
p111
aVNewcastle Uni..
p112
aVEPL
p113
aV1(4)
p114
aV146
p115
aV-
aV-
aV-
aV1
aV-
aV67.4
p116
aV1.2
p117
aV-
aV6.27
p118
aa(lp119
V2017/2018
p120
aVNewcastle Uni..
p121
aVEPL
p122
aV15(11)
p123
aV1372
p124
aV1
aV-
aV7
aV-
aV0.5
p125
aV75.3
p126
aV2
aV-
aV6.53
p127
aa(lp128
V2016/2017
p129
aVNewcastle Uni..
p130
aVEC
p131
aV28(5)
p132
aV2338
p133
aV2
aV3
aV7
aV-
aV1.2
p134
aV79.8
p135
aV3.7
p136
aV4
aV7.28
p137
aa(lp138
V2015/2016
p139
aVHull
p140
aVEC
p141
aV9(9)
p142
aV861
p143
aV1
aV-
aV5
aV-
aV0.9
p144
aV88.3
p145
aV0.6
p146
aV-
aV6.78
p147
aa(lp148
VTotal / Average
p149
aV
aV
aV82
p150
aV4717
p151
aV4
aV3
aV19
p152
aV1
aV0.9
p153
aV79.5
p154
aV2.3
p155
aV4
aV6.87
p156
aasS'sumary_data'
p157
(lp158
(lp159
a(lp160
V2018/2019
p161
aVNewcastle Uni..
p162
aVEPL
p163
aV1(4)
p164
aV146
p165
aV-
aV-
aV-
aV1
aV-
aV67.4
p166
aV1.2
p167
aV-
aV6.27
p168
aa(lp169
V2017/2018
p170
aVNewcastle Uni..
p171
aVEPL
p172
aV15(11)
p173
aV1372
p174
aV1
aV-
aV7
aV-
aV0.5
p175
aV75.3
p176
aV2
aV-
aV6.53
p177
aa(lp178
V2016/2017
p179
aVNewcastle Uni..
p180
aVEC
p181
aV28(5)
p182
aV2338
p183
aV2
aV3
aV7
aV-
aV1.2
p184
aV79.8
p185
aV3.7
p186
aV4
aV7.28
p187
aa(lp188
V2015/2016
p189
aVHull
p190
aVEC
p191
aV9(9)
p192
aV861
p193
aV1
aV-
aV5
aV-
aV0.9
p194
aV88.3
p195
aV0.6
p196
aV-
aV6.78
p197
aa(lp198
VTotal / Average
p199
aV
aV
aV82
p200
aV4717
p201
aV4
aV3
aV19
p202
aV1
aV0.9
p203
aV79.5
p204
aV2.3
p205
aV4
aV6.87
p206
aasS'id'
p207
V136356
p208
sb.