(i__main__
Player
p1
(dp2
S'name'
p3
VLewis Cook 
p4
sS'offensive_data'
p5
(lp6
(lp7
a(lp8
V2018/2019
p9
aVBournemouth
p10
aVEPL
p11
aV8(5)
p12
aV722
p13
aV-
aV-
aV2
aV-
aV0.3
p14
aV83.2
p15
aV0.4
p16
aV-
aV6.36
p17
aa(lp18
V2017/2018
p19
aVBournemouth
p20
aVEPL
p21
aV25(4)
p22
aV2239
p23
aV-
aV2
aV5
aV-
aV0.6
p24
aV79.4
p25
aV0.5
p26
aV-
aV6.73
p27
aa(lp28
V2016/2017
p29
aVBournemouth
p30
aVEPL
p31
aV4(2)
p32
aV431
p33
aV-
aV2
aV1
aV-
aV0.8
p34
aV84.6
p35
aV0.2
p36
aV-
aV6.75
p37
aa(lp38
V2015/2016
p39
aVLeeds
p40
aVEC
p41
aV41(2)
p42
aV3658
p43
aV1
aV2
aV10
p44
aV-
aV1
aV79.2
p45
aV0.7
p46
aV-
aV6.65
p47
aa(lp48
V2014/2015
p49
aVLeeds
p50
aVEC
p51
aV33(4)
p52
aV2952
p53
aV-
aV1
aV6
aV-
aV0.4
p54
aV74.9
p55
aV0.7
p56
aV-
aV6.78
p57
aa(lp58
VTotal / Average
p59
aV
aV
aV128
p60
aV10002
p61
aV1
aV7
aV24
p62
aV0
aV0.7
p63
aV78.6
p64
aV0.6
p65
aV0
aV6.68
p66
aasS'url'
p67
S'https://www.whoscored.com/Players/136456/History/'
p68
sS'passing_data'
p69
(lp70
(lp71
a(lp72
V2018/2019
p73
aVBournemouth
p74
aVEPL
p75
aV8(5)
p76
aV722
p77
aV-
aV-
aV2
aV-
aV0.3
p78
aV83.2
p79
aV0.4
p80
aV-
aV6.36
p81
aa(lp82
V2017/2018
p83
aVBournemouth
p84
aVEPL
p85
aV25(4)
p86
aV2239
p87
aV-
aV2
aV5
aV-
aV0.6
p88
aV79.4
p89
aV0.5
p90
aV-
aV6.73
p91
aa(lp92
V2016/2017
p93
aVBournemouth
p94
aVEPL
p95
aV4(2)
p96
aV431
p97
aV-
aV2
aV1
aV-
aV0.8
p98
aV84.6
p99
aV0.2
p100
aV-
aV6.75
p101
aa(lp102
V2015/2016
p103
aVLeeds
p104
aVEC
p105
aV41(2)
p106
aV3658
p107
aV1
aV2
aV10
p108
aV-
aV1
aV79.2
p109
aV0.7
p110
aV-
aV6.65
p111
aa(lp112
V2014/2015
p113
aVLeeds
p114
aVEC
p115
aV33(4)
p116
aV2952
p117
aV-
aV1
aV6
aV-
aV0.4
p118
aV74.9
p119
aV0.7
p120
aV-
aV6.78
p121
aa(lp122
VTotal / Average
p123
aV
aV
aV128
p124
aV10002
p125
aV1
aV7
aV24
p126
aV0
aV0.7
p127
aV78.6
p128
aV0.6
p129
aV0
aV6.68
p130
aasS'defensive_data'
p131
(lp132
(lp133
a(lp134
V2018/2019
p135
aVBournemouth
p136
aVEPL
p137
aV8(5)
p138
aV722
p139
aV-
aV-
aV2
aV-
aV0.3
p140
aV83.2
p141
aV0.4
p142
aV-
aV6.36
p143
aa(lp144
V2017/2018
p145
aVBournemouth
p146
aVEPL
p147
aV25(4)
p148
aV2239
p149
aV-
aV2
aV5
aV-
aV0.6
p150
aV79.4
p151
aV0.5
p152
aV-
aV6.73
p153
aa(lp154
V2016/2017
p155
aVBournemouth
p156
aVEPL
p157
aV4(2)
p158
aV431
p159
aV-
aV2
aV1
aV-
aV0.8
p160
aV84.6
p161
aV0.2
p162
aV-
aV6.75
p163
aa(lp164
V2015/2016
p165
aVLeeds
p166
aVEC
p167
aV41(2)
p168
aV3658
p169
aV1
aV2
aV10
p170
aV-
aV1
aV79.2
p171
aV0.7
p172
aV-
aV6.65
p173
aa(lp174
V2014/2015
p175
aVLeeds
p176
aVEC
p177
aV33(4)
p178
aV2952
p179
aV-
aV1
aV6
aV-
aV0.4
p180
aV74.9
p181
aV0.7
p182
aV-
aV6.78
p183
aa(lp184
VTotal / Average
p185
aV
aV
aV128
p186
aV10002
p187
aV1
aV7
aV24
p188
aV0
aV0.7
p189
aV78.6
p190
aV0.6
p191
aV0
aV6.68
p192
aasS'sumary_data'
p193
(lp194
(lp195
a(lp196
V2018/2019
p197
aVBournemouth
p198
aVEPL
p199
aV8(5)
p200
aV722
p201
aV-
aV-
aV2
aV-
aV0.3
p202
aV83.2
p203
aV0.4
p204
aV-
aV6.36
p205
aa(lp206
V2017/2018
p207
aVBournemouth
p208
aVEPL
p209
aV25(4)
p210
aV2239
p211
aV-
aV2
aV5
aV-
aV0.6
p212
aV79.4
p213
aV0.5
p214
aV-
aV6.73
p215
aa(lp216
V2016/2017
p217
aVBournemouth
p218
aVEPL
p219
aV4(2)
p220
aV431
p221
aV-
aV2
aV1
aV-
aV0.8
p222
aV84.6
p223
aV0.2
p224
aV-
aV6.75
p225
aa(lp226
V2015/2016
p227
aVLeeds
p228
aVEC
p229
aV41(2)
p230
aV3658
p231
aV1
aV2
aV10
p232
aV-
aV1
aV79.2
p233
aV0.7
p234
aV-
aV6.65
p235
aa(lp236
V2014/2015
p237
aVLeeds
p238
aVEC
p239
aV33(4)
p240
aV2952
p241
aV-
aV1
aV6
aV-
aV0.4
p242
aV74.9
p243
aV0.7
p244
aV-
aV6.78
p245
aa(lp246
VTotal / Average
p247
aV
aV
aV128
p248
aV10002
p249
aV1
aV7
aV24
p250
aV0
aV0.7
p251
aV78.6
p252
aV0.6
p253
aV0
aV6.68
p254
aasS'id'
p255
V136456
p256
sb.