(i__main__
Player
p1
(dp2
S'name'
p3
VJoseph Gomez 
p4
sS'offensive_data'
p5
(lp6
(lp7
a(lp8
V2018/2019
p9
aVLiverpool
p10
aVEPL
p11
aV12(1)
p12
aV1048
p13
aV-
aV-
aV2
aV-
aV0.4
p14
aV87.4
p15
aV1.8
p16
aV-
aV6.92
p17
aa(lp18
V2018/2019
p19
aVLiverpool
p20
aVUCL
p21
aV4(1)
p22
aV405
p23
aV-
aV-
aV1
aV-
aV0.2
p24
aV84.6
p25
aV2.4
p26
aV-
aV6.57
p27
aa(lp28
V2018/2019
p29
aVEngland
p30
aVUNL
p31
aV3
aV270
p32
aV-
aV-
aV-
aV-
aV-
aV88
p33
aV1.7
p34
aV-
aV6.57
p35
aa(lp36
V2017/2018
p37
aVLiverpool
p38
aVUCL
p39
aV4(1)
p40
aV371
p41
aV-
aV-
aV-
aV1
aV-
aV89
p42
aV1.4
p43
aV-
aV6.87
p44
aa(lp45
V2017/2018
p46
aVLiverpool
p47
aVEPL
p48
aV21(2)
p49
aV1901
p50
aV-
aV2
aV3
aV-
aV0.2
p51
aV84.5
p52
aV1.4
p53
aV-
aV7.11
p54
aa(lp55
V2015/2016
p56
aVLiverpool
p57
aVUEL
p58
aV2
aV180
p59
aV-
aV-
aV-
aV-
aV1
aV90.7
p60
aV2.5
p61
aV-
aV7.30
p62
aa(lp63
V2015/2016
p64
aVLiverpool
p65
aVEPL
p66
aV5
aV438
p67
aV-
aV1
aV3
aV-
aV0.2
p68
aV78.8
p69
aV1.8
p70
aV-
aV6.86
p71
aa(lp72
V2014/2015
p73
aVCharlton
p74
aVEC
p75
aV16(5)
p76
aV1480
p77
aV-
aV1
aV2
aV-
aV0.2
p78
aV68.4
p79
aV2.1
p80
aV-
aV6.82
p81
aa(lp82
VTotal / Average
p83
aV
aV
aV77
p84
aV6093
p85
aV0
aV4
aV11
p86
aV1
aV0.2
p87
aV80.9
p88
aV1.8
p89
aV0
aV6.92
p90
aasS'url'
p91
S'https://www.whoscored.com/Players/136451/History/'
p92
sS'passing_data'
p93
(lp94
(lp95
a(lp96
V2018/2019
p97
aVLiverpool
p98
aVEPL
p99
aV12(1)
p100
aV1048
p101
aV-
aV-
aV2
aV-
aV0.4
p102
aV87.4
p103
aV1.8
p104
aV-
aV6.92
p105
aa(lp106
V2018/2019
p107
aVLiverpool
p108
aVUCL
p109
aV4(1)
p110
aV405
p111
aV-
aV-
aV1
aV-
aV0.2
p112
aV84.6
p113
aV2.4
p114
aV-
aV6.57
p115
aa(lp116
V2018/2019
p117
aVEngland
p118
aVUNL
p119
aV3
aV270
p120
aV-
aV-
aV-
aV-
aV-
aV88
p121
aV1.7
p122
aV-
aV6.57
p123
aa(lp124
V2017/2018
p125
aVLiverpool
p126
aVUCL
p127
aV4(1)
p128
aV371
p129
aV-
aV-
aV-
aV1
aV-
aV89
p130
aV1.4
p131
aV-
aV6.87
p132
aa(lp133
V2017/2018
p134
aVLiverpool
p135
aVEPL
p136
aV21(2)
p137
aV1901
p138
aV-
aV2
aV3
aV-
aV0.2
p139
aV84.5
p140
aV1.4
p141
aV-
aV7.11
p142
aa(lp143
V2015/2016
p144
aVLiverpool
p145
aVUEL
p146
aV2
aV180
p147
aV-
aV-
aV-
aV-
aV1
aV90.7
p148
aV2.5
p149
aV-
aV7.30
p150
aa(lp151
V2015/2016
p152
aVLiverpool
p153
aVEPL
p154
aV5
aV438
p155
aV-
aV1
aV3
aV-
aV0.2
p156
aV78.8
p157
aV1.8
p158
aV-
aV6.86
p159
aa(lp160
V2014/2015
p161
aVCharlton
p162
aVEC
p163
aV16(5)
p164
aV1480
p165
aV-
aV1
aV2
aV-
aV0.2
p166
aV68.4
p167
aV2.1
p168
aV-
aV6.82
p169
aa(lp170
VTotal / Average
p171
aV
aV
aV77
p172
aV6093
p173
aV0
aV4
aV11
p174
aV1
aV0.2
p175
aV80.9
p176
aV1.8
p177
aV0
aV6.92
p178
aasS'defensive_data'
p179
(lp180
(lp181
a(lp182
V2018/2019
p183
aVLiverpool
p184
aVEPL
p185
aV12(1)
p186
aV1048
p187
aV-
aV-
aV2
aV-
aV0.4
p188
aV87.4
p189
aV1.8
p190
aV-
aV6.92
p191
aa(lp192
V2018/2019
p193
aVLiverpool
p194
aVUCL
p195
aV4(1)
p196
aV405
p197
aV-
aV-
aV1
aV-
aV0.2
p198
aV84.6
p199
aV2.4
p200
aV-
aV6.57
p201
aa(lp202
V2018/2019
p203
aVEngland
p204
aVUNL
p205
aV3
aV270
p206
aV-
aV-
aV-
aV-
aV-
aV88
p207
aV1.7
p208
aV-
aV6.57
p209
aa(lp210
V2017/2018
p211
aVLiverpool
p212
aVUCL
p213
aV4(1)
p214
aV371
p215
aV-
aV-
aV-
aV1
aV-
aV89
p216
aV1.4
p217
aV-
aV6.87
p218
aa(lp219
V2017/2018
p220
aVLiverpool
p221
aVEPL
p222
aV21(2)
p223
aV1901
p224
aV-
aV2
aV3
aV-
aV0.2
p225
aV84.5
p226
aV1.4
p227
aV-
aV7.11
p228
aa(lp229
V2015/2016
p230
aVLiverpool
p231
aVUEL
p232
aV2
aV180
p233
aV-
aV-
aV-
aV-
aV1
aV90.7
p234
aV2.5
p235
aV-
aV7.30
p236
aa(lp237
V2015/2016
p238
aVLiverpool
p239
aVEPL
p240
aV5
aV438
p241
aV-
aV1
aV3
aV-
aV0.2
p242
aV78.8
p243
aV1.8
p244
aV-
aV6.86
p245
aa(lp246
V2014/2015
p247
aVCharlton
p248
aVEC
p249
aV16(5)
p250
aV1480
p251
aV-
aV1
aV2
aV-
aV0.2
p252
aV68.4
p253
aV2.1
p254
aV-
aV6.82
p255
aa(lp256
VTotal / Average
p257
aV
aV
aV77
p258
aV6093
p259
aV0
aV4
aV11
p260
aV1
aV0.2
p261
aV80.9
p262
aV1.8
p263
aV0
aV6.92
p264
aasS'sumary_data'
p265
(lp266
(lp267
a(lp268
V2018/2019
p269
aVLiverpool
p270
aVEPL
p271
aV12(1)
p272
aV1048
p273
aV-
aV-
aV2
aV-
aV0.4
p274
aV87.4
p275
aV1.8
p276
aV-
aV6.92
p277
aa(lp278
V2018/2019
p279
aVLiverpool
p280
aVUCL
p281
aV4(1)
p282
aV405
p283
aV-
aV-
aV1
aV-
aV0.2
p284
aV84.6
p285
aV2.4
p286
aV-
aV6.57
p287
aa(lp288
V2018/2019
p289
aVEngland
p290
aVUNL
p291
aV3
aV270
p292
aV-
aV-
aV-
aV-
aV-
aV88
p293
aV1.7
p294
aV-
aV6.57
p295
aa(lp296
V2017/2018
p297
aVLiverpool
p298
aVUCL
p299
aV4(1)
p300
aV371
p301
aV-
aV-
aV-
aV1
aV-
aV89
p302
aV1.4
p303
aV-
aV6.87
p304
aa(lp305
V2017/2018
p306
aVLiverpool
p307
aVEPL
p308
aV21(2)
p309
aV1901
p310
aV-
aV2
aV3
aV-
aV0.2
p311
aV84.5
p312
aV1.4
p313
aV-
aV7.11
p314
aa(lp315
V2015/2016
p316
aVLiverpool
p317
aVUEL
p318
aV2
aV180
p319
aV-
aV-
aV-
aV-
aV1
aV90.7
p320
aV2.5
p321
aV-
aV7.30
p322
aa(lp323
V2015/2016
p324
aVLiverpool
p325
aVEPL
p326
aV5
aV438
p327
aV-
aV1
aV3
aV-
aV0.2
p328
aV78.8
p329
aV1.8
p330
aV-
aV6.86
p331
aa(lp332
V2014/2015
p333
aVCharlton
p334
aVEC
p335
aV16(5)
p336
aV1480
p337
aV-
aV1
aV2
aV-
aV0.2
p338
aV68.4
p339
aV2.1
p340
aV-
aV6.82
p341
aa(lp342
VTotal / Average
p343
aV
aV
aV77
p344
aV6093
p345
aV0
aV4
aV11
p346
aV1
aV0.2
p347
aV80.9
p348
aV1.8
p349
aV0
aV6.92
p350
aasS'id'
p351
V136451
p352
sb.