(i__main__
Player
p1
(dp2
S'name'
p3
VBernardo Silva 
p4
sS'offensive_data'
p5
(lp6
(lp7
a(lp8
V2018/2019
p9
aVManchester Ci..
p10
aVEPL
p11
aV15(1)
p12
aV1319
p13
aV4
aV3
aV2
aV-
aV1.6
p14
aV85.5
p15
aV0.1
p16
aV1
aV7.23
p17
aa(lp18
V2018/2019
p19
aVManchester Ci..
p20
aVUCL
p21
aV3(2)
p22
aV308
p23
aV2
aV-
aV-
aV-
aV1
aV90.1
p24
aV0.2
p25
aV-
aV7.21
p26
aa(lp27
V2018/2019
p28
aVPortugal
p29
aVUNL
p30
aV3
aV270
p31
aV1
aV-
aV-
aV-
aV1
aV86.8
p32
aV0.3
p33
aV-
aV7.24
p34
aa(lp35
V2017/2018
p36
aVManchester Ci..
p37
aVUCL
p38
aV6(3)
p39
aV563
p40
aV1
aV2
aV1
aV-
aV1.1
p41
aV85.7
p42
aV0.3
p43
aV-
aV7.20
p44
aa(lp45
V2017/2018
p46
aVManchester Ci..
p47
aVEPL
p48
aV15(20)
p49
aV1520
p50
aV6
aV4
aV-
aV-
aV0.7
p51
aV87
p52
aV0.1
p53
aV1
aV6.79
p54
aa(lp55
V2016/2017
p56
aVMonaco
p57
aVUCL
p58
aV11
p59
aV921
p60
aV2
aV1
aV1
aV-
aV1.1
p61
aV85.4
p62
aV0.2
p63
aV-
aV6.97
p64
aa(lp65
V2016/2017
p66
aVMonaco
p67
aVFL1
p68
aV33(4)
p69
aV2800
p70
aV8
aV9
aV3
aV-
aV1.6
p71
aV81.1
p72
aV0.5
p73
aV3
aV7.29
p74
aa(lp75
V2018
p76
aVPortugal
p77
aVWC
p78
aV3(1)
p79
aV238
p80
aV-
aV-
aV-
aV-
aV0.5
p81
aV81.5
p82
aV0.3
p83
aV-
aV6.57
p84
aa(lp85
V2015/2016
p86
aVMonaco
p87
aVUEL
p88
aV6
aV481
p89
aV-
aV-
aV1
aV-
aV1
aV84.4
p90
aV0.2
p91
aV-
aV6.64
p92
aa(lp93
V2015/2016
p94
aVMonaco
p95
aVFL1
p96
aV22(10)
p97
aV2240
p98
aV7
aV1
aV7
aV-
aV1.3
p99
aV82.8
p100
aV0.4
p101
aV4
aV7.00
p102
aa(lp103
V2015
p104
aVPortugal U21
p105
aVIEU
p106
aV5
aV428
p107
aV1
aV-
aV1
aV-
aV1
aV90.1
p108
aV0.6
p109
aV-
aV7.73
p110
aa(lp111
V2014/2015
p112
aVMonaco
p113
aVUCL
p114
aV1(6)
p115
aV197
p116
aV-
aV1
aV1
aV-
aV0.4
p117
aV79
p118
aV0.1
p119
aV-
aV6.58
p120
aa(lp121
V2014/2015
p122
aVMonaco
p123
aVFL1
p124
aV25(7)
p125
aV2287
p126
aV9
aV3
aV1
aV-
aV1.1
p127
aV84.7
p128
aV0.5
p129
aV3
aV7.23
p130
aa(lp131
VTotal / Average
p132
aV
aV
aV202
p133
aV13572
p134
aV41
p135
aV24
p136
aV18
p137
aV0
aV1.1
p138
aV84.3
p139
aV0.3
p140
aV12
p141
aV7.07
p142
aasS'url'
p143
S'https://www.whoscored.com/Players/136741/History/'
p144
sS'passing_data'
p145
(lp146
(lp147
a(lp148
V2018/2019
p149
aVManchester Ci..
p150
aVEPL
p151
aV15(1)
p152
aV1319
p153
aV4
aV3
aV2
aV-
aV1.6
p154
aV85.5
p155
aV0.1
p156
aV1
aV7.23
p157
aa(lp158
V2018/2019
p159
aVManchester Ci..
p160
aVUCL
p161
aV3(2)
p162
aV308
p163
aV2
aV-
aV-
aV-
aV1
aV90.1
p164
aV0.2
p165
aV-
aV7.21
p166
aa(lp167
V2018/2019
p168
aVPortugal
p169
aVUNL
p170
aV3
aV270
p171
aV1
aV-
aV-
aV-
aV1
aV86.8
p172
aV0.3
p173
aV-
aV7.24
p174
aa(lp175
V2017/2018
p176
aVManchester Ci..
p177
aVUCL
p178
aV6(3)
p179
aV563
p180
aV1
aV2
aV1
aV-
aV1.1
p181
aV85.7
p182
aV0.3
p183
aV-
aV7.20
p184
aa(lp185
V2017/2018
p186
aVManchester Ci..
p187
aVEPL
p188
aV15(20)
p189
aV1520
p190
aV6
aV4
aV-
aV-
aV0.7
p191
aV87
p192
aV0.1
p193
aV1
aV6.79
p194
aa(lp195
V2016/2017
p196
aVMonaco
p197
aVUCL
p198
aV11
p199
aV921
p200
aV2
aV1
aV1
aV-
aV1.1
p201
aV85.4
p202
aV0.2
p203
aV-
aV6.97
p204
aa(lp205
V2016/2017
p206
aVMonaco
p207
aVFL1
p208
aV33(4)
p209
aV2800
p210
aV8
aV9
aV3
aV-
aV1.6
p211
aV81.1
p212
aV0.5
p213
aV3
aV7.29
p214
aa(lp215
V2018
p216
aVPortugal
p217
aVWC
p218
aV3(1)
p219
aV238
p220
aV-
aV-
aV-
aV-
aV0.5
p221
aV81.5
p222
aV0.3
p223
aV-
aV6.57
p224
aa(lp225
V2015/2016
p226
aVMonaco
p227
aVUEL
p228
aV6
aV481
p229
aV-
aV-
aV1
aV-
aV1
aV84.4
p230
aV0.2
p231
aV-
aV6.64
p232
aa(lp233
V2015/2016
p234
aVMonaco
p235
aVFL1
p236
aV22(10)
p237
aV2240
p238
aV7
aV1
aV7
aV-
aV1.3
p239
aV82.8
p240
aV0.4
p241
aV4
aV7.00
p242
aa(lp243
V2015
p244
aVPortugal U21
p245
aVIEU
p246
aV5
aV428
p247
aV1
aV-
aV1
aV-
aV1
aV90.1
p248
aV0.6
p249
aV-
aV7.73
p250
aa(lp251
V2014/2015
p252
aVMonaco
p253
aVUCL
p254
aV1(6)
p255
aV197
p256
aV-
aV1
aV1
aV-
aV0.4
p257
aV79
p258
aV0.1
p259
aV-
aV6.58
p260
aa(lp261
V2014/2015
p262
aVMonaco
p263
aVFL1
p264
aV25(7)
p265
aV2287
p266
aV9
aV3
aV1
aV-
aV1.1
p267
aV84.7
p268
aV0.5
p269
aV3
aV7.23
p270
aa(lp271
VTotal / Average
p272
aV
aV
aV202
p273
aV13572
p274
aV41
p275
aV24
p276
aV18
p277
aV0
aV1.1
p278
aV84.3
p279
aV0.3
p280
aV12
p281
aV7.07
p282
aasS'defensive_data'
p283
(lp284
(lp285
a(lp286
V2018/2019
p287
aVManchester Ci..
p288
aVEPL
p289
aV15(1)
p290
aV1319
p291
aV4
aV3
aV2
aV-
aV1.6
p292
aV85.5
p293
aV0.1
p294
aV1
aV7.23
p295
aa(lp296
V2018/2019
p297
aVManchester Ci..
p298
aVUCL
p299
aV3(2)
p300
aV308
p301
aV2
aV-
aV-
aV-
aV1
aV90.1
p302
aV0.2
p303
aV-
aV7.21
p304
aa(lp305
V2018/2019
p306
aVPortugal
p307
aVUNL
p308
aV3
aV270
p309
aV1
aV-
aV-
aV-
aV1
aV86.8
p310
aV0.3
p311
aV-
aV7.24
p312
aa(lp313
V2017/2018
p314
aVManchester Ci..
p315
aVUCL
p316
aV6(3)
p317
aV563
p318
aV1
aV2
aV1
aV-
aV1.1
p319
aV85.7
p320
aV0.3
p321
aV-
aV7.20
p322
aa(lp323
V2017/2018
p324
aVManchester Ci..
p325
aVEPL
p326
aV15(20)
p327
aV1520
p328
aV6
aV4
aV-
aV-
aV0.7
p329
aV87
p330
aV0.1
p331
aV1
aV6.79
p332
aa(lp333
V2016/2017
p334
aVMonaco
p335
aVUCL
p336
aV11
p337
aV921
p338
aV2
aV1
aV1
aV-
aV1.1
p339
aV85.4
p340
aV0.2
p341
aV-
aV6.97
p342
aa(lp343
V2016/2017
p344
aVMonaco
p345
aVFL1
p346
aV33(4)
p347
aV2800
p348
aV8
aV9
aV3
aV-
aV1.6
p349
aV81.1
p350
aV0.5
p351
aV3
aV7.29
p352
aa(lp353
V2018
p354
aVPortugal
p355
aVWC
p356
aV3(1)
p357
aV238
p358
aV-
aV-
aV-
aV-
aV0.5
p359
aV81.5
p360
aV0.3
p361
aV-
aV6.57
p362
aa(lp363
V2015/2016
p364
aVMonaco
p365
aVUEL
p366
aV6
aV481
p367
aV-
aV-
aV1
aV-
aV1
aV84.4
p368
aV0.2
p369
aV-
aV6.64
p370
aa(lp371
V2015/2016
p372
aVMonaco
p373
aVFL1
p374
aV22(10)
p375
aV2240
p376
aV7
aV1
aV7
aV-
aV1.3
p377
aV82.8
p378
aV0.4
p379
aV4
aV7.00
p380
aa(lp381
V2015
p382
aVPortugal U21
p383
aVIEU
p384
aV5
aV428
p385
aV1
aV-
aV1
aV-
aV1
aV90.1
p386
aV0.6
p387
aV-
aV7.73
p388
aa(lp389
V2014/2015
p390
aVMonaco
p391
aVUCL
p392
aV1(6)
p393
aV197
p394
aV-
aV1
aV1
aV-
aV0.4
p395
aV79
p396
aV0.1
p397
aV-
aV6.58
p398
aa(lp399
V2014/2015
p400
aVMonaco
p401
aVFL1
p402
aV25(7)
p403
aV2287
p404
aV9
aV3
aV1
aV-
aV1.1
p405
aV84.7
p406
aV0.5
p407
aV3
aV7.23
p408
aa(lp409
VTotal / Average
p410
aV
aV
aV202
p411
aV13572
p412
aV41
p413
aV24
p414
aV18
p415
aV0
aV1.1
p416
aV84.3
p417
aV0.3
p418
aV12
p419
aV7.07
p420
aasS'sumary_data'
p421
(lp422
(lp423
a(lp424
V2018/2019
p425
aVManchester Ci..
p426
aVEPL
p427
aV15(1)
p428
aV1319
p429
aV4
aV3
aV2
aV-
aV1.6
p430
aV85.5
p431
aV0.1
p432
aV1
aV7.23
p433
aa(lp434
V2018/2019
p435
aVManchester Ci..
p436
aVUCL
p437
aV3(2)
p438
aV308
p439
aV2
aV-
aV-
aV-
aV1
aV90.1
p440
aV0.2
p441
aV-
aV7.21
p442
aa(lp443
V2018/2019
p444
aVPortugal
p445
aVUNL
p446
aV3
aV270
p447
aV1
aV-
aV-
aV-
aV1
aV86.8
p448
aV0.3
p449
aV-
aV7.24
p450
aa(lp451
V2017/2018
p452
aVManchester Ci..
p453
aVUCL
p454
aV6(3)
p455
aV563
p456
aV1
aV2
aV1
aV-
aV1.1
p457
aV85.7
p458
aV0.3
p459
aV-
aV7.20
p460
aa(lp461
V2017/2018
p462
aVManchester Ci..
p463
aVEPL
p464
aV15(20)
p465
aV1520
p466
aV6
aV4
aV-
aV-
aV0.7
p467
aV87
p468
aV0.1
p469
aV1
aV6.79
p470
aa(lp471
V2016/2017
p472
aVMonaco
p473
aVUCL
p474
aV11
p475
aV921
p476
aV2
aV1
aV1
aV-
aV1.1
p477
aV85.4
p478
aV0.2
p479
aV-
aV6.97
p480
aa(lp481
V2016/2017
p482
aVMonaco
p483
aVFL1
p484
aV33(4)
p485
aV2800
p486
aV8
aV9
aV3
aV-
aV1.6
p487
aV81.1
p488
aV0.5
p489
aV3
aV7.29
p490
aa(lp491
V2018
p492
aVPortugal
p493
aVWC
p494
aV3(1)
p495
aV238
p496
aV-
aV-
aV-
aV-
aV0.5
p497
aV81.5
p498
aV0.3
p499
aV-
aV6.57
p500
aa(lp501
V2015/2016
p502
aVMonaco
p503
aVUEL
p504
aV6
aV481
p505
aV-
aV-
aV1
aV-
aV1
aV84.4
p506
aV0.2
p507
aV-
aV6.64
p508
aa(lp509
V2015/2016
p510
aVMonaco
p511
aVFL1
p512
aV22(10)
p513
aV2240
p514
aV7
aV1
aV7
aV-
aV1.3
p515
aV82.8
p516
aV0.4
p517
aV4
aV7.00
p518
aa(lp519
V2015
p520
aVPortugal U21
p521
aVIEU
p522
aV5
aV428
p523
aV1
aV-
aV1
aV-
aV1
aV90.1
p524
aV0.6
p525
aV-
aV7.73
p526
aa(lp527
V2014/2015
p528
aVMonaco
p529
aVUCL
p530
aV1(6)
p531
aV197
p532
aV-
aV1
aV1
aV-
aV0.4
p533
aV79
p534
aV0.1
p535
aV-
aV6.58
p536
aa(lp537
V2014/2015
p538
aVMonaco
p539
aVFL1
p540
aV25(7)
p541
aV2287
p542
aV9
aV3
aV1
aV-
aV1.1
p543
aV84.7
p544
aV0.5
p545
aV3
aV7.23
p546
aa(lp547
VTotal / Average
p548
aV
aV
aV202
p549
aV13572
p550
aV41
p551
aV24
p552
aV18
p553
aV0
aV1.1
p554
aV84.3
p555
aV0.3
p556
aV12
p557
aV7.07
p558
aasS'id'
p559
V136741
p560
sb.