(i__main__
Player
p1
(dp2
S'name'
p3
VMatt Targett 
p4
sS'offensive_data'
p5
(lp6
(lp7
a(lp8
V2018/2019
p9
aVSouthampton
p10
aVEPL
p11
aV5(1)
p12
aV432
p13
aV-
aV2
aV-
aV-
aV0.5
p14
aV75.8
p15
aV1
aV-
aV6.85
p16
aa(lp17
V2017/2018
p18
aVFulham
p19
aVEC
p20
aV20(1)
p21
aV1721
p22
aV1
aV2
aV3
aV-
aV0.7
p23
aV79.5
p24
aV1.2
p25
aV4
aV7.20
p26
aa(lp27
V2017/2018
p28
aVSouthampton
p29
aVEPL
p30
aV2
aV167
p31
aV-
aV-
aV-
aV-
aV-
aV72.5
p32
aV0.5
p33
aV-
aV6.97
p34
aa(lp35
V2016/2017
p36
aVSouthampton
p37
aVEPL
p38
aV5
aV374
p39
aV-
aV-
aV-
aV-
aV0.4
p40
aV78.5
p41
aV1.6
p42
aV-
aV6.81
p43
aa(lp44
V2016/2017
p45
aVSouthampton
p46
aVUEL
p47
aV2
aV180
p48
aV-
aV-
aV-
aV-
aV-
aV76
p49
aV3
aV-
aV7.24
p50
aa(lp51
V2015/2016
p52
aVSouthampton
p53
aVEPL
p54
aV13(1)
p55
aV1071
p56
aV-
aV1
aV1
aV-
aV0.2
p57
aV76.7
p58
aV1.1
p59
aV1
aV6.92
p60
aa(lp61
V2014/2015
p62
aVSouthampton
p63
aVEPL
p64
aV3(3)
p65
aV225
p66
aV-
aV-
aV-
aV-
aV0.2
p67
aV77.7
p68
aV0.7
p69
aV-
aV6.34
p70
aa(lp71
VTotal / Average
p72
aV
aV
aV56
p73
aV4170
p74
aV1
aV5
aV4
aV0
aV0.4
p75
aV77.8
p76
aV1.2
p77
aV5
aV6.96
p78
aasS'url'
p79
S'https://www.whoscored.com/Players/136776/History/'
p80
sS'passing_data'
p81
(lp82
(lp83
a(lp84
V2018/2019
p85
aVSouthampton
p86
aVEPL
p87
aV5(1)
p88
aV432
p89
aV-
aV2
aV-
aV-
aV0.5
p90
aV75.8
p91
aV1
aV-
aV6.85
p92
aa(lp93
V2017/2018
p94
aVFulham
p95
aVEC
p96
aV20(1)
p97
aV1721
p98
aV1
aV2
aV3
aV-
aV0.7
p99
aV79.5
p100
aV1.2
p101
aV4
aV7.20
p102
aa(lp103
V2017/2018
p104
aVSouthampton
p105
aVEPL
p106
aV2
aV167
p107
aV-
aV-
aV-
aV-
aV-
aV72.5
p108
aV0.5
p109
aV-
aV6.97
p110
aa(lp111
V2016/2017
p112
aVSouthampton
p113
aVEPL
p114
aV5
aV374
p115
aV-
aV-
aV-
aV-
aV0.4
p116
aV78.5
p117
aV1.6
p118
aV-
aV6.81
p119
aa(lp120
V2016/2017
p121
aVSouthampton
p122
aVUEL
p123
aV2
aV180
p124
aV-
aV-
aV-
aV-
aV-
aV76
p125
aV3
aV-
aV7.24
p126
aa(lp127
V2015/2016
p128
aVSouthampton
p129
aVEPL
p130
aV13(1)
p131
aV1071
p132
aV-
aV1
aV1
aV-
aV0.2
p133
aV76.7
p134
aV1.1
p135
aV1
aV6.92
p136
aa(lp137
V2014/2015
p138
aVSouthampton
p139
aVEPL
p140
aV3(3)
p141
aV225
p142
aV-
aV-
aV-
aV-
aV0.2
p143
aV77.7
p144
aV0.7
p145
aV-
aV6.34
p146
aa(lp147
VTotal / Average
p148
aV
aV
aV56
p149
aV4170
p150
aV1
aV5
aV4
aV0
aV0.4
p151
aV77.8
p152
aV1.2
p153
aV5
aV6.96
p154
aasS'defensive_data'
p155
(lp156
(lp157
a(lp158
V2018/2019
p159
aVSouthampton
p160
aVEPL
p161
aV5(1)
p162
aV432
p163
aV-
aV2
aV-
aV-
aV0.5
p164
aV75.8
p165
aV1
aV-
aV6.85
p166
aa(lp167
V2017/2018
p168
aVFulham
p169
aVEC
p170
aV20(1)
p171
aV1721
p172
aV1
aV2
aV3
aV-
aV0.7
p173
aV79.5
p174
aV1.2
p175
aV4
aV7.20
p176
aa(lp177
V2017/2018
p178
aVSouthampton
p179
aVEPL
p180
aV2
aV167
p181
aV-
aV-
aV-
aV-
aV-
aV72.5
p182
aV0.5
p183
aV-
aV6.97
p184
aa(lp185
V2016/2017
p186
aVSouthampton
p187
aVEPL
p188
aV5
aV374
p189
aV-
aV-
aV-
aV-
aV0.4
p190
aV78.5
p191
aV1.6
p192
aV-
aV6.81
p193
aa(lp194
V2016/2017
p195
aVSouthampton
p196
aVUEL
p197
aV2
aV180
p198
aV-
aV-
aV-
aV-
aV-
aV76
p199
aV3
aV-
aV7.24
p200
aa(lp201
V2015/2016
p202
aVSouthampton
p203
aVEPL
p204
aV13(1)
p205
aV1071
p206
aV-
aV1
aV1
aV-
aV0.2
p207
aV76.7
p208
aV1.1
p209
aV1
aV6.92
p210
aa(lp211
V2014/2015
p212
aVSouthampton
p213
aVEPL
p214
aV3(3)
p215
aV225
p216
aV-
aV-
aV-
aV-
aV0.2
p217
aV77.7
p218
aV0.7
p219
aV-
aV6.34
p220
aa(lp221
VTotal / Average
p222
aV
aV
aV56
p223
aV4170
p224
aV1
aV5
aV4
aV0
aV0.4
p225
aV77.8
p226
aV1.2
p227
aV5
aV6.96
p228
aasS'sumary_data'
p229
(lp230
(lp231
a(lp232
V2018/2019
p233
aVSouthampton
p234
aVEPL
p235
aV5(1)
p236
aV432
p237
aV-
aV2
aV-
aV-
aV0.5
p238
aV75.8
p239
aV1
aV-
aV6.85
p240
aa(lp241
V2017/2018
p242
aVFulham
p243
aVEC
p244
aV20(1)
p245
aV1721
p246
aV1
aV2
aV3
aV-
aV0.7
p247
aV79.5
p248
aV1.2
p249
aV4
aV7.20
p250
aa(lp251
V2017/2018
p252
aVSouthampton
p253
aVEPL
p254
aV2
aV167
p255
aV-
aV-
aV-
aV-
aV-
aV72.5
p256
aV0.5
p257
aV-
aV6.97
p258
aa(lp259
V2016/2017
p260
aVSouthampton
p261
aVEPL
p262
aV5
aV374
p263
aV-
aV-
aV-
aV-
aV0.4
p264
aV78.5
p265
aV1.6
p266
aV-
aV6.81
p267
aa(lp268
V2016/2017
p269
aVSouthampton
p270
aVUEL
p271
aV2
aV180
p272
aV-
aV-
aV-
aV-
aV-
aV76
p273
aV3
aV-
aV7.24
p274
aa(lp275
V2015/2016
p276
aVSouthampton
p277
aVEPL
p278
aV13(1)
p279
aV1071
p280
aV-
aV1
aV1
aV-
aV0.2
p281
aV76.7
p282
aV1.1
p283
aV1
aV6.92
p284
aa(lp285
V2014/2015
p286
aVSouthampton
p287
aVEPL
p288
aV3(3)
p289
aV225
p290
aV-
aV-
aV-
aV-
aV0.2
p291
aV77.7
p292
aV0.7
p293
aV-
aV6.34
p294
aa(lp295
VTotal / Average
p296
aV
aV
aV56
p297
aV4170
p298
aV1
aV5
aV4
aV0
aV0.4
p299
aV77.8
p300
aV1.2
p301
aV5
aV6.96
p302
aasS'id'
p303
V136776
p304
sb.