(i__main__
Player
p1
(dp2
S'name'
p3
VJosh Murphy 
p4
sS'offensive_data'
p5
(lp6
(lp7
a(lp8
V2018/2019
p9
aVCardiff
p10
aVEPL
p11
aV11(4)
p12
aV950
p13
aV3
aV-
aV-
aV-
aV1.9
p14
aV61.1
p15
aV0.5
p16
aV-
aV6.56
p17
aa(lp18
V2017/2018
p19
aVNorwich
p20
aVEC
p21
aV34(7)
p22
aV2954
p23
aV7
aV3
aV6
aV-
aV2.8
p24
aV71.6
p25
aV0.2
p26
aV2
aV6.76
p27
aa(lp28
V2016/2017
p29
aVNorwich
p30
aVEC
p31
aV9(18)
p32
aV1016
p33
aV4
aV5
aV1
aV-
aV1.1
p34
aV62.8
p35
aV0.2
p36
aV-
aV6.67
p37
aa(lp38
V2015/2016
p39
aVMilton Keynes..
p40
aVEC
p41
aV33(9)
p42
aV3105
p43
aV5
aV8
aV7
aV-
aV2
aV66
p44
aV0.3
p45
aV-
aV6.77
p46
aa(lp47
V2014/2015
p48
aVWigan
p49
aVEC
p50
aV2(3)
p51
aV203
p52
aV-
aV-
aV-
aV-
aV2
aV55.6
p53
aV0.8
p54
aV-
aV6.29
p55
aa(lp56
V2014/2015
p57
aVNorwich
p58
aVEC
p59
aV1(12)
p60
aV334
p61
aV1
aV-
aV1
aV-
aV0.8
p62
aV72.7
p63
aV0.2
p64
aV-
aV6.26
p65
aa(lp66
V2013/2014
p67
aVNorwich
p68
aVEPL
p69
aV0(9)
p70
aV131
p71
aV-
aV-
aV1
aV-
aV0.6
p72
aV79.4
p73
aV-
aV-
aV6.03
p74
aa(lp75
VTotal / Average
p76
aV
aV
aV152
p77
aV8693
p78
aV20
p79
aV16
p80
aV16
p81
aV0
aV1.9
p82
aV67.5
p83
aV0.3
p84
aV2
aV6.62
p85
aasS'url'
p86
S'https://www.whoscored.com/Players/136783/History/'
p87
sS'passing_data'
p88
(lp89
(lp90
a(lp91
V2018/2019
p92
aVCardiff
p93
aVEPL
p94
aV11(4)
p95
aV950
p96
aV3
aV-
aV-
aV-
aV1.9
p97
aV61.1
p98
aV0.5
p99
aV-
aV6.56
p100
aa(lp101
V2017/2018
p102
aVNorwich
p103
aVEC
p104
aV34(7)
p105
aV2954
p106
aV7
aV3
aV6
aV-
aV2.8
p107
aV71.6
p108
aV0.2
p109
aV2
aV6.76
p110
aa(lp111
V2016/2017
p112
aVNorwich
p113
aVEC
p114
aV9(18)
p115
aV1016
p116
aV4
aV5
aV1
aV-
aV1.1
p117
aV62.8
p118
aV0.2
p119
aV-
aV6.67
p120
aa(lp121
V2015/2016
p122
aVMilton Keynes..
p123
aVEC
p124
aV33(9)
p125
aV3105
p126
aV5
aV8
aV7
aV-
aV2
aV66
p127
aV0.3
p128
aV-
aV6.77
p129
aa(lp130
V2014/2015
p131
aVWigan
p132
aVEC
p133
aV2(3)
p134
aV203
p135
aV-
aV-
aV-
aV-
aV2
aV55.6
p136
aV0.8
p137
aV-
aV6.29
p138
aa(lp139
V2014/2015
p140
aVNorwich
p141
aVEC
p142
aV1(12)
p143
aV334
p144
aV1
aV-
aV1
aV-
aV0.8
p145
aV72.7
p146
aV0.2
p147
aV-
aV6.26
p148
aa(lp149
V2013/2014
p150
aVNorwich
p151
aVEPL
p152
aV0(9)
p153
aV131
p154
aV-
aV-
aV1
aV-
aV0.6
p155
aV79.4
p156
aV-
aV-
aV6.03
p157
aa(lp158
VTotal / Average
p159
aV
aV
aV152
p160
aV8693
p161
aV20
p162
aV16
p163
aV16
p164
aV0
aV1.9
p165
aV67.5
p166
aV0.3
p167
aV2
aV6.62
p168
aasS'defensive_data'
p169
(lp170
(lp171
a(lp172
V2018/2019
p173
aVCardiff
p174
aVEPL
p175
aV11(4)
p176
aV950
p177
aV3
aV-
aV-
aV-
aV1.9
p178
aV61.1
p179
aV0.5
p180
aV-
aV6.56
p181
aa(lp182
V2017/2018
p183
aVNorwich
p184
aVEC
p185
aV34(7)
p186
aV2954
p187
aV7
aV3
aV6
aV-
aV2.8
p188
aV71.6
p189
aV0.2
p190
aV2
aV6.76
p191
aa(lp192
V2016/2017
p193
aVNorwich
p194
aVEC
p195
aV9(18)
p196
aV1016
p197
aV4
aV5
aV1
aV-
aV1.1
p198
aV62.8
p199
aV0.2
p200
aV-
aV6.67
p201
aa(lp202
V2015/2016
p203
aVMilton Keynes..
p204
aVEC
p205
aV33(9)
p206
aV3105
p207
aV5
aV8
aV7
aV-
aV2
aV66
p208
aV0.3
p209
aV-
aV6.77
p210
aa(lp211
V2014/2015
p212
aVWigan
p213
aVEC
p214
aV2(3)
p215
aV203
p216
aV-
aV-
aV-
aV-
aV2
aV55.6
p217
aV0.8
p218
aV-
aV6.29
p219
aa(lp220
V2014/2015
p221
aVNorwich
p222
aVEC
p223
aV1(12)
p224
aV334
p225
aV1
aV-
aV1
aV-
aV0.8
p226
aV72.7
p227
aV0.2
p228
aV-
aV6.26
p229
aa(lp230
V2013/2014
p231
aVNorwich
p232
aVEPL
p233
aV0(9)
p234
aV131
p235
aV-
aV-
aV1
aV-
aV0.6
p236
aV79.4
p237
aV-
aV-
aV6.03
p238
aa(lp239
VTotal / Average
p240
aV
aV
aV152
p241
aV8693
p242
aV20
p243
aV16
p244
aV16
p245
aV0
aV1.9
p246
aV67.5
p247
aV0.3
p248
aV2
aV6.62
p249
aasS'sumary_data'
p250
(lp251
(lp252
a(lp253
V2018/2019
p254
aVCardiff
p255
aVEPL
p256
aV11(4)
p257
aV950
p258
aV3
aV-
aV-
aV-
aV1.9
p259
aV61.1
p260
aV0.5
p261
aV-
aV6.56
p262
aa(lp263
V2017/2018
p264
aVNorwich
p265
aVEC
p266
aV34(7)
p267
aV2954
p268
aV7
aV3
aV6
aV-
aV2.8
p269
aV71.6
p270
aV0.2
p271
aV2
aV6.76
p272
aa(lp273
V2016/2017
p274
aVNorwich
p275
aVEC
p276
aV9(18)
p277
aV1016
p278
aV4
aV5
aV1
aV-
aV1.1
p279
aV62.8
p280
aV0.2
p281
aV-
aV6.67
p282
aa(lp283
V2015/2016
p284
aVMilton Keynes..
p285
aVEC
p286
aV33(9)
p287
aV3105
p288
aV5
aV8
aV7
aV-
aV2
aV66
p289
aV0.3
p290
aV-
aV6.77
p291
aa(lp292
V2014/2015
p293
aVWigan
p294
aVEC
p295
aV2(3)
p296
aV203
p297
aV-
aV-
aV-
aV-
aV2
aV55.6
p298
aV0.8
p299
aV-
aV6.29
p300
aa(lp301
V2014/2015
p302
aVNorwich
p303
aVEC
p304
aV1(12)
p305
aV334
p306
aV1
aV-
aV1
aV-
aV0.8
p307
aV72.7
p308
aV0.2
p309
aV-
aV6.26
p310
aa(lp311
V2013/2014
p312
aVNorwich
p313
aVEPL
p314
aV0(9)
p315
aV131
p316
aV-
aV-
aV1
aV-
aV0.6
p317
aV79.4
p318
aV-
aV-
aV6.03
p319
aa(lp320
VTotal / Average
p321
aV
aV
aV152
p322
aV8693
p323
aV20
p324
aV16
p325
aV16
p326
aV0
aV1.9
p327
aV67.5
p328
aV0.3
p329
aV2
aV6.62
p330
aasS'id'
p331
V136783
p332
sb.