(i__main__
Player
p1
(dp2
S'name'
p3
VJan Bednarek 
p4
sS'offensive_data'
p5
(lp6
(lp7
a(lp8
V2018/2019
p9
aVSouthampton
p10
aVEPL
p11
aV3(1)
p12
aV261
p13
aV-
aV-
aV1
aV-
aV-
aV89.6
p14
aV0.8
p15
aV-
aV6.78
p16
aa(lp17
V2018/2019
p18
aVPoland
p19
aVUNL
p20
aV4
aV360
p21
aV-
aV-
aV1
aV-
aV0.3
p22
aV89.7
p23
aV1.3
p24
aV-
aV6.54
p25
aa(lp26
V2017/2018
p27
aVSouthampton
p28
aVEPL
p29
aV5
aV428
p30
aV1
aV-
aV1
aV-
aV0.2
p31
aV75.1
p32
aV1.4
p33
aV-
aV6.67
p34
aa(lp35
V2018
p36
aVPoland
p37
aVWC
p38
aV2(1)
p39
aV225
p40
aV1
aV-
aV1
aV-
aV0.3
p41
aV90.1
p42
aV1.7
p43
aV1
aV6.93
p44
aa(lp45
VTotal / Average
p46
aV
aV
aV16
p47
aV1274
p48
aV2
aV0
aV4
aV0
aV0.2
p49
aV85.2
p50
aV1.3
p51
aV1
aV6.71
p52
aasS'url'
p53
S'https://www.whoscored.com/Players/136742/History/'
p54
sS'passing_data'
p55
(lp56
(lp57
a(lp58
V2018/2019
p59
aVSouthampton
p60
aVEPL
p61
aV3(1)
p62
aV261
p63
aV-
aV-
aV1
aV-
aV-
aV89.6
p64
aV0.8
p65
aV-
aV6.78
p66
aa(lp67
V2018/2019
p68
aVPoland
p69
aVUNL
p70
aV4
aV360
p71
aV-
aV-
aV1
aV-
aV0.3
p72
aV89.7
p73
aV1.3
p74
aV-
aV6.54
p75
aa(lp76
V2017/2018
p77
aVSouthampton
p78
aVEPL
p79
aV5
aV428
p80
aV1
aV-
aV1
aV-
aV0.2
p81
aV75.1
p82
aV1.4
p83
aV-
aV6.67
p84
aa(lp85
V2018
p86
aVPoland
p87
aVWC
p88
aV2(1)
p89
aV225
p90
aV1
aV-
aV1
aV-
aV0.3
p91
aV90.1
p92
aV1.7
p93
aV1
aV6.93
p94
aa(lp95
VTotal / Average
p96
aV
aV
aV16
p97
aV1274
p98
aV2
aV0
aV4
aV0
aV0.2
p99
aV85.2
p100
aV1.3
p101
aV1
aV6.71
p102
aasS'defensive_data'
p103
(lp104
(lp105
a(lp106
V2018/2019
p107
aVSouthampton
p108
aVEPL
p109
aV3(1)
p110
aV261
p111
aV-
aV-
aV1
aV-
aV-
aV89.6
p112
aV0.8
p113
aV-
aV6.78
p114
aa(lp115
V2018/2019
p116
aVPoland
p117
aVUNL
p118
aV4
aV360
p119
aV-
aV-
aV1
aV-
aV0.3
p120
aV89.7
p121
aV1.3
p122
aV-
aV6.54
p123
aa(lp124
V2017/2018
p125
aVSouthampton
p126
aVEPL
p127
aV5
aV428
p128
aV1
aV-
aV1
aV-
aV0.2
p129
aV75.1
p130
aV1.4
p131
aV-
aV6.67
p132
aa(lp133
V2018
p134
aVPoland
p135
aVWC
p136
aV2(1)
p137
aV225
p138
aV1
aV-
aV1
aV-
aV0.3
p139
aV90.1
p140
aV1.7
p141
aV1
aV6.93
p142
aa(lp143
VTotal / Average
p144
aV
aV
aV16
p145
aV1274
p146
aV2
aV0
aV4
aV0
aV0.2
p147
aV85.2
p148
aV1.3
p149
aV1
aV6.71
p150
aasS'sumary_data'
p151
(lp152
(lp153
a(lp154
V2018/2019
p155
aVSouthampton
p156
aVEPL
p157
aV3(1)
p158
aV261
p159
aV-
aV-
aV1
aV-
aV-
aV89.6
p160
aV0.8
p161
aV-
aV6.78
p162
aa(lp163
V2018/2019
p164
aVPoland
p165
aVUNL
p166
aV4
aV360
p167
aV-
aV-
aV1
aV-
aV0.3
p168
aV89.7
p169
aV1.3
p170
aV-
aV6.54
p171
aa(lp172
V2017/2018
p173
aVSouthampton
p174
aVEPL
p175
aV5
aV428
p176
aV1
aV-
aV1
aV-
aV0.2
p177
aV75.1
p178
aV1.4
p179
aV-
aV6.67
p180
aa(lp181
V2018
p182
aVPoland
p183
aVWC
p184
aV2(1)
p185
aV225
p186
aV1
aV-
aV1
aV-
aV0.3
p187
aV90.1
p188
aV1.7
p189
aV1
aV6.93
p190
aa(lp191
VTotal / Average
p192
aV
aV
aV16
p193
aV1274
p194
aV2
aV0
aV4
aV0
aV0.2
p195
aV85.2
p196
aV1.3
p197
aV1
aV6.71
p198
aasS'id'
p199
V136742
p200
sb.