(i__main__
Player
p1
(dp2
S'name'
p3
VAlex Iwobi 
p4
sS'offensive_data'
p5
(lp6
(lp7
a(lp8
V2018/2019
p9
aVArsenal
p10
aVEPL
p11
aV10(4)
p12
aV792
p13
aV1
aV2
aV-
aV-
aV1
aV74.6
p14
aV0.2
p15
aV-
aV6.54
p16
aa(lp17
V2018/2019
p18
aVArsenal
p19
aVUEL
p20
aV3(1)
p21
aV235
p22
aV-
aV2
aV-
aV-
aV0.8
p23
aV80.6
p24
aV0.3
p25
aV-
aV7.12
p26
aa(lp27
V2017/2018
p28
aVArsenal
p29
aVUEL
p30
aV3(3)
p31
aV335
p32
aV-
aV1
aV-
aV-
aV1.3
p33
aV87.3
p34
aV0.2
p35
aV-
aV6.83
p36
aa(lp37
V2017/2018
p38
aVArsenal
p39
aVEPL
p40
aV22(4)
p41
aV1844
p42
aV3
aV5
aV1
aV-
aV1.7
p43
aV86.6
p44
aV0.1
p45
aV-
aV6.88
p46
aa(lp47
V2016/2017
p48
aVArsenal
p49
aVUCL
p50
aV5(2)
p51
aV411
p52
aV1
aV-
aV-
aV-
aV0.9
p53
aV86.7
p54
aV-
aV-
aV6.41
p55
aa(lp56
V2016/2017
p57
aVArsenal
p58
aVEPL
p59
aV18(8)
p60
aV1463
p61
aV3
aV3
aV1
aV-
aV1.5
p62
aV87.5
p63
aV0.2
p64
aV1
aV6.72
p65
aa(lp66
V2018
p67
aVNigeria
p68
aVWC
p69
aV1(2)
p70
aV64
p71
aV-
aV-
aV-
aV-
aV1.3
p72
aV81.8
p73
aV-
aV-
aV6.13
p74
aa(lp75
V2015/2016
p76
aVArsenal
p77
aVUCL
p78
aV1(1)
p79
aV77
p80
aV-
aV-
aV-
aV-
aV1
aV79.4
p81
aV-
aV-
aV6.29
p82
aa(lp83
V2015/2016
p84
aVArsenal
p85
aVEPL
p86
aV8(5)
p87
aV632
p88
aV2
aV2
aV-
aV-
aV1.2
p89
aV85.6
p90
aV0.1
p91
aV-
aV6.78
p92
aa(lp93
VTotal / Average
p94
aV
aV
aV101
p95
aV5853
p96
aV10
p97
aV15
p98
aV2
aV0
aV1.3
p99
aV84.6
p100
aV0.1
p101
aV1
aV6.72
p102
aasS'url'
p103
S'https://www.whoscored.com/Players/136824/History/'
p104
sS'passing_data'
p105
(lp106
(lp107
a(lp108
V2018/2019
p109
aVArsenal
p110
aVEPL
p111
aV10(4)
p112
aV792
p113
aV1
aV2
aV-
aV-
aV1
aV74.6
p114
aV0.2
p115
aV-
aV6.54
p116
aa(lp117
V2018/2019
p118
aVArsenal
p119
aVUEL
p120
aV3(1)
p121
aV235
p122
aV-
aV2
aV-
aV-
aV0.8
p123
aV80.6
p124
aV0.3
p125
aV-
aV7.12
p126
aa(lp127
V2017/2018
p128
aVArsenal
p129
aVUEL
p130
aV3(3)
p131
aV335
p132
aV-
aV1
aV-
aV-
aV1.3
p133
aV87.3
p134
aV0.2
p135
aV-
aV6.83
p136
aa(lp137
V2017/2018
p138
aVArsenal
p139
aVEPL
p140
aV22(4)
p141
aV1844
p142
aV3
aV5
aV1
aV-
aV1.7
p143
aV86.6
p144
aV0.1
p145
aV-
aV6.88
p146
aa(lp147
V2016/2017
p148
aVArsenal
p149
aVUCL
p150
aV5(2)
p151
aV411
p152
aV1
aV-
aV-
aV-
aV0.9
p153
aV86.7
p154
aV-
aV-
aV6.41
p155
aa(lp156
V2016/2017
p157
aVArsenal
p158
aVEPL
p159
aV18(8)
p160
aV1463
p161
aV3
aV3
aV1
aV-
aV1.5
p162
aV87.5
p163
aV0.2
p164
aV1
aV6.72
p165
aa(lp166
V2018
p167
aVNigeria
p168
aVWC
p169
aV1(2)
p170
aV64
p171
aV-
aV-
aV-
aV-
aV1.3
p172
aV81.8
p173
aV-
aV-
aV6.13
p174
aa(lp175
V2015/2016
p176
aVArsenal
p177
aVUCL
p178
aV1(1)
p179
aV77
p180
aV-
aV-
aV-
aV-
aV1
aV79.4
p181
aV-
aV-
aV6.29
p182
aa(lp183
V2015/2016
p184
aVArsenal
p185
aVEPL
p186
aV8(5)
p187
aV632
p188
aV2
aV2
aV-
aV-
aV1.2
p189
aV85.6
p190
aV0.1
p191
aV-
aV6.78
p192
aa(lp193
VTotal / Average
p194
aV
aV
aV101
p195
aV5853
p196
aV10
p197
aV15
p198
aV2
aV0
aV1.3
p199
aV84.6
p200
aV0.1
p201
aV1
aV6.72
p202
aasS'defensive_data'
p203
(lp204
(lp205
a(lp206
V2018/2019
p207
aVArsenal
p208
aVEPL
p209
aV10(4)
p210
aV792
p211
aV1
aV2
aV-
aV-
aV1
aV74.6
p212
aV0.2
p213
aV-
aV6.54
p214
aa(lp215
V2018/2019
p216
aVArsenal
p217
aVUEL
p218
aV3(1)
p219
aV235
p220
aV-
aV2
aV-
aV-
aV0.8
p221
aV80.6
p222
aV0.3
p223
aV-
aV7.12
p224
aa(lp225
V2017/2018
p226
aVArsenal
p227
aVUEL
p228
aV3(3)
p229
aV335
p230
aV-
aV1
aV-
aV-
aV1.3
p231
aV87.3
p232
aV0.2
p233
aV-
aV6.83
p234
aa(lp235
V2017/2018
p236
aVArsenal
p237
aVEPL
p238
aV22(4)
p239
aV1844
p240
aV3
aV5
aV1
aV-
aV1.7
p241
aV86.6
p242
aV0.1
p243
aV-
aV6.88
p244
aa(lp245
V2016/2017
p246
aVArsenal
p247
aVUCL
p248
aV5(2)
p249
aV411
p250
aV1
aV-
aV-
aV-
aV0.9
p251
aV86.7
p252
aV-
aV-
aV6.41
p253
aa(lp254
V2016/2017
p255
aVArsenal
p256
aVEPL
p257
aV18(8)
p258
aV1463
p259
aV3
aV3
aV1
aV-
aV1.5
p260
aV87.5
p261
aV0.2
p262
aV1
aV6.72
p263
aa(lp264
V2018
p265
aVNigeria
p266
aVWC
p267
aV1(2)
p268
aV64
p269
aV-
aV-
aV-
aV-
aV1.3
p270
aV81.8
p271
aV-
aV-
aV6.13
p272
aa(lp273
V2015/2016
p274
aVArsenal
p275
aVUCL
p276
aV1(1)
p277
aV77
p278
aV-
aV-
aV-
aV-
aV1
aV79.4
p279
aV-
aV-
aV6.29
p280
aa(lp281
V2015/2016
p282
aVArsenal
p283
aVEPL
p284
aV8(5)
p285
aV632
p286
aV2
aV2
aV-
aV-
aV1.2
p287
aV85.6
p288
aV0.1
p289
aV-
aV6.78
p290
aa(lp291
VTotal / Average
p292
aV
aV
aV101
p293
aV5853
p294
aV10
p295
aV15
p296
aV2
aV0
aV1.3
p297
aV84.6
p298
aV0.1
p299
aV1
aV6.72
p300
aasS'sumary_data'
p301
(lp302
(lp303
a(lp304
V2018/2019
p305
aVArsenal
p306
aVEPL
p307
aV10(4)
p308
aV792
p309
aV1
aV2
aV-
aV-
aV1
aV74.6
p310
aV0.2
p311
aV-
aV6.54
p312
aa(lp313
V2018/2019
p314
aVArsenal
p315
aVUEL
p316
aV3(1)
p317
aV235
p318
aV-
aV2
aV-
aV-
aV0.8
p319
aV80.6
p320
aV0.3
p321
aV-
aV7.12
p322
aa(lp323
V2017/2018
p324
aVArsenal
p325
aVUEL
p326
aV3(3)
p327
aV335
p328
aV-
aV1
aV-
aV-
aV1.3
p329
aV87.3
p330
aV0.2
p331
aV-
aV6.83
p332
aa(lp333
V2017/2018
p334
aVArsenal
p335
aVEPL
p336
aV22(4)
p337
aV1844
p338
aV3
aV5
aV1
aV-
aV1.7
p339
aV86.6
p340
aV0.1
p341
aV-
aV6.88
p342
aa(lp343
V2016/2017
p344
aVArsenal
p345
aVUCL
p346
aV5(2)
p347
aV411
p348
aV1
aV-
aV-
aV-
aV0.9
p349
aV86.7
p350
aV-
aV-
aV6.41
p351
aa(lp352
V2016/2017
p353
aVArsenal
p354
aVEPL
p355
aV18(8)
p356
aV1463
p357
aV3
aV3
aV1
aV-
aV1.5
p358
aV87.5
p359
aV0.2
p360
aV1
aV6.72
p361
aa(lp362
V2018
p363
aVNigeria
p364
aVWC
p365
aV1(2)
p366
aV64
p367
aV-
aV-
aV-
aV-
aV1.3
p368
aV81.8
p369
aV-
aV-
aV6.13
p370
aa(lp371
V2015/2016
p372
aVArsenal
p373
aVUCL
p374
aV1(1)
p375
aV77
p376
aV-
aV-
aV-
aV-
aV1
aV79.4
p377
aV-
aV-
aV6.29
p378
aa(lp379
V2015/2016
p380
aVArsenal
p381
aVEPL
p382
aV8(5)
p383
aV632
p384
aV2
aV2
aV-
aV-
aV1.2
p385
aV85.6
p386
aV0.1
p387
aV-
aV6.78
p388
aa(lp389
VTotal / Average
p390
aV
aV
aV101
p391
aV5853
p392
aV10
p393
aV15
p394
aV2
aV0
aV1.3
p395
aV84.6
p396
aV0.1
p397
aV1
aV6.72
p398
aasS'id'
p399
V136824
p400
sb.