(i__main__
Player
p1
(dp2
S'name'
p3
VFlorent Hadergjonaj 
p4
sS'offensive_data'
p5
(lp6
(lp7
a(lp8
V2018/2019
p9
aVHuddersfield
p10
aVEPL
p11
aV12(3)
p12
aV1141
p13
aV-
aV-
aV1
aV-
aV0.4
p14
aV73.8
p15
aV0.7
p16
aV-
aV6.38
p17
aa(lp18
V2017/2018
p19
aVIngolstadt
p20
aVGB2
p21
aV1(1)
p22
aV113
p23
aV-
aV-
aV-
aV-
aV-
aV54.8
p24
aV1.5
p25
aV-
aV7.17
p26
aa(lp27
V2017/2018
p28
aVHuddersfield
p29
aVEPL
p30
aV19(4)
p31
aV1673
p32
aV-
aV1
aV3
aV-
aV0.3
p33
aV66.8
p34
aV0.7
p35
aV-
aV6.50
p36
aa(lp37
V2016/2017
p38
aVIngolstadt
p39
aVGB
p40
aV25
p41
aV2222
p42
aV1
aV2
aV6
aV-
aV0.4
p43
aV55.7
p44
aV2
aV1
aV6.99
p45
aa(lp46
V2014/2015
p47
aVBSC Young Boy..
p48
aVUEL
p49
aV4(2)
p50
aV394
p51
aV-
aV1
aV2
aV-
aV0.2
p52
aV79.2
p53
aV0.7
p54
aV-
aV6.81
p55
aa(lp56
VTotal / Average
p57
aV
aV
aV71
p58
aV5543
p59
aV1
aV4
aV12
p60
aV0
aV0.4
p61
aV65.1
p62
aV1.2
p63
aV1
aV6.69
p64
aasS'url'
p65
S'https://www.whoscored.com/Players/136896/History/'
p66
sS'passing_data'
p67
(lp68
(lp69
a(lp70
V2018/2019
p71
aVHuddersfield
p72
aVEPL
p73
aV12(3)
p74
aV1141
p75
aV-
aV-
aV1
aV-
aV0.4
p76
aV73.8
p77
aV0.7
p78
aV-
aV6.38
p79
aa(lp80
V2017/2018
p81
aVIngolstadt
p82
aVGB2
p83
aV1(1)
p84
aV113
p85
aV-
aV-
aV-
aV-
aV-
aV54.8
p86
aV1.5
p87
aV-
aV7.17
p88
aa(lp89
V2017/2018
p90
aVHuddersfield
p91
aVEPL
p92
aV19(4)
p93
aV1673
p94
aV-
aV1
aV3
aV-
aV0.3
p95
aV66.8
p96
aV0.7
p97
aV-
aV6.50
p98
aa(lp99
V2016/2017
p100
aVIngolstadt
p101
aVGB
p102
aV25
p103
aV2222
p104
aV1
aV2
aV6
aV-
aV0.4
p105
aV55.7
p106
aV2
aV1
aV6.99
p107
aa(lp108
V2014/2015
p109
aVBSC Young Boy..
p110
aVUEL
p111
aV4(2)
p112
aV394
p113
aV-
aV1
aV2
aV-
aV0.2
p114
aV79.2
p115
aV0.7
p116
aV-
aV6.81
p117
aa(lp118
VTotal / Average
p119
aV
aV
aV71
p120
aV5543
p121
aV1
aV4
aV12
p122
aV0
aV0.4
p123
aV65.1
p124
aV1.2
p125
aV1
aV6.69
p126
aasS'defensive_data'
p127
(lp128
(lp129
a(lp130
V2018/2019
p131
aVHuddersfield
p132
aVEPL
p133
aV12(3)
p134
aV1141
p135
aV-
aV-
aV1
aV-
aV0.4
p136
aV73.8
p137
aV0.7
p138
aV-
aV6.38
p139
aa(lp140
V2017/2018
p141
aVIngolstadt
p142
aVGB2
p143
aV1(1)
p144
aV113
p145
aV-
aV-
aV-
aV-
aV-
aV54.8
p146
aV1.5
p147
aV-
aV7.17
p148
aa(lp149
V2017/2018
p150
aVHuddersfield
p151
aVEPL
p152
aV19(4)
p153
aV1673
p154
aV-
aV1
aV3
aV-
aV0.3
p155
aV66.8
p156
aV0.7
p157
aV-
aV6.50
p158
aa(lp159
V2016/2017
p160
aVIngolstadt
p161
aVGB
p162
aV25
p163
aV2222
p164
aV1
aV2
aV6
aV-
aV0.4
p165
aV55.7
p166
aV2
aV1
aV6.99
p167
aa(lp168
V2014/2015
p169
aVBSC Young Boy..
p170
aVUEL
p171
aV4(2)
p172
aV394
p173
aV-
aV1
aV2
aV-
aV0.2
p174
aV79.2
p175
aV0.7
p176
aV-
aV6.81
p177
aa(lp178
VTotal / Average
p179
aV
aV
aV71
p180
aV5543
p181
aV1
aV4
aV12
p182
aV0
aV0.4
p183
aV65.1
p184
aV1.2
p185
aV1
aV6.69
p186
aasS'sumary_data'
p187
(lp188
(lp189
a(lp190
V2018/2019
p191
aVHuddersfield
p192
aVEPL
p193
aV12(3)
p194
aV1141
p195
aV-
aV-
aV1
aV-
aV0.4
p196
aV73.8
p197
aV0.7
p198
aV-
aV6.38
p199
aa(lp200
V2017/2018
p201
aVIngolstadt
p202
aVGB2
p203
aV1(1)
p204
aV113
p205
aV-
aV-
aV-
aV-
aV-
aV54.8
p206
aV1.5
p207
aV-
aV7.17
p208
aa(lp209
V2017/2018
p210
aVHuddersfield
p211
aVEPL
p212
aV19(4)
p213
aV1673
p214
aV-
aV1
aV3
aV-
aV0.3
p215
aV66.8
p216
aV0.7
p217
aV-
aV6.50
p218
aa(lp219
V2016/2017
p220
aVIngolstadt
p221
aVGB
p222
aV25
p223
aV2222
p224
aV1
aV2
aV6
aV-
aV0.4
p225
aV55.7
p226
aV2
aV1
aV6.99
p227
aa(lp228
V2014/2015
p229
aVBSC Young Boy..
p230
aVUEL
p231
aV4(2)
p232
aV394
p233
aV-
aV1
aV2
aV-
aV0.2
p234
aV79.2
p235
aV0.7
p236
aV-
aV6.81
p237
aa(lp238
VTotal / Average
p239
aV
aV
aV71
p240
aV5543
p241
aV1
aV4
aV12
p242
aV0
aV0.4
p243
aV65.1
p244
aV1.2
p245
aV1
aV6.69
p246
aasS'id'
p247
V136896
p248
sb.