(i__main__
Player
p1
(dp2
S'name'
p3
VDemarai Gray 
p4
sS'offensive_data'
p5
(lp6
(lp7
a(lp8
V2018/2019
p9
aVLeicester
p10
aVEPL
p11
aV11(3)
p12
aV948
p13
aV2
aV1
aV2
aV-
aV1.6
p14
aV78.7
p15
aV0.4
p16
aV-
aV6.67
p17
aa(lp18
V2017/2018
p19
aVLeicester
p20
aVEPL
p21
aV17(18)
p22
aV1693
p23
aV3
aV1
aV2
aV-
aV1
aV79.4
p24
aV0.1
p25
aV1
aV6.45
p26
aa(lp27
V2016/2017
p28
aVLeicester
p29
aVUCL
p30
aV1(4)
p31
aV155
p32
aV-
aV-
aV-
aV-
aV1.4
p33
aV64.4
p34
aV0.2
p35
aV-
aV6.14
p36
aa(lp37
V2016/2017
p38
aVLeicester
p39
aVEPL
p40
aV9(21)
p41
aV1039
p42
aV1
aV3
aV2
aV-
aV0.9
p43
aV74.8
p44
aV0.2
p45
aV-
aV6.45
p46
aa(lp47
V2015/2016
p48
aVBirmingham
p49
aVEC
p50
aV22(2)
p51
aV1892
p52
aV1
aV1
aV1
aV-
aV2.8
p53
aV77.3
p54
aV0.2
p55
aV1
aV6.86
p56
aa(lp57
V2015/2016
p58
aVLeicester
p59
aVEPL
p60
aV1(11)
p61
aV178
p62
aV-
aV1
aV-
aV-
aV0.4
p63
aV78.7
p64
aV0.1
p65
aV-
aV6.35
p66
aa(lp67
V2014/2015
p68
aVBirmingham
p69
aVEC
p70
aV28(13)
p71
aV2557
p72
aV6
aV1
aV2
aV-
aV1.9
p73
aV76
p74
aV0.2
p75
aV4
aV6.83
p76
aa(lp77
V2013/2014
p78
aVBirmingham
p79
aVEC
p80
aV1(6)
p81
aV175
p82
aV1
aV-
aV-
aV-
aV0.9
p83
aV61.3
p84
aV-
aV-
aV6.21
p85
aa(lp86
VTotal / Average
p87
aV
aV
aV168
p88
aV8637
p89
aV14
p90
aV8
aV9
aV0
aV1.5
p91
aV76.1
p92
aV0.2
p93
aV6
aV6.59
p94
aasS'url'
p95
S'https://www.whoscored.com/Players/136945/History/'
p96
sS'passing_data'
p97
(lp98
(lp99
a(lp100
V2018/2019
p101
aVLeicester
p102
aVEPL
p103
aV11(3)
p104
aV948
p105
aV2
aV1
aV2
aV-
aV1.6
p106
aV78.7
p107
aV0.4
p108
aV-
aV6.67
p109
aa(lp110
V2017/2018
p111
aVLeicester
p112
aVEPL
p113
aV17(18)
p114
aV1693
p115
aV3
aV1
aV2
aV-
aV1
aV79.4
p116
aV0.1
p117
aV1
aV6.45
p118
aa(lp119
V2016/2017
p120
aVLeicester
p121
aVUCL
p122
aV1(4)
p123
aV155
p124
aV-
aV-
aV-
aV-
aV1.4
p125
aV64.4
p126
aV0.2
p127
aV-
aV6.14
p128
aa(lp129
V2016/2017
p130
aVLeicester
p131
aVEPL
p132
aV9(21)
p133
aV1039
p134
aV1
aV3
aV2
aV-
aV0.9
p135
aV74.8
p136
aV0.2
p137
aV-
aV6.45
p138
aa(lp139
V2015/2016
p140
aVBirmingham
p141
aVEC
p142
aV22(2)
p143
aV1892
p144
aV1
aV1
aV1
aV-
aV2.8
p145
aV77.3
p146
aV0.2
p147
aV1
aV6.86
p148
aa(lp149
V2015/2016
p150
aVLeicester
p151
aVEPL
p152
aV1(11)
p153
aV178
p154
aV-
aV1
aV-
aV-
aV0.4
p155
aV78.7
p156
aV0.1
p157
aV-
aV6.35
p158
aa(lp159
V2014/2015
p160
aVBirmingham
p161
aVEC
p162
aV28(13)
p163
aV2557
p164
aV6
aV1
aV2
aV-
aV1.9
p165
aV76
p166
aV0.2
p167
aV4
aV6.83
p168
aa(lp169
V2013/2014
p170
aVBirmingham
p171
aVEC
p172
aV1(6)
p173
aV175
p174
aV1
aV-
aV-
aV-
aV0.9
p175
aV61.3
p176
aV-
aV-
aV6.21
p177
aa(lp178
VTotal / Average
p179
aV
aV
aV168
p180
aV8637
p181
aV14
p182
aV8
aV9
aV0
aV1.5
p183
aV76.1
p184
aV0.2
p185
aV6
aV6.59
p186
aasS'defensive_data'
p187
(lp188
(lp189
a(lp190
V2018/2019
p191
aVLeicester
p192
aVEPL
p193
aV11(3)
p194
aV948
p195
aV2
aV1
aV2
aV-
aV1.6
p196
aV78.7
p197
aV0.4
p198
aV-
aV6.67
p199
aa(lp200
V2017/2018
p201
aVLeicester
p202
aVEPL
p203
aV17(18)
p204
aV1693
p205
aV3
aV1
aV2
aV-
aV1
aV79.4
p206
aV0.1
p207
aV1
aV6.45
p208
aa(lp209
V2016/2017
p210
aVLeicester
p211
aVUCL
p212
aV1(4)
p213
aV155
p214
aV-
aV-
aV-
aV-
aV1.4
p215
aV64.4
p216
aV0.2
p217
aV-
aV6.14
p218
aa(lp219
V2016/2017
p220
aVLeicester
p221
aVEPL
p222
aV9(21)
p223
aV1039
p224
aV1
aV3
aV2
aV-
aV0.9
p225
aV74.8
p226
aV0.2
p227
aV-
aV6.45
p228
aa(lp229
V2015/2016
p230
aVBirmingham
p231
aVEC
p232
aV22(2)
p233
aV1892
p234
aV1
aV1
aV1
aV-
aV2.8
p235
aV77.3
p236
aV0.2
p237
aV1
aV6.86
p238
aa(lp239
V2015/2016
p240
aVLeicester
p241
aVEPL
p242
aV1(11)
p243
aV178
p244
aV-
aV1
aV-
aV-
aV0.4
p245
aV78.7
p246
aV0.1
p247
aV-
aV6.35
p248
aa(lp249
V2014/2015
p250
aVBirmingham
p251
aVEC
p252
aV28(13)
p253
aV2557
p254
aV6
aV1
aV2
aV-
aV1.9
p255
aV76
p256
aV0.2
p257
aV4
aV6.83
p258
aa(lp259
V2013/2014
p260
aVBirmingham
p261
aVEC
p262
aV1(6)
p263
aV175
p264
aV1
aV-
aV-
aV-
aV0.9
p265
aV61.3
p266
aV-
aV-
aV6.21
p267
aa(lp268
VTotal / Average
p269
aV
aV
aV168
p270
aV8637
p271
aV14
p272
aV8
aV9
aV0
aV1.5
p273
aV76.1
p274
aV0.2
p275
aV6
aV6.59
p276
aasS'sumary_data'
p277
(lp278
(lp279
a(lp280
V2018/2019
p281
aVLeicester
p282
aVEPL
p283
aV11(3)
p284
aV948
p285
aV2
aV1
aV2
aV-
aV1.6
p286
aV78.7
p287
aV0.4
p288
aV-
aV6.67
p289
aa(lp290
V2017/2018
p291
aVLeicester
p292
aVEPL
p293
aV17(18)
p294
aV1693
p295
aV3
aV1
aV2
aV-
aV1
aV79.4
p296
aV0.1
p297
aV1
aV6.45
p298
aa(lp299
V2016/2017
p300
aVLeicester
p301
aVUCL
p302
aV1(4)
p303
aV155
p304
aV-
aV-
aV-
aV-
aV1.4
p305
aV64.4
p306
aV0.2
p307
aV-
aV6.14
p308
aa(lp309
V2016/2017
p310
aVLeicester
p311
aVEPL
p312
aV9(21)
p313
aV1039
p314
aV1
aV3
aV2
aV-
aV0.9
p315
aV74.8
p316
aV0.2
p317
aV-
aV6.45
p318
aa(lp319
V2015/2016
p320
aVBirmingham
p321
aVEC
p322
aV22(2)
p323
aV1892
p324
aV1
aV1
aV1
aV-
aV2.8
p325
aV77.3
p326
aV0.2
p327
aV1
aV6.86
p328
aa(lp329
V2015/2016
p330
aVLeicester
p331
aVEPL
p332
aV1(11)
p333
aV178
p334
aV-
aV1
aV-
aV-
aV0.4
p335
aV78.7
p336
aV0.1
p337
aV-
aV6.35
p338
aa(lp339
V2014/2015
p340
aVBirmingham
p341
aVEC
p342
aV28(13)
p343
aV2557
p344
aV6
aV1
aV2
aV-
aV1.9
p345
aV76
p346
aV0.2
p347
aV4
aV6.83
p348
aa(lp349
V2013/2014
p350
aVBirmingham
p351
aVEC
p352
aV1(6)
p353
aV175
p354
aV1
aV-
aV-
aV-
aV0.9
p355
aV61.3
p356
aV-
aV-
aV6.21
p357
aa(lp358
VTotal / Average
p359
aV
aV
aV168
p360
aV8637
p361
aV14
p362
aV8
aV9
aV0
aV1.5
p363
aV76.1
p364
aV0.2
p365
aV6
aV6.59
p366
aasS'id'
p367
V136945
p368
sb.