(i__main__
Player
p1
(dp2
S'name'
p3
VJames Maddison 
p4
sS'offensive_data'
p5
(lp6
(lp7
a(lp8
V2018/2019
p9
aVLeicester
p10
aVEPL
p11
aV16
p12
aV1237
p13
aV5
aV2
aV1
aV1
aV1.9
p14
aV84.6
p15
aV0.4
p16
aV1
aV7.12
p17
aa(lp18
V2017/2018
p19
aVNorwich
p20
aVEC
p21
aV42(2)
p22
aV3643
p23
aV14
p24
aV8
aV7
aV-
aV2.6
p25
aV86.2
p26
aV0.3
p27
aV8
aV7.43
p28
aa(lp29
V2016/2017
p30
aVNorwich
p31
aVEC
p32
aV0(3)
p33
aV32
p34
aV1
aV-
aV-
aV-
aV0.3
p35
aV90.3
p36
aV-
aV-
aV6.58
p37
aa(lp38
VTotal / Average
p39
aV
aV
aV63
p40
aV4912
p41
aV20
p42
aV10
p43
aV8
aV1
aV2.3
p44
aV86
p45
aV0.3
p46
aV9
aV7.31
p47
aasS'url'
p48
S'https://www.whoscored.com/Players/137015/History/'
p49
sS'passing_data'
p50
(lp51
(lp52
a(lp53
V2018/2019
p54
aVLeicester
p55
aVEPL
p56
aV16
p57
aV1237
p58
aV5
aV2
aV1
aV1
aV1.9
p59
aV84.6
p60
aV0.4
p61
aV1
aV7.12
p62
aa(lp63
V2017/2018
p64
aVNorwich
p65
aVEC
p66
aV42(2)
p67
aV3643
p68
aV14
p69
aV8
aV7
aV-
aV2.6
p70
aV86.2
p71
aV0.3
p72
aV8
aV7.43
p73
aa(lp74
V2016/2017
p75
aVNorwich
p76
aVEC
p77
aV0(3)
p78
aV32
p79
aV1
aV-
aV-
aV-
aV0.3
p80
aV90.3
p81
aV-
aV-
aV6.58
p82
aa(lp83
VTotal / Average
p84
aV
aV
aV63
p85
aV4912
p86
aV20
p87
aV10
p88
aV8
aV1
aV2.3
p89
aV86
p90
aV0.3
p91
aV9
aV7.31
p92
aasS'defensive_data'
p93
(lp94
(lp95
a(lp96
V2018/2019
p97
aVLeicester
p98
aVEPL
p99
aV16
p100
aV1237
p101
aV5
aV2
aV1
aV1
aV1.9
p102
aV84.6
p103
aV0.4
p104
aV1
aV7.12
p105
aa(lp106
V2017/2018
p107
aVNorwich
p108
aVEC
p109
aV42(2)
p110
aV3643
p111
aV14
p112
aV8
aV7
aV-
aV2.6
p113
aV86.2
p114
aV0.3
p115
aV8
aV7.43
p116
aa(lp117
V2016/2017
p118
aVNorwich
p119
aVEC
p120
aV0(3)
p121
aV32
p122
aV1
aV-
aV-
aV-
aV0.3
p123
aV90.3
p124
aV-
aV-
aV6.58
p125
aa(lp126
VTotal / Average
p127
aV
aV
aV63
p128
aV4912
p129
aV20
p130
aV10
p131
aV8
aV1
aV2.3
p132
aV86
p133
aV0.3
p134
aV9
aV7.31
p135
aasS'sumary_data'
p136
(lp137
(lp138
a(lp139
V2018/2019
p140
aVLeicester
p141
aVEPL
p142
aV16
p143
aV1237
p144
aV5
aV2
aV1
aV1
aV1.9
p145
aV84.6
p146
aV0.4
p147
aV1
aV7.12
p148
aa(lp149
V2017/2018
p150
aVNorwich
p151
aVEC
p152
aV42(2)
p153
aV3643
p154
aV14
p155
aV8
aV7
aV-
aV2.6
p156
aV86.2
p157
aV0.3
p158
aV8
aV7.43
p159
aa(lp160
V2016/2017
p161
aVNorwich
p162
aVEC
p163
aV0(3)
p164
aV32
p165
aV1
aV-
aV-
aV-
aV0.3
p166
aV90.3
p167
aV-
aV-
aV6.58
p168
aa(lp169
VTotal / Average
p170
aV
aV
aV63
p171
aV4912
p172
aV20
p173
aV10
p174
aV8
aV1
aV2.3
p175
aV86
p176
aV0.3
p177
aV9
aV7.31
p178
aasS'id'
p179
V137015
p180
sb.