(i__main__
Player
p1
(dp2
S'name'
p3
VIvan Cavaleiro 
p4
sS'offensive_data'
p5
(lp6
(lp7
a(lp8
V2018/2019
p9
aVWolverhampton..
p10
aVEPL
p11
aV3(7)
p12
aV269
p13
aV3
aV-
aV1
aV-
aV0.9
p14
aV70.1
p15
aV0.4
p16
aV-
aV6.49
p17
aa(lp18
V2017/2018
p19
aVWolverhampton..
p20
aVEC
p21
aV31(11)
p22
aV2577
p23
aV9
aV12
p24
aV4
aV-
aV1.5
p25
aV82.7
p26
aV0.4
p27
aV5
aV7.13
p28
aa(lp29
V2016/2017
p30
aVWolverhampton..
p31
aVEC
p32
aV17(14)
p33
aV1618
p34
aV5
aV5
aV4
aV1
aV1.2
p35
aV77.9
p36
aV0.8
p37
aV1
aV6.59
p38
aa(lp39
V2016/2017
p40
aVMonaco
p41
aVFL1
p42
aV1(1)
p43
aV98
p44
aV-
aV-
aV-
aV-
aV1
aV76.9
p45
aV0.5
p46
aV-
aV6.60
p47
aa(lp48
V2015/2016
p49
aVMonaco
p50
aVUEL
p51
aV1(1)
p52
aV105
p53
aV1
aV-
aV-
aV-
aV1
aV79.3
p54
aV1
aV-
aV6.72
p55
aa(lp56
V2015/2016
p57
aVMonaco
p58
aVFL1
p59
aV6(6)
p60
aV511
p61
aV1
aV-
aV1
aV-
aV1.2
p62
aV84.7
p63
aV0.5
p64
aV-
aV6.45
p65
aa(lp66
V2015
p67
aVPortugal U21
p68
aVIEU
p69
aV4
aV238
p70
aV1
aV1
aV-
aV-
aV1.8
p71
aV81.3
p72
aV0.8
p73
aV-
aV7.12
p74
aa(lp75
V2014/2015
p76
aVDeportivo La ..
p77
aVSLL
p78
aV27(7)
p79
aV2346
p80
aV3
aV3
aV6
aV-
aV1.2
p81
aV74.6
p82
aV0.9
p83
aV-
aV6.58
p84
aa(lp85
V2013/2014
p86
aVBenfica
p87
aVUCL
p88
aV0(4)
p89
aV79
p90
aV-
aV-
aV-
aV-
aV0.3
p91
aV64
p92
aV0.3
p93
aV-
aV6.07
p94
aa(lp95
V2013/2014
p96
aVBenfica
p97
aVUEL
p98
aV0(2)
p99
aV9
aV-
aV-
aV-
aV-
aV0.5
p100
aV75
p101
aV1
aV-
aV6.22
p102
aa(lp103
VTotal / Average
p104
aV
aV
aV143
p105
aV7850
p106
aV23
p107
aV21
p108
aV16
p109
aV1
aV1.2
p110
aV78.2
p111
aV0.6
p112
aV6
aV6.72
p113
aasS'url'
p114
S'https://www.whoscored.com/Players/137386/History/'
p115
sS'passing_data'
p116
(lp117
(lp118
a(lp119
V2018/2019
p120
aVWolverhampton..
p121
aVEPL
p122
aV3(7)
p123
aV269
p124
aV3
aV-
aV1
aV-
aV0.9
p125
aV70.1
p126
aV0.4
p127
aV-
aV6.49
p128
aa(lp129
V2017/2018
p130
aVWolverhampton..
p131
aVEC
p132
aV31(11)
p133
aV2577
p134
aV9
aV12
p135
aV4
aV-
aV1.5
p136
aV82.7
p137
aV0.4
p138
aV5
aV7.13
p139
aa(lp140
V2016/2017
p141
aVWolverhampton..
p142
aVEC
p143
aV17(14)
p144
aV1618
p145
aV5
aV5
aV4
aV1
aV1.2
p146
aV77.9
p147
aV0.8
p148
aV1
aV6.59
p149
aa(lp150
V2016/2017
p151
aVMonaco
p152
aVFL1
p153
aV1(1)
p154
aV98
p155
aV-
aV-
aV-
aV-
aV1
aV76.9
p156
aV0.5
p157
aV-
aV6.60
p158
aa(lp159
V2015/2016
p160
aVMonaco
p161
aVUEL
p162
aV1(1)
p163
aV105
p164
aV1
aV-
aV-
aV-
aV1
aV79.3
p165
aV1
aV-
aV6.72
p166
aa(lp167
V2015/2016
p168
aVMonaco
p169
aVFL1
p170
aV6(6)
p171
aV511
p172
aV1
aV-
aV1
aV-
aV1.2
p173
aV84.7
p174
aV0.5
p175
aV-
aV6.45
p176
aa(lp177
V2015
p178
aVPortugal U21
p179
aVIEU
p180
aV4
aV238
p181
aV1
aV1
aV-
aV-
aV1.8
p182
aV81.3
p183
aV0.8
p184
aV-
aV7.12
p185
aa(lp186
V2014/2015
p187
aVDeportivo La ..
p188
aVSLL
p189
aV27(7)
p190
aV2346
p191
aV3
aV3
aV6
aV-
aV1.2
p192
aV74.6
p193
aV0.9
p194
aV-
aV6.58
p195
aa(lp196
V2013/2014
p197
aVBenfica
p198
aVUCL
p199
aV0(4)
p200
aV79
p201
aV-
aV-
aV-
aV-
aV0.3
p202
aV64
p203
aV0.3
p204
aV-
aV6.07
p205
aa(lp206
V2013/2014
p207
aVBenfica
p208
aVUEL
p209
aV0(2)
p210
aV9
aV-
aV-
aV-
aV-
aV0.5
p211
aV75
p212
aV1
aV-
aV6.22
p213
aa(lp214
VTotal / Average
p215
aV
aV
aV143
p216
aV7850
p217
aV23
p218
aV21
p219
aV16
p220
aV1
aV1.2
p221
aV78.2
p222
aV0.6
p223
aV6
aV6.72
p224
aasS'defensive_data'
p225
(lp226
(lp227
a(lp228
V2018/2019
p229
aVWolverhampton..
p230
aVEPL
p231
aV3(7)
p232
aV269
p233
aV3
aV-
aV1
aV-
aV0.9
p234
aV70.1
p235
aV0.4
p236
aV-
aV6.49
p237
aa(lp238
V2017/2018
p239
aVWolverhampton..
p240
aVEC
p241
aV31(11)
p242
aV2577
p243
aV9
aV12
p244
aV4
aV-
aV1.5
p245
aV82.7
p246
aV0.4
p247
aV5
aV7.13
p248
aa(lp249
V2016/2017
p250
aVWolverhampton..
p251
aVEC
p252
aV17(14)
p253
aV1618
p254
aV5
aV5
aV4
aV1
aV1.2
p255
aV77.9
p256
aV0.8
p257
aV1
aV6.59
p258
aa(lp259
V2016/2017
p260
aVMonaco
p261
aVFL1
p262
aV1(1)
p263
aV98
p264
aV-
aV-
aV-
aV-
aV1
aV76.9
p265
aV0.5
p266
aV-
aV6.60
p267
aa(lp268
V2015/2016
p269
aVMonaco
p270
aVUEL
p271
aV1(1)
p272
aV105
p273
aV1
aV-
aV-
aV-
aV1
aV79.3
p274
aV1
aV-
aV6.72
p275
aa(lp276
V2015/2016
p277
aVMonaco
p278
aVFL1
p279
aV6(6)
p280
aV511
p281
aV1
aV-
aV1
aV-
aV1.2
p282
aV84.7
p283
aV0.5
p284
aV-
aV6.45
p285
aa(lp286
V2015
p287
aVPortugal U21
p288
aVIEU
p289
aV4
aV238
p290
aV1
aV1
aV-
aV-
aV1.8
p291
aV81.3
p292
aV0.8
p293
aV-
aV7.12
p294
aa(lp295
V2014/2015
p296
aVDeportivo La ..
p297
aVSLL
p298
aV27(7)
p299
aV2346
p300
aV3
aV3
aV6
aV-
aV1.2
p301
aV74.6
p302
aV0.9
p303
aV-
aV6.58
p304
aa(lp305
V2013/2014
p306
aVBenfica
p307
aVUCL
p308
aV0(4)
p309
aV79
p310
aV-
aV-
aV-
aV-
aV0.3
p311
aV64
p312
aV0.3
p313
aV-
aV6.07
p314
aa(lp315
V2013/2014
p316
aVBenfica
p317
aVUEL
p318
aV0(2)
p319
aV9
aV-
aV-
aV-
aV-
aV0.5
p320
aV75
p321
aV1
aV-
aV6.22
p322
aa(lp323
VTotal / Average
p324
aV
aV
aV143
p325
aV7850
p326
aV23
p327
aV21
p328
aV16
p329
aV1
aV1.2
p330
aV78.2
p331
aV0.6
p332
aV6
aV6.72
p333
aasS'sumary_data'
p334
(lp335
(lp336
a(lp337
V2018/2019
p338
aVWolverhampton..
p339
aVEPL
p340
aV3(7)
p341
aV269
p342
aV3
aV-
aV1
aV-
aV0.9
p343
aV70.1
p344
aV0.4
p345
aV-
aV6.49
p346
aa(lp347
V2017/2018
p348
aVWolverhampton..
p349
aVEC
p350
aV31(11)
p351
aV2577
p352
aV9
aV12
p353
aV4
aV-
aV1.5
p354
aV82.7
p355
aV0.4
p356
aV5
aV7.13
p357
aa(lp358
V2016/2017
p359
aVWolverhampton..
p360
aVEC
p361
aV17(14)
p362
aV1618
p363
aV5
aV5
aV4
aV1
aV1.2
p364
aV77.9
p365
aV0.8
p366
aV1
aV6.59
p367
aa(lp368
V2016/2017
p369
aVMonaco
p370
aVFL1
p371
aV1(1)
p372
aV98
p373
aV-
aV-
aV-
aV-
aV1
aV76.9
p374
aV0.5
p375
aV-
aV6.60
p376
aa(lp377
V2015/2016
p378
aVMonaco
p379
aVUEL
p380
aV1(1)
p381
aV105
p382
aV1
aV-
aV-
aV-
aV1
aV79.3
p383
aV1
aV-
aV6.72
p384
aa(lp385
V2015/2016
p386
aVMonaco
p387
aVFL1
p388
aV6(6)
p389
aV511
p390
aV1
aV-
aV1
aV-
aV1.2
p391
aV84.7
p392
aV0.5
p393
aV-
aV6.45
p394
aa(lp395
V2015
p396
aVPortugal U21
p397
aVIEU
p398
aV4
aV238
p399
aV1
aV1
aV-
aV-
aV1.8
p400
aV81.3
p401
aV0.8
p402
aV-
aV7.12
p403
aa(lp404
V2014/2015
p405
aVDeportivo La ..
p406
aVSLL
p407
aV27(7)
p408
aV2346
p409
aV3
aV3
aV6
aV-
aV1.2
p410
aV74.6
p411
aV0.9
p412
aV-
aV6.58
p413
aa(lp414
V2013/2014
p415
aVBenfica
p416
aVUCL
p417
aV0(4)
p418
aV79
p419
aV-
aV-
aV-
aV-
aV0.3
p420
aV64
p421
aV0.3
p422
aV-
aV6.07
p423
aa(lp424
V2013/2014
p425
aVBenfica
p426
aVUEL
p427
aV0(2)
p428
aV9
aV-
aV-
aV-
aV-
aV0.5
p429
aV75
p430
aV1
aV-
aV6.22
p431
aa(lp432
VTotal / Average
p433
aV
aV
aV143
p434
aV7850
p435
aV23
p436
aV21
p437
aV16
p438
aV1
aV1.2
p439
aV78.2
p440
aV0.6
p441
aV6
aV6.72
p442
aasS'id'
p443
V137386
p444
sb.