(i__main__
Player
p1
(dp2
S'name'
p3
VAdam Masina 
p4
sS'offensive_data'
p5
(lp6
(lp7
a(lp8
V2018/2019
p9
aVWatford
p10
aVEPL
p11
aV3(1)
p12
aV276
p13
aV-
aV1
aV1
aV-
aV-
aV75.4
p14
aV2
aV-
aV6.91
p15
aa(lp16
V2017/2018
p17
aVBologna
p18
aVISA
p19
aV33(1)
p20
aV2841
p21
aV-
aV1
aV8
aV1
aV0.5
p22
aV75.6
p23
aV3.4
p24
aV1
aV6.87
p25
aa(lp26
V2016/2017
p27
aVBologna
p28
aVISA
p29
aV28(4)
p30
aV2428
p31
aV1
aV-
aV6
aV1
aV0.6
p32
aV73.1
p33
aV2.8
p34
aV2
aV6.88
p35
aa(lp36
V2015/2016
p37
aVBologna
p38
aVISA
p39
aV30(3)
p40
aV2625
p41
aV2
aV3
aV8
aV1
aV0.4
p42
aV74.2
p43
aV2.2
p44
aV2
aV7.08
p45
aa(lp46
VTotal / Average
p47
aV
aV
aV103
p48
aV8170
p49
aV3
aV5
aV23
p50
aV3
aV0.5
p51
aV74.3
p52
aV2.7
p53
aV5
aV6.94
p54
aasS'url'
p55
S'https://www.whoscored.com/Players/137512/History/'
p56
sS'passing_data'
p57
(lp58
(lp59
a(lp60
V2018/2019
p61
aVWatford
p62
aVEPL
p63
aV3(1)
p64
aV276
p65
aV-
aV1
aV1
aV-
aV-
aV75.4
p66
aV2
aV-
aV6.91
p67
aa(lp68
V2017/2018
p69
aVBologna
p70
aVISA
p71
aV33(1)
p72
aV2841
p73
aV-
aV1
aV8
aV1
aV0.5
p74
aV75.6
p75
aV3.4
p76
aV1
aV6.87
p77
aa(lp78
V2016/2017
p79
aVBologna
p80
aVISA
p81
aV28(4)
p82
aV2428
p83
aV1
aV-
aV6
aV1
aV0.6
p84
aV73.1
p85
aV2.8
p86
aV2
aV6.88
p87
aa(lp88
V2015/2016
p89
aVBologna
p90
aVISA
p91
aV30(3)
p92
aV2625
p93
aV2
aV3
aV8
aV1
aV0.4
p94
aV74.2
p95
aV2.2
p96
aV2
aV7.08
p97
aa(lp98
VTotal / Average
p99
aV
aV
aV103
p100
aV8170
p101
aV3
aV5
aV23
p102
aV3
aV0.5
p103
aV74.3
p104
aV2.7
p105
aV5
aV6.94
p106
aasS'defensive_data'
p107
(lp108
(lp109
a(lp110
V2018/2019
p111
aVWatford
p112
aVEPL
p113
aV3(1)
p114
aV276
p115
aV-
aV1
aV1
aV-
aV-
aV75.4
p116
aV2
aV-
aV6.91
p117
aa(lp118
V2017/2018
p119
aVBologna
p120
aVISA
p121
aV33(1)
p122
aV2841
p123
aV-
aV1
aV8
aV1
aV0.5
p124
aV75.6
p125
aV3.4
p126
aV1
aV6.87
p127
aa(lp128
V2016/2017
p129
aVBologna
p130
aVISA
p131
aV28(4)
p132
aV2428
p133
aV1
aV-
aV6
aV1
aV0.6
p134
aV73.1
p135
aV2.8
p136
aV2
aV6.88
p137
aa(lp138
V2015/2016
p139
aVBologna
p140
aVISA
p141
aV30(3)
p142
aV2625
p143
aV2
aV3
aV8
aV1
aV0.4
p144
aV74.2
p145
aV2.2
p146
aV2
aV7.08
p147
aa(lp148
VTotal / Average
p149
aV
aV
aV103
p150
aV8170
p151
aV3
aV5
aV23
p152
aV3
aV0.5
p153
aV74.3
p154
aV2.7
p155
aV5
aV6.94
p156
aasS'sumary_data'
p157
(lp158
(lp159
a(lp160
V2018/2019
p161
aVWatford
p162
aVEPL
p163
aV3(1)
p164
aV276
p165
aV-
aV1
aV1
aV-
aV-
aV75.4
p166
aV2
aV-
aV6.91
p167
aa(lp168
V2017/2018
p169
aVBologna
p170
aVISA
p171
aV33(1)
p172
aV2841
p173
aV-
aV1
aV8
aV1
aV0.5
p174
aV75.6
p175
aV3.4
p176
aV1
aV6.87
p177
aa(lp178
V2016/2017
p179
aVBologna
p180
aVISA
p181
aV28(4)
p182
aV2428
p183
aV1
aV-
aV6
aV1
aV0.6
p184
aV73.1
p185
aV2.8
p186
aV2
aV6.88
p187
aa(lp188
V2015/2016
p189
aVBologna
p190
aVISA
p191
aV30(3)
p192
aV2625
p193
aV2
aV3
aV8
aV1
aV0.4
p194
aV74.2
p195
aV2.2
p196
aV2
aV7.08
p197
aa(lp198
VTotal / Average
p199
aV
aV
aV103
p200
aV8170
p201
aV3
aV5
aV23
p202
aV3
aV0.5
p203
aV74.3
p204
aV2.7
p205
aV5
aV6.94
p206
aasS'id'
p207
V137512
p208
sb.