(i__main__
Player
p1
(dp2
S'name'
p3
VShane Long 
p4
sS'offensive_data'
p5
(lp6
(lp7
a(lp8
V2018/2019
p9
aVSouthampton
p10
aVEPL
p11
aV5(5)
p12
aV488
p13
aV-
aV1
aV1
aV-
aV1
aV67.7
p14
aV2.6
p15
aV-
aV6.46
p16
aa(lp17
V2018/2019
p18
aVIreland
p19
aVUNL
p20
aV1(1)
p21
aV117
p22
aV-
aV-
aV1
aV-
aV-
aV53.3
p23
aV3.5
p24
aV-
aV6.38
p25
aa(lp26
V2017/2018
p27
aVSouthampton
p28
aVEPL
p29
aV15(15)
p30
aV1580
p31
aV2
aV1
aV6
aV-
aV1.1
p32
aV66.8
p33
aV2.6
p34
aV-
aV6.53
p35
aa(lp36
V2016/2017
p37
aVSouthampton
p38
aVEPL
p39
aV10(22)
p40
aV1249
p41
aV3
aV1
aV2
aV-
aV1.3
p42
aV69.9
p43
aV1.4
p44
aV-
aV6.40
p45
aa(lp46
V2016/2017
p47
aVSouthampton
p48
aVUEL
p49
aV4(1)
p50
aV369
p51
aV-
aV1
aV-
aV-
aV0.8
p52
aV64.1
p53
aV2.2
p54
aV-
aV6.48
p55
aa(lp56
V2015/2016
p57
aVSouthampton
p58
aVEPL
p59
aV23(5)
p60
aV2111
p61
aV10
p62
aV4
aV2
aV-
aV2.3
p63
aV66.4
p64
aV2.9
p65
aV1
aV7.02
p66
aa(lp67
V2014/2015
p68
aVSouthampton
p69
aVEPL
p70
aV16(16)
p71
aV1542
p72
aV5
aV5
aV2
aV-
aV1.2
p73
aV67.3
p74
aV1.5
p75
aV1
aV6.69
p76
aa(lp77
V2016
p78
aVIreland
p79
aVUEC
p80
aV4
aV349
p81
aV-
aV-
aV2
aV-
aV0.3
p82
aV56.3
p83
aV3.8
p84
aV-
aV6.37
p85
aa(lp86
V2013/2014
p87
aVHull
p88
aVEPL
p89
aV15
p90
aV1208
p91
aV4
aV1
aV-
aV-
aV1.8
p92
aV65.1
p93
aV2.9
p94
aV1
aV6.86
p95
aa(lp96
V2013/2014
p97
aVWest Bromwich..
p98
aVEPL
p99
aV11(4)
p100
aV1039
p101
aV3
aV1
aV2
aV-
aV1.7
p102
aV63.6
p103
aV2.9
p104
aV2
aV6.68
p105
aa(lp106
V2012/2013
p107
aVWest Bromwich..
p108
aVEPL
p109
aV25(9)
p110
aV2168
p111
aV8
aV4
aV3
aV-
aV1.4
p112
aV69.7
p113
aV1.8
p114
aV1
aV6.75
p115
aa(lp116
V2012
p117
aVIreland
p118
aVUEC
p119
aV0(2)
p120
aV41
p121
aV-
aV-
aV-
aV-
aV0.5
p122
aV87.5
p123
aV0.5
p124
aV-
aV6.13
p125
aa(lp126
V2011/2012
p127
aVWest Bromwich..
p128
aVEPL
p129
aV24(8)
p130
aV2186
p131
aV8
aV1
aV2
aV-
aV1.2
p132
aV70.2
p133
aV2.3
p134
aV2
aV6.66
p135
aa(lp136
VTotal / Average
p137
aV
aV
aV241
p138
aV14447
p139
aV43
p140
aV20
p141
aV23
p142
aV0
aV1.4
p143
aV67.7
p144
aV2.2
p145
aV8
aV6.66
p146
aasS'url'
p147
S'https://www.whoscored.com/Players/13798/History/'
p148
sS'passing_data'
p149
(lp150
(lp151
a(lp152
V2018/2019
p153
aVSouthampton
p154
aVEPL
p155
aV5(5)
p156
aV488
p157
aV-
aV1
aV1
aV-
aV1
aV67.7
p158
aV2.6
p159
aV-
aV6.46
p160
aa(lp161
V2018/2019
p162
aVIreland
p163
aVUNL
p164
aV1(1)
p165
aV117
p166
aV-
aV-
aV1
aV-
aV-
aV53.3
p167
aV3.5
p168
aV-
aV6.38
p169
aa(lp170
V2017/2018
p171
aVSouthampton
p172
aVEPL
p173
aV15(15)
p174
aV1580
p175
aV2
aV1
aV6
aV-
aV1.1
p176
aV66.8
p177
aV2.6
p178
aV-
aV6.53
p179
aa(lp180
V2016/2017
p181
aVSouthampton
p182
aVEPL
p183
aV10(22)
p184
aV1249
p185
aV3
aV1
aV2
aV-
aV1.3
p186
aV69.9
p187
aV1.4
p188
aV-
aV6.40
p189
aa(lp190
V2016/2017
p191
aVSouthampton
p192
aVUEL
p193
aV4(1)
p194
aV369
p195
aV-
aV1
aV-
aV-
aV0.8
p196
aV64.1
p197
aV2.2
p198
aV-
aV6.48
p199
aa(lp200
V2015/2016
p201
aVSouthampton
p202
aVEPL
p203
aV23(5)
p204
aV2111
p205
aV10
p206
aV4
aV2
aV-
aV2.3
p207
aV66.4
p208
aV2.9
p209
aV1
aV7.02
p210
aa(lp211
V2014/2015
p212
aVSouthampton
p213
aVEPL
p214
aV16(16)
p215
aV1542
p216
aV5
aV5
aV2
aV-
aV1.2
p217
aV67.3
p218
aV1.5
p219
aV1
aV6.69
p220
aa(lp221
V2016
p222
aVIreland
p223
aVUEC
p224
aV4
aV349
p225
aV-
aV-
aV2
aV-
aV0.3
p226
aV56.3
p227
aV3.8
p228
aV-
aV6.37
p229
aa(lp230
V2013/2014
p231
aVHull
p232
aVEPL
p233
aV15
p234
aV1208
p235
aV4
aV1
aV-
aV-
aV1.8
p236
aV65.1
p237
aV2.9
p238
aV1
aV6.86
p239
aa(lp240
V2013/2014
p241
aVWest Bromwich..
p242
aVEPL
p243
aV11(4)
p244
aV1039
p245
aV3
aV1
aV2
aV-
aV1.7
p246
aV63.6
p247
aV2.9
p248
aV2
aV6.68
p249
aa(lp250
V2012/2013
p251
aVWest Bromwich..
p252
aVEPL
p253
aV25(9)
p254
aV2168
p255
aV8
aV4
aV3
aV-
aV1.4
p256
aV69.7
p257
aV1.8
p258
aV1
aV6.75
p259
aa(lp260
V2012
p261
aVIreland
p262
aVUEC
p263
aV0(2)
p264
aV41
p265
aV-
aV-
aV-
aV-
aV0.5
p266
aV87.5
p267
aV0.5
p268
aV-
aV6.13
p269
aa(lp270
V2011/2012
p271
aVWest Bromwich..
p272
aVEPL
p273
aV24(8)
p274
aV2186
p275
aV8
aV1
aV2
aV-
aV1.2
p276
aV70.2
p277
aV2.3
p278
aV2
aV6.66
p279
aa(lp280
VTotal / Average
p281
aV
aV
aV241
p282
aV14447
p283
aV43
p284
aV20
p285
aV23
p286
aV0
aV1.4
p287
aV67.7
p288
aV2.2
p289
aV8
aV6.66
p290
aasS'defensive_data'
p291
(lp292
(lp293
a(lp294
V2018/2019
p295
aVSouthampton
p296
aVEPL
p297
aV5(5)
p298
aV488
p299
aV-
aV1
aV1
aV-
aV1
aV67.7
p300
aV2.6
p301
aV-
aV6.46
p302
aa(lp303
V2018/2019
p304
aVIreland
p305
aVUNL
p306
aV1(1)
p307
aV117
p308
aV-
aV-
aV1
aV-
aV-
aV53.3
p309
aV3.5
p310
aV-
aV6.38
p311
aa(lp312
V2017/2018
p313
aVSouthampton
p314
aVEPL
p315
aV15(15)
p316
aV1580
p317
aV2
aV1
aV6
aV-
aV1.1
p318
aV66.8
p319
aV2.6
p320
aV-
aV6.53
p321
aa(lp322
V2016/2017
p323
aVSouthampton
p324
aVEPL
p325
aV10(22)
p326
aV1249
p327
aV3
aV1
aV2
aV-
aV1.3
p328
aV69.9
p329
aV1.4
p330
aV-
aV6.40
p331
aa(lp332
V2016/2017
p333
aVSouthampton
p334
aVUEL
p335
aV4(1)
p336
aV369
p337
aV-
aV1
aV-
aV-
aV0.8
p338
aV64.1
p339
aV2.2
p340
aV-
aV6.48
p341
aa(lp342
V2015/2016
p343
aVSouthampton
p344
aVEPL
p345
aV23(5)
p346
aV2111
p347
aV10
p348
aV4
aV2
aV-
aV2.3
p349
aV66.4
p350
aV2.9
p351
aV1
aV7.02
p352
aa(lp353
V2014/2015
p354
aVSouthampton
p355
aVEPL
p356
aV16(16)
p357
aV1542
p358
aV5
aV5
aV2
aV-
aV1.2
p359
aV67.3
p360
aV1.5
p361
aV1
aV6.69
p362
aa(lp363
V2016
p364
aVIreland
p365
aVUEC
p366
aV4
aV349
p367
aV-
aV-
aV2
aV-
aV0.3
p368
aV56.3
p369
aV3.8
p370
aV-
aV6.37
p371
aa(lp372
V2013/2014
p373
aVHull
p374
aVEPL
p375
aV15
p376
aV1208
p377
aV4
aV1
aV-
aV-
aV1.8
p378
aV65.1
p379
aV2.9
p380
aV1
aV6.86
p381
aa(lp382
V2013/2014
p383
aVWest Bromwich..
p384
aVEPL
p385
aV11(4)
p386
aV1039
p387
aV3
aV1
aV2
aV-
aV1.7
p388
aV63.6
p389
aV2.9
p390
aV2
aV6.68
p391
aa(lp392
V2012/2013
p393
aVWest Bromwich..
p394
aVEPL
p395
aV25(9)
p396
aV2168
p397
aV8
aV4
aV3
aV-
aV1.4
p398
aV69.7
p399
aV1.8
p400
aV1
aV6.75
p401
aa(lp402
V2012
p403
aVIreland
p404
aVUEC
p405
aV0(2)
p406
aV41
p407
aV-
aV-
aV-
aV-
aV0.5
p408
aV87.5
p409
aV0.5
p410
aV-
aV6.13
p411
aa(lp412
V2011/2012
p413
aVWest Bromwich..
p414
aVEPL
p415
aV24(8)
p416
aV2186
p417
aV8
aV1
aV2
aV-
aV1.2
p418
aV70.2
p419
aV2.3
p420
aV2
aV6.66
p421
aa(lp422
VTotal / Average
p423
aV
aV
aV241
p424
aV14447
p425
aV43
p426
aV20
p427
aV23
p428
aV0
aV1.4
p429
aV67.7
p430
aV2.2
p431
aV8
aV6.66
p432
aasS'sumary_data'
p433
(lp434
(lp435
a(lp436
V2018/2019
p437
aVSouthampton
p438
aVEPL
p439
aV5(5)
p440
aV488
p441
aV-
aV1
aV1
aV-
aV1
aV67.7
p442
aV2.6
p443
aV-
aV6.46
p444
aa(lp445
V2018/2019
p446
aVIreland
p447
aVUNL
p448
aV1(1)
p449
aV117
p450
aV-
aV-
aV1
aV-
aV-
aV53.3
p451
aV3.5
p452
aV-
aV6.38
p453
aa(lp454
V2017/2018
p455
aVSouthampton
p456
aVEPL
p457
aV15(15)
p458
aV1580
p459
aV2
aV1
aV6
aV-
aV1.1
p460
aV66.8
p461
aV2.6
p462
aV-
aV6.53
p463
aa(lp464
V2016/2017
p465
aVSouthampton
p466
aVEPL
p467
aV10(22)
p468
aV1249
p469
aV3
aV1
aV2
aV-
aV1.3
p470
aV69.9
p471
aV1.4
p472
aV-
aV6.40
p473
aa(lp474
V2016/2017
p475
aVSouthampton
p476
aVUEL
p477
aV4(1)
p478
aV369
p479
aV-
aV1
aV-
aV-
aV0.8
p480
aV64.1
p481
aV2.2
p482
aV-
aV6.48
p483
aa(lp484
V2015/2016
p485
aVSouthampton
p486
aVEPL
p487
aV23(5)
p488
aV2111
p489
aV10
p490
aV4
aV2
aV-
aV2.3
p491
aV66.4
p492
aV2.9
p493
aV1
aV7.02
p494
aa(lp495
V2014/2015
p496
aVSouthampton
p497
aVEPL
p498
aV16(16)
p499
aV1542
p500
aV5
aV5
aV2
aV-
aV1.2
p501
aV67.3
p502
aV1.5
p503
aV1
aV6.69
p504
aa(lp505
V2016
p506
aVIreland
p507
aVUEC
p508
aV4
aV349
p509
aV-
aV-
aV2
aV-
aV0.3
p510
aV56.3
p511
aV3.8
p512
aV-
aV6.37
p513
aa(lp514
V2013/2014
p515
aVHull
p516
aVEPL
p517
aV15
p518
aV1208
p519
aV4
aV1
aV-
aV-
aV1.8
p520
aV65.1
p521
aV2.9
p522
aV1
aV6.86
p523
aa(lp524
V2013/2014
p525
aVWest Bromwich..
p526
aVEPL
p527
aV11(4)
p528
aV1039
p529
aV3
aV1
aV2
aV-
aV1.7
p530
aV63.6
p531
aV2.9
p532
aV2
aV6.68
p533
aa(lp534
V2012/2013
p535
aVWest Bromwich..
p536
aVEPL
p537
aV25(9)
p538
aV2168
p539
aV8
aV4
aV3
aV-
aV1.4
p540
aV69.7
p541
aV1.8
p542
aV1
aV6.75
p543
aa(lp544
V2012
p545
aVIreland
p546
aVUEC
p547
aV0(2)
p548
aV41
p549
aV-
aV-
aV-
aV-
aV0.5
p550
aV87.5
p551
aV0.5
p552
aV-
aV6.13
p553
aa(lp554
V2011/2012
p555
aVWest Bromwich..
p556
aVEPL
p557
aV24(8)
p558
aV2186
p559
aV8
aV1
aV2
aV-
aV1.2
p560
aV70.2
p561
aV2.3
p562
aV2
aV6.66
p563
aa(lp564
VTotal / Average
p565
aV
aV
aV241
p566
aV14447
p567
aV43
p568
aV20
p569
aV23
p570
aV0
aV1.4
p571
aV67.7
p572
aV2.2
p573
aV8
aV6.66
p574
aasS'id'
p575
V13798
p576
sb.