(i__main__
Player
p1
(dp2
S'name'
p3
VTheo Walcott 
p4
sS'offensive_data'
p5
(lp6
(lp7
a(lp8
V2018/2019
p9
aVEverton
p10
aVEPL
p11
aV15(2)
p12
aV1241
p13
aV2
aV2
aV-
aV-
aV1.4
p14
aV75.2
p15
aV0.4
p16
aV-
aV6.61
p17
aa(lp18
V2017/2018
p19
aVArsenal
p20
aVUEL
p21
aV5
aV423
p22
aV3
aV2
aV-
aV-
aV4.2
p23
aV81.1
p24
aV0.4
p25
aV2
aV7.97
p26
aa(lp27
V2017/2018
p28
aVEverton
p29
aVEPL
p30
aV13(1)
p31
aV1153
p32
aV3
aV3
aV2
aV-
aV1.4
p33
aV75.9
p34
aV0.5
p35
aV4
aV7.13
p36
aa(lp37
V2017/2018
p38
aVArsenal
p39
aVEPL
p40
aV0(6)
p41
aV64
p42
aV-
aV-
aV-
aV-
aV-
aV73.7
p43
aV-
aV-
aV6.09
p44
aa(lp45
V2016/2017
p46
aVArsenal
p47
aVUCL
p48
aV3(3)
p49
aV272
p50
aV4
aV-
aV1
aV-
aV2.3
p51
aV76.3
p52
aV0.3
p53
aV-
aV7.22
p54
aa(lp55
V2016/2017
p56
aVArsenal
p57
aVEPL
p58
aV23(5)
p59
aV1925
p60
aV10
p61
aV2
aV1
aV-
aV2.2
p62
aV75.3
p63
aV0.8
p64
aV1
aV6.99
p65
aa(lp66
V2015/2016
p67
aVArsenal
p68
aVUCL
p69
aV3(3)
p70
aV319
p71
aV2
aV1
aV-
aV-
aV2.8
p72
aV73.6
p73
aV0.2
p74
aV-
aV6.91
p75
aa(lp76
V2015/2016
p77
aVArsenal
p78
aVEPL
p79
aV15(13)
p80
aV1375
p81
aV5
aV2
aV-
aV-
aV1.6
p82
aV79.7
p83
aV0.2
p84
aV1
aV6.58
p85
aa(lp86
V2014/2015
p87
aVArsenal
p88
aVUCL
p89
aV0(2)
p90
aV49
p91
aV-
aV-
aV-
aV-
aV1
aV66.7
p92
aV-
aV-
aV6.22
p93
aa(lp94
V2014/2015
p95
aVArsenal
p96
aVEPL
p97
aV4(10)
p98
aV442
p99
aV5
aV-
aV-
aV-
aV1.6
p100
aV87.4
p101
aV0.1
p102
aV1
aV6.61
p103
aa(lp104
V2013/2014
p105
aVArsenal
p106
aVUCL
p107
aV1(1)
p108
aV94
p109
aV1
aV-
aV-
aV-
aV2
aV85.7
p110
aV-
aV-
aV6.96
p111
aa(lp112
V2013/2014
p113
aVArsenal
p114
aVEPL
p115
aV9(4)
p116
aV859
p117
aV5
aV4
aV1
aV-
aV2.5
p118
aV81.4
p119
aV0.3
p120
aV2
aV7.11
p121
aa(lp122
V2012/2013
p123
aVArsenal
p124
aVUCL
p125
aV3(2)
p126
aV273
p127
aV1
aV1
aV-
aV-
aV0.8
p128
aV77.8
p129
aV-
aV-
aV6.54
p130
aa(lp131
V2012/2013
p132
aVArsenal
p133
aVEPL
p134
aV24(8)
p135
aV2286
p136
aV14
p137
aV10
p138
aV3
aV-
aV2.7
p139
aV83.1
p140
aV0.2
p141
aV1
aV7.24
p142
aa(lp143
V2012
p144
aVEngland
p145
aVUEC
p146
aV0(4)
p147
aV109
p148
aV1
aV1
aV-
aV-
aV0.3
p149
aV94.1
p150
aV-
aV-
aV6.59
p151
aa(lp152
V2011/2012
p153
aVArsenal
p154
aVUCL
p155
aV6
aV449
p156
aV-
aV1
aV1
aV-
aV1.2
p157
aV76.1
p158
aV0.3
p159
aV-
aV6.64
p160
aa(lp161
V2011/2012
p162
aVArsenal
p163
aVEPL
p164
aV32(3)
p165
aV2749
p166
aV8
aV8
aV1
aV-
aV2.2
p167
aV79.3
p168
aV0.3
p169
aV-
aV6.86
p170
aa(lp171
V2010/2011
p172
aVArsenal
p173
aVUCL
p174
aV3(2)
p175
aV277
p176
aV2
aV-
aV-
aV-
aV2
aV77.3
p177
aV-
aV-
aV6.84
p178
aa(lp179
V2010/2011
p180
aVArsenal
p181
aVEPL
p182
aV19(9)
p183
aV1696
p184
aV9
aV7
aV-
aV-
aV2.4
p185
aV82.9
p186
aV0.1
p187
aV2
aV6.92
p188
aa(lp189
V2009/2010
p190
aVArsenal
p191
aVUCL
p192
aV2(3)
p193
aV248
p194
aV1
aV-
aV-
aV-
aV1.6
p195
aV72.5
p196
aV-
aV-
aV6.39
p197
aa(lp198
V2009/2010
p199
aVArsenal
p200
aVEPL
p201
aV12(11)
p202
aV1132
p203
aV3
aV2
aV-
aV-
aV1.5
p204
aV83
p205
aV0.2
p206
aV-
aV6.75
p207
aa(lp208
VTotal / Average
p209
aV
aV
aV284
p210
aV17435
p211
aV79
p212
aV46
p213
aV10
p214
aV0
aV2
aV79.7
p215
aV0.3
p216
aV14
p217
aV6.87
p218
aasS'url'
p219
S'https://www.whoscored.com/Players/13796/History/'
p220
sS'passing_data'
p221
(lp222
(lp223
a(lp224
V2018/2019
p225
aVEverton
p226
aVEPL
p227
aV15(2)
p228
aV1241
p229
aV2
aV2
aV-
aV-
aV1.4
p230
aV75.2
p231
aV0.4
p232
aV-
aV6.61
p233
aa(lp234
V2017/2018
p235
aVArsenal
p236
aVUEL
p237
aV5
aV423
p238
aV3
aV2
aV-
aV-
aV4.2
p239
aV81.1
p240
aV0.4
p241
aV2
aV7.97
p242
aa(lp243
V2017/2018
p244
aVEverton
p245
aVEPL
p246
aV13(1)
p247
aV1153
p248
aV3
aV3
aV2
aV-
aV1.4
p249
aV75.9
p250
aV0.5
p251
aV4
aV7.13
p252
aa(lp253
V2017/2018
p254
aVArsenal
p255
aVEPL
p256
aV0(6)
p257
aV64
p258
aV-
aV-
aV-
aV-
aV-
aV73.7
p259
aV-
aV-
aV6.09
p260
aa(lp261
V2016/2017
p262
aVArsenal
p263
aVUCL
p264
aV3(3)
p265
aV272
p266
aV4
aV-
aV1
aV-
aV2.3
p267
aV76.3
p268
aV0.3
p269
aV-
aV7.22
p270
aa(lp271
V2016/2017
p272
aVArsenal
p273
aVEPL
p274
aV23(5)
p275
aV1925
p276
aV10
p277
aV2
aV1
aV-
aV2.2
p278
aV75.3
p279
aV0.8
p280
aV1
aV6.99
p281
aa(lp282
V2015/2016
p283
aVArsenal
p284
aVUCL
p285
aV3(3)
p286
aV319
p287
aV2
aV1
aV-
aV-
aV2.8
p288
aV73.6
p289
aV0.2
p290
aV-
aV6.91
p291
aa(lp292
V2015/2016
p293
aVArsenal
p294
aVEPL
p295
aV15(13)
p296
aV1375
p297
aV5
aV2
aV-
aV-
aV1.6
p298
aV79.7
p299
aV0.2
p300
aV1
aV6.58
p301
aa(lp302
V2014/2015
p303
aVArsenal
p304
aVUCL
p305
aV0(2)
p306
aV49
p307
aV-
aV-
aV-
aV-
aV1
aV66.7
p308
aV-
aV-
aV6.22
p309
aa(lp310
V2014/2015
p311
aVArsenal
p312
aVEPL
p313
aV4(10)
p314
aV442
p315
aV5
aV-
aV-
aV-
aV1.6
p316
aV87.4
p317
aV0.1
p318
aV1
aV6.61
p319
aa(lp320
V2013/2014
p321
aVArsenal
p322
aVUCL
p323
aV1(1)
p324
aV94
p325
aV1
aV-
aV-
aV-
aV2
aV85.7
p326
aV-
aV-
aV6.96
p327
aa(lp328
V2013/2014
p329
aVArsenal
p330
aVEPL
p331
aV9(4)
p332
aV859
p333
aV5
aV4
aV1
aV-
aV2.5
p334
aV81.4
p335
aV0.3
p336
aV2
aV7.11
p337
aa(lp338
V2012/2013
p339
aVArsenal
p340
aVUCL
p341
aV3(2)
p342
aV273
p343
aV1
aV1
aV-
aV-
aV0.8
p344
aV77.8
p345
aV-
aV-
aV6.54
p346
aa(lp347
V2012/2013
p348
aVArsenal
p349
aVEPL
p350
aV24(8)
p351
aV2286
p352
aV14
p353
aV10
p354
aV3
aV-
aV2.7
p355
aV83.1
p356
aV0.2
p357
aV1
aV7.24
p358
aa(lp359
V2012
p360
aVEngland
p361
aVUEC
p362
aV0(4)
p363
aV109
p364
aV1
aV1
aV-
aV-
aV0.3
p365
aV94.1
p366
aV-
aV-
aV6.59
p367
aa(lp368
V2011/2012
p369
aVArsenal
p370
aVUCL
p371
aV6
aV449
p372
aV-
aV1
aV1
aV-
aV1.2
p373
aV76.1
p374
aV0.3
p375
aV-
aV6.64
p376
aa(lp377
V2011/2012
p378
aVArsenal
p379
aVEPL
p380
aV32(3)
p381
aV2749
p382
aV8
aV8
aV1
aV-
aV2.2
p383
aV79.3
p384
aV0.3
p385
aV-
aV6.86
p386
aa(lp387
V2010/2011
p388
aVArsenal
p389
aVUCL
p390
aV3(2)
p391
aV277
p392
aV2
aV-
aV-
aV-
aV2
aV77.3
p393
aV-
aV-
aV6.84
p394
aa(lp395
V2010/2011
p396
aVArsenal
p397
aVEPL
p398
aV19(9)
p399
aV1696
p400
aV9
aV7
aV-
aV-
aV2.4
p401
aV82.9
p402
aV0.1
p403
aV2
aV6.92
p404
aa(lp405
V2009/2010
p406
aVArsenal
p407
aVUCL
p408
aV2(3)
p409
aV248
p410
aV1
aV-
aV-
aV-
aV1.6
p411
aV72.5
p412
aV-
aV-
aV6.39
p413
aa(lp414
V2009/2010
p415
aVArsenal
p416
aVEPL
p417
aV12(11)
p418
aV1132
p419
aV3
aV2
aV-
aV-
aV1.5
p420
aV83
p421
aV0.2
p422
aV-
aV6.75
p423
aa(lp424
VTotal / Average
p425
aV
aV
aV284
p426
aV17435
p427
aV79
p428
aV46
p429
aV10
p430
aV0
aV2
aV79.7
p431
aV0.3
p432
aV14
p433
aV6.87
p434
aasS'defensive_data'
p435
(lp436
(lp437
a(lp438
V2018/2019
p439
aVEverton
p440
aVEPL
p441
aV15(2)
p442
aV1241
p443
aV2
aV2
aV-
aV-
aV1.4
p444
aV75.2
p445
aV0.4
p446
aV-
aV6.61
p447
aa(lp448
V2017/2018
p449
aVArsenal
p450
aVUEL
p451
aV5
aV423
p452
aV3
aV2
aV-
aV-
aV4.2
p453
aV81.1
p454
aV0.4
p455
aV2
aV7.97
p456
aa(lp457
V2017/2018
p458
aVEverton
p459
aVEPL
p460
aV13(1)
p461
aV1153
p462
aV3
aV3
aV2
aV-
aV1.4
p463
aV75.9
p464
aV0.5
p465
aV4
aV7.13
p466
aa(lp467
V2017/2018
p468
aVArsenal
p469
aVEPL
p470
aV0(6)
p471
aV64
p472
aV-
aV-
aV-
aV-
aV-
aV73.7
p473
aV-
aV-
aV6.09
p474
aa(lp475
V2016/2017
p476
aVArsenal
p477
aVUCL
p478
aV3(3)
p479
aV272
p480
aV4
aV-
aV1
aV-
aV2.3
p481
aV76.3
p482
aV0.3
p483
aV-
aV7.22
p484
aa(lp485
V2016/2017
p486
aVArsenal
p487
aVEPL
p488
aV23(5)
p489
aV1925
p490
aV10
p491
aV2
aV1
aV-
aV2.2
p492
aV75.3
p493
aV0.8
p494
aV1
aV6.99
p495
aa(lp496
V2015/2016
p497
aVArsenal
p498
aVUCL
p499
aV3(3)
p500
aV319
p501
aV2
aV1
aV-
aV-
aV2.8
p502
aV73.6
p503
aV0.2
p504
aV-
aV6.91
p505
aa(lp506
V2015/2016
p507
aVArsenal
p508
aVEPL
p509
aV15(13)
p510
aV1375
p511
aV5
aV2
aV-
aV-
aV1.6
p512
aV79.7
p513
aV0.2
p514
aV1
aV6.58
p515
aa(lp516
V2014/2015
p517
aVArsenal
p518
aVUCL
p519
aV0(2)
p520
aV49
p521
aV-
aV-
aV-
aV-
aV1
aV66.7
p522
aV-
aV-
aV6.22
p523
aa(lp524
V2014/2015
p525
aVArsenal
p526
aVEPL
p527
aV4(10)
p528
aV442
p529
aV5
aV-
aV-
aV-
aV1.6
p530
aV87.4
p531
aV0.1
p532
aV1
aV6.61
p533
aa(lp534
V2013/2014
p535
aVArsenal
p536
aVUCL
p537
aV1(1)
p538
aV94
p539
aV1
aV-
aV-
aV-
aV2
aV85.7
p540
aV-
aV-
aV6.96
p541
aa(lp542
V2013/2014
p543
aVArsenal
p544
aVEPL
p545
aV9(4)
p546
aV859
p547
aV5
aV4
aV1
aV-
aV2.5
p548
aV81.4
p549
aV0.3
p550
aV2
aV7.11
p551
aa(lp552
V2012/2013
p553
aVArsenal
p554
aVUCL
p555
aV3(2)
p556
aV273
p557
aV1
aV1
aV-
aV-
aV0.8
p558
aV77.8
p559
aV-
aV-
aV6.54
p560
aa(lp561
V2012/2013
p562
aVArsenal
p563
aVEPL
p564
aV24(8)
p565
aV2286
p566
aV14
p567
aV10
p568
aV3
aV-
aV2.7
p569
aV83.1
p570
aV0.2
p571
aV1
aV7.24
p572
aa(lp573
V2012
p574
aVEngland
p575
aVUEC
p576
aV0(4)
p577
aV109
p578
aV1
aV1
aV-
aV-
aV0.3
p579
aV94.1
p580
aV-
aV-
aV6.59
p581
aa(lp582
V2011/2012
p583
aVArsenal
p584
aVUCL
p585
aV6
aV449
p586
aV-
aV1
aV1
aV-
aV1.2
p587
aV76.1
p588
aV0.3
p589
aV-
aV6.64
p590
aa(lp591
V2011/2012
p592
aVArsenal
p593
aVEPL
p594
aV32(3)
p595
aV2749
p596
aV8
aV8
aV1
aV-
aV2.2
p597
aV79.3
p598
aV0.3
p599
aV-
aV6.86
p600
aa(lp601
V2010/2011
p602
aVArsenal
p603
aVUCL
p604
aV3(2)
p605
aV277
p606
aV2
aV-
aV-
aV-
aV2
aV77.3
p607
aV-
aV-
aV6.84
p608
aa(lp609
V2010/2011
p610
aVArsenal
p611
aVEPL
p612
aV19(9)
p613
aV1696
p614
aV9
aV7
aV-
aV-
aV2.4
p615
aV82.9
p616
aV0.1
p617
aV2
aV6.92
p618
aa(lp619
V2009/2010
p620
aVArsenal
p621
aVUCL
p622
aV2(3)
p623
aV248
p624
aV1
aV-
aV-
aV-
aV1.6
p625
aV72.5
p626
aV-
aV-
aV6.39
p627
aa(lp628
V2009/2010
p629
aVArsenal
p630
aVEPL
p631
aV12(11)
p632
aV1132
p633
aV3
aV2
aV-
aV-
aV1.5
p634
aV83
p635
aV0.2
p636
aV-
aV6.75
p637
aa(lp638
VTotal / Average
p639
aV
aV
aV284
p640
aV17435
p641
aV79
p642
aV46
p643
aV10
p644
aV0
aV2
aV79.7
p645
aV0.3
p646
aV14
p647
aV6.87
p648
aasS'sumary_data'
p649
(lp650
(lp651
a(lp652
V2018/2019
p653
aVEverton
p654
aVEPL
p655
aV15(2)
p656
aV1241
p657
aV2
aV2
aV-
aV-
aV1.4
p658
aV75.2
p659
aV0.4
p660
aV-
aV6.61
p661
aa(lp662
V2017/2018
p663
aVArsenal
p664
aVUEL
p665
aV5
aV423
p666
aV3
aV2
aV-
aV-
aV4.2
p667
aV81.1
p668
aV0.4
p669
aV2
aV7.97
p670
aa(lp671
V2017/2018
p672
aVEverton
p673
aVEPL
p674
aV13(1)
p675
aV1153
p676
aV3
aV3
aV2
aV-
aV1.4
p677
aV75.9
p678
aV0.5
p679
aV4
aV7.13
p680
aa(lp681
V2017/2018
p682
aVArsenal
p683
aVEPL
p684
aV0(6)
p685
aV64
p686
aV-
aV-
aV-
aV-
aV-
aV73.7
p687
aV-
aV-
aV6.09
p688
aa(lp689
V2016/2017
p690
aVArsenal
p691
aVUCL
p692
aV3(3)
p693
aV272
p694
aV4
aV-
aV1
aV-
aV2.3
p695
aV76.3
p696
aV0.3
p697
aV-
aV7.22
p698
aa(lp699
V2016/2017
p700
aVArsenal
p701
aVEPL
p702
aV23(5)
p703
aV1925
p704
aV10
p705
aV2
aV1
aV-
aV2.2
p706
aV75.3
p707
aV0.8
p708
aV1
aV6.99
p709
aa(lp710
V2015/2016
p711
aVArsenal
p712
aVUCL
p713
aV3(3)
p714
aV319
p715
aV2
aV1
aV-
aV-
aV2.8
p716
aV73.6
p717
aV0.2
p718
aV-
aV6.91
p719
aa(lp720
V2015/2016
p721
aVArsenal
p722
aVEPL
p723
aV15(13)
p724
aV1375
p725
aV5
aV2
aV-
aV-
aV1.6
p726
aV79.7
p727
aV0.2
p728
aV1
aV6.58
p729
aa(lp730
V2014/2015
p731
aVArsenal
p732
aVUCL
p733
aV0(2)
p734
aV49
p735
aV-
aV-
aV-
aV-
aV1
aV66.7
p736
aV-
aV-
aV6.22
p737
aa(lp738
V2014/2015
p739
aVArsenal
p740
aVEPL
p741
aV4(10)
p742
aV442
p743
aV5
aV-
aV-
aV-
aV1.6
p744
aV87.4
p745
aV0.1
p746
aV1
aV6.61
p747
aa(lp748
V2013/2014
p749
aVArsenal
p750
aVUCL
p751
aV1(1)
p752
aV94
p753
aV1
aV-
aV-
aV-
aV2
aV85.7
p754
aV-
aV-
aV6.96
p755
aa(lp756
V2013/2014
p757
aVArsenal
p758
aVEPL
p759
aV9(4)
p760
aV859
p761
aV5
aV4
aV1
aV-
aV2.5
p762
aV81.4
p763
aV0.3
p764
aV2
aV7.11
p765
aa(lp766
V2012/2013
p767
aVArsenal
p768
aVUCL
p769
aV3(2)
p770
aV273
p771
aV1
aV1
aV-
aV-
aV0.8
p772
aV77.8
p773
aV-
aV-
aV6.54
p774
aa(lp775
V2012/2013
p776
aVArsenal
p777
aVEPL
p778
aV24(8)
p779
aV2286
p780
aV14
p781
aV10
p782
aV3
aV-
aV2.7
p783
aV83.1
p784
aV0.2
p785
aV1
aV7.24
p786
aa(lp787
V2012
p788
aVEngland
p789
aVUEC
p790
aV0(4)
p791
aV109
p792
aV1
aV1
aV-
aV-
aV0.3
p793
aV94.1
p794
aV-
aV-
aV6.59
p795
aa(lp796
V2011/2012
p797
aVArsenal
p798
aVUCL
p799
aV6
aV449
p800
aV-
aV1
aV1
aV-
aV1.2
p801
aV76.1
p802
aV0.3
p803
aV-
aV6.64
p804
aa(lp805
V2011/2012
p806
aVArsenal
p807
aVEPL
p808
aV32(3)
p809
aV2749
p810
aV8
aV8
aV1
aV-
aV2.2
p811
aV79.3
p812
aV0.3
p813
aV-
aV6.86
p814
aa(lp815
V2010/2011
p816
aVArsenal
p817
aVUCL
p818
aV3(2)
p819
aV277
p820
aV2
aV-
aV-
aV-
aV2
aV77.3
p821
aV-
aV-
aV6.84
p822
aa(lp823
V2010/2011
p824
aVArsenal
p825
aVEPL
p826
aV19(9)
p827
aV1696
p828
aV9
aV7
aV-
aV-
aV2.4
p829
aV82.9
p830
aV0.1
p831
aV2
aV6.92
p832
aa(lp833
V2009/2010
p834
aVArsenal
p835
aVUCL
p836
aV2(3)
p837
aV248
p838
aV1
aV-
aV-
aV-
aV1.6
p839
aV72.5
p840
aV-
aV-
aV6.39
p841
aa(lp842
V2009/2010
p843
aVArsenal
p844
aVEPL
p845
aV12(11)
p846
aV1132
p847
aV3
aV2
aV-
aV-
aV1.5
p848
aV83
p849
aV0.2
p850
aV-
aV6.75
p851
aa(lp852
VTotal / Average
p853
aV
aV
aV284
p854
aV17435
p855
aV79
p856
aV46
p857
aV10
p858
aV0
aV2
aV79.7
p859
aV0.3
p860
aV14
p861
aV6.87
p862
aasS'id'
p863
V13796
p864
sb.