(i__main__
Player
p1
(dp2
S'name'
p3
VAdrian Mariappa 
p4
sS'offensive_data'
p5
(lp6
(lp7
a(lp8
V2018/2019
p9
aVWatford
p10
aVEPL
p11
aV6(3)
p12
aV577
p13
aV-
aV-
aV-
aV-
aV0.2
p14
aV80
p15
aV1.9
p16
aV-
aV6.50
p17
aa(lp18
V2017/2018
p19
aVWatford
p20
aVEPL
p21
aV24(4)
p22
aV2209
p23
aV-
aV-
aV4
aV-
aV0.4
p24
aV77
p25
aV3.2
p26
aV-
aV6.65
p27
aa(lp28
V2016/2017
p29
aVWatford
p30
aVEPL
p31
aV6(1)
p32
aV561
p33
aV-
aV-
aV-
aV-
aV0.3
p34
aV82.4
p35
aV3.4
p36
aV-
aV6.85
p37
aa(lp38
V2015/2016
p39
aVCrystal Palac..
p40
aVEPL
p41
aV3
aV256
p42
aV-
aV-
aV-
aV-
aV-
aV78.6
p43
aV2
aV-
aV6.50
p44
aa(lp45
V2015
p46
aVJamaica
p47
aVICA
p48
aV3
aV270
p49
aV-
aV-
aV-
aV-
aV-
aV65.9
p50
aV1.3
p51
aV-
aV6.37
p52
aa(lp53
V2014/2015
p54
aVCrystal Palac..
p55
aVEPL
p56
aV8(4)
p57
aV840
p58
aV-
aV-
aV3
aV-
aV-
aV69.6
p59
aV1.6
p60
aV-
aV6.55
p61
aa(lp62
V2013/2014
p63
aVCrystal Palac..
p64
aVEPL
p65
aV23(1)
p66
aV2113
p67
aV1
aV1
aV6
aV-
aV0.2
p68
aV74.5
p69
aV2.2
p70
aV-
aV7.00
p71
aa(lp72
V2012/2013
p73
aVReading
p74
aVEPL
p75
aV29
p76
aV2610
p77
aV1
aV-
aV5
aV-
aV0.4
p78
aV73.4
p79
aV2.9
p80
aV1
aV6.98
p81
aa(lp82
VTotal / Average
p83
aV
aV
aV115
p84
aV9436
p85
aV2
aV1
aV18
p86
aV0
aV0.3
p87
aV75.1
p88
aV2.6
p89
aV1
aV6.78
p90
aasS'url'
p91
S'https://www.whoscored.com/Players/13805/History/'
p92
sS'passing_data'
p93
(lp94
(lp95
a(lp96
V2018/2019
p97
aVWatford
p98
aVEPL
p99
aV6(3)
p100
aV577
p101
aV-
aV-
aV-
aV-
aV0.2
p102
aV80
p103
aV1.9
p104
aV-
aV6.50
p105
aa(lp106
V2017/2018
p107
aVWatford
p108
aVEPL
p109
aV24(4)
p110
aV2209
p111
aV-
aV-
aV4
aV-
aV0.4
p112
aV77
p113
aV3.2
p114
aV-
aV6.65
p115
aa(lp116
V2016/2017
p117
aVWatford
p118
aVEPL
p119
aV6(1)
p120
aV561
p121
aV-
aV-
aV-
aV-
aV0.3
p122
aV82.4
p123
aV3.4
p124
aV-
aV6.85
p125
aa(lp126
V2015/2016
p127
aVCrystal Palac..
p128
aVEPL
p129
aV3
aV256
p130
aV-
aV-
aV-
aV-
aV-
aV78.6
p131
aV2
aV-
aV6.50
p132
aa(lp133
V2015
p134
aVJamaica
p135
aVICA
p136
aV3
aV270
p137
aV-
aV-
aV-
aV-
aV-
aV65.9
p138
aV1.3
p139
aV-
aV6.37
p140
aa(lp141
V2014/2015
p142
aVCrystal Palac..
p143
aVEPL
p144
aV8(4)
p145
aV840
p146
aV-
aV-
aV3
aV-
aV-
aV69.6
p147
aV1.6
p148
aV-
aV6.55
p149
aa(lp150
V2013/2014
p151
aVCrystal Palac..
p152
aVEPL
p153
aV23(1)
p154
aV2113
p155
aV1
aV1
aV6
aV-
aV0.2
p156
aV74.5
p157
aV2.2
p158
aV-
aV7.00
p159
aa(lp160
V2012/2013
p161
aVReading
p162
aVEPL
p163
aV29
p164
aV2610
p165
aV1
aV-
aV5
aV-
aV0.4
p166
aV73.4
p167
aV2.9
p168
aV1
aV6.98
p169
aa(lp170
VTotal / Average
p171
aV
aV
aV115
p172
aV9436
p173
aV2
aV1
aV18
p174
aV0
aV0.3
p175
aV75.1
p176
aV2.6
p177
aV1
aV6.78
p178
aasS'defensive_data'
p179
(lp180
(lp181
a(lp182
V2018/2019
p183
aVWatford
p184
aVEPL
p185
aV6(3)
p186
aV577
p187
aV-
aV-
aV-
aV-
aV0.2
p188
aV80
p189
aV1.9
p190
aV-
aV6.50
p191
aa(lp192
V2017/2018
p193
aVWatford
p194
aVEPL
p195
aV24(4)
p196
aV2209
p197
aV-
aV-
aV4
aV-
aV0.4
p198
aV77
p199
aV3.2
p200
aV-
aV6.65
p201
aa(lp202
V2016/2017
p203
aVWatford
p204
aVEPL
p205
aV6(1)
p206
aV561
p207
aV-
aV-
aV-
aV-
aV0.3
p208
aV82.4
p209
aV3.4
p210
aV-
aV6.85
p211
aa(lp212
V2015/2016
p213
aVCrystal Palac..
p214
aVEPL
p215
aV3
aV256
p216
aV-
aV-
aV-
aV-
aV-
aV78.6
p217
aV2
aV-
aV6.50
p218
aa(lp219
V2015
p220
aVJamaica
p221
aVICA
p222
aV3
aV270
p223
aV-
aV-
aV-
aV-
aV-
aV65.9
p224
aV1.3
p225
aV-
aV6.37
p226
aa(lp227
V2014/2015
p228
aVCrystal Palac..
p229
aVEPL
p230
aV8(4)
p231
aV840
p232
aV-
aV-
aV3
aV-
aV-
aV69.6
p233
aV1.6
p234
aV-
aV6.55
p235
aa(lp236
V2013/2014
p237
aVCrystal Palac..
p238
aVEPL
p239
aV23(1)
p240
aV2113
p241
aV1
aV1
aV6
aV-
aV0.2
p242
aV74.5
p243
aV2.2
p244
aV-
aV7.00
p245
aa(lp246
V2012/2013
p247
aVReading
p248
aVEPL
p249
aV29
p250
aV2610
p251
aV1
aV-
aV5
aV-
aV0.4
p252
aV73.4
p253
aV2.9
p254
aV1
aV6.98
p255
aa(lp256
VTotal / Average
p257
aV
aV
aV115
p258
aV9436
p259
aV2
aV1
aV18
p260
aV0
aV0.3
p261
aV75.1
p262
aV2.6
p263
aV1
aV6.78
p264
aasS'sumary_data'
p265
(lp266
(lp267
a(lp268
V2018/2019
p269
aVWatford
p270
aVEPL
p271
aV6(3)
p272
aV577
p273
aV-
aV-
aV-
aV-
aV0.2
p274
aV80
p275
aV1.9
p276
aV-
aV6.50
p277
aa(lp278
V2017/2018
p279
aVWatford
p280
aVEPL
p281
aV24(4)
p282
aV2209
p283
aV-
aV-
aV4
aV-
aV0.4
p284
aV77
p285
aV3.2
p286
aV-
aV6.65
p287
aa(lp288
V2016/2017
p289
aVWatford
p290
aVEPL
p291
aV6(1)
p292
aV561
p293
aV-
aV-
aV-
aV-
aV0.3
p294
aV82.4
p295
aV3.4
p296
aV-
aV6.85
p297
aa(lp298
V2015/2016
p299
aVCrystal Palac..
p300
aVEPL
p301
aV3
aV256
p302
aV-
aV-
aV-
aV-
aV-
aV78.6
p303
aV2
aV-
aV6.50
p304
aa(lp305
V2015
p306
aVJamaica
p307
aVICA
p308
aV3
aV270
p309
aV-
aV-
aV-
aV-
aV-
aV65.9
p310
aV1.3
p311
aV-
aV6.37
p312
aa(lp313
V2014/2015
p314
aVCrystal Palac..
p315
aVEPL
p316
aV8(4)
p317
aV840
p318
aV-
aV-
aV3
aV-
aV-
aV69.6
p319
aV1.6
p320
aV-
aV6.55
p321
aa(lp322
V2013/2014
p323
aVCrystal Palac..
p324
aVEPL
p325
aV23(1)
p326
aV2113
p327
aV1
aV1
aV6
aV-
aV0.2
p328
aV74.5
p329
aV2.2
p330
aV-
aV7.00
p331
aa(lp332
V2012/2013
p333
aVReading
p334
aVEPL
p335
aV29
p336
aV2610
p337
aV1
aV-
aV5
aV-
aV0.4
p338
aV73.4
p339
aV2.9
p340
aV1
aV6.98
p341
aa(lp342
VTotal / Average
p343
aV
aV
aV115
p344
aV9436
p345
aV2
aV1
aV18
p346
aV0
aV0.3
p347
aV75.1
p348
aV2.6
p349
aV1
aV6.78
p350
aasS'id'
p351
V13805
p352
sb.