(i__main__
Player
p1
(dp2
S'name'
p3
VDan Gosling 
p4
sS'offensive_data'
p5
(lp6
(lp7
a(lp8
V2018/2019
p9
aVBournemouth
p10
aVEPL
p11
aV6(6)
p12
aV657
p13
aV-
aV-
aV3
aV-
aV0.6
p14
aV80.6
p15
aV1.3
p16
aV-
aV6.57
p17
aa(lp18
V2017/2018
p19
aVBournemouth
p20
aVEPL
p21
aV21(7)
p22
aV1944
p23
aV2
aV1
aV8
aV-
aV0.8
p24
aV77.2
p25
aV1.9
p26
aV-
aV6.58
p27
aa(lp28
V2016/2017
p29
aVBournemouth
p30
aVEPL
p31
aV14(13)
p32
aV1358
p33
aV2
aV-
aV6
aV-
aV0.6
p34
aV84.5
p35
aV0.5
p36
aV-
aV6.56
p37
aa(lp38
V2015/2016
p39
aVBournemouth
p40
aVEPL
p41
aV28(6)
p42
aV2445
p43
aV3
aV1
aV6
aV-
aV1.2
p44
aV83.6
p45
aV1.1
p46
aV-
aV6.77
p47
aa(lp48
V2014/2015
p49
aVBournemouth
p50
aVEC
p51
aV1(17)
p52
aV279
p53
aV-
aV2
aV1
aV-
aV0.4
p54
aV90.2
p55
aV0.2
p56
aV-
aV6.30
p57
aa(lp58
V2013/2014
p59
aVBlackpool
p60
aVEC
p61
aV13(1)
p62
aV1159
p63
aV2
aV-
aV3
aV-
aV2
aV79.7
p64
aV0.9
p65
aV1
aV6.96
p66
aa(lp67
V2013/2014
p68
aVNewcastle Uni..
p69
aVEPL
p70
aV4(4)
p71
aV361
p72
aV-
aV-
aV1
aV-
aV0.8
p73
aV84.7
p74
aV0.9
p75
aV-
aV6.56
p76
aa(lp77
V2012/2013
p78
aVNewcastle Uni..
p79
aVUEL
p80
aV1(2)
p81
aV116
p82
aV-
aV-
aV-
aV-
aV0.3
p83
aV90.9
p84
aV0.3
p85
aV-
aV6.53
p86
aa(lp87
V2012/2013
p88
aVNewcastle Uni..
p89
aVEPL
p90
aV0(3)
p91
aV41
p92
aV-
aV-
aV-
aV-
aV0.7
p93
aV86.7
p94
aV-
aV-
aV6.07
p95
aa(lp96
V2011/2012
p97
aVNewcastle Uni..
p98
aVEPL
p99
aV1(11)
p100
aV233
p101
aV1
aV-
aV2
aV1
aV0.5
p102
aV82.5
p103
aV0.1
p104
aV-
aV6.04
p105
aa(lp106
V2010/2011
p107
aVNewcastle Uni..
p108
aVEPL
p109
aV0(1)
p110
aV1
aV-
aV-
aV-
aV-
aV-
aV-
aV-
aV-
aV6.00
p111
aa(lp112
V2009/2010
p113
aVEverton
p114
aVEPL
p115
aV3(8)
p116
aV342
p117
aV2
aV-
aV-
aV-
aV0.8
p118
aV74.5
p119
aV0.3
p120
aV-
aV6.58
p121
aa(lp122
VTotal / Average
p123
aV
aV
aV171
p124
aV8936
p125
aV12
p126
aV4
aV30
p127
aV1
aV0.8
p128
aV81.9
p129
aV0.9
p130
aV1
aV6.56
p131
aasS'url'
p132
S'https://www.whoscored.com/Players/13846/History/'
p133
sS'passing_data'
p134
(lp135
(lp136
a(lp137
V2018/2019
p138
aVBournemouth
p139
aVEPL
p140
aV6(6)
p141
aV657
p142
aV-
aV-
aV3
aV-
aV0.6
p143
aV80.6
p144
aV1.3
p145
aV-
aV6.57
p146
aa(lp147
V2017/2018
p148
aVBournemouth
p149
aVEPL
p150
aV21(7)
p151
aV1944
p152
aV2
aV1
aV8
aV-
aV0.8
p153
aV77.2
p154
aV1.9
p155
aV-
aV6.58
p156
aa(lp157
V2016/2017
p158
aVBournemouth
p159
aVEPL
p160
aV14(13)
p161
aV1358
p162
aV2
aV-
aV6
aV-
aV0.6
p163
aV84.5
p164
aV0.5
p165
aV-
aV6.56
p166
aa(lp167
V2015/2016
p168
aVBournemouth
p169
aVEPL
p170
aV28(6)
p171
aV2445
p172
aV3
aV1
aV6
aV-
aV1.2
p173
aV83.6
p174
aV1.1
p175
aV-
aV6.77
p176
aa(lp177
V2014/2015
p178
aVBournemouth
p179
aVEC
p180
aV1(17)
p181
aV279
p182
aV-
aV2
aV1
aV-
aV0.4
p183
aV90.2
p184
aV0.2
p185
aV-
aV6.30
p186
aa(lp187
V2013/2014
p188
aVBlackpool
p189
aVEC
p190
aV13(1)
p191
aV1159
p192
aV2
aV-
aV3
aV-
aV2
aV79.7
p193
aV0.9
p194
aV1
aV6.96
p195
aa(lp196
V2013/2014
p197
aVNewcastle Uni..
p198
aVEPL
p199
aV4(4)
p200
aV361
p201
aV-
aV-
aV1
aV-
aV0.8
p202
aV84.7
p203
aV0.9
p204
aV-
aV6.56
p205
aa(lp206
V2012/2013
p207
aVNewcastle Uni..
p208
aVUEL
p209
aV1(2)
p210
aV116
p211
aV-
aV-
aV-
aV-
aV0.3
p212
aV90.9
p213
aV0.3
p214
aV-
aV6.53
p215
aa(lp216
V2012/2013
p217
aVNewcastle Uni..
p218
aVEPL
p219
aV0(3)
p220
aV41
p221
aV-
aV-
aV-
aV-
aV0.7
p222
aV86.7
p223
aV-
aV-
aV6.07
p224
aa(lp225
V2011/2012
p226
aVNewcastle Uni..
p227
aVEPL
p228
aV1(11)
p229
aV233
p230
aV1
aV-
aV2
aV1
aV0.5
p231
aV82.5
p232
aV0.1
p233
aV-
aV6.04
p234
aa(lp235
V2010/2011
p236
aVNewcastle Uni..
p237
aVEPL
p238
aV0(1)
p239
aV1
aV-
aV-
aV-
aV-
aV-
aV-
aV-
aV-
aV6.00
p240
aa(lp241
V2009/2010
p242
aVEverton
p243
aVEPL
p244
aV3(8)
p245
aV342
p246
aV2
aV-
aV-
aV-
aV0.8
p247
aV74.5
p248
aV0.3
p249
aV-
aV6.58
p250
aa(lp251
VTotal / Average
p252
aV
aV
aV171
p253
aV8936
p254
aV12
p255
aV4
aV30
p256
aV1
aV0.8
p257
aV81.9
p258
aV0.9
p259
aV1
aV6.56
p260
aasS'defensive_data'
p261
(lp262
(lp263
a(lp264
V2018/2019
p265
aVBournemouth
p266
aVEPL
p267
aV6(6)
p268
aV657
p269
aV-
aV-
aV3
aV-
aV0.6
p270
aV80.6
p271
aV1.3
p272
aV-
aV6.57
p273
aa(lp274
V2017/2018
p275
aVBournemouth
p276
aVEPL
p277
aV21(7)
p278
aV1944
p279
aV2
aV1
aV8
aV-
aV0.8
p280
aV77.2
p281
aV1.9
p282
aV-
aV6.58
p283
aa(lp284
V2016/2017
p285
aVBournemouth
p286
aVEPL
p287
aV14(13)
p288
aV1358
p289
aV2
aV-
aV6
aV-
aV0.6
p290
aV84.5
p291
aV0.5
p292
aV-
aV6.56
p293
aa(lp294
V2015/2016
p295
aVBournemouth
p296
aVEPL
p297
aV28(6)
p298
aV2445
p299
aV3
aV1
aV6
aV-
aV1.2
p300
aV83.6
p301
aV1.1
p302
aV-
aV6.77
p303
aa(lp304
V2014/2015
p305
aVBournemouth
p306
aVEC
p307
aV1(17)
p308
aV279
p309
aV-
aV2
aV1
aV-
aV0.4
p310
aV90.2
p311
aV0.2
p312
aV-
aV6.30
p313
aa(lp314
V2013/2014
p315
aVBlackpool
p316
aVEC
p317
aV13(1)
p318
aV1159
p319
aV2
aV-
aV3
aV-
aV2
aV79.7
p320
aV0.9
p321
aV1
aV6.96
p322
aa(lp323
V2013/2014
p324
aVNewcastle Uni..
p325
aVEPL
p326
aV4(4)
p327
aV361
p328
aV-
aV-
aV1
aV-
aV0.8
p329
aV84.7
p330
aV0.9
p331
aV-
aV6.56
p332
aa(lp333
V2012/2013
p334
aVNewcastle Uni..
p335
aVUEL
p336
aV1(2)
p337
aV116
p338
aV-
aV-
aV-
aV-
aV0.3
p339
aV90.9
p340
aV0.3
p341
aV-
aV6.53
p342
aa(lp343
V2012/2013
p344
aVNewcastle Uni..
p345
aVEPL
p346
aV0(3)
p347
aV41
p348
aV-
aV-
aV-
aV-
aV0.7
p349
aV86.7
p350
aV-
aV-
aV6.07
p351
aa(lp352
V2011/2012
p353
aVNewcastle Uni..
p354
aVEPL
p355
aV1(11)
p356
aV233
p357
aV1
aV-
aV2
aV1
aV0.5
p358
aV82.5
p359
aV0.1
p360
aV-
aV6.04
p361
aa(lp362
V2010/2011
p363
aVNewcastle Uni..
p364
aVEPL
p365
aV0(1)
p366
aV1
aV-
aV-
aV-
aV-
aV-
aV-
aV-
aV-
aV6.00
p367
aa(lp368
V2009/2010
p369
aVEverton
p370
aVEPL
p371
aV3(8)
p372
aV342
p373
aV2
aV-
aV-
aV-
aV0.8
p374
aV74.5
p375
aV0.3
p376
aV-
aV6.58
p377
aa(lp378
VTotal / Average
p379
aV
aV
aV171
p380
aV8936
p381
aV12
p382
aV4
aV30
p383
aV1
aV0.8
p384
aV81.9
p385
aV0.9
p386
aV1
aV6.56
p387
aasS'sumary_data'
p388
(lp389
(lp390
a(lp391
V2018/2019
p392
aVBournemouth
p393
aVEPL
p394
aV6(6)
p395
aV657
p396
aV-
aV-
aV3
aV-
aV0.6
p397
aV80.6
p398
aV1.3
p399
aV-
aV6.57
p400
aa(lp401
V2017/2018
p402
aVBournemouth
p403
aVEPL
p404
aV21(7)
p405
aV1944
p406
aV2
aV1
aV8
aV-
aV0.8
p407
aV77.2
p408
aV1.9
p409
aV-
aV6.58
p410
aa(lp411
V2016/2017
p412
aVBournemouth
p413
aVEPL
p414
aV14(13)
p415
aV1358
p416
aV2
aV-
aV6
aV-
aV0.6
p417
aV84.5
p418
aV0.5
p419
aV-
aV6.56
p420
aa(lp421
V2015/2016
p422
aVBournemouth
p423
aVEPL
p424
aV28(6)
p425
aV2445
p426
aV3
aV1
aV6
aV-
aV1.2
p427
aV83.6
p428
aV1.1
p429
aV-
aV6.77
p430
aa(lp431
V2014/2015
p432
aVBournemouth
p433
aVEC
p434
aV1(17)
p435
aV279
p436
aV-
aV2
aV1
aV-
aV0.4
p437
aV90.2
p438
aV0.2
p439
aV-
aV6.30
p440
aa(lp441
V2013/2014
p442
aVBlackpool
p443
aVEC
p444
aV13(1)
p445
aV1159
p446
aV2
aV-
aV3
aV-
aV2
aV79.7
p447
aV0.9
p448
aV1
aV6.96
p449
aa(lp450
V2013/2014
p451
aVNewcastle Uni..
p452
aVEPL
p453
aV4(4)
p454
aV361
p455
aV-
aV-
aV1
aV-
aV0.8
p456
aV84.7
p457
aV0.9
p458
aV-
aV6.56
p459
aa(lp460
V2012/2013
p461
aVNewcastle Uni..
p462
aVUEL
p463
aV1(2)
p464
aV116
p465
aV-
aV-
aV-
aV-
aV0.3
p466
aV90.9
p467
aV0.3
p468
aV-
aV6.53
p469
aa(lp470
V2012/2013
p471
aVNewcastle Uni..
p472
aVEPL
p473
aV0(3)
p474
aV41
p475
aV-
aV-
aV-
aV-
aV0.7
p476
aV86.7
p477
aV-
aV-
aV6.07
p478
aa(lp479
V2011/2012
p480
aVNewcastle Uni..
p481
aVEPL
p482
aV1(11)
p483
aV233
p484
aV1
aV-
aV2
aV1
aV0.5
p485
aV82.5
p486
aV0.1
p487
aV-
aV6.04
p488
aa(lp489
V2010/2011
p490
aVNewcastle Uni..
p491
aVEPL
p492
aV0(1)
p493
aV1
aV-
aV-
aV-
aV-
aV-
aV-
aV-
aV-
aV6.00
p494
aa(lp495
V2009/2010
p496
aVEverton
p497
aVEPL
p498
aV3(8)
p499
aV342
p500
aV2
aV-
aV-
aV-
aV0.8
p501
aV74.5
p502
aV0.3
p503
aV-
aV6.58
p504
aa(lp505
VTotal / Average
p506
aV
aV
aV171
p507
aV8936
p508
aV12
p509
aV4
aV30
p510
aV1
aV0.8
p511
aV81.9
p512
aV0.9
p513
aV1
aV6.56
p514
aasS'id'
p515
V13846
p516
sb.