(i__main__
Player
p1
(dp2
S'name'
p3
VSam Vokes 
p4
sS'offensive_data'
p5
(lp6
(lp7
a(lp8
V2018/2019
p9
aVBurnley
p10
aVEPL
p11
aV9(7)
p12
aV826
p13
aV3
aV-
aV-
aV-
aV1.3
p14
aV51.7
p15
aV6.8
p16
aV-
aV6.76
p17
aa(lp18
V2017/2018
p19
aVBurnley
p20
aVEPL
p21
aV7(23)
p22
aV980
p23
aV4
aV1
aV3
aV-
aV1.1
p24
aV49.4
p25
aV4.1
p26
aV1
aV6.46
p27
aa(lp28
V2016/2017
p29
aVBurnley
p30
aVEPL
p31
aV21(16)
p32
aV2055
p33
aV10
p34
aV3
aV-
aV-
aV1.5
p35
aV50.4
p36
aV5.7
p37
aV4
aV6.84
p38
aa(lp39
V2015/2016
p40
aVBurnley
p41
aVEC
p42
aV39(4)
p43
aV3435
p44
aV15
p45
aV4
aV1
aV-
aV2.3
p46
aV52.8
p47
aV7.7
p48
aV4
aV7.23
p49
aa(lp50
V2014/2015
p51
aVBurnley
p52
aVEPL
p53
aV5(10)
p54
aV562
p55
aV-
aV-
aV-
aV-
aV1.1
p56
aV55
p57
aV3.5
p58
aV-
aV6.33
p59
aa(lp60
V2016
p61
aVWales
p62
aVUEC
p63
aV2(2)
p64
aV187
p65
aV1
aV-
aV1
aV-
aV1.8
p66
aV47.8
p67
aV5.5
p68
aV-
aV6.85
p69
aa(lp70
V2013/2014
p71
aVBurnley
p72
aVEC
p73
aV39
p74
aV3371
p75
aV20
p76
aV4
aV2
aV-
aV2.6
p77
aV54.6
p78
aV7.1
p79
aV7
aV7.36
p80
aa(lp81
V2011/2012
p82
aVWolverhampton..
p83
aVEPL
p84
aV0(4)
p85
aV62
p86
aV-
aV-
aV1
aV-
aV1
aV68.8
p87
aV0.8
p88
aV-
aV6.10
p89
aa(lp90
V2010/2011
p91
aVWolverhampton..
p92
aVEPL
p93
aV0(2)
p94
aV28
p95
aV-
aV-
aV-
aV-
aV-
aV40
p96
aV1
aV-
aV6.06
p97
aa(lp98
V2009/2010
p99
aVWolverhampton..
p100
aVEPL
p101
aV0(5)
p102
aV43
p103
aV-
aV-
aV-
aV-
aV1
aV61.1
p104
aV-
aV-
aV6.05
p105
aa(lp106
VTotal / Average
p107
aV
aV
aV195
p108
aV11549
p109
aV53
p110
aV12
p111
aV8
aV0
aV1.8
p112
aV52.6
p113
aV5.8
p114
aV16
p115
aV6.88
p116
aasS'url'
p117
S'https://www.whoscored.com/Players/13938/History/'
p118
sS'passing_data'
p119
(lp120
(lp121
a(lp122
V2018/2019
p123
aVBurnley
p124
aVEPL
p125
aV9(7)
p126
aV826
p127
aV3
aV-
aV-
aV-
aV1.3
p128
aV51.7
p129
aV6.8
p130
aV-
aV6.76
p131
aa(lp132
V2017/2018
p133
aVBurnley
p134
aVEPL
p135
aV7(23)
p136
aV980
p137
aV4
aV1
aV3
aV-
aV1.1
p138
aV49.4
p139
aV4.1
p140
aV1
aV6.46
p141
aa(lp142
V2016/2017
p143
aVBurnley
p144
aVEPL
p145
aV21(16)
p146
aV2055
p147
aV10
p148
aV3
aV-
aV-
aV1.5
p149
aV50.4
p150
aV5.7
p151
aV4
aV6.84
p152
aa(lp153
V2015/2016
p154
aVBurnley
p155
aVEC
p156
aV39(4)
p157
aV3435
p158
aV15
p159
aV4
aV1
aV-
aV2.3
p160
aV52.8
p161
aV7.7
p162
aV4
aV7.23
p163
aa(lp164
V2014/2015
p165
aVBurnley
p166
aVEPL
p167
aV5(10)
p168
aV562
p169
aV-
aV-
aV-
aV-
aV1.1
p170
aV55
p171
aV3.5
p172
aV-
aV6.33
p173
aa(lp174
V2016
p175
aVWales
p176
aVUEC
p177
aV2(2)
p178
aV187
p179
aV1
aV-
aV1
aV-
aV1.8
p180
aV47.8
p181
aV5.5
p182
aV-
aV6.85
p183
aa(lp184
V2013/2014
p185
aVBurnley
p186
aVEC
p187
aV39
p188
aV3371
p189
aV20
p190
aV4
aV2
aV-
aV2.6
p191
aV54.6
p192
aV7.1
p193
aV7
aV7.36
p194
aa(lp195
V2011/2012
p196
aVWolverhampton..
p197
aVEPL
p198
aV0(4)
p199
aV62
p200
aV-
aV-
aV1
aV-
aV1
aV68.8
p201
aV0.8
p202
aV-
aV6.10
p203
aa(lp204
V2010/2011
p205
aVWolverhampton..
p206
aVEPL
p207
aV0(2)
p208
aV28
p209
aV-
aV-
aV-
aV-
aV-
aV40
p210
aV1
aV-
aV6.06
p211
aa(lp212
V2009/2010
p213
aVWolverhampton..
p214
aVEPL
p215
aV0(5)
p216
aV43
p217
aV-
aV-
aV-
aV-
aV1
aV61.1
p218
aV-
aV-
aV6.05
p219
aa(lp220
VTotal / Average
p221
aV
aV
aV195
p222
aV11549
p223
aV53
p224
aV12
p225
aV8
aV0
aV1.8
p226
aV52.6
p227
aV5.8
p228
aV16
p229
aV6.88
p230
aasS'defensive_data'
p231
(lp232
(lp233
a(lp234
V2018/2019
p235
aVBurnley
p236
aVEPL
p237
aV9(7)
p238
aV826
p239
aV3
aV-
aV-
aV-
aV1.3
p240
aV51.7
p241
aV6.8
p242
aV-
aV6.76
p243
aa(lp244
V2017/2018
p245
aVBurnley
p246
aVEPL
p247
aV7(23)
p248
aV980
p249
aV4
aV1
aV3
aV-
aV1.1
p250
aV49.4
p251
aV4.1
p252
aV1
aV6.46
p253
aa(lp254
V2016/2017
p255
aVBurnley
p256
aVEPL
p257
aV21(16)
p258
aV2055
p259
aV10
p260
aV3
aV-
aV-
aV1.5
p261
aV50.4
p262
aV5.7
p263
aV4
aV6.84
p264
aa(lp265
V2015/2016
p266
aVBurnley
p267
aVEC
p268
aV39(4)
p269
aV3435
p270
aV15
p271
aV4
aV1
aV-
aV2.3
p272
aV52.8
p273
aV7.7
p274
aV4
aV7.23
p275
aa(lp276
V2014/2015
p277
aVBurnley
p278
aVEPL
p279
aV5(10)
p280
aV562
p281
aV-
aV-
aV-
aV-
aV1.1
p282
aV55
p283
aV3.5
p284
aV-
aV6.33
p285
aa(lp286
V2016
p287
aVWales
p288
aVUEC
p289
aV2(2)
p290
aV187
p291
aV1
aV-
aV1
aV-
aV1.8
p292
aV47.8
p293
aV5.5
p294
aV-
aV6.85
p295
aa(lp296
V2013/2014
p297
aVBurnley
p298
aVEC
p299
aV39
p300
aV3371
p301
aV20
p302
aV4
aV2
aV-
aV2.6
p303
aV54.6
p304
aV7.1
p305
aV7
aV7.36
p306
aa(lp307
V2011/2012
p308
aVWolverhampton..
p309
aVEPL
p310
aV0(4)
p311
aV62
p312
aV-
aV-
aV1
aV-
aV1
aV68.8
p313
aV0.8
p314
aV-
aV6.10
p315
aa(lp316
V2010/2011
p317
aVWolverhampton..
p318
aVEPL
p319
aV0(2)
p320
aV28
p321
aV-
aV-
aV-
aV-
aV-
aV40
p322
aV1
aV-
aV6.06
p323
aa(lp324
V2009/2010
p325
aVWolverhampton..
p326
aVEPL
p327
aV0(5)
p328
aV43
p329
aV-
aV-
aV-
aV-
aV1
aV61.1
p330
aV-
aV-
aV6.05
p331
aa(lp332
VTotal / Average
p333
aV
aV
aV195
p334
aV11549
p335
aV53
p336
aV12
p337
aV8
aV0
aV1.8
p338
aV52.6
p339
aV5.8
p340
aV16
p341
aV6.88
p342
aasS'sumary_data'
p343
(lp344
(lp345
a(lp346
V2018/2019
p347
aVBurnley
p348
aVEPL
p349
aV9(7)
p350
aV826
p351
aV3
aV-
aV-
aV-
aV1.3
p352
aV51.7
p353
aV6.8
p354
aV-
aV6.76
p355
aa(lp356
V2017/2018
p357
aVBurnley
p358
aVEPL
p359
aV7(23)
p360
aV980
p361
aV4
aV1
aV3
aV-
aV1.1
p362
aV49.4
p363
aV4.1
p364
aV1
aV6.46
p365
aa(lp366
V2016/2017
p367
aVBurnley
p368
aVEPL
p369
aV21(16)
p370
aV2055
p371
aV10
p372
aV3
aV-
aV-
aV1.5
p373
aV50.4
p374
aV5.7
p375
aV4
aV6.84
p376
aa(lp377
V2015/2016
p378
aVBurnley
p379
aVEC
p380
aV39(4)
p381
aV3435
p382
aV15
p383
aV4
aV1
aV-
aV2.3
p384
aV52.8
p385
aV7.7
p386
aV4
aV7.23
p387
aa(lp388
V2014/2015
p389
aVBurnley
p390
aVEPL
p391
aV5(10)
p392
aV562
p393
aV-
aV-
aV-
aV-
aV1.1
p394
aV55
p395
aV3.5
p396
aV-
aV6.33
p397
aa(lp398
V2016
p399
aVWales
p400
aVUEC
p401
aV2(2)
p402
aV187
p403
aV1
aV-
aV1
aV-
aV1.8
p404
aV47.8
p405
aV5.5
p406
aV-
aV6.85
p407
aa(lp408
V2013/2014
p409
aVBurnley
p410
aVEC
p411
aV39
p412
aV3371
p413
aV20
p414
aV4
aV2
aV-
aV2.6
p415
aV54.6
p416
aV7.1
p417
aV7
aV7.36
p418
aa(lp419
V2011/2012
p420
aVWolverhampton..
p421
aVEPL
p422
aV0(4)
p423
aV62
p424
aV-
aV-
aV1
aV-
aV1
aV68.8
p425
aV0.8
p426
aV-
aV6.10
p427
aa(lp428
V2010/2011
p429
aVWolverhampton..
p430
aVEPL
p431
aV0(2)
p432
aV28
p433
aV-
aV-
aV-
aV-
aV-
aV40
p434
aV1
aV-
aV6.06
p435
aa(lp436
V2009/2010
p437
aVWolverhampton..
p438
aVEPL
p439
aV0(5)
p440
aV43
p441
aV-
aV-
aV-
aV-
aV1
aV61.1
p442
aV-
aV-
aV6.05
p443
aa(lp444
VTotal / Average
p445
aV
aV
aV195
p446
aV11549
p447
aV53
p448
aV12
p449
aV8
aV0
aV1.8
p450
aV52.6
p451
aV5.8
p452
aV16
p453
aV6.88
p454
aasS'id'
p455
V13938
p456
sb.