(i__main__
Player
p1
(dp2
S'name'
p3
VDavid Silva 
p4
sS'offensive_data'
p5
(lp6
(lp7
a(lp8
V2018/2019
p9
aVManchester Ci..
p10
aVEPL
p11
aV13(1)
p12
aV1081
p13
aV5
aV2
aV1
aV-
aV2
aV89.1
p14
aV0.4
p15
aV1
aV7.50
p16
aa(lp17
V2018/2019
p18
aVManchester Ci..
p19
aVUCL
p20
aV5
aV433
p21
aV3
aV1
aV-
aV-
aV2
aV84.5
p22
aV0.8
p23
aV2
aV7.88
p24
aa(lp25
V2017/2018
p26
aVManchester Ci..
p27
aVUCL
p28
aV5(2)
p29
aV426
p30
aV-
aV2
aV-
aV-
aV0.1
p31
aV87
p32
aV0.3
p33
aV-
aV6.76
p34
aa(lp35
V2017/2018
p36
aVManchester Ci..
p37
aVEPL
p38
aV28(1)
p39
aV2437
p40
aV9
aV11
p41
aV5
aV-
aV1.9
p42
aV88.9
p43
aV0.6
p44
aV4
aV7.58
p45
aa(lp46
V2016/2017
p47
aVManchester Ci..
p48
aVUCL
p49
aV6
aV540
p50
aV1
aV2
aV1
aV-
aV0.3
p51
aV84
p52
aV0.5
p53
aV1
aV7.09
p54
aa(lp55
V2016/2017
p56
aVManchester Ci..
p57
aVEPL
p58
aV31(3)
p59
aV2768
p60
aV4
aV7
aV6
aV-
aV1.4
p61
aV87.2
p62
aV0.5
p63
aV1
aV7.28
p64
aa(lp65
V2018
p66
aVSpain
p67
aVWC
p68
aV4
aV327
p69
aV-
aV-
aV-
aV-
aV2.5
p70
aV86.8
p71
aV0.3
p72
aV-
aV6.80
p73
aa(lp74
V2015/2016
p75
aVManchester Ci..
p76
aVUCL
p77
aV8
aV629
p78
aV2
aV-
aV1
aV-
aV1.4
p79
aV83.6
p80
aV0.9
p81
aV-
aV7.04
p82
aa(lp83
V2015/2016
p84
aVManchester Ci..
p85
aVEPL
p86
aV22(2)
p87
aV1802
p88
aV2
aV11
p89
aV1
aV-
aV1.2
p90
aV86.4
p91
aV0.4
p92
aV2
aV7.28
p93
aa(lp94
V2014/2015
p95
aVManchester Ci..
p96
aVUCL
p97
aV5(1)
p98
aV449
p99
aV-
aV1
aV1
aV-
aV0.7
p100
aV88.3
p101
aV1
aV1
aV7.04
p102
aa(lp103
V2014/2015
p104
aVManchester Ci..
p105
aVEPL
p106
aV32
p107
aV2661
p108
aV12
p109
aV7
aV8
aV-
aV2.1
p110
aV85.7
p111
aV0.5
p112
aV3
aV7.53
p113
aa(lp114
V2016
p115
aVSpain
p116
aVUEC
p117
aV4
aV334
p118
aV-
aV-
aV1
aV-
aV2
aV85.1
p119
aV-
aV-
aV7.20
p120
aa(lp121
V2013/2014
p122
aVManchester Ci..
p123
aVUCL
p124
aV5(1)
p125
aV401
p126
aV1
aV1
aV-
aV-
aV1.5
p127
aV88.9
p128
aV0.2
p129
aV-
aV7.02
p130
aa(lp131
V2013/2014
p132
aVManchester Ci..
p133
aVEPL
p134
aV26(1)
p135
aV2174
p136
aV7
aV9
aV5
aV-
aV2
aV88.2
p137
aV0.3
p138
aV4
aV7.57
p139
aa(lp140
V2014
p141
aVSpain
p142
aVWC
p143
aV2(1)
p144
aV175
p145
aV-
aV-
aV-
aV-
aV1
aV80.6
p146
aV1.7
p147
aV-
aV6.69
p148
aa(lp149
V2013
p150
aVSpain
p151
aVICC
p152
aV2(1)
p153
aV179
p154
aV2
aV1
aV-
aV-
aV1.7
p155
aV84.4
p156
aV-
aV-
aV7.48
p157
aa(lp158
V2012/2013
p159
aVManchester Ci..
p160
aVUCL
p161
aV3
aV243
p162
aV-
aV-
aV-
aV-
aV1.3
p163
aV88
p164
aV-
aV-
aV7.09
p165
aa(lp166
V2012/2013
p167
aVManchester Ci..
p168
aVEPL
p169
aV29(3)
p170
aV2526
p171
aV4
aV8
aV2
aV-
aV1.7
p172
aV85.4
p173
aV0.3
p174
aV3
aV7.30
p175
aa(lp176
V2012
p177
aVSpain
p178
aVUEC
p179
aV6
aV415
p180
aV2
aV3
aV-
aV-
aV1.8
p181
aV84.8
p182
aV0.2
p183
aV1
aV7.52
p184
aa(lp185
V2011/2012
p186
aVManchester Ci..
p187
aVUCL
p188
aV6
aV509
p189
aV1
aV2
aV1
aV-
aV2.2
p190
aV87.1
p191
aV0.3
p192
aV1
aV7.36
p193
aa(lp194
V2011/2012
p195
aVManchester Ci..
p196
aVEPL
p197
aV33(3)
p198
aV2819
p199
aV6
aV15
p200
aV-
aV-
aV2.4
p201
aV87.1
p202
aV0.1
p203
aV5
aV7.50
p204
aa(lp205
V2010/2011
p206
aVManchester Ci..
p207
aVEPL
p208
aV30(5)
p209
aV2565
p210
aV4
aV7
aV2
aV-
aV1.8
p211
aV87
p212
aV0.2
p213
aV2
aV7.15
p214
aa(lp215
V2009/2010
p216
aVValencia
p217
aVSLL
p218
aV28(2)
p219
aV2424
p220
aV8
aV7
aV6
aV-
aV2.4
p221
aV81.7
p222
aV0.5
p223
aV4
aV7.34
p224
aa(lp225
VTotal / Average
p226
aV
aV
aV360
p227
aV28317
p228
aV73
p229
aV97
p230
aV41
p231
aV0
aV1.8
p232
aV86.4
p233
aV0.4
p234
aV35
p235
aV7.35
p236
aasS'url'
p237
S'https://www.whoscored.com/Players/14102/History/'
p238
sS'passing_data'
p239
(lp240
(lp241
a(lp242
V2018/2019
p243
aVManchester Ci..
p244
aVEPL
p245
aV13(1)
p246
aV1081
p247
aV5
aV2
aV1
aV-
aV2
aV89.1
p248
aV0.4
p249
aV1
aV7.50
p250
aa(lp251
V2018/2019
p252
aVManchester Ci..
p253
aVUCL
p254
aV5
aV433
p255
aV3
aV1
aV-
aV-
aV2
aV84.5
p256
aV0.8
p257
aV2
aV7.88
p258
aa(lp259
V2017/2018
p260
aVManchester Ci..
p261
aVUCL
p262
aV5(2)
p263
aV426
p264
aV-
aV2
aV-
aV-
aV0.1
p265
aV87
p266
aV0.3
p267
aV-
aV6.76
p268
aa(lp269
V2017/2018
p270
aVManchester Ci..
p271
aVEPL
p272
aV28(1)
p273
aV2437
p274
aV9
aV11
p275
aV5
aV-
aV1.9
p276
aV88.9
p277
aV0.6
p278
aV4
aV7.58
p279
aa(lp280
V2016/2017
p281
aVManchester Ci..
p282
aVUCL
p283
aV6
aV540
p284
aV1
aV2
aV1
aV-
aV0.3
p285
aV84
p286
aV0.5
p287
aV1
aV7.09
p288
aa(lp289
V2016/2017
p290
aVManchester Ci..
p291
aVEPL
p292
aV31(3)
p293
aV2768
p294
aV4
aV7
aV6
aV-
aV1.4
p295
aV87.2
p296
aV0.5
p297
aV1
aV7.28
p298
aa(lp299
V2018
p300
aVSpain
p301
aVWC
p302
aV4
aV327
p303
aV-
aV-
aV-
aV-
aV2.5
p304
aV86.8
p305
aV0.3
p306
aV-
aV6.80
p307
aa(lp308
V2015/2016
p309
aVManchester Ci..
p310
aVUCL
p311
aV8
aV629
p312
aV2
aV-
aV1
aV-
aV1.4
p313
aV83.6
p314
aV0.9
p315
aV-
aV7.04
p316
aa(lp317
V2015/2016
p318
aVManchester Ci..
p319
aVEPL
p320
aV22(2)
p321
aV1802
p322
aV2
aV11
p323
aV1
aV-
aV1.2
p324
aV86.4
p325
aV0.4
p326
aV2
aV7.28
p327
aa(lp328
V2014/2015
p329
aVManchester Ci..
p330
aVUCL
p331
aV5(1)
p332
aV449
p333
aV-
aV1
aV1
aV-
aV0.7
p334
aV88.3
p335
aV1
aV1
aV7.04
p336
aa(lp337
V2014/2015
p338
aVManchester Ci..
p339
aVEPL
p340
aV32
p341
aV2661
p342
aV12
p343
aV7
aV8
aV-
aV2.1
p344
aV85.7
p345
aV0.5
p346
aV3
aV7.53
p347
aa(lp348
V2016
p349
aVSpain
p350
aVUEC
p351
aV4
aV334
p352
aV-
aV-
aV1
aV-
aV2
aV85.1
p353
aV-
aV-
aV7.20
p354
aa(lp355
V2013/2014
p356
aVManchester Ci..
p357
aVUCL
p358
aV5(1)
p359
aV401
p360
aV1
aV1
aV-
aV-
aV1.5
p361
aV88.9
p362
aV0.2
p363
aV-
aV7.02
p364
aa(lp365
V2013/2014
p366
aVManchester Ci..
p367
aVEPL
p368
aV26(1)
p369
aV2174
p370
aV7
aV9
aV5
aV-
aV2
aV88.2
p371
aV0.3
p372
aV4
aV7.57
p373
aa(lp374
V2014
p375
aVSpain
p376
aVWC
p377
aV2(1)
p378
aV175
p379
aV-
aV-
aV-
aV-
aV1
aV80.6
p380
aV1.7
p381
aV-
aV6.69
p382
aa(lp383
V2013
p384
aVSpain
p385
aVICC
p386
aV2(1)
p387
aV179
p388
aV2
aV1
aV-
aV-
aV1.7
p389
aV84.4
p390
aV-
aV-
aV7.48
p391
aa(lp392
V2012/2013
p393
aVManchester Ci..
p394
aVUCL
p395
aV3
aV243
p396
aV-
aV-
aV-
aV-
aV1.3
p397
aV88
p398
aV-
aV-
aV7.09
p399
aa(lp400
V2012/2013
p401
aVManchester Ci..
p402
aVEPL
p403
aV29(3)
p404
aV2526
p405
aV4
aV8
aV2
aV-
aV1.7
p406
aV85.4
p407
aV0.3
p408
aV3
aV7.30
p409
aa(lp410
V2012
p411
aVSpain
p412
aVUEC
p413
aV6
aV415
p414
aV2
aV3
aV-
aV-
aV1.8
p415
aV84.8
p416
aV0.2
p417
aV1
aV7.52
p418
aa(lp419
V2011/2012
p420
aVManchester Ci..
p421
aVUCL
p422
aV6
aV509
p423
aV1
aV2
aV1
aV-
aV2.2
p424
aV87.1
p425
aV0.3
p426
aV1
aV7.36
p427
aa(lp428
V2011/2012
p429
aVManchester Ci..
p430
aVEPL
p431
aV33(3)
p432
aV2819
p433
aV6
aV15
p434
aV-
aV-
aV2.4
p435
aV87.1
p436
aV0.1
p437
aV5
aV7.50
p438
aa(lp439
V2010/2011
p440
aVManchester Ci..
p441
aVEPL
p442
aV30(5)
p443
aV2565
p444
aV4
aV7
aV2
aV-
aV1.8
p445
aV87
p446
aV0.2
p447
aV2
aV7.15
p448
aa(lp449
V2009/2010
p450
aVValencia
p451
aVSLL
p452
aV28(2)
p453
aV2424
p454
aV8
aV7
aV6
aV-
aV2.4
p455
aV81.7
p456
aV0.5
p457
aV4
aV7.34
p458
aa(lp459
VTotal / Average
p460
aV
aV
aV360
p461
aV28317
p462
aV73
p463
aV97
p464
aV41
p465
aV0
aV1.8
p466
aV86.4
p467
aV0.4
p468
aV35
p469
aV7.35
p470
aasS'defensive_data'
p471
(lp472
(lp473
a(lp474
V2018/2019
p475
aVManchester Ci..
p476
aVEPL
p477
aV13(1)
p478
aV1081
p479
aV5
aV2
aV1
aV-
aV2
aV89.1
p480
aV0.4
p481
aV1
aV7.50
p482
aa(lp483
V2018/2019
p484
aVManchester Ci..
p485
aVUCL
p486
aV5
aV433
p487
aV3
aV1
aV-
aV-
aV2
aV84.5
p488
aV0.8
p489
aV2
aV7.88
p490
aa(lp491
V2017/2018
p492
aVManchester Ci..
p493
aVUCL
p494
aV5(2)
p495
aV426
p496
aV-
aV2
aV-
aV-
aV0.1
p497
aV87
p498
aV0.3
p499
aV-
aV6.76
p500
aa(lp501
V2017/2018
p502
aVManchester Ci..
p503
aVEPL
p504
aV28(1)
p505
aV2437
p506
aV9
aV11
p507
aV5
aV-
aV1.9
p508
aV88.9
p509
aV0.6
p510
aV4
aV7.58
p511
aa(lp512
V2016/2017
p513
aVManchester Ci..
p514
aVUCL
p515
aV6
aV540
p516
aV1
aV2
aV1
aV-
aV0.3
p517
aV84
p518
aV0.5
p519
aV1
aV7.09
p520
aa(lp521
V2016/2017
p522
aVManchester Ci..
p523
aVEPL
p524
aV31(3)
p525
aV2768
p526
aV4
aV7
aV6
aV-
aV1.4
p527
aV87.2
p528
aV0.5
p529
aV1
aV7.28
p530
aa(lp531
V2018
p532
aVSpain
p533
aVWC
p534
aV4
aV327
p535
aV-
aV-
aV-
aV-
aV2.5
p536
aV86.8
p537
aV0.3
p538
aV-
aV6.80
p539
aa(lp540
V2015/2016
p541
aVManchester Ci..
p542
aVUCL
p543
aV8
aV629
p544
aV2
aV-
aV1
aV-
aV1.4
p545
aV83.6
p546
aV0.9
p547
aV-
aV7.04
p548
aa(lp549
V2015/2016
p550
aVManchester Ci..
p551
aVEPL
p552
aV22(2)
p553
aV1802
p554
aV2
aV11
p555
aV1
aV-
aV1.2
p556
aV86.4
p557
aV0.4
p558
aV2
aV7.28
p559
aa(lp560
V2014/2015
p561
aVManchester Ci..
p562
aVUCL
p563
aV5(1)
p564
aV449
p565
aV-
aV1
aV1
aV-
aV0.7
p566
aV88.3
p567
aV1
aV1
aV7.04
p568
aa(lp569
V2014/2015
p570
aVManchester Ci..
p571
aVEPL
p572
aV32
p573
aV2661
p574
aV12
p575
aV7
aV8
aV-
aV2.1
p576
aV85.7
p577
aV0.5
p578
aV3
aV7.53
p579
aa(lp580
V2016
p581
aVSpain
p582
aVUEC
p583
aV4
aV334
p584
aV-
aV-
aV1
aV-
aV2
aV85.1
p585
aV-
aV-
aV7.20
p586
aa(lp587
V2013/2014
p588
aVManchester Ci..
p589
aVUCL
p590
aV5(1)
p591
aV401
p592
aV1
aV1
aV-
aV-
aV1.5
p593
aV88.9
p594
aV0.2
p595
aV-
aV7.02
p596
aa(lp597
V2013/2014
p598
aVManchester Ci..
p599
aVEPL
p600
aV26(1)
p601
aV2174
p602
aV7
aV9
aV5
aV-
aV2
aV88.2
p603
aV0.3
p604
aV4
aV7.57
p605
aa(lp606
V2014
p607
aVSpain
p608
aVWC
p609
aV2(1)
p610
aV175
p611
aV-
aV-
aV-
aV-
aV1
aV80.6
p612
aV1.7
p613
aV-
aV6.69
p614
aa(lp615
V2013
p616
aVSpain
p617
aVICC
p618
aV2(1)
p619
aV179
p620
aV2
aV1
aV-
aV-
aV1.7
p621
aV84.4
p622
aV-
aV-
aV7.48
p623
aa(lp624
V2012/2013
p625
aVManchester Ci..
p626
aVUCL
p627
aV3
aV243
p628
aV-
aV-
aV-
aV-
aV1.3
p629
aV88
p630
aV-
aV-
aV7.09
p631
aa(lp632
V2012/2013
p633
aVManchester Ci..
p634
aVEPL
p635
aV29(3)
p636
aV2526
p637
aV4
aV8
aV2
aV-
aV1.7
p638
aV85.4
p639
aV0.3
p640
aV3
aV7.30
p641
aa(lp642
V2012
p643
aVSpain
p644
aVUEC
p645
aV6
aV415
p646
aV2
aV3
aV-
aV-
aV1.8
p647
aV84.8
p648
aV0.2
p649
aV1
aV7.52
p650
aa(lp651
V2011/2012
p652
aVManchester Ci..
p653
aVUCL
p654
aV6
aV509
p655
aV1
aV2
aV1
aV-
aV2.2
p656
aV87.1
p657
aV0.3
p658
aV1
aV7.36
p659
aa(lp660
V2011/2012
p661
aVManchester Ci..
p662
aVEPL
p663
aV33(3)
p664
aV2819
p665
aV6
aV15
p666
aV-
aV-
aV2.4
p667
aV87.1
p668
aV0.1
p669
aV5
aV7.50
p670
aa(lp671
V2010/2011
p672
aVManchester Ci..
p673
aVEPL
p674
aV30(5)
p675
aV2565
p676
aV4
aV7
aV2
aV-
aV1.8
p677
aV87
p678
aV0.2
p679
aV2
aV7.15
p680
aa(lp681
V2009/2010
p682
aVValencia
p683
aVSLL
p684
aV28(2)
p685
aV2424
p686
aV8
aV7
aV6
aV-
aV2.4
p687
aV81.7
p688
aV0.5
p689
aV4
aV7.34
p690
aa(lp691
VTotal / Average
p692
aV
aV
aV360
p693
aV28317
p694
aV73
p695
aV97
p696
aV41
p697
aV0
aV1.8
p698
aV86.4
p699
aV0.4
p700
aV35
p701
aV7.35
p702
aasS'sumary_data'
p703
(lp704
(lp705
a(lp706
V2018/2019
p707
aVManchester Ci..
p708
aVEPL
p709
aV13(1)
p710
aV1081
p711
aV5
aV2
aV1
aV-
aV2
aV89.1
p712
aV0.4
p713
aV1
aV7.50
p714
aa(lp715
V2018/2019
p716
aVManchester Ci..
p717
aVUCL
p718
aV5
aV433
p719
aV3
aV1
aV-
aV-
aV2
aV84.5
p720
aV0.8
p721
aV2
aV7.88
p722
aa(lp723
V2017/2018
p724
aVManchester Ci..
p725
aVUCL
p726
aV5(2)
p727
aV426
p728
aV-
aV2
aV-
aV-
aV0.1
p729
aV87
p730
aV0.3
p731
aV-
aV6.76
p732
aa(lp733
V2017/2018
p734
aVManchester Ci..
p735
aVEPL
p736
aV28(1)
p737
aV2437
p738
aV9
aV11
p739
aV5
aV-
aV1.9
p740
aV88.9
p741
aV0.6
p742
aV4
aV7.58
p743
aa(lp744
V2016/2017
p745
aVManchester Ci..
p746
aVUCL
p747
aV6
aV540
p748
aV1
aV2
aV1
aV-
aV0.3
p749
aV84
p750
aV0.5
p751
aV1
aV7.09
p752
aa(lp753
V2016/2017
p754
aVManchester Ci..
p755
aVEPL
p756
aV31(3)
p757
aV2768
p758
aV4
aV7
aV6
aV-
aV1.4
p759
aV87.2
p760
aV0.5
p761
aV1
aV7.28
p762
aa(lp763
V2018
p764
aVSpain
p765
aVWC
p766
aV4
aV327
p767
aV-
aV-
aV-
aV-
aV2.5
p768
aV86.8
p769
aV0.3
p770
aV-
aV6.80
p771
aa(lp772
V2015/2016
p773
aVManchester Ci..
p774
aVUCL
p775
aV8
aV629
p776
aV2
aV-
aV1
aV-
aV1.4
p777
aV83.6
p778
aV0.9
p779
aV-
aV7.04
p780
aa(lp781
V2015/2016
p782
aVManchester Ci..
p783
aVEPL
p784
aV22(2)
p785
aV1802
p786
aV2
aV11
p787
aV1
aV-
aV1.2
p788
aV86.4
p789
aV0.4
p790
aV2
aV7.28
p791
aa(lp792
V2014/2015
p793
aVManchester Ci..
p794
aVUCL
p795
aV5(1)
p796
aV449
p797
aV-
aV1
aV1
aV-
aV0.7
p798
aV88.3
p799
aV1
aV1
aV7.04
p800
aa(lp801
V2014/2015
p802
aVManchester Ci..
p803
aVEPL
p804
aV32
p805
aV2661
p806
aV12
p807
aV7
aV8
aV-
aV2.1
p808
aV85.7
p809
aV0.5
p810
aV3
aV7.53
p811
aa(lp812
V2016
p813
aVSpain
p814
aVUEC
p815
aV4
aV334
p816
aV-
aV-
aV1
aV-
aV2
aV85.1
p817
aV-
aV-
aV7.20
p818
aa(lp819
V2013/2014
p820
aVManchester Ci..
p821
aVUCL
p822
aV5(1)
p823
aV401
p824
aV1
aV1
aV-
aV-
aV1.5
p825
aV88.9
p826
aV0.2
p827
aV-
aV7.02
p828
aa(lp829
V2013/2014
p830
aVManchester Ci..
p831
aVEPL
p832
aV26(1)
p833
aV2174
p834
aV7
aV9
aV5
aV-
aV2
aV88.2
p835
aV0.3
p836
aV4
aV7.57
p837
aa(lp838
V2014
p839
aVSpain
p840
aVWC
p841
aV2(1)
p842
aV175
p843
aV-
aV-
aV-
aV-
aV1
aV80.6
p844
aV1.7
p845
aV-
aV6.69
p846
aa(lp847
V2013
p848
aVSpain
p849
aVICC
p850
aV2(1)
p851
aV179
p852
aV2
aV1
aV-
aV-
aV1.7
p853
aV84.4
p854
aV-
aV-
aV7.48
p855
aa(lp856
V2012/2013
p857
aVManchester Ci..
p858
aVUCL
p859
aV3
aV243
p860
aV-
aV-
aV-
aV-
aV1.3
p861
aV88
p862
aV-
aV-
aV7.09
p863
aa(lp864
V2012/2013
p865
aVManchester Ci..
p866
aVEPL
p867
aV29(3)
p868
aV2526
p869
aV4
aV8
aV2
aV-
aV1.7
p870
aV85.4
p871
aV0.3
p872
aV3
aV7.30
p873
aa(lp874
V2012
p875
aVSpain
p876
aVUEC
p877
aV6
aV415
p878
aV2
aV3
aV-
aV-
aV1.8
p879
aV84.8
p880
aV0.2
p881
aV1
aV7.52
p882
aa(lp883
V2011/2012
p884
aVManchester Ci..
p885
aVUCL
p886
aV6
aV509
p887
aV1
aV2
aV1
aV-
aV2.2
p888
aV87.1
p889
aV0.3
p890
aV1
aV7.36
p891
aa(lp892
V2011/2012
p893
aVManchester Ci..
p894
aVEPL
p895
aV33(3)
p896
aV2819
p897
aV6
aV15
p898
aV-
aV-
aV2.4
p899
aV87.1
p900
aV0.1
p901
aV5
aV7.50
p902
aa(lp903
V2010/2011
p904
aVManchester Ci..
p905
aVEPL
p906
aV30(5)
p907
aV2565
p908
aV4
aV7
aV2
aV-
aV1.8
p909
aV87
p910
aV0.2
p911
aV2
aV7.15
p912
aa(lp913
V2009/2010
p914
aVValencia
p915
aVSLL
p916
aV28(2)
p917
aV2424
p918
aV8
aV7
aV6
aV-
aV2.4
p919
aV81.7
p920
aV0.5
p921
aV4
aV7.34
p922
aa(lp923
VTotal / Average
p924
aV
aV
aV360
p925
aV28317
p926
aV73
p927
aV97
p928
aV41
p929
aV0
aV1.8
p930
aV86.4
p931
aV0.4
p932
aV35
p933
aV7.35
p934
aasS'id'
p935
V14102
p936
sb.