(i__main__
Player
p1
(dp2
S'name'
p3
VWesley Hoedt 
p4
sS'offensive_data'
p5
(lp6
(lp7
a(lp8
V2018/2019
p9
aVSouthampton
p10
aVEPL
p11
aV13
p12
aV1170
p13
aV-
aV-
aV2
aV-
aV0.5
p14
aV78.6
p15
aV2.5
p16
aV-
aV6.77
p17
aa(lp18
V2017/2018
p19
aVSouthampton
p20
aVEPL
p21
aV28
p22
aV2520
p23
aV-
aV1
aV7
aV-
aV0.5
p24
aV78.9
p25
aV2.2
p26
aV1
aV6.89
p27
aa(lp28
V2016/2017
p29
aVLazio
p30
aVISA
p31
aV21(2)
p32
aV1882
p33
aV2
aV-
aV5
aV-
aV0.9
p34
aV87.2
p35
aV2.3
p36
aV1
aV6.84
p37
aa(lp38
V2015/2016
p39
aVLazio
p40
aVISA
p41
aV24(1)
p42
aV2050
p43
aV-
aV-
aV4
aV1
aV0.5
p44
aV82.9
p45
aV1.4
p46
aV3
aV6.83
p47
aa(lp48
V2015/2016
p49
aVLazio
p50
aVUEL
p51
aV8
aV720
p52
aV1
aV-
aV2
aV-
aV0.6
p53
aV80.7
p54
aV2.9
p55
aV2
aV7.48
p56
aa(lp57
V2014/2015
p58
aVAZ Alkmaar
p59
aVNE
p60
aV24
p61
aV2141
p62
aV2
aV-
aV4
aV-
aV0.5
p63
aV80.5
p64
aV3.6
p65
aV3
aV7.44
p66
aa(lp67
V2013/2014
p68
aVAZ Alkmaar
p69
aVUEL
p70
aV1
aV90
p71
aV-
aV-
aV-
aV-
aV-
aV85.7
p72
aV6
aV-
aV7.08
p73
aa(lp74
V2013/2014
p75
aVAZ Alkmaar
p76
aVNE
p77
aV0(2)
p78
aV52
p79
aV-
aV-
aV-
aV-
aV-
aV81.3
p80
aV0.5
p81
aV-
aV6.41
p82
aa(lp83
VTotal / Average
p84
aV
aV
aV124
p85
aV10625
p86
aV5
aV1
aV24
p87
aV1
aV0.6
p88
aV81.7
p89
aV2.4
p90
aV10
p91
aV6.99
p92
aasS'url'
p93
S'https://www.whoscored.com/Players/141172/History/'
p94
sS'passing_data'
p95
(lp96
(lp97
a(lp98
V2018/2019
p99
aVSouthampton
p100
aVEPL
p101
aV13
p102
aV1170
p103
aV-
aV-
aV2
aV-
aV0.5
p104
aV78.6
p105
aV2.5
p106
aV-
aV6.77
p107
aa(lp108
V2017/2018
p109
aVSouthampton
p110
aVEPL
p111
aV28
p112
aV2520
p113
aV-
aV1
aV7
aV-
aV0.5
p114
aV78.9
p115
aV2.2
p116
aV1
aV6.89
p117
aa(lp118
V2016/2017
p119
aVLazio
p120
aVISA
p121
aV21(2)
p122
aV1882
p123
aV2
aV-
aV5
aV-
aV0.9
p124
aV87.2
p125
aV2.3
p126
aV1
aV6.84
p127
aa(lp128
V2015/2016
p129
aVLazio
p130
aVISA
p131
aV24(1)
p132
aV2050
p133
aV-
aV-
aV4
aV1
aV0.5
p134
aV82.9
p135
aV1.4
p136
aV3
aV6.83
p137
aa(lp138
V2015/2016
p139
aVLazio
p140
aVUEL
p141
aV8
aV720
p142
aV1
aV-
aV2
aV-
aV0.6
p143
aV80.7
p144
aV2.9
p145
aV2
aV7.48
p146
aa(lp147
V2014/2015
p148
aVAZ Alkmaar
p149
aVNE
p150
aV24
p151
aV2141
p152
aV2
aV-
aV4
aV-
aV0.5
p153
aV80.5
p154
aV3.6
p155
aV3
aV7.44
p156
aa(lp157
V2013/2014
p158
aVAZ Alkmaar
p159
aVUEL
p160
aV1
aV90
p161
aV-
aV-
aV-
aV-
aV-
aV85.7
p162
aV6
aV-
aV7.08
p163
aa(lp164
V2013/2014
p165
aVAZ Alkmaar
p166
aVNE
p167
aV0(2)
p168
aV52
p169
aV-
aV-
aV-
aV-
aV-
aV81.3
p170
aV0.5
p171
aV-
aV6.41
p172
aa(lp173
VTotal / Average
p174
aV
aV
aV124
p175
aV10625
p176
aV5
aV1
aV24
p177
aV1
aV0.6
p178
aV81.7
p179
aV2.4
p180
aV10
p181
aV6.99
p182
aasS'defensive_data'
p183
(lp184
(lp185
a(lp186
V2018/2019
p187
aVSouthampton
p188
aVEPL
p189
aV13
p190
aV1170
p191
aV-
aV-
aV2
aV-
aV0.5
p192
aV78.6
p193
aV2.5
p194
aV-
aV6.77
p195
aa(lp196
V2017/2018
p197
aVSouthampton
p198
aVEPL
p199
aV28
p200
aV2520
p201
aV-
aV1
aV7
aV-
aV0.5
p202
aV78.9
p203
aV2.2
p204
aV1
aV6.89
p205
aa(lp206
V2016/2017
p207
aVLazio
p208
aVISA
p209
aV21(2)
p210
aV1882
p211
aV2
aV-
aV5
aV-
aV0.9
p212
aV87.2
p213
aV2.3
p214
aV1
aV6.84
p215
aa(lp216
V2015/2016
p217
aVLazio
p218
aVISA
p219
aV24(1)
p220
aV2050
p221
aV-
aV-
aV4
aV1
aV0.5
p222
aV82.9
p223
aV1.4
p224
aV3
aV6.83
p225
aa(lp226
V2015/2016
p227
aVLazio
p228
aVUEL
p229
aV8
aV720
p230
aV1
aV-
aV2
aV-
aV0.6
p231
aV80.7
p232
aV2.9
p233
aV2
aV7.48
p234
aa(lp235
V2014/2015
p236
aVAZ Alkmaar
p237
aVNE
p238
aV24
p239
aV2141
p240
aV2
aV-
aV4
aV-
aV0.5
p241
aV80.5
p242
aV3.6
p243
aV3
aV7.44
p244
aa(lp245
V2013/2014
p246
aVAZ Alkmaar
p247
aVUEL
p248
aV1
aV90
p249
aV-
aV-
aV-
aV-
aV-
aV85.7
p250
aV6
aV-
aV7.08
p251
aa(lp252
V2013/2014
p253
aVAZ Alkmaar
p254
aVNE
p255
aV0(2)
p256
aV52
p257
aV-
aV-
aV-
aV-
aV-
aV81.3
p258
aV0.5
p259
aV-
aV6.41
p260
aa(lp261
VTotal / Average
p262
aV
aV
aV124
p263
aV10625
p264
aV5
aV1
aV24
p265
aV1
aV0.6
p266
aV81.7
p267
aV2.4
p268
aV10
p269
aV6.99
p270
aasS'sumary_data'
p271
(lp272
(lp273
a(lp274
V2018/2019
p275
aVSouthampton
p276
aVEPL
p277
aV13
p278
aV1170
p279
aV-
aV-
aV2
aV-
aV0.5
p280
aV78.6
p281
aV2.5
p282
aV-
aV6.77
p283
aa(lp284
V2017/2018
p285
aVSouthampton
p286
aVEPL
p287
aV28
p288
aV2520
p289
aV-
aV1
aV7
aV-
aV0.5
p290
aV78.9
p291
aV2.2
p292
aV1
aV6.89
p293
aa(lp294
V2016/2017
p295
aVLazio
p296
aVISA
p297
aV21(2)
p298
aV1882
p299
aV2
aV-
aV5
aV-
aV0.9
p300
aV87.2
p301
aV2.3
p302
aV1
aV6.84
p303
aa(lp304
V2015/2016
p305
aVLazio
p306
aVISA
p307
aV24(1)
p308
aV2050
p309
aV-
aV-
aV4
aV1
aV0.5
p310
aV82.9
p311
aV1.4
p312
aV3
aV6.83
p313
aa(lp314
V2015/2016
p315
aVLazio
p316
aVUEL
p317
aV8
aV720
p318
aV1
aV-
aV2
aV-
aV0.6
p319
aV80.7
p320
aV2.9
p321
aV2
aV7.48
p322
aa(lp323
V2014/2015
p324
aVAZ Alkmaar
p325
aVNE
p326
aV24
p327
aV2141
p328
aV2
aV-
aV4
aV-
aV0.5
p329
aV80.5
p330
aV3.6
p331
aV3
aV7.44
p332
aa(lp333
V2013/2014
p334
aVAZ Alkmaar
p335
aVUEL
p336
aV1
aV90
p337
aV-
aV-
aV-
aV-
aV-
aV85.7
p338
aV6
aV-
aV7.08
p339
aa(lp340
V2013/2014
p341
aVAZ Alkmaar
p342
aVNE
p343
aV0(2)
p344
aV52
p345
aV-
aV-
aV-
aV-
aV-
aV81.3
p346
aV0.5
p347
aV-
aV6.41
p348
aa(lp349
VTotal / Average
p350
aV
aV
aV124
p351
aV10625
p352
aV5
aV1
aV24
p353
aV1
aV0.6
p354
aV81.7
p355
aV2.4
p356
aV10
p357
aV6.99
p358
aasS'id'
p359
V141172
p360
sb.