(i__main__
Player
p1
(dp2
S'name'
p3
VDavide Zappacosta 
p4
sS'offensive_data'
p5
(lp6
(lp7
a(lp8
V2018/2019
p9
aVChelsea
p10
aVEPL
p11
aV0(2)
p12
aV18
p13
aV-
aV-
aV-
aV-
aV1
aV91.7
p14
aV0.5
p15
aV-
aV6.21
p16
aa(lp17
V2018/2019
p18
aVChelsea
p19
aVUEL
p20
aV6
aV513
p21
aV-
aV1
aV-
aV-
aV1.7
p22
aV92.3
p23
aV0.2
p24
aV-
aV7.13
p25
aa(lp26
V2018/2019
p27
aVItaly
p28
aVUNL
p29
aV1
aV90
p30
aV-
aV-
aV-
aV-
aV-
aV92.3
p31
aV3
aV-
aV6.71
p32
aa(lp33
V2017/2018
p34
aVTorino
p35
aVISA
p36
aV1(1)
p37
aV95
p38
aV-
aV-
aV-
aV-
aV-
aV77.4
p39
aV0.5
p40
aV-
aV6.25
p41
aa(lp42
V2017/2018
p43
aVChelsea
p44
aVUCL
p45
aV4(1)
p46
aV353
p47
aV1
aV-
aV1
aV-
aV1.4
p48
aV78.1
p49
aV0.2
p50
aV-
aV6.91
p51
aa(lp52
V2017/2018
p53
aVChelsea
p54
aVEPL
p55
aV12(10)
p56
aV1096
p57
aV1
aV1
aV-
aV-
aV1.1
p58
aV84.9
p59
aV0.6
p60
aV-
aV6.61
p61
aa(lp62
V2016/2017
p63
aVTorino
p64
aVISA
p65
aV25(4)
p66
aV2334
p67
aV1
aV5
aV1
aV-
aV1
aV82.8
p68
aV0.7
p69
aV1
aV6.91
p70
aa(lp71
V2015/2016
p72
aVTorino
p73
aVISA
p74
aV13(12)
p75
aV1265
p76
aV1
aV1
aV3
aV-
aV0.6
p77
aV78.9
p78
aV0.2
p79
aV-
aV6.39
p80
aa(lp81
V2015
p82
aVItaly U21
p83
aVIEU
p84
aV3
aV263
p85
aV-
aV-
aV1
aV-
aV0.3
p86
aV86
p87
aV1.3
p88
aV-
aV7.08
p89
aa(lp90
V2014/2015
p91
aVAtalanta
p92
aVISA
p93
aV27(2)
p94
aV2260
p95
aV3
aV1
aV4
aV-
aV0.9
p96
aV78.1
p97
aV0.6
p98
aV-
aV6.67
p99
aa(lp100
VTotal / Average
p101
aV
aV
aV124
p102
aV8287
p103
aV7
aV9
aV10
p104
aV0
aV0.9
p105
aV81.8
p106
aV0.5
p107
aV1
aV6.69
p108
aasS'url'
p109
S'https://www.whoscored.com/Players/141312/History/'
p110
sS'passing_data'
p111
(lp112
(lp113
a(lp114
V2018/2019
p115
aVChelsea
p116
aVEPL
p117
aV0(2)
p118
aV18
p119
aV-
aV-
aV-
aV-
aV1
aV91.7
p120
aV0.5
p121
aV-
aV6.21
p122
aa(lp123
V2018/2019
p124
aVChelsea
p125
aVUEL
p126
aV6
aV513
p127
aV-
aV1
aV-
aV-
aV1.7
p128
aV92.3
p129
aV0.2
p130
aV-
aV7.13
p131
aa(lp132
V2018/2019
p133
aVItaly
p134
aVUNL
p135
aV1
aV90
p136
aV-
aV-
aV-
aV-
aV-
aV92.3
p137
aV3
aV-
aV6.71
p138
aa(lp139
V2017/2018
p140
aVTorino
p141
aVISA
p142
aV1(1)
p143
aV95
p144
aV-
aV-
aV-
aV-
aV-
aV77.4
p145
aV0.5
p146
aV-
aV6.25
p147
aa(lp148
V2017/2018
p149
aVChelsea
p150
aVUCL
p151
aV4(1)
p152
aV353
p153
aV1
aV-
aV1
aV-
aV1.4
p154
aV78.1
p155
aV0.2
p156
aV-
aV6.91
p157
aa(lp158
V2017/2018
p159
aVChelsea
p160
aVEPL
p161
aV12(10)
p162
aV1096
p163
aV1
aV1
aV-
aV-
aV1.1
p164
aV84.9
p165
aV0.6
p166
aV-
aV6.61
p167
aa(lp168
V2016/2017
p169
aVTorino
p170
aVISA
p171
aV25(4)
p172
aV2334
p173
aV1
aV5
aV1
aV-
aV1
aV82.8
p174
aV0.7
p175
aV1
aV6.91
p176
aa(lp177
V2015/2016
p178
aVTorino
p179
aVISA
p180
aV13(12)
p181
aV1265
p182
aV1
aV1
aV3
aV-
aV0.6
p183
aV78.9
p184
aV0.2
p185
aV-
aV6.39
p186
aa(lp187
V2015
p188
aVItaly U21
p189
aVIEU
p190
aV3
aV263
p191
aV-
aV-
aV1
aV-
aV0.3
p192
aV86
p193
aV1.3
p194
aV-
aV7.08
p195
aa(lp196
V2014/2015
p197
aVAtalanta
p198
aVISA
p199
aV27(2)
p200
aV2260
p201
aV3
aV1
aV4
aV-
aV0.9
p202
aV78.1
p203
aV0.6
p204
aV-
aV6.67
p205
aa(lp206
VTotal / Average
p207
aV
aV
aV124
p208
aV8287
p209
aV7
aV9
aV10
p210
aV0
aV0.9
p211
aV81.8
p212
aV0.5
p213
aV1
aV6.69
p214
aasS'defensive_data'
p215
(lp216
(lp217
a(lp218
V2018/2019
p219
aVChelsea
p220
aVEPL
p221
aV0(2)
p222
aV18
p223
aV-
aV-
aV-
aV-
aV1
aV91.7
p224
aV0.5
p225
aV-
aV6.21
p226
aa(lp227
V2018/2019
p228
aVChelsea
p229
aVUEL
p230
aV6
aV513
p231
aV-
aV1
aV-
aV-
aV1.7
p232
aV92.3
p233
aV0.2
p234
aV-
aV7.13
p235
aa(lp236
V2018/2019
p237
aVItaly
p238
aVUNL
p239
aV1
aV90
p240
aV-
aV-
aV-
aV-
aV-
aV92.3
p241
aV3
aV-
aV6.71
p242
aa(lp243
V2017/2018
p244
aVTorino
p245
aVISA
p246
aV1(1)
p247
aV95
p248
aV-
aV-
aV-
aV-
aV-
aV77.4
p249
aV0.5
p250
aV-
aV6.25
p251
aa(lp252
V2017/2018
p253
aVChelsea
p254
aVUCL
p255
aV4(1)
p256
aV353
p257
aV1
aV-
aV1
aV-
aV1.4
p258
aV78.1
p259
aV0.2
p260
aV-
aV6.91
p261
aa(lp262
V2017/2018
p263
aVChelsea
p264
aVEPL
p265
aV12(10)
p266
aV1096
p267
aV1
aV1
aV-
aV-
aV1.1
p268
aV84.9
p269
aV0.6
p270
aV-
aV6.61
p271
aa(lp272
V2016/2017
p273
aVTorino
p274
aVISA
p275
aV25(4)
p276
aV2334
p277
aV1
aV5
aV1
aV-
aV1
aV82.8
p278
aV0.7
p279
aV1
aV6.91
p280
aa(lp281
V2015/2016
p282
aVTorino
p283
aVISA
p284
aV13(12)
p285
aV1265
p286
aV1
aV1
aV3
aV-
aV0.6
p287
aV78.9
p288
aV0.2
p289
aV-
aV6.39
p290
aa(lp291
V2015
p292
aVItaly U21
p293
aVIEU
p294
aV3
aV263
p295
aV-
aV-
aV1
aV-
aV0.3
p296
aV86
p297
aV1.3
p298
aV-
aV7.08
p299
aa(lp300
V2014/2015
p301
aVAtalanta
p302
aVISA
p303
aV27(2)
p304
aV2260
p305
aV3
aV1
aV4
aV-
aV0.9
p306
aV78.1
p307
aV0.6
p308
aV-
aV6.67
p309
aa(lp310
VTotal / Average
p311
aV
aV
aV124
p312
aV8287
p313
aV7
aV9
aV10
p314
aV0
aV0.9
p315
aV81.8
p316
aV0.5
p317
aV1
aV6.69
p318
aasS'sumary_data'
p319
(lp320
(lp321
a(lp322
V2018/2019
p323
aVChelsea
p324
aVEPL
p325
aV0(2)
p326
aV18
p327
aV-
aV-
aV-
aV-
aV1
aV91.7
p328
aV0.5
p329
aV-
aV6.21
p330
aa(lp331
V2018/2019
p332
aVChelsea
p333
aVUEL
p334
aV6
aV513
p335
aV-
aV1
aV-
aV-
aV1.7
p336
aV92.3
p337
aV0.2
p338
aV-
aV7.13
p339
aa(lp340
V2018/2019
p341
aVItaly
p342
aVUNL
p343
aV1
aV90
p344
aV-
aV-
aV-
aV-
aV-
aV92.3
p345
aV3
aV-
aV6.71
p346
aa(lp347
V2017/2018
p348
aVTorino
p349
aVISA
p350
aV1(1)
p351
aV95
p352
aV-
aV-
aV-
aV-
aV-
aV77.4
p353
aV0.5
p354
aV-
aV6.25
p355
aa(lp356
V2017/2018
p357
aVChelsea
p358
aVUCL
p359
aV4(1)
p360
aV353
p361
aV1
aV-
aV1
aV-
aV1.4
p362
aV78.1
p363
aV0.2
p364
aV-
aV6.91
p365
aa(lp366
V2017/2018
p367
aVChelsea
p368
aVEPL
p369
aV12(10)
p370
aV1096
p371
aV1
aV1
aV-
aV-
aV1.1
p372
aV84.9
p373
aV0.6
p374
aV-
aV6.61
p375
aa(lp376
V2016/2017
p377
aVTorino
p378
aVISA
p379
aV25(4)
p380
aV2334
p381
aV1
aV5
aV1
aV-
aV1
aV82.8
p382
aV0.7
p383
aV1
aV6.91
p384
aa(lp385
V2015/2016
p386
aVTorino
p387
aVISA
p388
aV13(12)
p389
aV1265
p390
aV1
aV1
aV3
aV-
aV0.6
p391
aV78.9
p392
aV0.2
p393
aV-
aV6.39
p394
aa(lp395
V2015
p396
aVItaly U21
p397
aVIEU
p398
aV3
aV263
p399
aV-
aV-
aV1
aV-
aV0.3
p400
aV86
p401
aV1.3
p402
aV-
aV7.08
p403
aa(lp404
V2014/2015
p405
aVAtalanta
p406
aVISA
p407
aV27(2)
p408
aV2260
p409
aV3
aV1
aV4
aV-
aV0.9
p410
aV78.1
p411
aV0.6
p412
aV-
aV6.67
p413
aa(lp414
VTotal / Average
p415
aV
aV
aV124
p416
aV8287
p417
aV7
aV9
aV10
p418
aV0
aV0.9
p419
aV81.8
p420
aV0.5
p421
aV1
aV6.69
p422
aasS'id'
p423
V141312
p424
sb.