(i__main__
Player
p1
(dp2
S'name'
p3
VDominic Calvert-Lewin 
p4
sS'offensive_data'
p5
(lp6
(lp7
a(lp8
V2018/2019
p9
aVEverton
p10
aVEPL
p11
aV5(10)
p12
aV483
p13
aV3
aV-
aV2
aV-
aV0.9
p14
aV59.3
p15
aV1.5
p16
aV-
aV6.33
p17
aa(lp18
V2017/2018
p19
aVEverton
p20
aVUEL
p21
aV2(3)
p22
aV229
p23
aV-
aV-
aV1
aV-
aV1
aV67.2
p24
aV1.8
p25
aV-
aV6.08
p26
aa(lp27
V2017/2018
p28
aVEverton
p29
aVEPL
p30
aV18(14)
p31
aV1876
p32
aV4
aV6
aV4
aV-
aV1.3
p33
aV60.9
p34
aV4.2
p35
aV2
aV6.72
p36
aa(lp37
V2016/2017
p38
aVEverton
p39
aVEPL
p40
aV5(6)
p41
aV346
p42
aV1
aV-
aV1
aV-
aV0.6
p43
aV66.7
p44
aV1.5
p45
aV-
aV6.26
p46
aa(lp47
VTotal / Average
p48
aV
aV
aV63
p49
aV2934
p50
aV8
aV6
aV8
aV0
aV1.1
p51
aV62
p52
aV2.9
p53
aV2
aV6.50
p54
aasS'url'
p55
S'https://www.whoscored.com/Players/141469/History/'
p56
sS'passing_data'
p57
(lp58
(lp59
a(lp60
V2018/2019
p61
aVEverton
p62
aVEPL
p63
aV5(10)
p64
aV483
p65
aV3
aV-
aV2
aV-
aV0.9
p66
aV59.3
p67
aV1.5
p68
aV-
aV6.33
p69
aa(lp70
V2017/2018
p71
aVEverton
p72
aVUEL
p73
aV2(3)
p74
aV229
p75
aV-
aV-
aV1
aV-
aV1
aV67.2
p76
aV1.8
p77
aV-
aV6.08
p78
aa(lp79
V2017/2018
p80
aVEverton
p81
aVEPL
p82
aV18(14)
p83
aV1876
p84
aV4
aV6
aV4
aV-
aV1.3
p85
aV60.9
p86
aV4.2
p87
aV2
aV6.72
p88
aa(lp89
V2016/2017
p90
aVEverton
p91
aVEPL
p92
aV5(6)
p93
aV346
p94
aV1
aV-
aV1
aV-
aV0.6
p95
aV66.7
p96
aV1.5
p97
aV-
aV6.26
p98
aa(lp99
VTotal / Average
p100
aV
aV
aV63
p101
aV2934
p102
aV8
aV6
aV8
aV0
aV1.1
p103
aV62
p104
aV2.9
p105
aV2
aV6.50
p106
aasS'defensive_data'
p107
(lp108
(lp109
a(lp110
V2018/2019
p111
aVEverton
p112
aVEPL
p113
aV5(10)
p114
aV483
p115
aV3
aV-
aV2
aV-
aV0.9
p116
aV59.3
p117
aV1.5
p118
aV-
aV6.33
p119
aa(lp120
V2017/2018
p121
aVEverton
p122
aVUEL
p123
aV2(3)
p124
aV229
p125
aV-
aV-
aV1
aV-
aV1
aV67.2
p126
aV1.8
p127
aV-
aV6.08
p128
aa(lp129
V2017/2018
p130
aVEverton
p131
aVEPL
p132
aV18(14)
p133
aV1876
p134
aV4
aV6
aV4
aV-
aV1.3
p135
aV60.9
p136
aV4.2
p137
aV2
aV6.72
p138
aa(lp139
V2016/2017
p140
aVEverton
p141
aVEPL
p142
aV5(6)
p143
aV346
p144
aV1
aV-
aV1
aV-
aV0.6
p145
aV66.7
p146
aV1.5
p147
aV-
aV6.26
p148
aa(lp149
VTotal / Average
p150
aV
aV
aV63
p151
aV2934
p152
aV8
aV6
aV8
aV0
aV1.1
p153
aV62
p154
aV2.9
p155
aV2
aV6.50
p156
aasS'sumary_data'
p157
(lp158
(lp159
a(lp160
V2018/2019
p161
aVEverton
p162
aVEPL
p163
aV5(10)
p164
aV483
p165
aV3
aV-
aV2
aV-
aV0.9
p166
aV59.3
p167
aV1.5
p168
aV-
aV6.33
p169
aa(lp170
V2017/2018
p171
aVEverton
p172
aVUEL
p173
aV2(3)
p174
aV229
p175
aV-
aV-
aV1
aV-
aV1
aV67.2
p176
aV1.8
p177
aV-
aV6.08
p178
aa(lp179
V2017/2018
p180
aVEverton
p181
aVEPL
p182
aV18(14)
p183
aV1876
p184
aV4
aV6
aV4
aV-
aV1.3
p185
aV60.9
p186
aV4.2
p187
aV2
aV6.72
p188
aa(lp189
V2016/2017
p190
aVEverton
p191
aVEPL
p192
aV5(6)
p193
aV346
p194
aV1
aV-
aV1
aV-
aV0.6
p195
aV66.7
p196
aV1.5
p197
aV-
aV6.26
p198
aa(lp199
VTotal / Average
p200
aV
aV
aV63
p201
aV2934
p202
aV8
aV6
aV8
aV0
aV1.1
p203
aV62
p204
aV2.9
p205
aV2
aV6.50
p206
aasS'id'
p207
V141469
p208
sb.