(i__main__
Player
p1
(dp2
S'name'
p3
VJacob Murphy 
p4
sS'offensive_data'
p5
(lp6
(lp7
a(lp8
V2018/2019
p9
aVNewcastle Uni..
p10
aVEPL
p11
aV3(4)
p12
aV282
p13
aV-
aV1
aV-
aV-
aV0.3
p14
aV65
p15
aV0.4
p16
aV-
aV6.30
p17
aa(lp18
V2017/2018
p19
aVNewcastle Uni..
p20
aVEPL
p21
aV13(12)
p22
aV1145
p23
aV1
aV1
aV-
aV-
aV0.9
p24
aV65.5
p25
aV0.3
p26
aV-
aV6.29
p27
aa(lp28
V2016/2017
p29
aVNorwich
p30
aVEC
p31
aV32(5)
p32
aV2624
p33
aV9
aV6
aV1
aV-
aV2.4
p34
aV69.1
p35
aV0.6
p36
aV3
aV6.96
p37
aa(lp38
V2014/2015
p39
aVBlackpool
p40
aVEC
p41
aV8(1)
p42
aV662
p43
aV2
aV1
aV-
aV-
aV2.2
p44
aV78.2
p45
aV0.3
p46
aV1
aV6.91
p47
aa(lp48
VTotal / Average
p49
aV
aV
aV78
p50
aV4713
p51
aV12
p52
aV9
aV1
aV0
aV1.7
p53
aV68.6
p54
aV0.5
p55
aV4
aV6.68
p56
aasS'url'
p57
S'https://www.whoscored.com/Players/141486/History/'
p58
sS'passing_data'
p59
(lp60
(lp61
a(lp62
V2018/2019
p63
aVNewcastle Uni..
p64
aVEPL
p65
aV3(4)
p66
aV282
p67
aV-
aV1
aV-
aV-
aV0.3
p68
aV65
p69
aV0.4
p70
aV-
aV6.30
p71
aa(lp72
V2017/2018
p73
aVNewcastle Uni..
p74
aVEPL
p75
aV13(12)
p76
aV1145
p77
aV1
aV1
aV-
aV-
aV0.9
p78
aV65.5
p79
aV0.3
p80
aV-
aV6.29
p81
aa(lp82
V2016/2017
p83
aVNorwich
p84
aVEC
p85
aV32(5)
p86
aV2624
p87
aV9
aV6
aV1
aV-
aV2.4
p88
aV69.1
p89
aV0.6
p90
aV3
aV6.96
p91
aa(lp92
V2014/2015
p93
aVBlackpool
p94
aVEC
p95
aV8(1)
p96
aV662
p97
aV2
aV1
aV-
aV-
aV2.2
p98
aV78.2
p99
aV0.3
p100
aV1
aV6.91
p101
aa(lp102
VTotal / Average
p103
aV
aV
aV78
p104
aV4713
p105
aV12
p106
aV9
aV1
aV0
aV1.7
p107
aV68.6
p108
aV0.5
p109
aV4
aV6.68
p110
aasS'defensive_data'
p111
(lp112
(lp113
a(lp114
V2018/2019
p115
aVNewcastle Uni..
p116
aVEPL
p117
aV3(4)
p118
aV282
p119
aV-
aV1
aV-
aV-
aV0.3
p120
aV65
p121
aV0.4
p122
aV-
aV6.30
p123
aa(lp124
V2017/2018
p125
aVNewcastle Uni..
p126
aVEPL
p127
aV13(12)
p128
aV1145
p129
aV1
aV1
aV-
aV-
aV0.9
p130
aV65.5
p131
aV0.3
p132
aV-
aV6.29
p133
aa(lp134
V2016/2017
p135
aVNorwich
p136
aVEC
p137
aV32(5)
p138
aV2624
p139
aV9
aV6
aV1
aV-
aV2.4
p140
aV69.1
p141
aV0.6
p142
aV3
aV6.96
p143
aa(lp144
V2014/2015
p145
aVBlackpool
p146
aVEC
p147
aV8(1)
p148
aV662
p149
aV2
aV1
aV-
aV-
aV2.2
p150
aV78.2
p151
aV0.3
p152
aV1
aV6.91
p153
aa(lp154
VTotal / Average
p155
aV
aV
aV78
p156
aV4713
p157
aV12
p158
aV9
aV1
aV0
aV1.7
p159
aV68.6
p160
aV0.5
p161
aV4
aV6.68
p162
aasS'sumary_data'
p163
(lp164
(lp165
a(lp166
V2018/2019
p167
aVNewcastle Uni..
p168
aVEPL
p169
aV3(4)
p170
aV282
p171
aV-
aV1
aV-
aV-
aV0.3
p172
aV65
p173
aV0.4
p174
aV-
aV6.30
p175
aa(lp176
V2017/2018
p177
aVNewcastle Uni..
p178
aVEPL
p179
aV13(12)
p180
aV1145
p181
aV1
aV1
aV-
aV-
aV0.9
p182
aV65.5
p183
aV0.3
p184
aV-
aV6.29
p185
aa(lp186
V2016/2017
p187
aVNorwich
p188
aVEC
p189
aV32(5)
p190
aV2624
p191
aV9
aV6
aV1
aV-
aV2.4
p192
aV69.1
p193
aV0.6
p194
aV3
aV6.96
p195
aa(lp196
V2014/2015
p197
aVBlackpool
p198
aVEC
p199
aV8(1)
p200
aV662
p201
aV2
aV1
aV-
aV-
aV2.2
p202
aV78.2
p203
aV0.3
p204
aV1
aV6.91
p205
aa(lp206
VTotal / Average
p207
aV
aV
aV78
p208
aV4713
p209
aV12
p210
aV9
aV1
aV0
aV1.7
p211
aV68.6
p212
aV0.5
p213
aV4
aV6.68
p214
aasS'id'
p215
V141486
p216
sb.