(i__main__
Player
p1
(dp2
S'name'
p3
VMohamed Elyounoussi 
p4
sS'offensive_data'
p5
(lp6
(lp7
a(lp8
V2018/2019
p9
aVSouthampton
p10
aVEPL
p11
aV6(4)
p12
aV549
p13
aV-
aV-
aV-
aV-
aV1.7
p14
aV72.6
p15
aV0.8
p16
aV-
aV6.73
p17
aa(lp18
V2018/2019
p19
aVNorway
p20
aVUNL
p21
aV6
aV540
p22
aV1
aV-
aV-
aV1
aV2.5
p23
aV66.7
p24
aV1
aV-
aV6.65
p25
aa(lp26
V2017/2018
p27
aVFC Basel 1893
p28
aVUCL
p29
aV7(1)
p30
aV641
p31
aV2
aV1
aV-
aV-
aV2.6
p32
aV71.6
p33
aV1
aV1
aV7.02
p34
aa(lp35
V2016/2017
p36
aVFC Basel 1893
p37
aVUCL
p38
aV2(1)
p39
aV168
p40
aV-
aV-
aV1
aV-
aV0.7
p41
aV66.7
p42
aV2
aV1
aV6.81
p43
aa(lp44
V2016
p45
aVMolde
p46
aVNE
p47
aV11(1)
p48
aV1002
p49
aV5
aV1
aV3
aV-
aV4
aV77.4
p50
aV1.3
p51
aV1
aV7.28
p52
aa(lp53
V2015/2016
p54
aVMolde
p55
aVUEL
p56
aV7
aV591
p57
aV3
aV1
aV-
aV1
aV2.4
p58
aV76.3
p59
aV0.9
p60
aV1
aV7.41
p61
aa(lp62
VTotal / Average
p63
aV
aV
aV46
p64
aV3491
p65
aV11
p66
aV3
aV4
aV2
aV2.6
p67
aV73.1
p68
aV1.1
p69
aV4
aV7.02
p70
aasS'url'
p71
S'https://www.whoscored.com/Players/141732/History/'
p72
sS'passing_data'
p73
(lp74
(lp75
a(lp76
V2018/2019
p77
aVSouthampton
p78
aVEPL
p79
aV6(4)
p80
aV549
p81
aV-
aV-
aV-
aV-
aV1.7
p82
aV72.6
p83
aV0.8
p84
aV-
aV6.73
p85
aa(lp86
V2018/2019
p87
aVNorway
p88
aVUNL
p89
aV6
aV540
p90
aV1
aV-
aV-
aV1
aV2.5
p91
aV66.7
p92
aV1
aV-
aV6.65
p93
aa(lp94
V2017/2018
p95
aVFC Basel 1893
p96
aVUCL
p97
aV7(1)
p98
aV641
p99
aV2
aV1
aV-
aV-
aV2.6
p100
aV71.6
p101
aV1
aV1
aV7.02
p102
aa(lp103
V2016/2017
p104
aVFC Basel 1893
p105
aVUCL
p106
aV2(1)
p107
aV168
p108
aV-
aV-
aV1
aV-
aV0.7
p109
aV66.7
p110
aV2
aV1
aV6.81
p111
aa(lp112
V2016
p113
aVMolde
p114
aVNE
p115
aV11(1)
p116
aV1002
p117
aV5
aV1
aV3
aV-
aV4
aV77.4
p118
aV1.3
p119
aV1
aV7.28
p120
aa(lp121
V2015/2016
p122
aVMolde
p123
aVUEL
p124
aV7
aV591
p125
aV3
aV1
aV-
aV1
aV2.4
p126
aV76.3
p127
aV0.9
p128
aV1
aV7.41
p129
aa(lp130
VTotal / Average
p131
aV
aV
aV46
p132
aV3491
p133
aV11
p134
aV3
aV4
aV2
aV2.6
p135
aV73.1
p136
aV1.1
p137
aV4
aV7.02
p138
aasS'defensive_data'
p139
(lp140
(lp141
a(lp142
V2018/2019
p143
aVSouthampton
p144
aVEPL
p145
aV6(4)
p146
aV549
p147
aV-
aV-
aV-
aV-
aV1.7
p148
aV72.6
p149
aV0.8
p150
aV-
aV6.73
p151
aa(lp152
V2018/2019
p153
aVNorway
p154
aVUNL
p155
aV6
aV540
p156
aV1
aV-
aV-
aV1
aV2.5
p157
aV66.7
p158
aV1
aV-
aV6.65
p159
aa(lp160
V2017/2018
p161
aVFC Basel 1893
p162
aVUCL
p163
aV7(1)
p164
aV641
p165
aV2
aV1
aV-
aV-
aV2.6
p166
aV71.6
p167
aV1
aV1
aV7.02
p168
aa(lp169
V2016/2017
p170
aVFC Basel 1893
p171
aVUCL
p172
aV2(1)
p173
aV168
p174
aV-
aV-
aV1
aV-
aV0.7
p175
aV66.7
p176
aV2
aV1
aV6.81
p177
aa(lp178
V2016
p179
aVMolde
p180
aVNE
p181
aV11(1)
p182
aV1002
p183
aV5
aV1
aV3
aV-
aV4
aV77.4
p184
aV1.3
p185
aV1
aV7.28
p186
aa(lp187
V2015/2016
p188
aVMolde
p189
aVUEL
p190
aV7
aV591
p191
aV3
aV1
aV-
aV1
aV2.4
p192
aV76.3
p193
aV0.9
p194
aV1
aV7.41
p195
aa(lp196
VTotal / Average
p197
aV
aV
aV46
p198
aV3491
p199
aV11
p200
aV3
aV4
aV2
aV2.6
p201
aV73.1
p202
aV1.1
p203
aV4
aV7.02
p204
aasS'sumary_data'
p205
(lp206
(lp207
a(lp208
V2018/2019
p209
aVSouthampton
p210
aVEPL
p211
aV6(4)
p212
aV549
p213
aV-
aV-
aV-
aV-
aV1.7
p214
aV72.6
p215
aV0.8
p216
aV-
aV6.73
p217
aa(lp218
V2018/2019
p219
aVNorway
p220
aVUNL
p221
aV6
aV540
p222
aV1
aV-
aV-
aV1
aV2.5
p223
aV66.7
p224
aV1
aV-
aV6.65
p225
aa(lp226
V2017/2018
p227
aVFC Basel 1893
p228
aVUCL
p229
aV7(1)
p230
aV641
p231
aV2
aV1
aV-
aV-
aV2.6
p232
aV71.6
p233
aV1
aV1
aV7.02
p234
aa(lp235
V2016/2017
p236
aVFC Basel 1893
p237
aVUCL
p238
aV2(1)
p239
aV168
p240
aV-
aV-
aV1
aV-
aV0.7
p241
aV66.7
p242
aV2
aV1
aV6.81
p243
aa(lp244
V2016
p245
aVMolde
p246
aVNE
p247
aV11(1)
p248
aV1002
p249
aV5
aV1
aV3
aV-
aV4
aV77.4
p250
aV1.3
p251
aV1
aV7.28
p252
aa(lp253
V2015/2016
p254
aVMolde
p255
aVUEL
p256
aV7
aV591
p257
aV3
aV1
aV-
aV1
aV2.4
p258
aV76.3
p259
aV0.9
p260
aV1
aV7.41
p261
aa(lp262
VTotal / Average
p263
aV
aV
aV46
p264
aV3491
p265
aV11
p266
aV3
aV4
aV2
aV2.6
p267
aV73.1
p268
aV1.1
p269
aV4
aV7.02
p270
aasS'id'
p271
V141732
p272
sb.