(i__main__
Player
p1
(dp2
S'name'
p3
VPablo Zabaleta 
p4
sS'offensive_data'
p5
(lp6
(lp7
a(lp8
V2018/2019
p9
aVWest Ham
p10
aVEPL
p11
aV13
p12
aV1153
p13
aV-
aV1
aV4
aV-
aV0.2
p14
aV76.6
p15
aV2.5
p16
aV-
aV7.03
p17
aa(lp18
V2017/2018
p19
aVWest Ham
p20
aVEPL
p21
aV37
p22
aV3291
p23
aV-
aV1
aV9
aV-
aV0.2
p24
aV73.2
p25
aV1.6
p26
aV-
aV6.75
p27
aa(lp28
V2016/2017
p29
aVManchester Ci..
p30
aVUCL
p31
aV5(1)
p32
aV445
p33
aV-
aV-
aV1
aV-
aV0.3
p34
aV81.3
p35
aV1.3
p36
aV-
aV6.78
p37
aa(lp38
V2016/2017
p39
aVManchester Ci..
p40
aVEPL
p41
aV11(9)
p42
aV1060
p43
aV1
aV1
aV2
aV-
aV0.4
p44
aV82.9
p45
aV1.2
p46
aV1
aV6.74
p47
aa(lp48
V2015/2016
p49
aVManchester Ci..
p50
aVUCL
p51
aV2(1)
p52
aV151
p53
aV-
aV-
aV-
aV-
aV-
aV77.3
p54
aV-
aV-
aV6.50
p55
aa(lp56
V2015/2016
p57
aVManchester Ci..
p58
aVEPL
p59
aV12(1)
p60
aV1062
p61
aV-
aV1
aV3
aV-
aV0.2
p62
aV85
p63
aV1.4
p64
aV-
aV6.97
p65
aa(lp66
V2015
p67
aVArgentina
p68
aVICA
p69
aV5
aV510
p70
aV-
aV1
aV1
aV-
aV0.4
p71
aV80
p72
aV1.6
p73
aV-
aV7.16
p74
aa(lp75
V2014/2015
p76
aVManchester Ci..
p77
aVUCL
p78
aV5(1)
p79
aV472
p80
aV1
aV-
aV2
aV-
aV0.7
p81
aV80.7
p82
aV1.3
p83
aV-
aV6.92
p84
aa(lp85
V2014/2015
p86
aVManchester Ci..
p87
aVEPL
p88
aV29
p89
aV2586
p90
aV1
aV4
aV6
aV1
aV0.4
p91
aV85.3
p92
aV1.8
p93
aV1
aV7.23
p94
aa(lp95
V2013/2014
p96
aVManchester Ci..
p97
aVUCL
p98
aV5(1)
p99
aV512
p100
aV-
aV-
aV2
aV1
aV0.3
p101
aV87.1
p102
aV0.2
p103
aV-
aV6.87
p104
aa(lp105
V2013/2014
p106
aVManchester Ci..
p107
aVEPL
p108
aV34(1)
p109
aV3079
p110
aV1
aV6
aV11
p111
aV-
aV0.6
p112
aV84.7
p113
aV1.3
p114
aV2
aV7.25
p115
aa(lp116
V2014
p117
aVArgentina
p118
aVWC
p119
aV7
aV721
p120
aV-
aV-
aV-
aV-
aV0.1
p121
aV82.2
p122
aV0.7
p123
aV-
aV7.06
p124
aa(lp125
V2012/2013
p126
aVManchester Ci..
p127
aVUCL
p128
aV3(2)
p129
aV307
p130
aV-
aV-
aV1
aV-
aV0.8
p131
aV80.6
p132
aV2.4
p133
aV-
aV6.81
p134
aa(lp135
V2012/2013
p136
aVManchester Ci..
p137
aVEPL
p138
aV29(1)
p139
aV2652
p140
aV2
aV2
aV7
aV-
aV0.7
p141
aV85.1
p142
aV1.5
p143
aV2
aV7.18
p144
aa(lp145
V2011/2012
p146
aVManchester Ci..
p147
aVUCL
p148
aV4
aV356
p149
aV-
aV-
aV1
aV-
aV0.3
p150
aV92.2
p151
aV0.3
p152
aV-
aV7.00
p153
aa(lp154
V2011/2012
p155
aVManchester Ci..
p156
aVEPL
p157
aV18(3)
p158
aV1549
p159
aV1
aV-
aV5
aV-
aV0.9
p160
aV87.4
p161
aV1
aV2
aV7.29
p162
aa(lp163
V2010/2011
p164
aVManchester Ci..
p165
aVEPL
p166
aV21(5)
p167
aV1946
p168
aV2
aV2
aV8
aV1
aV0.7
p169
aV79.3
p170
aV1.7
p171
aV2
aV7.27
p172
aa(lp173
V2009/2010
p174
aVManchester Ci..
p175
aVEPL
p176
aV23(4)
p177
aV2102
p178
aV-
aV1
aV8
aV1
aV0.4
p179
aV75.7
p180
aV1.2
p181
aV1
aV7.13
p182
aa(lp183
VTotal / Average
p184
aV
aV
aV293
p185
aV23954
p186
aV9
aV20
p187
aV71
p188
aV4
aV0.5
p189
aV81.5
p190
aV1.4
p191
aV11
p192
aV7.07
p193
aasS'url'
p194
S'https://www.whoscored.com/Players/14244/History/'
p195
sS'passing_data'
p196
(lp197
(lp198
a(lp199
V2018/2019
p200
aVWest Ham
p201
aVEPL
p202
aV13
p203
aV1153
p204
aV-
aV1
aV4
aV-
aV0.2
p205
aV76.6
p206
aV2.5
p207
aV-
aV7.03
p208
aa(lp209
V2017/2018
p210
aVWest Ham
p211
aVEPL
p212
aV37
p213
aV3291
p214
aV-
aV1
aV9
aV-
aV0.2
p215
aV73.2
p216
aV1.6
p217
aV-
aV6.75
p218
aa(lp219
V2016/2017
p220
aVManchester Ci..
p221
aVUCL
p222
aV5(1)
p223
aV445
p224
aV-
aV-
aV1
aV-
aV0.3
p225
aV81.3
p226
aV1.3
p227
aV-
aV6.78
p228
aa(lp229
V2016/2017
p230
aVManchester Ci..
p231
aVEPL
p232
aV11(9)
p233
aV1060
p234
aV1
aV1
aV2
aV-
aV0.4
p235
aV82.9
p236
aV1.2
p237
aV1
aV6.74
p238
aa(lp239
V2015/2016
p240
aVManchester Ci..
p241
aVUCL
p242
aV2(1)
p243
aV151
p244
aV-
aV-
aV-
aV-
aV-
aV77.3
p245
aV-
aV-
aV6.50
p246
aa(lp247
V2015/2016
p248
aVManchester Ci..
p249
aVEPL
p250
aV12(1)
p251
aV1062
p252
aV-
aV1
aV3
aV-
aV0.2
p253
aV85
p254
aV1.4
p255
aV-
aV6.97
p256
aa(lp257
V2015
p258
aVArgentina
p259
aVICA
p260
aV5
aV510
p261
aV-
aV1
aV1
aV-
aV0.4
p262
aV80
p263
aV1.6
p264
aV-
aV7.16
p265
aa(lp266
V2014/2015
p267
aVManchester Ci..
p268
aVUCL
p269
aV5(1)
p270
aV472
p271
aV1
aV-
aV2
aV-
aV0.7
p272
aV80.7
p273
aV1.3
p274
aV-
aV6.92
p275
aa(lp276
V2014/2015
p277
aVManchester Ci..
p278
aVEPL
p279
aV29
p280
aV2586
p281
aV1
aV4
aV6
aV1
aV0.4
p282
aV85.3
p283
aV1.8
p284
aV1
aV7.23
p285
aa(lp286
V2013/2014
p287
aVManchester Ci..
p288
aVUCL
p289
aV5(1)
p290
aV512
p291
aV-
aV-
aV2
aV1
aV0.3
p292
aV87.1
p293
aV0.2
p294
aV-
aV6.87
p295
aa(lp296
V2013/2014
p297
aVManchester Ci..
p298
aVEPL
p299
aV34(1)
p300
aV3079
p301
aV1
aV6
aV11
p302
aV-
aV0.6
p303
aV84.7
p304
aV1.3
p305
aV2
aV7.25
p306
aa(lp307
V2014
p308
aVArgentina
p309
aVWC
p310
aV7
aV721
p311
aV-
aV-
aV-
aV-
aV0.1
p312
aV82.2
p313
aV0.7
p314
aV-
aV7.06
p315
aa(lp316
V2012/2013
p317
aVManchester Ci..
p318
aVUCL
p319
aV3(2)
p320
aV307
p321
aV-
aV-
aV1
aV-
aV0.8
p322
aV80.6
p323
aV2.4
p324
aV-
aV6.81
p325
aa(lp326
V2012/2013
p327
aVManchester Ci..
p328
aVEPL
p329
aV29(1)
p330
aV2652
p331
aV2
aV2
aV7
aV-
aV0.7
p332
aV85.1
p333
aV1.5
p334
aV2
aV7.18
p335
aa(lp336
V2011/2012
p337
aVManchester Ci..
p338
aVUCL
p339
aV4
aV356
p340
aV-
aV-
aV1
aV-
aV0.3
p341
aV92.2
p342
aV0.3
p343
aV-
aV7.00
p344
aa(lp345
V2011/2012
p346
aVManchester Ci..
p347
aVEPL
p348
aV18(3)
p349
aV1549
p350
aV1
aV-
aV5
aV-
aV0.9
p351
aV87.4
p352
aV1
aV2
aV7.29
p353
aa(lp354
V2010/2011
p355
aVManchester Ci..
p356
aVEPL
p357
aV21(5)
p358
aV1946
p359
aV2
aV2
aV8
aV1
aV0.7
p360
aV79.3
p361
aV1.7
p362
aV2
aV7.27
p363
aa(lp364
V2009/2010
p365
aVManchester Ci..
p366
aVEPL
p367
aV23(4)
p368
aV2102
p369
aV-
aV1
aV8
aV1
aV0.4
p370
aV75.7
p371
aV1.2
p372
aV1
aV7.13
p373
aa(lp374
VTotal / Average
p375
aV
aV
aV293
p376
aV23954
p377
aV9
aV20
p378
aV71
p379
aV4
aV0.5
p380
aV81.5
p381
aV1.4
p382
aV11
p383
aV7.07
p384
aasS'defensive_data'
p385
(lp386
(lp387
a(lp388
V2018/2019
p389
aVWest Ham
p390
aVEPL
p391
aV13
p392
aV1153
p393
aV-
aV1
aV4
aV-
aV0.2
p394
aV76.6
p395
aV2.5
p396
aV-
aV7.03
p397
aa(lp398
V2017/2018
p399
aVWest Ham
p400
aVEPL
p401
aV37
p402
aV3291
p403
aV-
aV1
aV9
aV-
aV0.2
p404
aV73.2
p405
aV1.6
p406
aV-
aV6.75
p407
aa(lp408
V2016/2017
p409
aVManchester Ci..
p410
aVUCL
p411
aV5(1)
p412
aV445
p413
aV-
aV-
aV1
aV-
aV0.3
p414
aV81.3
p415
aV1.3
p416
aV-
aV6.78
p417
aa(lp418
V2016/2017
p419
aVManchester Ci..
p420
aVEPL
p421
aV11(9)
p422
aV1060
p423
aV1
aV1
aV2
aV-
aV0.4
p424
aV82.9
p425
aV1.2
p426
aV1
aV6.74
p427
aa(lp428
V2015/2016
p429
aVManchester Ci..
p430
aVUCL
p431
aV2(1)
p432
aV151
p433
aV-
aV-
aV-
aV-
aV-
aV77.3
p434
aV-
aV-
aV6.50
p435
aa(lp436
V2015/2016
p437
aVManchester Ci..
p438
aVEPL
p439
aV12(1)
p440
aV1062
p441
aV-
aV1
aV3
aV-
aV0.2
p442
aV85
p443
aV1.4
p444
aV-
aV6.97
p445
aa(lp446
V2015
p447
aVArgentina
p448
aVICA
p449
aV5
aV510
p450
aV-
aV1
aV1
aV-
aV0.4
p451
aV80
p452
aV1.6
p453
aV-
aV7.16
p454
aa(lp455
V2014/2015
p456
aVManchester Ci..
p457
aVUCL
p458
aV5(1)
p459
aV472
p460
aV1
aV-
aV2
aV-
aV0.7
p461
aV80.7
p462
aV1.3
p463
aV-
aV6.92
p464
aa(lp465
V2014/2015
p466
aVManchester Ci..
p467
aVEPL
p468
aV29
p469
aV2586
p470
aV1
aV4
aV6
aV1
aV0.4
p471
aV85.3
p472
aV1.8
p473
aV1
aV7.23
p474
aa(lp475
V2013/2014
p476
aVManchester Ci..
p477
aVUCL
p478
aV5(1)
p479
aV512
p480
aV-
aV-
aV2
aV1
aV0.3
p481
aV87.1
p482
aV0.2
p483
aV-
aV6.87
p484
aa(lp485
V2013/2014
p486
aVManchester Ci..
p487
aVEPL
p488
aV34(1)
p489
aV3079
p490
aV1
aV6
aV11
p491
aV-
aV0.6
p492
aV84.7
p493
aV1.3
p494
aV2
aV7.25
p495
aa(lp496
V2014
p497
aVArgentina
p498
aVWC
p499
aV7
aV721
p500
aV-
aV-
aV-
aV-
aV0.1
p501
aV82.2
p502
aV0.7
p503
aV-
aV7.06
p504
aa(lp505
V2012/2013
p506
aVManchester Ci..
p507
aVUCL
p508
aV3(2)
p509
aV307
p510
aV-
aV-
aV1
aV-
aV0.8
p511
aV80.6
p512
aV2.4
p513
aV-
aV6.81
p514
aa(lp515
V2012/2013
p516
aVManchester Ci..
p517
aVEPL
p518
aV29(1)
p519
aV2652
p520
aV2
aV2
aV7
aV-
aV0.7
p521
aV85.1
p522
aV1.5
p523
aV2
aV7.18
p524
aa(lp525
V2011/2012
p526
aVManchester Ci..
p527
aVUCL
p528
aV4
aV356
p529
aV-
aV-
aV1
aV-
aV0.3
p530
aV92.2
p531
aV0.3
p532
aV-
aV7.00
p533
aa(lp534
V2011/2012
p535
aVManchester Ci..
p536
aVEPL
p537
aV18(3)
p538
aV1549
p539
aV1
aV-
aV5
aV-
aV0.9
p540
aV87.4
p541
aV1
aV2
aV7.29
p542
aa(lp543
V2010/2011
p544
aVManchester Ci..
p545
aVEPL
p546
aV21(5)
p547
aV1946
p548
aV2
aV2
aV8
aV1
aV0.7
p549
aV79.3
p550
aV1.7
p551
aV2
aV7.27
p552
aa(lp553
V2009/2010
p554
aVManchester Ci..
p555
aVEPL
p556
aV23(4)
p557
aV2102
p558
aV-
aV1
aV8
aV1
aV0.4
p559
aV75.7
p560
aV1.2
p561
aV1
aV7.13
p562
aa(lp563
VTotal / Average
p564
aV
aV
aV293
p565
aV23954
p566
aV9
aV20
p567
aV71
p568
aV4
aV0.5
p569
aV81.5
p570
aV1.4
p571
aV11
p572
aV7.07
p573
aasS'sumary_data'
p574
(lp575
(lp576
a(lp577
V2018/2019
p578
aVWest Ham
p579
aVEPL
p580
aV13
p581
aV1153
p582
aV-
aV1
aV4
aV-
aV0.2
p583
aV76.6
p584
aV2.5
p585
aV-
aV7.03
p586
aa(lp587
V2017/2018
p588
aVWest Ham
p589
aVEPL
p590
aV37
p591
aV3291
p592
aV-
aV1
aV9
aV-
aV0.2
p593
aV73.2
p594
aV1.6
p595
aV-
aV6.75
p596
aa(lp597
V2016/2017
p598
aVManchester Ci..
p599
aVUCL
p600
aV5(1)
p601
aV445
p602
aV-
aV-
aV1
aV-
aV0.3
p603
aV81.3
p604
aV1.3
p605
aV-
aV6.78
p606
aa(lp607
V2016/2017
p608
aVManchester Ci..
p609
aVEPL
p610
aV11(9)
p611
aV1060
p612
aV1
aV1
aV2
aV-
aV0.4
p613
aV82.9
p614
aV1.2
p615
aV1
aV6.74
p616
aa(lp617
V2015/2016
p618
aVManchester Ci..
p619
aVUCL
p620
aV2(1)
p621
aV151
p622
aV-
aV-
aV-
aV-
aV-
aV77.3
p623
aV-
aV-
aV6.50
p624
aa(lp625
V2015/2016
p626
aVManchester Ci..
p627
aVEPL
p628
aV12(1)
p629
aV1062
p630
aV-
aV1
aV3
aV-
aV0.2
p631
aV85
p632
aV1.4
p633
aV-
aV6.97
p634
aa(lp635
V2015
p636
aVArgentina
p637
aVICA
p638
aV5
aV510
p639
aV-
aV1
aV1
aV-
aV0.4
p640
aV80
p641
aV1.6
p642
aV-
aV7.16
p643
aa(lp644
V2014/2015
p645
aVManchester Ci..
p646
aVUCL
p647
aV5(1)
p648
aV472
p649
aV1
aV-
aV2
aV-
aV0.7
p650
aV80.7
p651
aV1.3
p652
aV-
aV6.92
p653
aa(lp654
V2014/2015
p655
aVManchester Ci..
p656
aVEPL
p657
aV29
p658
aV2586
p659
aV1
aV4
aV6
aV1
aV0.4
p660
aV85.3
p661
aV1.8
p662
aV1
aV7.23
p663
aa(lp664
V2013/2014
p665
aVManchester Ci..
p666
aVUCL
p667
aV5(1)
p668
aV512
p669
aV-
aV-
aV2
aV1
aV0.3
p670
aV87.1
p671
aV0.2
p672
aV-
aV6.87
p673
aa(lp674
V2013/2014
p675
aVManchester Ci..
p676
aVEPL
p677
aV34(1)
p678
aV3079
p679
aV1
aV6
aV11
p680
aV-
aV0.6
p681
aV84.7
p682
aV1.3
p683
aV2
aV7.25
p684
aa(lp685
V2014
p686
aVArgentina
p687
aVWC
p688
aV7
aV721
p689
aV-
aV-
aV-
aV-
aV0.1
p690
aV82.2
p691
aV0.7
p692
aV-
aV7.06
p693
aa(lp694
V2012/2013
p695
aVManchester Ci..
p696
aVUCL
p697
aV3(2)
p698
aV307
p699
aV-
aV-
aV1
aV-
aV0.8
p700
aV80.6
p701
aV2.4
p702
aV-
aV6.81
p703
aa(lp704
V2012/2013
p705
aVManchester Ci..
p706
aVEPL
p707
aV29(1)
p708
aV2652
p709
aV2
aV2
aV7
aV-
aV0.7
p710
aV85.1
p711
aV1.5
p712
aV2
aV7.18
p713
aa(lp714
V2011/2012
p715
aVManchester Ci..
p716
aVUCL
p717
aV4
aV356
p718
aV-
aV-
aV1
aV-
aV0.3
p719
aV92.2
p720
aV0.3
p721
aV-
aV7.00
p722
aa(lp723
V2011/2012
p724
aVManchester Ci..
p725
aVEPL
p726
aV18(3)
p727
aV1549
p728
aV1
aV-
aV5
aV-
aV0.9
p729
aV87.4
p730
aV1
aV2
aV7.29
p731
aa(lp732
V2010/2011
p733
aVManchester Ci..
p734
aVEPL
p735
aV21(5)
p736
aV1946
p737
aV2
aV2
aV8
aV1
aV0.7
p738
aV79.3
p739
aV1.7
p740
aV2
aV7.27
p741
aa(lp742
V2009/2010
p743
aVManchester Ci..
p744
aVEPL
p745
aV23(4)
p746
aV2102
p747
aV-
aV1
aV8
aV1
aV0.4
p748
aV75.7
p749
aV1.2
p750
aV1
aV7.13
p751
aa(lp752
VTotal / Average
p753
aV
aV
aV293
p754
aV23954
p755
aV9
aV20
p756
aV71
p757
aV4
aV0.5
p758
aV81.5
p759
aV1.4
p760
aV11
p761
aV7.07
p762
aasS'id'
p763
V14244
p764
sb.