(i__main__
Player
p1
(dp2
S'name'
p3
VStefano Okaka 
p4
sS'offensive_data'
p5
(lp6
(lp7
a(lp8
V2018/2019
p9
aVWatford
p10
aVEPL
p11
aV0(2)
p12
aV22
p13
aV-
aV-
aV1
aV-
aV1
aV71.4
p14
aV0.5
p15
aV-
aV5.97
p16
aa(lp17
V2017/2018
p18
aVWatford
p19
aVEPL
p20
aV3(12)
p21
aV446
p22
aV1
aV1
aV2
aV-
aV0.7
p23
aV66.2
p24
aV1.5
p25
aV-
aV6.37
p26
aa(lp27
V2016/2017
p28
aVWatford
p29
aVEPL
p30
aV10(9)
p31
aV955
p32
aV4
aV-
aV5
aV-
aV1.4
p33
aV67
p34
aV2.1
p35
aV1
aV6.63
p36
aa(lp37
V2015/2016
p38
aVAnderlecht
p39
aVUEL
p40
aV10
p41
aV913
p42
aV2
aV-
aV-
aV-
aV1.9
p43
aV76.5
p44
aV1.4
p45
aV-
aV6.95
p46
aa(lp47
V2014/2015
p48
aVSampdoria
p49
aVISA
p50
aV26(6)
p51
aV2386
p52
aV4
aV2
aV6
aV-
aV1.6
p53
aV76.8
p54
aV1.3
p55
aV1
aV6.61
p56
aa(lp57
V2013/2014
p58
aVParma
p59
aVISA
p60
aV0(2)
p61
aV26
p62
aV-
aV-
aV-
aV-
aV0.5
p63
aV71.4
p64
aV1
aV-
aV6.21
p65
aa(lp66
V2013/2014
p67
aVSampdoria
p68
aVISA
p69
aV9(4)
p70
aV866
p71
aV5
aV3
aV4
aV-
aV1.2
p72
aV78.5
p73
aV1.4
p74
aV1
aV7.17
p75
aa(lp76
V2011/2012
p77
aVParma
p78
aVISA
p79
aV4(10)
p80
aV468
p81
aV3
aV-
aV-
aV-
aV1.2
p82
aV76.3
p83
aV0.8
p84
aV-
aV6.38
p85
aa(lp86
V2010/2011
p87
aVRoma
p88
aVISA
p89
aV0(4)
p90
aV50
p91
aV-
aV-
aV1
aV-
aV0.3
p92
aV87.5
p93
aV-
aV-
aV6.09
p94
aa(lp95
V2010/2011
p96
aVBari
p97
aVISA
p98
aV6(4)
p99
aV674
p100
aV2
aV-
aV-
aV-
aV1.7
p101
aV73.3
p102
aV1.3
p103
aV-
aV6.37
p104
aa(lp105
V2009/2010
p106
aVRoma
p107
aVISA
p108
aV0(7)
p109
aV128
p110
aV1
aV-
aV2
aV-
aV0.6
p111
aV69.6
p112
aV0.3
p113
aV-
aV6.41
p114
aa(lp115
V2009/2010
p116
aVFulham
p117
aVEPL
p118
aV3(8)
p119
aV442
p120
aV2
aV-
aV1
aV-
aV1.4
p121
aV73
p122
aV1.2
p123
aV-
aV6.45
p124
aa(lp125
VTotal / Average
p126
aV
aV
aV139
p127
aV7376
p128
aV24
p129
aV6
aV22
p130
aV0
aV1.3
p131
aV73.6
p132
aV1.3
p133
aV3
aV6.57
p134
aasS'url'
p135
S'https://www.whoscored.com/Players/14255/History/'
p136
sS'passing_data'
p137
(lp138
(lp139
a(lp140
V2018/2019
p141
aVWatford
p142
aVEPL
p143
aV0(2)
p144
aV22
p145
aV-
aV-
aV1
aV-
aV1
aV71.4
p146
aV0.5
p147
aV-
aV5.97
p148
aa(lp149
V2017/2018
p150
aVWatford
p151
aVEPL
p152
aV3(12)
p153
aV446
p154
aV1
aV1
aV2
aV-
aV0.7
p155
aV66.2
p156
aV1.5
p157
aV-
aV6.37
p158
aa(lp159
V2016/2017
p160
aVWatford
p161
aVEPL
p162
aV10(9)
p163
aV955
p164
aV4
aV-
aV5
aV-
aV1.4
p165
aV67
p166
aV2.1
p167
aV1
aV6.63
p168
aa(lp169
V2015/2016
p170
aVAnderlecht
p171
aVUEL
p172
aV10
p173
aV913
p174
aV2
aV-
aV-
aV-
aV1.9
p175
aV76.5
p176
aV1.4
p177
aV-
aV6.95
p178
aa(lp179
V2014/2015
p180
aVSampdoria
p181
aVISA
p182
aV26(6)
p183
aV2386
p184
aV4
aV2
aV6
aV-
aV1.6
p185
aV76.8
p186
aV1.3
p187
aV1
aV6.61
p188
aa(lp189
V2013/2014
p190
aVParma
p191
aVISA
p192
aV0(2)
p193
aV26
p194
aV-
aV-
aV-
aV-
aV0.5
p195
aV71.4
p196
aV1
aV-
aV6.21
p197
aa(lp198
V2013/2014
p199
aVSampdoria
p200
aVISA
p201
aV9(4)
p202
aV866
p203
aV5
aV3
aV4
aV-
aV1.2
p204
aV78.5
p205
aV1.4
p206
aV1
aV7.17
p207
aa(lp208
V2011/2012
p209
aVParma
p210
aVISA
p211
aV4(10)
p212
aV468
p213
aV3
aV-
aV-
aV-
aV1.2
p214
aV76.3
p215
aV0.8
p216
aV-
aV6.38
p217
aa(lp218
V2010/2011
p219
aVRoma
p220
aVISA
p221
aV0(4)
p222
aV50
p223
aV-
aV-
aV1
aV-
aV0.3
p224
aV87.5
p225
aV-
aV-
aV6.09
p226
aa(lp227
V2010/2011
p228
aVBari
p229
aVISA
p230
aV6(4)
p231
aV674
p232
aV2
aV-
aV-
aV-
aV1.7
p233
aV73.3
p234
aV1.3
p235
aV-
aV6.37
p236
aa(lp237
V2009/2010
p238
aVRoma
p239
aVISA
p240
aV0(7)
p241
aV128
p242
aV1
aV-
aV2
aV-
aV0.6
p243
aV69.6
p244
aV0.3
p245
aV-
aV6.41
p246
aa(lp247
V2009/2010
p248
aVFulham
p249
aVEPL
p250
aV3(8)
p251
aV442
p252
aV2
aV-
aV1
aV-
aV1.4
p253
aV73
p254
aV1.2
p255
aV-
aV6.45
p256
aa(lp257
VTotal / Average
p258
aV
aV
aV139
p259
aV7376
p260
aV24
p261
aV6
aV22
p262
aV0
aV1.3
p263
aV73.6
p264
aV1.3
p265
aV3
aV6.57
p266
aasS'defensive_data'
p267
(lp268
(lp269
a(lp270
V2018/2019
p271
aVWatford
p272
aVEPL
p273
aV0(2)
p274
aV22
p275
aV-
aV-
aV1
aV-
aV1
aV71.4
p276
aV0.5
p277
aV-
aV5.97
p278
aa(lp279
V2017/2018
p280
aVWatford
p281
aVEPL
p282
aV3(12)
p283
aV446
p284
aV1
aV1
aV2
aV-
aV0.7
p285
aV66.2
p286
aV1.5
p287
aV-
aV6.37
p288
aa(lp289
V2016/2017
p290
aVWatford
p291
aVEPL
p292
aV10(9)
p293
aV955
p294
aV4
aV-
aV5
aV-
aV1.4
p295
aV67
p296
aV2.1
p297
aV1
aV6.63
p298
aa(lp299
V2015/2016
p300
aVAnderlecht
p301
aVUEL
p302
aV10
p303
aV913
p304
aV2
aV-
aV-
aV-
aV1.9
p305
aV76.5
p306
aV1.4
p307
aV-
aV6.95
p308
aa(lp309
V2014/2015
p310
aVSampdoria
p311
aVISA
p312
aV26(6)
p313
aV2386
p314
aV4
aV2
aV6
aV-
aV1.6
p315
aV76.8
p316
aV1.3
p317
aV1
aV6.61
p318
aa(lp319
V2013/2014
p320
aVParma
p321
aVISA
p322
aV0(2)
p323
aV26
p324
aV-
aV-
aV-
aV-
aV0.5
p325
aV71.4
p326
aV1
aV-
aV6.21
p327
aa(lp328
V2013/2014
p329
aVSampdoria
p330
aVISA
p331
aV9(4)
p332
aV866
p333
aV5
aV3
aV4
aV-
aV1.2
p334
aV78.5
p335
aV1.4
p336
aV1
aV7.17
p337
aa(lp338
V2011/2012
p339
aVParma
p340
aVISA
p341
aV4(10)
p342
aV468
p343
aV3
aV-
aV-
aV-
aV1.2
p344
aV76.3
p345
aV0.8
p346
aV-
aV6.38
p347
aa(lp348
V2010/2011
p349
aVRoma
p350
aVISA
p351
aV0(4)
p352
aV50
p353
aV-
aV-
aV1
aV-
aV0.3
p354
aV87.5
p355
aV-
aV-
aV6.09
p356
aa(lp357
V2010/2011
p358
aVBari
p359
aVISA
p360
aV6(4)
p361
aV674
p362
aV2
aV-
aV-
aV-
aV1.7
p363
aV73.3
p364
aV1.3
p365
aV-
aV6.37
p366
aa(lp367
V2009/2010
p368
aVRoma
p369
aVISA
p370
aV0(7)
p371
aV128
p372
aV1
aV-
aV2
aV-
aV0.6
p373
aV69.6
p374
aV0.3
p375
aV-
aV6.41
p376
aa(lp377
V2009/2010
p378
aVFulham
p379
aVEPL
p380
aV3(8)
p381
aV442
p382
aV2
aV-
aV1
aV-
aV1.4
p383
aV73
p384
aV1.2
p385
aV-
aV6.45
p386
aa(lp387
VTotal / Average
p388
aV
aV
aV139
p389
aV7376
p390
aV24
p391
aV6
aV22
p392
aV0
aV1.3
p393
aV73.6
p394
aV1.3
p395
aV3
aV6.57
p396
aasS'sumary_data'
p397
(lp398
(lp399
a(lp400
V2018/2019
p401
aVWatford
p402
aVEPL
p403
aV0(2)
p404
aV22
p405
aV-
aV-
aV1
aV-
aV1
aV71.4
p406
aV0.5
p407
aV-
aV5.97
p408
aa(lp409
V2017/2018
p410
aVWatford
p411
aVEPL
p412
aV3(12)
p413
aV446
p414
aV1
aV1
aV2
aV-
aV0.7
p415
aV66.2
p416
aV1.5
p417
aV-
aV6.37
p418
aa(lp419
V2016/2017
p420
aVWatford
p421
aVEPL
p422
aV10(9)
p423
aV955
p424
aV4
aV-
aV5
aV-
aV1.4
p425
aV67
p426
aV2.1
p427
aV1
aV6.63
p428
aa(lp429
V2015/2016
p430
aVAnderlecht
p431
aVUEL
p432
aV10
p433
aV913
p434
aV2
aV-
aV-
aV-
aV1.9
p435
aV76.5
p436
aV1.4
p437
aV-
aV6.95
p438
aa(lp439
V2014/2015
p440
aVSampdoria
p441
aVISA
p442
aV26(6)
p443
aV2386
p444
aV4
aV2
aV6
aV-
aV1.6
p445
aV76.8
p446
aV1.3
p447
aV1
aV6.61
p448
aa(lp449
V2013/2014
p450
aVParma
p451
aVISA
p452
aV0(2)
p453
aV26
p454
aV-
aV-
aV-
aV-
aV0.5
p455
aV71.4
p456
aV1
aV-
aV6.21
p457
aa(lp458
V2013/2014
p459
aVSampdoria
p460
aVISA
p461
aV9(4)
p462
aV866
p463
aV5
aV3
aV4
aV-
aV1.2
p464
aV78.5
p465
aV1.4
p466
aV1
aV7.17
p467
aa(lp468
V2011/2012
p469
aVParma
p470
aVISA
p471
aV4(10)
p472
aV468
p473
aV3
aV-
aV-
aV-
aV1.2
p474
aV76.3
p475
aV0.8
p476
aV-
aV6.38
p477
aa(lp478
V2010/2011
p479
aVRoma
p480
aVISA
p481
aV0(4)
p482
aV50
p483
aV-
aV-
aV1
aV-
aV0.3
p484
aV87.5
p485
aV-
aV-
aV6.09
p486
aa(lp487
V2010/2011
p488
aVBari
p489
aVISA
p490
aV6(4)
p491
aV674
p492
aV2
aV-
aV-
aV-
aV1.7
p493
aV73.3
p494
aV1.3
p495
aV-
aV6.37
p496
aa(lp497
V2009/2010
p498
aVRoma
p499
aVISA
p500
aV0(7)
p501
aV128
p502
aV1
aV-
aV2
aV-
aV0.6
p503
aV69.6
p504
aV0.3
p505
aV-
aV6.41
p506
aa(lp507
V2009/2010
p508
aVFulham
p509
aVEPL
p510
aV3(8)
p511
aV442
p512
aV2
aV-
aV1
aV-
aV1.4
p513
aV73
p514
aV1.2
p515
aV-
aV6.45
p516
aa(lp517
VTotal / Average
p518
aV
aV
aV139
p519
aV7376
p520
aV24
p521
aV6
aV22
p522
aV0
aV1.3
p523
aV73.6
p524
aV1.3
p525
aV3
aV6.57
p526
aasS'id'
p527
V14255
p528
sb.