(i__main__
Player
p1
(dp2
S'name'
p3
VHarry Winks 
p4
sS'offensive_data'
p5
(lp6
(lp7
a(lp8
V2018/2019
p9
aVTottenham
p10
aVEPL
p11
aV6(8)
p12
aV618
p13
aV-
aV-
aV3
aV-
aV0.1
p14
aV88.8
p15
aV0.4
p16
aV-
aV6.30
p17
aa(lp18
V2018/2019
p19
aVTottenham
p20
aVUCL
p21
aV4(2)
p22
aV384
p23
aV-
aV-
aV-
aV-
aV0.3
p24
aV90.4
p25
aV0.3
p26
aV-
aV6.58
p27
aa(lp28
V2018/2019
p29
aVEngland
p30
aVUNL
p31
aV1
aV90
p32
aV-
aV-
aV1
aV-
aV-
aV85.7
p33
aV-
aV-
aV6.65
p34
aa(lp35
V2017/2018
p36
aVTottenham
p37
aVUCL
p38
aV5
aV426
p39
aV-
aV-
aV1
aV-
aV0.2
p40
aV92.1
p41
aV0.6
p42
aV-
aV7.01
p43
aa(lp44
V2017/2018
p45
aVTottenham
p46
aVEPL
p47
aV9(7)
p48
aV772
p49
aV-
aV1
aV-
aV-
aV0.2
p50
aV90
p51
aV0.3
p52
aV-
aV6.49
p53
aa(lp54
V2016/2017
p55
aVTottenham
p56
aVUCL
p57
aV2(2)
p58
aV196
p59
aV-
aV-
aV-
aV-
aV-
aV93.9
p60
aV0.3
p61
aV-
aV6.75
p62
aa(lp63
V2016/2017
p64
aVTottenham
p65
aVEPL
p66
aV3(18)
p67
aV480
p68
aV1
aV1
aV1
aV-
aV0.3
p69
aV90.2
p70
aV-
aV-
aV6.36
p71
aa(lp72
V2016/2017
p73
aVTottenham
p74
aVUEL
p75
aV1(1)
p76
aV96
p77
aV-
aV-
aV1
aV-
aV-
aV88.6
p78
aV-
aV-
aV6.38
p79
aa(lp80
V2015/2016
p81
aVTottenham
p82
aVUEL
p83
aV0(2)
p84
aV17
p85
aV-
aV-
aV-
aV-
aV-
aV91.7
p86
aV-
aV-
aV6.24
p87
aa(lp88
V2014/2015
p89
aVTottenham
p90
aVUEL
p91
aV0(1)
p92
aV3
aV-
aV-
aV-
aV-
aV-
aV100
p93
aV-
aV-
aV6.12
p94
aa(lp95
VTotal / Average
p96
aV
aV
aV72
p97
aV3082
p98
aV1
aV2
aV7
aV0
aV0.2
p99
aV90.3
p100
aV0.2
p101
aV0
aV6.46
p102
aasS'url'
p103
S'https://www.whoscored.com/Players/143990/History/'
p104
sS'passing_data'
p105
(lp106
(lp107
a(lp108
V2018/2019
p109
aVTottenham
p110
aVEPL
p111
aV6(8)
p112
aV618
p113
aV-
aV-
aV3
aV-
aV0.1
p114
aV88.8
p115
aV0.4
p116
aV-
aV6.30
p117
aa(lp118
V2018/2019
p119
aVTottenham
p120
aVUCL
p121
aV4(2)
p122
aV384
p123
aV-
aV-
aV-
aV-
aV0.3
p124
aV90.4
p125
aV0.3
p126
aV-
aV6.58
p127
aa(lp128
V2018/2019
p129
aVEngland
p130
aVUNL
p131
aV1
aV90
p132
aV-
aV-
aV1
aV-
aV-
aV85.7
p133
aV-
aV-
aV6.65
p134
aa(lp135
V2017/2018
p136
aVTottenham
p137
aVUCL
p138
aV5
aV426
p139
aV-
aV-
aV1
aV-
aV0.2
p140
aV92.1
p141
aV0.6
p142
aV-
aV7.01
p143
aa(lp144
V2017/2018
p145
aVTottenham
p146
aVEPL
p147
aV9(7)
p148
aV772
p149
aV-
aV1
aV-
aV-
aV0.2
p150
aV90
p151
aV0.3
p152
aV-
aV6.49
p153
aa(lp154
V2016/2017
p155
aVTottenham
p156
aVUCL
p157
aV2(2)
p158
aV196
p159
aV-
aV-
aV-
aV-
aV-
aV93.9
p160
aV0.3
p161
aV-
aV6.75
p162
aa(lp163
V2016/2017
p164
aVTottenham
p165
aVEPL
p166
aV3(18)
p167
aV480
p168
aV1
aV1
aV1
aV-
aV0.3
p169
aV90.2
p170
aV-
aV-
aV6.36
p171
aa(lp172
V2016/2017
p173
aVTottenham
p174
aVUEL
p175
aV1(1)
p176
aV96
p177
aV-
aV-
aV1
aV-
aV-
aV88.6
p178
aV-
aV-
aV6.38
p179
aa(lp180
V2015/2016
p181
aVTottenham
p182
aVUEL
p183
aV0(2)
p184
aV17
p185
aV-
aV-
aV-
aV-
aV-
aV91.7
p186
aV-
aV-
aV6.24
p187
aa(lp188
V2014/2015
p189
aVTottenham
p190
aVUEL
p191
aV0(1)
p192
aV3
aV-
aV-
aV-
aV-
aV-
aV100
p193
aV-
aV-
aV6.12
p194
aa(lp195
VTotal / Average
p196
aV
aV
aV72
p197
aV3082
p198
aV1
aV2
aV7
aV0
aV0.2
p199
aV90.3
p200
aV0.2
p201
aV0
aV6.46
p202
aasS'defensive_data'
p203
(lp204
(lp205
a(lp206
V2018/2019
p207
aVTottenham
p208
aVEPL
p209
aV6(8)
p210
aV618
p211
aV-
aV-
aV3
aV-
aV0.1
p212
aV88.8
p213
aV0.4
p214
aV-
aV6.30
p215
aa(lp216
V2018/2019
p217
aVTottenham
p218
aVUCL
p219
aV4(2)
p220
aV384
p221
aV-
aV-
aV-
aV-
aV0.3
p222
aV90.4
p223
aV0.3
p224
aV-
aV6.58
p225
aa(lp226
V2018/2019
p227
aVEngland
p228
aVUNL
p229
aV1
aV90
p230
aV-
aV-
aV1
aV-
aV-
aV85.7
p231
aV-
aV-
aV6.65
p232
aa(lp233
V2017/2018
p234
aVTottenham
p235
aVUCL
p236
aV5
aV426
p237
aV-
aV-
aV1
aV-
aV0.2
p238
aV92.1
p239
aV0.6
p240
aV-
aV7.01
p241
aa(lp242
V2017/2018
p243
aVTottenham
p244
aVEPL
p245
aV9(7)
p246
aV772
p247
aV-
aV1
aV-
aV-
aV0.2
p248
aV90
p249
aV0.3
p250
aV-
aV6.49
p251
aa(lp252
V2016/2017
p253
aVTottenham
p254
aVUCL
p255
aV2(2)
p256
aV196
p257
aV-
aV-
aV-
aV-
aV-
aV93.9
p258
aV0.3
p259
aV-
aV6.75
p260
aa(lp261
V2016/2017
p262
aVTottenham
p263
aVEPL
p264
aV3(18)
p265
aV480
p266
aV1
aV1
aV1
aV-
aV0.3
p267
aV90.2
p268
aV-
aV-
aV6.36
p269
aa(lp270
V2016/2017
p271
aVTottenham
p272
aVUEL
p273
aV1(1)
p274
aV96
p275
aV-
aV-
aV1
aV-
aV-
aV88.6
p276
aV-
aV-
aV6.38
p277
aa(lp278
V2015/2016
p279
aVTottenham
p280
aVUEL
p281
aV0(2)
p282
aV17
p283
aV-
aV-
aV-
aV-
aV-
aV91.7
p284
aV-
aV-
aV6.24
p285
aa(lp286
V2014/2015
p287
aVTottenham
p288
aVUEL
p289
aV0(1)
p290
aV3
aV-
aV-
aV-
aV-
aV-
aV100
p291
aV-
aV-
aV6.12
p292
aa(lp293
VTotal / Average
p294
aV
aV
aV72
p295
aV3082
p296
aV1
aV2
aV7
aV0
aV0.2
p297
aV90.3
p298
aV0.2
p299
aV0
aV6.46
p300
aasS'sumary_data'
p301
(lp302
(lp303
a(lp304
V2018/2019
p305
aVTottenham
p306
aVEPL
p307
aV6(8)
p308
aV618
p309
aV-
aV-
aV3
aV-
aV0.1
p310
aV88.8
p311
aV0.4
p312
aV-
aV6.30
p313
aa(lp314
V2018/2019
p315
aVTottenham
p316
aVUCL
p317
aV4(2)
p318
aV384
p319
aV-
aV-
aV-
aV-
aV0.3
p320
aV90.4
p321
aV0.3
p322
aV-
aV6.58
p323
aa(lp324
V2018/2019
p325
aVEngland
p326
aVUNL
p327
aV1
aV90
p328
aV-
aV-
aV1
aV-
aV-
aV85.7
p329
aV-
aV-
aV6.65
p330
aa(lp331
V2017/2018
p332
aVTottenham
p333
aVUCL
p334
aV5
aV426
p335
aV-
aV-
aV1
aV-
aV0.2
p336
aV92.1
p337
aV0.6
p338
aV-
aV7.01
p339
aa(lp340
V2017/2018
p341
aVTottenham
p342
aVEPL
p343
aV9(7)
p344
aV772
p345
aV-
aV1
aV-
aV-
aV0.2
p346
aV90
p347
aV0.3
p348
aV-
aV6.49
p349
aa(lp350
V2016/2017
p351
aVTottenham
p352
aVUCL
p353
aV2(2)
p354
aV196
p355
aV-
aV-
aV-
aV-
aV-
aV93.9
p356
aV0.3
p357
aV-
aV6.75
p358
aa(lp359
V2016/2017
p360
aVTottenham
p361
aVEPL
p362
aV3(18)
p363
aV480
p364
aV1
aV1
aV1
aV-
aV0.3
p365
aV90.2
p366
aV-
aV-
aV6.36
p367
aa(lp368
V2016/2017
p369
aVTottenham
p370
aVUEL
p371
aV1(1)
p372
aV96
p373
aV-
aV-
aV1
aV-
aV-
aV88.6
p374
aV-
aV-
aV6.38
p375
aa(lp376
V2015/2016
p377
aVTottenham
p378
aVUEL
p379
aV0(2)
p380
aV17
p381
aV-
aV-
aV-
aV-
aV-
aV91.7
p382
aV-
aV-
aV6.24
p383
aa(lp384
V2014/2015
p385
aVTottenham
p386
aVUEL
p387
aV0(1)
p388
aV3
aV-
aV-
aV-
aV-
aV-
aV100
p389
aV-
aV-
aV6.12
p390
aa(lp391
VTotal / Average
p392
aV
aV
aV72
p393
aV3082
p394
aV1
aV2
aV7
aV0
aV0.2
p395
aV90.3
p396
aV0.2
p397
aV0
aV6.46
p398
aasS'id'
p399
V143990
p400
sb.