(i__main__
Player
p1
(dp2
S'name'
p3
VPhilip Billing 
p4
sS'offensive_data'
p5
(lp6
(lp7
a(lp8
V2018/2019
p9
aVHuddersfield
p10
aVEPL
p11
aV16
p12
aV1393
p13
aV1
aV-
aV5
aV-
aV1.4
p14
aV81.6
p15
aV3
aV1
aV7.16
p16
aa(lp17
V2017/2018
p18
aVHuddersfield
p19
aVEPL
p20
aV8(8)
p21
aV760
p22
aV-
aV-
aV3
aV-
aV0.4
p23
aV75.7
p24
aV1.6
p25
aV-
aV6.48
p26
aa(lp27
V2016/2017
p28
aVHuddersfield
p29
aVEC
p30
aV13(11)
p31
aV1198
p32
aV2
aV-
aV4
aV-
aV1.1
p33
aV78
p34
aV2.5
p35
aV1
aV6.68
p36
aa(lp37
V2015/2016
p38
aVHuddersfield
p39
aVEC
p40
aV8(5)
p41
aV697
p42
aV1
aV-
aV1
aV1
aV0.8
p43
aV78.7
p44
aV2.8
p45
aV-
aV6.77
p46
aa(lp47
V2013/2014
p48
aVHuddersfield
p49
aVEC
p50
aV0(1)
p51
aV14
p52
aV-
aV-
aV-
aV-
aV-
aV85.7
p53
aV-
aV-
aV6.27
p54
aa(lp55
VTotal / Average
p56
aV
aV
aV70
p57
aV4062
p58
aV4
aV0
aV13
p59
aV1
aV1
aV78.5
p60
aV2.4
p61
aV2
aV6.75
p62
aasS'url'
p63
S'https://www.whoscored.com/Players/145277/History/'
p64
sS'passing_data'
p65
(lp66
(lp67
a(lp68
V2018/2019
p69
aVHuddersfield
p70
aVEPL
p71
aV16
p72
aV1393
p73
aV1
aV-
aV5
aV-
aV1.4
p74
aV81.6
p75
aV3
aV1
aV7.16
p76
aa(lp77
V2017/2018
p78
aVHuddersfield
p79
aVEPL
p80
aV8(8)
p81
aV760
p82
aV-
aV-
aV3
aV-
aV0.4
p83
aV75.7
p84
aV1.6
p85
aV-
aV6.48
p86
aa(lp87
V2016/2017
p88
aVHuddersfield
p89
aVEC
p90
aV13(11)
p91
aV1198
p92
aV2
aV-
aV4
aV-
aV1.1
p93
aV78
p94
aV2.5
p95
aV1
aV6.68
p96
aa(lp97
V2015/2016
p98
aVHuddersfield
p99
aVEC
p100
aV8(5)
p101
aV697
p102
aV1
aV-
aV1
aV1
aV0.8
p103
aV78.7
p104
aV2.8
p105
aV-
aV6.77
p106
aa(lp107
V2013/2014
p108
aVHuddersfield
p109
aVEC
p110
aV0(1)
p111
aV14
p112
aV-
aV-
aV-
aV-
aV-
aV85.7
p113
aV-
aV-
aV6.27
p114
aa(lp115
VTotal / Average
p116
aV
aV
aV70
p117
aV4062
p118
aV4
aV0
aV13
p119
aV1
aV1
aV78.5
p120
aV2.4
p121
aV2
aV6.75
p122
aasS'defensive_data'
p123
(lp124
(lp125
a(lp126
V2018/2019
p127
aVHuddersfield
p128
aVEPL
p129
aV16
p130
aV1393
p131
aV1
aV-
aV5
aV-
aV1.4
p132
aV81.6
p133
aV3
aV1
aV7.16
p134
aa(lp135
V2017/2018
p136
aVHuddersfield
p137
aVEPL
p138
aV8(8)
p139
aV760
p140
aV-
aV-
aV3
aV-
aV0.4
p141
aV75.7
p142
aV1.6
p143
aV-
aV6.48
p144
aa(lp145
V2016/2017
p146
aVHuddersfield
p147
aVEC
p148
aV13(11)
p149
aV1198
p150
aV2
aV-
aV4
aV-
aV1.1
p151
aV78
p152
aV2.5
p153
aV1
aV6.68
p154
aa(lp155
V2015/2016
p156
aVHuddersfield
p157
aVEC
p158
aV8(5)
p159
aV697
p160
aV1
aV-
aV1
aV1
aV0.8
p161
aV78.7
p162
aV2.8
p163
aV-
aV6.77
p164
aa(lp165
V2013/2014
p166
aVHuddersfield
p167
aVEC
p168
aV0(1)
p169
aV14
p170
aV-
aV-
aV-
aV-
aV-
aV85.7
p171
aV-
aV-
aV6.27
p172
aa(lp173
VTotal / Average
p174
aV
aV
aV70
p175
aV4062
p176
aV4
aV0
aV13
p177
aV1
aV1
aV78.5
p178
aV2.4
p179
aV2
aV6.75
p180
aasS'sumary_data'
p181
(lp182
(lp183
a(lp184
V2018/2019
p185
aVHuddersfield
p186
aVEPL
p187
aV16
p188
aV1393
p189
aV1
aV-
aV5
aV-
aV1.4
p190
aV81.6
p191
aV3
aV1
aV7.16
p192
aa(lp193
V2017/2018
p194
aVHuddersfield
p195
aVEPL
p196
aV8(8)
p197
aV760
p198
aV-
aV-
aV3
aV-
aV0.4
p199
aV75.7
p200
aV1.6
p201
aV-
aV6.48
p202
aa(lp203
V2016/2017
p204
aVHuddersfield
p205
aVEC
p206
aV13(11)
p207
aV1198
p208
aV2
aV-
aV4
aV-
aV1.1
p209
aV78
p210
aV2.5
p211
aV1
aV6.68
p212
aa(lp213
V2015/2016
p214
aVHuddersfield
p215
aVEC
p216
aV8(5)
p217
aV697
p218
aV1
aV-
aV1
aV1
aV0.8
p219
aV78.7
p220
aV2.8
p221
aV-
aV6.77
p222
aa(lp223
V2013/2014
p224
aVHuddersfield
p225
aVEC
p226
aV0(1)
p227
aV14
p228
aV-
aV-
aV-
aV-
aV-
aV85.7
p229
aV-
aV-
aV6.27
p230
aa(lp231
VTotal / Average
p232
aV
aV
aV70
p233
aV4062
p234
aV4
aV0
aV13
p235
aV1
aV1
aV78.5
p236
aV2.4
p237
aV2
aV6.75
p238
aasS'id'
p239
V145277
p240
sb.