(i__main__
Player
p1
(dp2
S'name'
p3
VKen Sema 
p4
sS'offensive_data'
p5
(lp6
(lp7
a(lp8
V2018/2019
p9
aVWatford
p10
aVEPL
p11
aV2(5)
p12
aV211
p13
aV-
aV1
aV-
aV-
aV0.6
p14
aV80
p15
aV0.7
p16
aV-
aV6.47
p17
aa(lp18
V2017/2018
p19
aVOestersunds F..
p20
aVUEL
p21
aV8
aV720
p22
aV1
aV1
aV1
aV-
aV1.4
p23
aV77.6
p24
aV0.5
p25
aV-
aV7.46
p26
aa(lp27
V2017
p28
aVOestersunds F..
p29
aVSA
p30
aV22(2)
p31
aV1986
p32
aV4
aV7
aV2
aV-
aV1.5
p33
aV83.4
p34
aV0.5
p35
aV4
aV7.50
p36
aa(lp37
V2016
p38
aVOestersunds F..
p39
aVSA
p40
aV16(7)
p41
aV1552
p42
aV4
aV1
aV-
aV-
aV1
aV84.4
p43
aV0.8
p44
aV-
aV6.95
p45
aa(lp46
VTotal / Average
p47
aV
aV
aV62
p48
aV4469
p49
aV9
aV10
p50
aV3
aV0
aV1.2
p51
aV82.6
p52
aV0.6
p53
aV4
aV7.18
p54
aasS'url'
p55
S'https://www.whoscored.com/Players/145392/History/'
p56
sS'passing_data'
p57
(lp58
(lp59
a(lp60
V2018/2019
p61
aVWatford
p62
aVEPL
p63
aV2(5)
p64
aV211
p65
aV-
aV1
aV-
aV-
aV0.6
p66
aV80
p67
aV0.7
p68
aV-
aV6.47
p69
aa(lp70
V2017/2018
p71
aVOestersunds F..
p72
aVUEL
p73
aV8
aV720
p74
aV1
aV1
aV1
aV-
aV1.4
p75
aV77.6
p76
aV0.5
p77
aV-
aV7.46
p78
aa(lp79
V2017
p80
aVOestersunds F..
p81
aVSA
p82
aV22(2)
p83
aV1986
p84
aV4
aV7
aV2
aV-
aV1.5
p85
aV83.4
p86
aV0.5
p87
aV4
aV7.50
p88
aa(lp89
V2016
p90
aVOestersunds F..
p91
aVSA
p92
aV16(7)
p93
aV1552
p94
aV4
aV1
aV-
aV-
aV1
aV84.4
p95
aV0.8
p96
aV-
aV6.95
p97
aa(lp98
VTotal / Average
p99
aV
aV
aV62
p100
aV4469
p101
aV9
aV10
p102
aV3
aV0
aV1.2
p103
aV82.6
p104
aV0.6
p105
aV4
aV7.18
p106
aasS'defensive_data'
p107
(lp108
(lp109
a(lp110
V2018/2019
p111
aVWatford
p112
aVEPL
p113
aV2(5)
p114
aV211
p115
aV-
aV1
aV-
aV-
aV0.6
p116
aV80
p117
aV0.7
p118
aV-
aV6.47
p119
aa(lp120
V2017/2018
p121
aVOestersunds F..
p122
aVUEL
p123
aV8
aV720
p124
aV1
aV1
aV1
aV-
aV1.4
p125
aV77.6
p126
aV0.5
p127
aV-
aV7.46
p128
aa(lp129
V2017
p130
aVOestersunds F..
p131
aVSA
p132
aV22(2)
p133
aV1986
p134
aV4
aV7
aV2
aV-
aV1.5
p135
aV83.4
p136
aV0.5
p137
aV4
aV7.50
p138
aa(lp139
V2016
p140
aVOestersunds F..
p141
aVSA
p142
aV16(7)
p143
aV1552
p144
aV4
aV1
aV-
aV-
aV1
aV84.4
p145
aV0.8
p146
aV-
aV6.95
p147
aa(lp148
VTotal / Average
p149
aV
aV
aV62
p150
aV4469
p151
aV9
aV10
p152
aV3
aV0
aV1.2
p153
aV82.6
p154
aV0.6
p155
aV4
aV7.18
p156
aasS'sumary_data'
p157
(lp158
(lp159
a(lp160
V2018/2019
p161
aVWatford
p162
aVEPL
p163
aV2(5)
p164
aV211
p165
aV-
aV1
aV-
aV-
aV0.6
p166
aV80
p167
aV0.7
p168
aV-
aV6.47
p169
aa(lp170
V2017/2018
p171
aVOestersunds F..
p172
aVUEL
p173
aV8
aV720
p174
aV1
aV1
aV1
aV-
aV1.4
p175
aV77.6
p176
aV0.5
p177
aV-
aV7.46
p178
aa(lp179
V2017
p180
aVOestersunds F..
p181
aVSA
p182
aV22(2)
p183
aV1986
p184
aV4
aV7
aV2
aV-
aV1.5
p185
aV83.4
p186
aV0.5
p187
aV4
aV7.50
p188
aa(lp189
V2016
p190
aVOestersunds F..
p191
aVSA
p192
aV16(7)
p193
aV1552
p194
aV4
aV1
aV-
aV-
aV1
aV84.4
p195
aV0.8
p196
aV-
aV6.95
p197
aa(lp198
VTotal / Average
p199
aV
aV
aV62
p200
aV4469
p201
aV9
aV10
p202
aV3
aV0
aV1.2
p203
aV82.6
p204
aV0.6
p205
aV4
aV7.18
p206
aasS'id'
p207
V145392
p208
sb.