(i__main__
Player
p1
(dp2
S'name'
p3
VIsaac Success 
p4
sS'offensive_data'
p5
(lp6
(lp7
a(lp8
V2018/2019
p9
aVWatford
p10
aVEPL
p11
aV7(10)
p12
aV721
p13
aV1
aV-
aV2
aV-
aV1.1
p14
aV70.9
p15
aV1.1
p16
aV-
aV6.39
p17
aa(lp18
V2017/2018
p19
aVMalaga
p20
aVSLL
p21
aV7(2)
p22
aV496
p23
aV-
aV1
aV-
aV-
aV0.9
p24
aV59.4
p25
aV0.3
p26
aV1
aV6.66
p27
aa(lp28
V2016/2017
p29
aVWatford
p30
aVEPL
p31
aV2(17)
p32
aV506
p33
aV1
aV1
aV2
aV-
aV0.7
p34
aV70.2
p35
aV0.3
p36
aV-
aV6.39
p37
aa(lp38
V2015/2016
p39
aVGranada
p40
aVSLL
p41
aV28(2)
p42
aV2434
p43
aV6
aV2
aV10
p44
aV1
aV1.9
p45
aV64.9
p46
aV0.6
p47
aV1
aV6.72
p48
aa(lp49
V2014/2015
p50
aVGranada
p51
aVSLL
p52
aV9(10)
p53
aV921
p54
aV1
aV1
aV1
aV-
aV0.7
p55
aV61.3
p56
aV0.8
p57
aV-
aV6.24
p58
aa(lp59
VTotal / Average
p60
aV
aV
aV94
p61
aV5078
p62
aV9
aV5
aV15
p63
aV1
aV1.2
p64
aV65.8
p65
aV0.6
p66
aV2
aV6.49
p67
aasS'url'
p68
S'https://www.whoscored.com/Players/145940/History/'
p69
sS'passing_data'
p70
(lp71
(lp72
a(lp73
V2018/2019
p74
aVWatford
p75
aVEPL
p76
aV7(10)
p77
aV721
p78
aV1
aV-
aV2
aV-
aV1.1
p79
aV70.9
p80
aV1.1
p81
aV-
aV6.39
p82
aa(lp83
V2017/2018
p84
aVMalaga
p85
aVSLL
p86
aV7(2)
p87
aV496
p88
aV-
aV1
aV-
aV-
aV0.9
p89
aV59.4
p90
aV0.3
p91
aV1
aV6.66
p92
aa(lp93
V2016/2017
p94
aVWatford
p95
aVEPL
p96
aV2(17)
p97
aV506
p98
aV1
aV1
aV2
aV-
aV0.7
p99
aV70.2
p100
aV0.3
p101
aV-
aV6.39
p102
aa(lp103
V2015/2016
p104
aVGranada
p105
aVSLL
p106
aV28(2)
p107
aV2434
p108
aV6
aV2
aV10
p109
aV1
aV1.9
p110
aV64.9
p111
aV0.6
p112
aV1
aV6.72
p113
aa(lp114
V2014/2015
p115
aVGranada
p116
aVSLL
p117
aV9(10)
p118
aV921
p119
aV1
aV1
aV1
aV-
aV0.7
p120
aV61.3
p121
aV0.8
p122
aV-
aV6.24
p123
aa(lp124
VTotal / Average
p125
aV
aV
aV94
p126
aV5078
p127
aV9
aV5
aV15
p128
aV1
aV1.2
p129
aV65.8
p130
aV0.6
p131
aV2
aV6.49
p132
aasS'defensive_data'
p133
(lp134
(lp135
a(lp136
V2018/2019
p137
aVWatford
p138
aVEPL
p139
aV7(10)
p140
aV721
p141
aV1
aV-
aV2
aV-
aV1.1
p142
aV70.9
p143
aV1.1
p144
aV-
aV6.39
p145
aa(lp146
V2017/2018
p147
aVMalaga
p148
aVSLL
p149
aV7(2)
p150
aV496
p151
aV-
aV1
aV-
aV-
aV0.9
p152
aV59.4
p153
aV0.3
p154
aV1
aV6.66
p155
aa(lp156
V2016/2017
p157
aVWatford
p158
aVEPL
p159
aV2(17)
p160
aV506
p161
aV1
aV1
aV2
aV-
aV0.7
p162
aV70.2
p163
aV0.3
p164
aV-
aV6.39
p165
aa(lp166
V2015/2016
p167
aVGranada
p168
aVSLL
p169
aV28(2)
p170
aV2434
p171
aV6
aV2
aV10
p172
aV1
aV1.9
p173
aV64.9
p174
aV0.6
p175
aV1
aV6.72
p176
aa(lp177
V2014/2015
p178
aVGranada
p179
aVSLL
p180
aV9(10)
p181
aV921
p182
aV1
aV1
aV1
aV-
aV0.7
p183
aV61.3
p184
aV0.8
p185
aV-
aV6.24
p186
aa(lp187
VTotal / Average
p188
aV
aV
aV94
p189
aV5078
p190
aV9
aV5
aV15
p191
aV1
aV1.2
p192
aV65.8
p193
aV0.6
p194
aV2
aV6.49
p195
aasS'sumary_data'
p196
(lp197
(lp198
a(lp199
V2018/2019
p200
aVWatford
p201
aVEPL
p202
aV7(10)
p203
aV721
p204
aV1
aV-
aV2
aV-
aV1.1
p205
aV70.9
p206
aV1.1
p207
aV-
aV6.39
p208
aa(lp209
V2017/2018
p210
aVMalaga
p211
aVSLL
p212
aV7(2)
p213
aV496
p214
aV-
aV1
aV-
aV-
aV0.9
p215
aV59.4
p216
aV0.3
p217
aV1
aV6.66
p218
aa(lp219
V2016/2017
p220
aVWatford
p221
aVEPL
p222
aV2(17)
p223
aV506
p224
aV1
aV1
aV2
aV-
aV0.7
p225
aV70.2
p226
aV0.3
p227
aV-
aV6.39
p228
aa(lp229
V2015/2016
p230
aVGranada
p231
aVSLL
p232
aV28(2)
p233
aV2434
p234
aV6
aV2
aV10
p235
aV1
aV1.9
p236
aV64.9
p237
aV0.6
p238
aV1
aV6.72
p239
aa(lp240
V2014/2015
p241
aVGranada
p242
aVSLL
p243
aV9(10)
p244
aV921
p245
aV1
aV1
aV1
aV-
aV0.7
p246
aV61.3
p247
aV0.8
p248
aV-
aV6.24
p249
aa(lp250
VTotal / Average
p251
aV
aV
aV94
p252
aV5078
p253
aV9
aV5
aV15
p254
aV1
aV1.2
p255
aV65.8
p256
aV0.6
p257
aV2
aV6.49
p258
aasS'id'
p259
V145940
p260
sb.