(i__main__
Player
p1
(dp2
S'name'
p3
VStephan Lichtsteiner 
p4
sS'offensive_data'
p5
(lp6
(lp7
a(lp8
V2018/2019
p9
aVArsenal
p10
aVEPL
p11
aV3(3)
p12
aV335
p13
aV-
aV-
aV2
aV-
aV0.2
p14
aV81.7
p15
aV1
aV-
aV6.17
p16
aa(lp17
V2018/2019
p18
aVArsenal
p19
aVUEL
p20
aV5
aV434
p21
aV-
aV1
aV1
aV-
aV0.8
p22
aV82.5
p23
aV2
aV-
aV6.73
p24
aa(lp25
V2017/2018
p26
aVJuventus
p27
aVISA
p28
aV21(6)
p29
aV1715
p30
aV-
aV2
aV6
aV-
aV0.1
p31
aV82.2
p32
aV0.9
p33
aV-
aV6.59
p34
aa(lp35
V2017/2018
p36
aVJuventus
p37
aVUCL
p38
aV0(2)
p39
aV102
p40
aV-
aV1
aV1
aV-
aV-
aV72.7
p41
aV0.5
p42
aV-
aV6.88
p43
aa(lp44
V2016/2017
p45
aVJuventus
p46
aVISA
p47
aV22(4)
p48
aV1871
p49
aV1
aV2
aV5
aV-
aV0.2
p50
aV78.7
p51
aV0.7
p52
aV-
aV6.65
p53
aa(lp54
V2016/2017
p55
aVJuventus
p56
aVUCL
p57
aV1
aV73
p58
aV-
aV-
aV1
aV-
aV-
aV90.2
p59
aV1
aV-
aV6.69
p60
aa(lp61
V2015/2016
p62
aVJuventus
p63
aVISA
p64
aV22(4)
p65
aV1832
p66
aV-
aV1
aV5
aV-
aV0.6
p67
aV76.2
p68
aV0.6
p69
aV-
aV6.72
p70
aa(lp71
V2018
p72
aVSwitzerland
p73
aVWC
p74
aV3
aV267
p75
aV-
aV-
aV2
aV-
aV0.7
p76
aV80.7
p77
aV1.7
p78
aV-
aV6.88
p79
aa(lp80
V2015/2016
p81
aVJuventus
p82
aVUCL
p83
aV6
aV556
p84
aV1
aV-
aV1
aV-
aV0.8
p85
aV79.3
p86
aV1
aV-
aV6.82
p87
aa(lp88
V2014/2015
p89
aVJuventus
p90
aVISA
p91
aV26(6)
p92
aV2452
p93
aV3
aV5
aV8
aV1
aV0.7
p94
aV77.8
p95
aV1.2
p96
aV-
aV6.94
p97
aa(lp98
V2014/2015
p99
aVJuventus
p100
aVUCL
p101
aV13
p102
aV1169
p103
aV-
aV-
aV3
aV-
aV0.5
p104
aV83.5
p105
aV0.9
p106
aV-
aV6.80
p107
aa(lp108
V2016
p109
aVSwitzerland
p110
aVUEC
p111
aV4
aV390
p112
aV-
aV-
aV-
aV-
aV0.5
p113
aV73.3
p114
aV0.8
p115
aV-
aV6.65
p116
aa(lp117
V2013/2014
p118
aVJuventus
p119
aVISA
p120
aV24(3)
p121
aV2121
p122
aV2
aV8
aV4
aV-
aV0.7
p123
aV78.3
p124
aV1.2
p125
aV1
aV6.93
p126
aa(lp127
V2013/2014
p128
aVJuventus
p129
aVUCL
p130
aV3
aV223
p131
aV-
aV-
aV1
aV-
aV0.7
p132
aV68.6
p133
aV0.3
p134
aV-
aV6.12
p135
aa(lp136
V2013/2014
p137
aVJuventus
p138
aVUEL
p139
aV2(2)
p140
aV206
p141
aV-
aV-
aV-
aV-
aV0.5
p142
aV83.2
p143
aV1.3
p144
aV-
aV6.54
p145
aa(lp146
V2014
p147
aVSwitzerland
p148
aVWC
p149
aV4
aV390
p150
aV-
aV1
aV-
aV-
aV0.5
p151
aV83.2
p152
aV0.8
p153
aV-
aV6.83
p154
aa(lp155
V2012/2013
p156
aVJuventus
p157
aVISA
p158
aV25(3)
p159
aV2074
p160
aV4
aV2
aV6
aV-
aV1
aV82.2
p161
aV0.4
p162
aV-
aV6.94
p163
aa(lp164
V2012/2013
p165
aVJuventus
p166
aVUCL
p167
aV6
aV506
p168
aV-
aV-
aV3
aV-
aV1.2
p169
aV78.4
p170
aV1.7
p171
aV-
aV6.83
p172
aa(lp173
V2011/2012
p174
aVJuventus
p175
aVISA
p176
aV34(1)
p177
aV2966
p178
aV2
aV2
aV6
aV-
aV0.5
p179
aV87
p180
aV1
aV-
aV6.97
p181
aa(lp182
V2010/2011
p183
aVLazio
p184
aVISA
p185
aV33(1)
p186
aV2918
p187
aV-
aV2
aV8
aV-
aV0.5
p188
aV80.6
p189
aV0.6
p190
aV2
aV7.05
p191
aa(lp192
V2009/2010
p193
aVLazio
p194
aVISA
p195
aV28(5)
p196
aV2423
p197
aV2
aV-
aV5
aV-
aV0.4
p198
aV77.8
p199
aV0.7
p200
aV1
aV6.75
p201
aa(lp202
VTotal / Average
p203
aV
aV
aV325
p204
aV25023
p205
aV15
p206
aV27
p207
aV68
p208
aV1
aV0.5
p209
aV80.3
p210
aV0.9
p211
aV4
aV6.82
p212
aasS'url'
p213
S'https://www.whoscored.com/Players/15302/History/'
p214
sS'passing_data'
p215
(lp216
(lp217
a(lp218
V2018/2019
p219
aVArsenal
p220
aVEPL
p221
aV3(3)
p222
aV335
p223
aV-
aV-
aV2
aV-
aV0.2
p224
aV81.7
p225
aV1
aV-
aV6.17
p226
aa(lp227
V2018/2019
p228
aVArsenal
p229
aVUEL
p230
aV5
aV434
p231
aV-
aV1
aV1
aV-
aV0.8
p232
aV82.5
p233
aV2
aV-
aV6.73
p234
aa(lp235
V2017/2018
p236
aVJuventus
p237
aVISA
p238
aV21(6)
p239
aV1715
p240
aV-
aV2
aV6
aV-
aV0.1
p241
aV82.2
p242
aV0.9
p243
aV-
aV6.59
p244
aa(lp245
V2017/2018
p246
aVJuventus
p247
aVUCL
p248
aV0(2)
p249
aV102
p250
aV-
aV1
aV1
aV-
aV-
aV72.7
p251
aV0.5
p252
aV-
aV6.88
p253
aa(lp254
V2016/2017
p255
aVJuventus
p256
aVISA
p257
aV22(4)
p258
aV1871
p259
aV1
aV2
aV5
aV-
aV0.2
p260
aV78.7
p261
aV0.7
p262
aV-
aV6.65
p263
aa(lp264
V2016/2017
p265
aVJuventus
p266
aVUCL
p267
aV1
aV73
p268
aV-
aV-
aV1
aV-
aV-
aV90.2
p269
aV1
aV-
aV6.69
p270
aa(lp271
V2015/2016
p272
aVJuventus
p273
aVISA
p274
aV22(4)
p275
aV1832
p276
aV-
aV1
aV5
aV-
aV0.6
p277
aV76.2
p278
aV0.6
p279
aV-
aV6.72
p280
aa(lp281
V2018
p282
aVSwitzerland
p283
aVWC
p284
aV3
aV267
p285
aV-
aV-
aV2
aV-
aV0.7
p286
aV80.7
p287
aV1.7
p288
aV-
aV6.88
p289
aa(lp290
V2015/2016
p291
aVJuventus
p292
aVUCL
p293
aV6
aV556
p294
aV1
aV-
aV1
aV-
aV0.8
p295
aV79.3
p296
aV1
aV-
aV6.82
p297
aa(lp298
V2014/2015
p299
aVJuventus
p300
aVISA
p301
aV26(6)
p302
aV2452
p303
aV3
aV5
aV8
aV1
aV0.7
p304
aV77.8
p305
aV1.2
p306
aV-
aV6.94
p307
aa(lp308
V2014/2015
p309
aVJuventus
p310
aVUCL
p311
aV13
p312
aV1169
p313
aV-
aV-
aV3
aV-
aV0.5
p314
aV83.5
p315
aV0.9
p316
aV-
aV6.80
p317
aa(lp318
V2016
p319
aVSwitzerland
p320
aVUEC
p321
aV4
aV390
p322
aV-
aV-
aV-
aV-
aV0.5
p323
aV73.3
p324
aV0.8
p325
aV-
aV6.65
p326
aa(lp327
V2013/2014
p328
aVJuventus
p329
aVISA
p330
aV24(3)
p331
aV2121
p332
aV2
aV8
aV4
aV-
aV0.7
p333
aV78.3
p334
aV1.2
p335
aV1
aV6.93
p336
aa(lp337
V2013/2014
p338
aVJuventus
p339
aVUCL
p340
aV3
aV223
p341
aV-
aV-
aV1
aV-
aV0.7
p342
aV68.6
p343
aV0.3
p344
aV-
aV6.12
p345
aa(lp346
V2013/2014
p347
aVJuventus
p348
aVUEL
p349
aV2(2)
p350
aV206
p351
aV-
aV-
aV-
aV-
aV0.5
p352
aV83.2
p353
aV1.3
p354
aV-
aV6.54
p355
aa(lp356
V2014
p357
aVSwitzerland
p358
aVWC
p359
aV4
aV390
p360
aV-
aV1
aV-
aV-
aV0.5
p361
aV83.2
p362
aV0.8
p363
aV-
aV6.83
p364
aa(lp365
V2012/2013
p366
aVJuventus
p367
aVISA
p368
aV25(3)
p369
aV2074
p370
aV4
aV2
aV6
aV-
aV1
aV82.2
p371
aV0.4
p372
aV-
aV6.94
p373
aa(lp374
V2012/2013
p375
aVJuventus
p376
aVUCL
p377
aV6
aV506
p378
aV-
aV-
aV3
aV-
aV1.2
p379
aV78.4
p380
aV1.7
p381
aV-
aV6.83
p382
aa(lp383
V2011/2012
p384
aVJuventus
p385
aVISA
p386
aV34(1)
p387
aV2966
p388
aV2
aV2
aV6
aV-
aV0.5
p389
aV87
p390
aV1
aV-
aV6.97
p391
aa(lp392
V2010/2011
p393
aVLazio
p394
aVISA
p395
aV33(1)
p396
aV2918
p397
aV-
aV2
aV8
aV-
aV0.5
p398
aV80.6
p399
aV0.6
p400
aV2
aV7.05
p401
aa(lp402
V2009/2010
p403
aVLazio
p404
aVISA
p405
aV28(5)
p406
aV2423
p407
aV2
aV-
aV5
aV-
aV0.4
p408
aV77.8
p409
aV0.7
p410
aV1
aV6.75
p411
aa(lp412
VTotal / Average
p413
aV
aV
aV325
p414
aV25023
p415
aV15
p416
aV27
p417
aV68
p418
aV1
aV0.5
p419
aV80.3
p420
aV0.9
p421
aV4
aV6.82
p422
aasS'defensive_data'
p423
(lp424
(lp425
a(lp426
V2018/2019
p427
aVArsenal
p428
aVEPL
p429
aV3(3)
p430
aV335
p431
aV-
aV-
aV2
aV-
aV0.2
p432
aV81.7
p433
aV1
aV-
aV6.17
p434
aa(lp435
V2018/2019
p436
aVArsenal
p437
aVUEL
p438
aV5
aV434
p439
aV-
aV1
aV1
aV-
aV0.8
p440
aV82.5
p441
aV2
aV-
aV6.73
p442
aa(lp443
V2017/2018
p444
aVJuventus
p445
aVISA
p446
aV21(6)
p447
aV1715
p448
aV-
aV2
aV6
aV-
aV0.1
p449
aV82.2
p450
aV0.9
p451
aV-
aV6.59
p452
aa(lp453
V2017/2018
p454
aVJuventus
p455
aVUCL
p456
aV0(2)
p457
aV102
p458
aV-
aV1
aV1
aV-
aV-
aV72.7
p459
aV0.5
p460
aV-
aV6.88
p461
aa(lp462
V2016/2017
p463
aVJuventus
p464
aVISA
p465
aV22(4)
p466
aV1871
p467
aV1
aV2
aV5
aV-
aV0.2
p468
aV78.7
p469
aV0.7
p470
aV-
aV6.65
p471
aa(lp472
V2016/2017
p473
aVJuventus
p474
aVUCL
p475
aV1
aV73
p476
aV-
aV-
aV1
aV-
aV-
aV90.2
p477
aV1
aV-
aV6.69
p478
aa(lp479
V2015/2016
p480
aVJuventus
p481
aVISA
p482
aV22(4)
p483
aV1832
p484
aV-
aV1
aV5
aV-
aV0.6
p485
aV76.2
p486
aV0.6
p487
aV-
aV6.72
p488
aa(lp489
V2018
p490
aVSwitzerland
p491
aVWC
p492
aV3
aV267
p493
aV-
aV-
aV2
aV-
aV0.7
p494
aV80.7
p495
aV1.7
p496
aV-
aV6.88
p497
aa(lp498
V2015/2016
p499
aVJuventus
p500
aVUCL
p501
aV6
aV556
p502
aV1
aV-
aV1
aV-
aV0.8
p503
aV79.3
p504
aV1
aV-
aV6.82
p505
aa(lp506
V2014/2015
p507
aVJuventus
p508
aVISA
p509
aV26(6)
p510
aV2452
p511
aV3
aV5
aV8
aV1
aV0.7
p512
aV77.8
p513
aV1.2
p514
aV-
aV6.94
p515
aa(lp516
V2014/2015
p517
aVJuventus
p518
aVUCL
p519
aV13
p520
aV1169
p521
aV-
aV-
aV3
aV-
aV0.5
p522
aV83.5
p523
aV0.9
p524
aV-
aV6.80
p525
aa(lp526
V2016
p527
aVSwitzerland
p528
aVUEC
p529
aV4
aV390
p530
aV-
aV-
aV-
aV-
aV0.5
p531
aV73.3
p532
aV0.8
p533
aV-
aV6.65
p534
aa(lp535
V2013/2014
p536
aVJuventus
p537
aVISA
p538
aV24(3)
p539
aV2121
p540
aV2
aV8
aV4
aV-
aV0.7
p541
aV78.3
p542
aV1.2
p543
aV1
aV6.93
p544
aa(lp545
V2013/2014
p546
aVJuventus
p547
aVUCL
p548
aV3
aV223
p549
aV-
aV-
aV1
aV-
aV0.7
p550
aV68.6
p551
aV0.3
p552
aV-
aV6.12
p553
aa(lp554
V2013/2014
p555
aVJuventus
p556
aVUEL
p557
aV2(2)
p558
aV206
p559
aV-
aV-
aV-
aV-
aV0.5
p560
aV83.2
p561
aV1.3
p562
aV-
aV6.54
p563
aa(lp564
V2014
p565
aVSwitzerland
p566
aVWC
p567
aV4
aV390
p568
aV-
aV1
aV-
aV-
aV0.5
p569
aV83.2
p570
aV0.8
p571
aV-
aV6.83
p572
aa(lp573
V2012/2013
p574
aVJuventus
p575
aVISA
p576
aV25(3)
p577
aV2074
p578
aV4
aV2
aV6
aV-
aV1
aV82.2
p579
aV0.4
p580
aV-
aV6.94
p581
aa(lp582
V2012/2013
p583
aVJuventus
p584
aVUCL
p585
aV6
aV506
p586
aV-
aV-
aV3
aV-
aV1.2
p587
aV78.4
p588
aV1.7
p589
aV-
aV6.83
p590
aa(lp591
V2011/2012
p592
aVJuventus
p593
aVISA
p594
aV34(1)
p595
aV2966
p596
aV2
aV2
aV6
aV-
aV0.5
p597
aV87
p598
aV1
aV-
aV6.97
p599
aa(lp600
V2010/2011
p601
aVLazio
p602
aVISA
p603
aV33(1)
p604
aV2918
p605
aV-
aV2
aV8
aV-
aV0.5
p606
aV80.6
p607
aV0.6
p608
aV2
aV7.05
p609
aa(lp610
V2009/2010
p611
aVLazio
p612
aVISA
p613
aV28(5)
p614
aV2423
p615
aV2
aV-
aV5
aV-
aV0.4
p616
aV77.8
p617
aV0.7
p618
aV1
aV6.75
p619
aa(lp620
VTotal / Average
p621
aV
aV
aV325
p622
aV25023
p623
aV15
p624
aV27
p625
aV68
p626
aV1
aV0.5
p627
aV80.3
p628
aV0.9
p629
aV4
aV6.82
p630
aasS'sumary_data'
p631
(lp632
(lp633
a(lp634
V2018/2019
p635
aVArsenal
p636
aVEPL
p637
aV3(3)
p638
aV335
p639
aV-
aV-
aV2
aV-
aV0.2
p640
aV81.7
p641
aV1
aV-
aV6.17
p642
aa(lp643
V2018/2019
p644
aVArsenal
p645
aVUEL
p646
aV5
aV434
p647
aV-
aV1
aV1
aV-
aV0.8
p648
aV82.5
p649
aV2
aV-
aV6.73
p650
aa(lp651
V2017/2018
p652
aVJuventus
p653
aVISA
p654
aV21(6)
p655
aV1715
p656
aV-
aV2
aV6
aV-
aV0.1
p657
aV82.2
p658
aV0.9
p659
aV-
aV6.59
p660
aa(lp661
V2017/2018
p662
aVJuventus
p663
aVUCL
p664
aV0(2)
p665
aV102
p666
aV-
aV1
aV1
aV-
aV-
aV72.7
p667
aV0.5
p668
aV-
aV6.88
p669
aa(lp670
V2016/2017
p671
aVJuventus
p672
aVISA
p673
aV22(4)
p674
aV1871
p675
aV1
aV2
aV5
aV-
aV0.2
p676
aV78.7
p677
aV0.7
p678
aV-
aV6.65
p679
aa(lp680
V2016/2017
p681
aVJuventus
p682
aVUCL
p683
aV1
aV73
p684
aV-
aV-
aV1
aV-
aV-
aV90.2
p685
aV1
aV-
aV6.69
p686
aa(lp687
V2015/2016
p688
aVJuventus
p689
aVISA
p690
aV22(4)
p691
aV1832
p692
aV-
aV1
aV5
aV-
aV0.6
p693
aV76.2
p694
aV0.6
p695
aV-
aV6.72
p696
aa(lp697
V2018
p698
aVSwitzerland
p699
aVWC
p700
aV3
aV267
p701
aV-
aV-
aV2
aV-
aV0.7
p702
aV80.7
p703
aV1.7
p704
aV-
aV6.88
p705
aa(lp706
V2015/2016
p707
aVJuventus
p708
aVUCL
p709
aV6
aV556
p710
aV1
aV-
aV1
aV-
aV0.8
p711
aV79.3
p712
aV1
aV-
aV6.82
p713
aa(lp714
V2014/2015
p715
aVJuventus
p716
aVISA
p717
aV26(6)
p718
aV2452
p719
aV3
aV5
aV8
aV1
aV0.7
p720
aV77.8
p721
aV1.2
p722
aV-
aV6.94
p723
aa(lp724
V2014/2015
p725
aVJuventus
p726
aVUCL
p727
aV13
p728
aV1169
p729
aV-
aV-
aV3
aV-
aV0.5
p730
aV83.5
p731
aV0.9
p732
aV-
aV6.80
p733
aa(lp734
V2016
p735
aVSwitzerland
p736
aVUEC
p737
aV4
aV390
p738
aV-
aV-
aV-
aV-
aV0.5
p739
aV73.3
p740
aV0.8
p741
aV-
aV6.65
p742
aa(lp743
V2013/2014
p744
aVJuventus
p745
aVISA
p746
aV24(3)
p747
aV2121
p748
aV2
aV8
aV4
aV-
aV0.7
p749
aV78.3
p750
aV1.2
p751
aV1
aV6.93
p752
aa(lp753
V2013/2014
p754
aVJuventus
p755
aVUCL
p756
aV3
aV223
p757
aV-
aV-
aV1
aV-
aV0.7
p758
aV68.6
p759
aV0.3
p760
aV-
aV6.12
p761
aa(lp762
V2013/2014
p763
aVJuventus
p764
aVUEL
p765
aV2(2)
p766
aV206
p767
aV-
aV-
aV-
aV-
aV0.5
p768
aV83.2
p769
aV1.3
p770
aV-
aV6.54
p771
aa(lp772
V2014
p773
aVSwitzerland
p774
aVWC
p775
aV4
aV390
p776
aV-
aV1
aV-
aV-
aV0.5
p777
aV83.2
p778
aV0.8
p779
aV-
aV6.83
p780
aa(lp781
V2012/2013
p782
aVJuventus
p783
aVISA
p784
aV25(3)
p785
aV2074
p786
aV4
aV2
aV6
aV-
aV1
aV82.2
p787
aV0.4
p788
aV-
aV6.94
p789
aa(lp790
V2012/2013
p791
aVJuventus
p792
aVUCL
p793
aV6
aV506
p794
aV-
aV-
aV3
aV-
aV1.2
p795
aV78.4
p796
aV1.7
p797
aV-
aV6.83
p798
aa(lp799
V2011/2012
p800
aVJuventus
p801
aVISA
p802
aV34(1)
p803
aV2966
p804
aV2
aV2
aV6
aV-
aV0.5
p805
aV87
p806
aV1
aV-
aV6.97
p807
aa(lp808
V2010/2011
p809
aVLazio
p810
aVISA
p811
aV33(1)
p812
aV2918
p813
aV-
aV2
aV8
aV-
aV0.5
p814
aV80.6
p815
aV0.6
p816
aV2
aV7.05
p817
aa(lp818
V2009/2010
p819
aVLazio
p820
aVISA
p821
aV28(5)
p822
aV2423
p823
aV2
aV-
aV5
aV-
aV0.4
p824
aV77.8
p825
aV0.7
p826
aV1
aV6.75
p827
aa(lp828
VTotal / Average
p829
aV
aV
aV325
p830
aV25023
p831
aV15
p832
aV27
p833
aV68
p834
aV1
aV0.5
p835
aV80.3
p836
aV0.9
p837
aV4
aV6.82
p838
aasS'id'
p839
V15302
p840
sb.