(i__main__
Player
p1
(dp2
S'name'
p3
VStephen Ward 
p4
sS'offensive_data'
p5
(lp6
(lp7
a(lp8
V2018/2019
p9
aVBurnley
p10
aVEPL
p11
aV3
aV230
p12
aV-
aV-
aV1
aV-
aV0.3
p13
aV74.3
p14
aV1.3
p15
aV-
aV6.65
p16
aa(lp17
V2018/2019
p18
aVIreland
p19
aVUNL
p20
aV1
aV61
p21
aV-
aV-
aV-
aV-
aV-
aV73.7
p22
aV-
aV-
aV5.37
p23
aa(lp24
V2017/2018
p25
aVBurnley
p26
aVEPL
p27
aV28
p28
aV2462
p29
aV1
aV1
aV1
aV-
aV0.2
p30
aV69.1
p31
aV2.1
p32
aV1
aV6.89
p33
aa(lp34
V2016/2017
p35
aVBurnley
p36
aVEPL
p37
aV37
p38
aV3233
p39
aV1
aV1
aV5
aV-
aV0.2
p40
aV68.5
p41
aV1.7
p42
aV-
aV6.88
p43
aa(lp44
V2015/2016
p45
aVBurnley
p46
aVEC
p47
aV23(1)
p48
aV2082
p49
aV1
aV4
aV2
aV-
aV0.4
p50
aV64.4
p51
aV1.6
p52
aV2
aV7.16
p53
aa(lp54
V2014/2015
p55
aVBurnley
p56
aVEPL
p57
aV7(2)
p58
aV623
p59
aV-
aV-
aV3
aV-
aV0.1
p60
aV68.2
p61
aV1.6
p62
aV-
aV6.77
p63
aa(lp64
V2016
p65
aVIreland
p66
aVUEC
p67
aV3
aV270
p68
aV-
aV-
aV1
aV-
aV0.7
p69
aV76.8
p70
aV0.3
p71
aV-
aV6.55
p72
aa(lp73
V2013/2014
p74
aVBrighton
p75
aVEC
p76
aV46
p77
aV4049
p78
aV4
aV4
aV3
aV-
aV0.6
p79
aV78.7
p80
aV1.5
p81
aV3
aV7.09
p82
aa(lp83
V2012
p84
aVIreland
p85
aVUEC
p86
aV3
aV270
p87
aV-
aV-
aV-
aV-
aV-
aV63.1
p88
aV0.7
p89
aV-
aV5.77
p90
aa(lp91
V2011/2012
p92
aVWolverhampton..
p93
aVEPL
p94
aV38
p95
aV3420
p96
aV3
aV1
aV2
aV-
aV0.6
p97
aV77.2
p98
aV0.9
p99
aV-
aV6.63
p100
aa(lp101
V2010/2011
p102
aVWolverhampton..
p103
aVEPL
p104
aV27(7)
p105
aV2396
p106
aV1
aV1
aV2
aV-
aV0.5
p107
aV73.8
p108
aV1.2
p109
aV-
aV6.43
p110
aa(lp111
V2009/2010
p112
aVWolverhampton..
p113
aVEPL
p114
aV18(4)
p115
aV1577
p116
aV-
aV1
aV2
aV1
aV0.2
p117
aV62
p118
aV1
aV-
aV6.83
p119
aa(lp120
VTotal / Average
p121
aV
aV
aV248
p122
aV20673
p123
aV11
p124
aV13
p125
aV22
p126
aV1
aV0.4
p127
aV71.7
p128
aV1.4
p129
aV6
aV6.81
p130
aasS'url'
p131
S'https://www.whoscored.com/Players/15764/History/'
p132
sS'passing_data'
p133
(lp134
(lp135
a(lp136
V2018/2019
p137
aVBurnley
p138
aVEPL
p139
aV3
aV230
p140
aV-
aV-
aV1
aV-
aV0.3
p141
aV74.3
p142
aV1.3
p143
aV-
aV6.65
p144
aa(lp145
V2018/2019
p146
aVIreland
p147
aVUNL
p148
aV1
aV61
p149
aV-
aV-
aV-
aV-
aV-
aV73.7
p150
aV-
aV-
aV5.37
p151
aa(lp152
V2017/2018
p153
aVBurnley
p154
aVEPL
p155
aV28
p156
aV2462
p157
aV1
aV1
aV1
aV-
aV0.2
p158
aV69.1
p159
aV2.1
p160
aV1
aV6.89
p161
aa(lp162
V2016/2017
p163
aVBurnley
p164
aVEPL
p165
aV37
p166
aV3233
p167
aV1
aV1
aV5
aV-
aV0.2
p168
aV68.5
p169
aV1.7
p170
aV-
aV6.88
p171
aa(lp172
V2015/2016
p173
aVBurnley
p174
aVEC
p175
aV23(1)
p176
aV2082
p177
aV1
aV4
aV2
aV-
aV0.4
p178
aV64.4
p179
aV1.6
p180
aV2
aV7.16
p181
aa(lp182
V2014/2015
p183
aVBurnley
p184
aVEPL
p185
aV7(2)
p186
aV623
p187
aV-
aV-
aV3
aV-
aV0.1
p188
aV68.2
p189
aV1.6
p190
aV-
aV6.77
p191
aa(lp192
V2016
p193
aVIreland
p194
aVUEC
p195
aV3
aV270
p196
aV-
aV-
aV1
aV-
aV0.7
p197
aV76.8
p198
aV0.3
p199
aV-
aV6.55
p200
aa(lp201
V2013/2014
p202
aVBrighton
p203
aVEC
p204
aV46
p205
aV4049
p206
aV4
aV4
aV3
aV-
aV0.6
p207
aV78.7
p208
aV1.5
p209
aV3
aV7.09
p210
aa(lp211
V2012
p212
aVIreland
p213
aVUEC
p214
aV3
aV270
p215
aV-
aV-
aV-
aV-
aV-
aV63.1
p216
aV0.7
p217
aV-
aV5.77
p218
aa(lp219
V2011/2012
p220
aVWolverhampton..
p221
aVEPL
p222
aV38
p223
aV3420
p224
aV3
aV1
aV2
aV-
aV0.6
p225
aV77.2
p226
aV0.9
p227
aV-
aV6.63
p228
aa(lp229
V2010/2011
p230
aVWolverhampton..
p231
aVEPL
p232
aV27(7)
p233
aV2396
p234
aV1
aV1
aV2
aV-
aV0.5
p235
aV73.8
p236
aV1.2
p237
aV-
aV6.43
p238
aa(lp239
V2009/2010
p240
aVWolverhampton..
p241
aVEPL
p242
aV18(4)
p243
aV1577
p244
aV-
aV1
aV2
aV1
aV0.2
p245
aV62
p246
aV1
aV-
aV6.83
p247
aa(lp248
VTotal / Average
p249
aV
aV
aV248
p250
aV20673
p251
aV11
p252
aV13
p253
aV22
p254
aV1
aV0.4
p255
aV71.7
p256
aV1.4
p257
aV6
aV6.81
p258
aasS'defensive_data'
p259
(lp260
(lp261
a(lp262
V2018/2019
p263
aVBurnley
p264
aVEPL
p265
aV3
aV230
p266
aV-
aV-
aV1
aV-
aV0.3
p267
aV74.3
p268
aV1.3
p269
aV-
aV6.65
p270
aa(lp271
V2018/2019
p272
aVIreland
p273
aVUNL
p274
aV1
aV61
p275
aV-
aV-
aV-
aV-
aV-
aV73.7
p276
aV-
aV-
aV5.37
p277
aa(lp278
V2017/2018
p279
aVBurnley
p280
aVEPL
p281
aV28
p282
aV2462
p283
aV1
aV1
aV1
aV-
aV0.2
p284
aV69.1
p285
aV2.1
p286
aV1
aV6.89
p287
aa(lp288
V2016/2017
p289
aVBurnley
p290
aVEPL
p291
aV37
p292
aV3233
p293
aV1
aV1
aV5
aV-
aV0.2
p294
aV68.5
p295
aV1.7
p296
aV-
aV6.88
p297
aa(lp298
V2015/2016
p299
aVBurnley
p300
aVEC
p301
aV23(1)
p302
aV2082
p303
aV1
aV4
aV2
aV-
aV0.4
p304
aV64.4
p305
aV1.6
p306
aV2
aV7.16
p307
aa(lp308
V2014/2015
p309
aVBurnley
p310
aVEPL
p311
aV7(2)
p312
aV623
p313
aV-
aV-
aV3
aV-
aV0.1
p314
aV68.2
p315
aV1.6
p316
aV-
aV6.77
p317
aa(lp318
V2016
p319
aVIreland
p320
aVUEC
p321
aV3
aV270
p322
aV-
aV-
aV1
aV-
aV0.7
p323
aV76.8
p324
aV0.3
p325
aV-
aV6.55
p326
aa(lp327
V2013/2014
p328
aVBrighton
p329
aVEC
p330
aV46
p331
aV4049
p332
aV4
aV4
aV3
aV-
aV0.6
p333
aV78.7
p334
aV1.5
p335
aV3
aV7.09
p336
aa(lp337
V2012
p338
aVIreland
p339
aVUEC
p340
aV3
aV270
p341
aV-
aV-
aV-
aV-
aV-
aV63.1
p342
aV0.7
p343
aV-
aV5.77
p344
aa(lp345
V2011/2012
p346
aVWolverhampton..
p347
aVEPL
p348
aV38
p349
aV3420
p350
aV3
aV1
aV2
aV-
aV0.6
p351
aV77.2
p352
aV0.9
p353
aV-
aV6.63
p354
aa(lp355
V2010/2011
p356
aVWolverhampton..
p357
aVEPL
p358
aV27(7)
p359
aV2396
p360
aV1
aV1
aV2
aV-
aV0.5
p361
aV73.8
p362
aV1.2
p363
aV-
aV6.43
p364
aa(lp365
V2009/2010
p366
aVWolverhampton..
p367
aVEPL
p368
aV18(4)
p369
aV1577
p370
aV-
aV1
aV2
aV1
aV0.2
p371
aV62
p372
aV1
aV-
aV6.83
p373
aa(lp374
VTotal / Average
p375
aV
aV
aV248
p376
aV20673
p377
aV11
p378
aV13
p379
aV22
p380
aV1
aV0.4
p381
aV71.7
p382
aV1.4
p383
aV6
aV6.81
p384
aasS'sumary_data'
p385
(lp386
(lp387
a(lp388
V2018/2019
p389
aVBurnley
p390
aVEPL
p391
aV3
aV230
p392
aV-
aV-
aV1
aV-
aV0.3
p393
aV74.3
p394
aV1.3
p395
aV-
aV6.65
p396
aa(lp397
V2018/2019
p398
aVIreland
p399
aVUNL
p400
aV1
aV61
p401
aV-
aV-
aV-
aV-
aV-
aV73.7
p402
aV-
aV-
aV5.37
p403
aa(lp404
V2017/2018
p405
aVBurnley
p406
aVEPL
p407
aV28
p408
aV2462
p409
aV1
aV1
aV1
aV-
aV0.2
p410
aV69.1
p411
aV2.1
p412
aV1
aV6.89
p413
aa(lp414
V2016/2017
p415
aVBurnley
p416
aVEPL
p417
aV37
p418
aV3233
p419
aV1
aV1
aV5
aV-
aV0.2
p420
aV68.5
p421
aV1.7
p422
aV-
aV6.88
p423
aa(lp424
V2015/2016
p425
aVBurnley
p426
aVEC
p427
aV23(1)
p428
aV2082
p429
aV1
aV4
aV2
aV-
aV0.4
p430
aV64.4
p431
aV1.6
p432
aV2
aV7.16
p433
aa(lp434
V2014/2015
p435
aVBurnley
p436
aVEPL
p437
aV7(2)
p438
aV623
p439
aV-
aV-
aV3
aV-
aV0.1
p440
aV68.2
p441
aV1.6
p442
aV-
aV6.77
p443
aa(lp444
V2016
p445
aVIreland
p446
aVUEC
p447
aV3
aV270
p448
aV-
aV-
aV1
aV-
aV0.7
p449
aV76.8
p450
aV0.3
p451
aV-
aV6.55
p452
aa(lp453
V2013/2014
p454
aVBrighton
p455
aVEC
p456
aV46
p457
aV4049
p458
aV4
aV4
aV3
aV-
aV0.6
p459
aV78.7
p460
aV1.5
p461
aV3
aV7.09
p462
aa(lp463
V2012
p464
aVIreland
p465
aVUEC
p466
aV3
aV270
p467
aV-
aV-
aV-
aV-
aV-
aV63.1
p468
aV0.7
p469
aV-
aV5.77
p470
aa(lp471
V2011/2012
p472
aVWolverhampton..
p473
aVEPL
p474
aV38
p475
aV3420
p476
aV3
aV1
aV2
aV-
aV0.6
p477
aV77.2
p478
aV0.9
p479
aV-
aV6.63
p480
aa(lp481
V2010/2011
p482
aVWolverhampton..
p483
aVEPL
p484
aV27(7)
p485
aV2396
p486
aV1
aV1
aV2
aV-
aV0.5
p487
aV73.8
p488
aV1.2
p489
aV-
aV6.43
p490
aa(lp491
V2009/2010
p492
aVWolverhampton..
p493
aVEPL
p494
aV18(4)
p495
aV1577
p496
aV-
aV1
aV2
aV1
aV0.2
p497
aV62
p498
aV1
aV-
aV6.83
p499
aa(lp500
VTotal / Average
p501
aV
aV
aV248
p502
aV20673
p503
aV11
p504
aV13
p505
aV22
p506
aV1
aV0.4
p507
aV71.7
p508
aV1.4
p509
aV6
aV6.81
p510
aasS'id'
p511
V15764
p512
sb.