(i__main__
Player
p1
(dp2
S'name'
p3
VPhil Bardsley 
p4
sS'offensive_data'
p5
(lp6
(lp7
a(lp8
V2018/2019
p9
aVBurnley
p10
aVEPL
p11
aV5
aV450
p12
aV-
aV-
aV4
aV-
aV0.8
p13
aV68.8
p14
aV1.6
p15
aV-
aV6.86
p16
aa(lp17
V2017/2018
p18
aVBurnley
p19
aVEPL
p20
aV13
p21
aV1126
p22
aV-
aV-
aV5
aV-
aV0.2
p23
aV67.5
p24
aV2.2
p25
aV-
aV6.87
p26
aa(lp27
V2016/2017
p28
aVStoke
p29
aVEPL
p30
aV14(1)
p31
aV1171
p32
aV-
aV-
aV4
aV1
aV0.7
p33
aV73
p34
aV0.5
p35
aV-
aV6.57
p36
aa(lp37
V2015/2016
p38
aVStoke
p39
aVEPL
p40
aV9(2)
p41
aV817
p42
aV-
aV1
aV1
aV-
aV0.6
p43
aV76.7
p44
aV1.1
p45
aV-
aV6.84
p46
aa(lp47
V2014/2015
p48
aVStoke
p49
aVEPL
p50
aV24(1)
p51
aV2082
p52
aV-
aV1
aV6
aV-
aV0.9
p53
aV74.8
p54
aV1.8
p55
aV1
aV6.95
p56
aa(lp57
V2013/2014
p58
aVSunderland
p59
aVEPL
p60
aV26
p61
aV2249
p62
aV2
aV-
aV9
aV-
aV1.2
p63
aV75.9
p64
aV1.5
p65
aV1
aV6.87
p66
aa(lp67
V2012/2013
p68
aVSunderland
p69
aVEPL
p70
aV11(7)
p71
aV986
p72
aV1
aV-
aV5
aV-
aV0.4
p73
aV77.6
p74
aV0.9
p75
aV-
aV6.37
p76
aa(lp77
V2011/2012
p78
aVSunderland
p79
aVEPL
p80
aV29(2)
p81
aV2480
p82
aV1
aV-
aV3
aV1
aV0.8
p83
aV71.9
p84
aV0.5
p85
aV-
aV6.88
p86
aa(lp87
V2010/2011
p88
aVSunderland
p89
aVEPL
p90
aV32(2)
p91
aV2824
p92
aV3
aV1
aV5
aV-
aV0.9
p93
aV69.3
p94
aV0.9
p95
aV1
aV7.07
p96
aa(lp97
V2009/2010
p98
aVSunderland
p99
aVEPL
p100
aV18(8)
p101
aV1698
p102
aV-
aV-
aV8
aV-
aV0.5
p103
aV61.3
p104
aV0.5
p105
aV-
aV6.54
p106
aa(lp107
VTotal / Average
p108
aV
aV
aV204
p109
aV15883
p110
aV7
aV3
aV50
p111
aV2
aV0.7
p112
aV71.5
p113
aV1.1
p114
aV3
aV6.80
p115
aasS'url'
p116
S'https://www.whoscored.com/Players/18181/History/'
p117
sS'passing_data'
p118
(lp119
(lp120
a(lp121
V2018/2019
p122
aVBurnley
p123
aVEPL
p124
aV5
aV450
p125
aV-
aV-
aV4
aV-
aV0.8
p126
aV68.8
p127
aV1.6
p128
aV-
aV6.86
p129
aa(lp130
V2017/2018
p131
aVBurnley
p132
aVEPL
p133
aV13
p134
aV1126
p135
aV-
aV-
aV5
aV-
aV0.2
p136
aV67.5
p137
aV2.2
p138
aV-
aV6.87
p139
aa(lp140
V2016/2017
p141
aVStoke
p142
aVEPL
p143
aV14(1)
p144
aV1171
p145
aV-
aV-
aV4
aV1
aV0.7
p146
aV73
p147
aV0.5
p148
aV-
aV6.57
p149
aa(lp150
V2015/2016
p151
aVStoke
p152
aVEPL
p153
aV9(2)
p154
aV817
p155
aV-
aV1
aV1
aV-
aV0.6
p156
aV76.7
p157
aV1.1
p158
aV-
aV6.84
p159
aa(lp160
V2014/2015
p161
aVStoke
p162
aVEPL
p163
aV24(1)
p164
aV2082
p165
aV-
aV1
aV6
aV-
aV0.9
p166
aV74.8
p167
aV1.8
p168
aV1
aV6.95
p169
aa(lp170
V2013/2014
p171
aVSunderland
p172
aVEPL
p173
aV26
p174
aV2249
p175
aV2
aV-
aV9
aV-
aV1.2
p176
aV75.9
p177
aV1.5
p178
aV1
aV6.87
p179
aa(lp180
V2012/2013
p181
aVSunderland
p182
aVEPL
p183
aV11(7)
p184
aV986
p185
aV1
aV-
aV5
aV-
aV0.4
p186
aV77.6
p187
aV0.9
p188
aV-
aV6.37
p189
aa(lp190
V2011/2012
p191
aVSunderland
p192
aVEPL
p193
aV29(2)
p194
aV2480
p195
aV1
aV-
aV3
aV1
aV0.8
p196
aV71.9
p197
aV0.5
p198
aV-
aV6.88
p199
aa(lp200
V2010/2011
p201
aVSunderland
p202
aVEPL
p203
aV32(2)
p204
aV2824
p205
aV3
aV1
aV5
aV-
aV0.9
p206
aV69.3
p207
aV0.9
p208
aV1
aV7.07
p209
aa(lp210
V2009/2010
p211
aVSunderland
p212
aVEPL
p213
aV18(8)
p214
aV1698
p215
aV-
aV-
aV8
aV-
aV0.5
p216
aV61.3
p217
aV0.5
p218
aV-
aV6.54
p219
aa(lp220
VTotal / Average
p221
aV
aV
aV204
p222
aV15883
p223
aV7
aV3
aV50
p224
aV2
aV0.7
p225
aV71.5
p226
aV1.1
p227
aV3
aV6.80
p228
aasS'defensive_data'
p229
(lp230
(lp231
a(lp232
V2018/2019
p233
aVBurnley
p234
aVEPL
p235
aV5
aV450
p236
aV-
aV-
aV4
aV-
aV0.8
p237
aV68.8
p238
aV1.6
p239
aV-
aV6.86
p240
aa(lp241
V2017/2018
p242
aVBurnley
p243
aVEPL
p244
aV13
p245
aV1126
p246
aV-
aV-
aV5
aV-
aV0.2
p247
aV67.5
p248
aV2.2
p249
aV-
aV6.87
p250
aa(lp251
V2016/2017
p252
aVStoke
p253
aVEPL
p254
aV14(1)
p255
aV1171
p256
aV-
aV-
aV4
aV1
aV0.7
p257
aV73
p258
aV0.5
p259
aV-
aV6.57
p260
aa(lp261
V2015/2016
p262
aVStoke
p263
aVEPL
p264
aV9(2)
p265
aV817
p266
aV-
aV1
aV1
aV-
aV0.6
p267
aV76.7
p268
aV1.1
p269
aV-
aV6.84
p270
aa(lp271
V2014/2015
p272
aVStoke
p273
aVEPL
p274
aV24(1)
p275
aV2082
p276
aV-
aV1
aV6
aV-
aV0.9
p277
aV74.8
p278
aV1.8
p279
aV1
aV6.95
p280
aa(lp281
V2013/2014
p282
aVSunderland
p283
aVEPL
p284
aV26
p285
aV2249
p286
aV2
aV-
aV9
aV-
aV1.2
p287
aV75.9
p288
aV1.5
p289
aV1
aV6.87
p290
aa(lp291
V2012/2013
p292
aVSunderland
p293
aVEPL
p294
aV11(7)
p295
aV986
p296
aV1
aV-
aV5
aV-
aV0.4
p297
aV77.6
p298
aV0.9
p299
aV-
aV6.37
p300
aa(lp301
V2011/2012
p302
aVSunderland
p303
aVEPL
p304
aV29(2)
p305
aV2480
p306
aV1
aV-
aV3
aV1
aV0.8
p307
aV71.9
p308
aV0.5
p309
aV-
aV6.88
p310
aa(lp311
V2010/2011
p312
aVSunderland
p313
aVEPL
p314
aV32(2)
p315
aV2824
p316
aV3
aV1
aV5
aV-
aV0.9
p317
aV69.3
p318
aV0.9
p319
aV1
aV7.07
p320
aa(lp321
V2009/2010
p322
aVSunderland
p323
aVEPL
p324
aV18(8)
p325
aV1698
p326
aV-
aV-
aV8
aV-
aV0.5
p327
aV61.3
p328
aV0.5
p329
aV-
aV6.54
p330
aa(lp331
VTotal / Average
p332
aV
aV
aV204
p333
aV15883
p334
aV7
aV3
aV50
p335
aV2
aV0.7
p336
aV71.5
p337
aV1.1
p338
aV3
aV6.80
p339
aasS'sumary_data'
p340
(lp341
(lp342
a(lp343
V2018/2019
p344
aVBurnley
p345
aVEPL
p346
aV5
aV450
p347
aV-
aV-
aV4
aV-
aV0.8
p348
aV68.8
p349
aV1.6
p350
aV-
aV6.86
p351
aa(lp352
V2017/2018
p353
aVBurnley
p354
aVEPL
p355
aV13
p356
aV1126
p357
aV-
aV-
aV5
aV-
aV0.2
p358
aV67.5
p359
aV2.2
p360
aV-
aV6.87
p361
aa(lp362
V2016/2017
p363
aVStoke
p364
aVEPL
p365
aV14(1)
p366
aV1171
p367
aV-
aV-
aV4
aV1
aV0.7
p368
aV73
p369
aV0.5
p370
aV-
aV6.57
p371
aa(lp372
V2015/2016
p373
aVStoke
p374
aVEPL
p375
aV9(2)
p376
aV817
p377
aV-
aV1
aV1
aV-
aV0.6
p378
aV76.7
p379
aV1.1
p380
aV-
aV6.84
p381
aa(lp382
V2014/2015
p383
aVStoke
p384
aVEPL
p385
aV24(1)
p386
aV2082
p387
aV-
aV1
aV6
aV-
aV0.9
p388
aV74.8
p389
aV1.8
p390
aV1
aV6.95
p391
aa(lp392
V2013/2014
p393
aVSunderland
p394
aVEPL
p395
aV26
p396
aV2249
p397
aV2
aV-
aV9
aV-
aV1.2
p398
aV75.9
p399
aV1.5
p400
aV1
aV6.87
p401
aa(lp402
V2012/2013
p403
aVSunderland
p404
aVEPL
p405
aV11(7)
p406
aV986
p407
aV1
aV-
aV5
aV-
aV0.4
p408
aV77.6
p409
aV0.9
p410
aV-
aV6.37
p411
aa(lp412
V2011/2012
p413
aVSunderland
p414
aVEPL
p415
aV29(2)
p416
aV2480
p417
aV1
aV-
aV3
aV1
aV0.8
p418
aV71.9
p419
aV0.5
p420
aV-
aV6.88
p421
aa(lp422
V2010/2011
p423
aVSunderland
p424
aVEPL
p425
aV32(2)
p426
aV2824
p427
aV3
aV1
aV5
aV-
aV0.9
p428
aV69.3
p429
aV0.9
p430
aV1
aV7.07
p431
aa(lp432
V2009/2010
p433
aVSunderland
p434
aVEPL
p435
aV18(8)
p436
aV1698
p437
aV-
aV-
aV8
aV-
aV0.5
p438
aV61.3
p439
aV0.5
p440
aV-
aV6.54
p441
aa(lp442
VTotal / Average
p443
aV
aV
aV204
p444
aV15883
p445
aV7
aV3
aV50
p446
aV2
aV0.7
p447
aV71.5
p448
aV1.1
p449
aV3
aV6.80
p450
aasS'id'
p451
V18181
p452
sb.