(i__main__
Player
p1
(dp2
S'name'
p3
VAntonio Valencia 
p4
sS'offensive_data'
p5
(lp6
(lp7
a(lp8
V2018/2019
p9
aVManchester Un..
p10
aVEPL
p11
aV4
aV360
p12
aV-
aV-
aV2
aV-
aV0.3
p13
aV83.3
p14
aV0.5
p15
aV-
aV6.80
p16
aa(lp17
V2018/2019
p18
aVManchester Un..
p19
aVUCL
p20
aV3
aV252
p21
aV-
aV-
aV2
aV-
aV-
aV86.5
p22
aV-
aV-
aV6.81
p23
aa(lp24
V2017/2018
p25
aVManchester Un..
p26
aVUCL
p27
aV4
aV329
p28
aV-
aV-
aV1
aV-
aV0.5
p29
aV80
p30
aV0.5
p31
aV-
aV7.13
p32
aa(lp33
V2017/2018
p34
aVManchester Un..
p35
aVEPL
p36
aV31
p37
aV2743
p38
aV3
aV1
aV7
aV-
aV0.5
p39
aV85.3
p40
aV0.7
p41
aV-
aV7.07
p42
aa(lp43
V2016/2017
p44
aVManchester Un..
p45
aVEPL
p46
aV27(1)
p47
aV2483
p48
aV1
aV3
aV5
aV-
aV0.3
p49
aV85.8
p50
aV0.8
p51
aV-
aV7.24
p52
aa(lp53
V2016/2017
p54
aVManchester Un..
p55
aVUEL
p56
aV8(1)
p57
aV751
p58
aV-
aV1
aV-
aV-
aV0.3
p59
aV84.2
p60
aV0.8
p61
aV-
aV7.13
p62
aa(lp63
V2015/2016
p64
aVManchester Un..
p65
aVUEL
p66
aV0(1)
p67
aV45
p68
aV-
aV-
aV-
aV-
aV-
aV73.1
p69
aV1
aV-
aV6.55
p70
aa(lp71
V2015/2016
p72
aVManchester Un..
p73
aVUCL
p74
aV2(1)
p75
aV140
p76
aV-
aV1
aV-
aV-
aV-
aV88.3
p77
aV0.7
p78
aV1
aV6.86
p79
aa(lp80
V2015/2016
p81
aVManchester Un..
p82
aVEPL
p83
aV8(6)
p84
aV855
p85
aV-
aV3
aV1
aV-
aV0.4
p86
aV88.2
p87
aV1.3
p88
aV-
aV7.05
p89
aa(lp90
V2014/2015
p91
aVManchester Un..
p92
aVEPL
p93
aV29(3)
p94
aV2584
p95
aV-
aV2
aV4
aV-
aV0.2
p96
aV89.5
p97
aV0.8
p98
aV1
aV7.23
p99
aa(lp100
V2013/2014
p101
aVManchester Un..
p102
aVUCL
p103
aV9(1)
p104
aV759
p105
aV2
aV2
aV1
aV-
aV0.8
p106
aV79.4
p107
aV1.3
p108
aV1
aV7.25
p109
aa(lp110
V2013/2014
p111
aVManchester Un..
p112
aVEPL
p113
aV20(9)
p114
aV1941
p115
aV2
aV3
aV6
aV1
aV0.6
p116
aV85.2
p117
aV1.2
p118
aV1
aV6.94
p119
aa(lp120
V2014
p121
aVEcuador
p122
aVWC
p123
aV3
aV230
p124
aV-
aV-
aV1
aV1
aV0.7
p125
aV77.6
p126
aV4.7
p127
aV-
aV6.08
p128
aa(lp129
V2012/2013
p130
aVManchester Un..
p131
aVUCL
p132
aV2(2)
p133
aV200
p134
aV-
aV-
aV1
aV-
aV0.3
p135
aV83.9
p136
aV0.8
p137
aV1
aV6.80
p138
aa(lp139
V2012/2013
p140
aVManchester Un..
p141
aVEPL
p142
aV24(6)
p143
aV2212
p144
aV1
aV5
aV6
aV-
aV0.5
p145
aV84.2
p146
aV1
aV-
aV7.00
p147
aa(lp148
V2011/2012
p149
aVManchester Un..
p150
aVUCL
p151
aV5
aV400
p152
aV1
aV1
aV-
aV-
aV1
aV81.1
p153
aV0.8
p154
aV-
aV6.93
p155
aa(lp156
V2011/2012
p157
aVManchester Un..
p158
aVEPL
p159
aV22(5)
p160
aV2120
p161
aV4
aV13
p162
aV3
aV-
aV1
aV85.6
p163
aV0.4
p164
aV4
aV7.51
p165
aa(lp166
V2010/2011
p167
aVManchester Un..
p168
aVUCL
p169
aV5(2)
p170
aV467
p171
aV1
aV1
aV1
aV-
aV0.6
p172
aV77.6
p173
aV0.6
p174
aV-
aV7.02
p175
aa(lp176
V2010/2011
p177
aVManchester Un..
p178
aVEPL
p179
aV8(2)
p180
aV741
p181
aV1
aV2
aV1
aV-
aV0.7
p182
aV86.1
p183
aV0.4
p184
aV2
aV7.27
p185
aa(lp186
V2009/2010
p187
aVManchester Un..
p188
aVUCL
p189
aV6(3)
p190
aV588
p191
aV2
aV3
aV-
aV-
aV1.1
p192
aV80.3
p193
aV0.6
p194
aV-
aV7.49
p195
aa(lp196
V2009/2010
p197
aVManchester Un..
p198
aVEPL
p199
aV29(5)
p200
aV2615
p201
aV5
aV7
aV3
aV-
aV1.1
p202
aV82.9
p203
aV0.9
p204
aV6
aV7.47
p205
aa(lp206
VTotal / Average
p207
aV
aV
aV297
p208
aV22815
p209
aV23
p210
aV48
p211
aV45
p212
aV2
aV0.6
p213
aV84.8
p214
aV0.8
p215
aV17
p216
aV7.17
p217
aasS'url'
p218
S'https://www.whoscored.com/Players/18296/History/'
p219
sS'passing_data'
p220
(lp221
(lp222
a(lp223
V2018/2019
p224
aVManchester Un..
p225
aVEPL
p226
aV4
aV360
p227
aV-
aV-
aV2
aV-
aV0.3
p228
aV83.3
p229
aV0.5
p230
aV-
aV6.80
p231
aa(lp232
V2018/2019
p233
aVManchester Un..
p234
aVUCL
p235
aV3
aV252
p236
aV-
aV-
aV2
aV-
aV-
aV86.5
p237
aV-
aV-
aV6.81
p238
aa(lp239
V2017/2018
p240
aVManchester Un..
p241
aVUCL
p242
aV4
aV329
p243
aV-
aV-
aV1
aV-
aV0.5
p244
aV80
p245
aV0.5
p246
aV-
aV7.13
p247
aa(lp248
V2017/2018
p249
aVManchester Un..
p250
aVEPL
p251
aV31
p252
aV2743
p253
aV3
aV1
aV7
aV-
aV0.5
p254
aV85.3
p255
aV0.7
p256
aV-
aV7.07
p257
aa(lp258
V2016/2017
p259
aVManchester Un..
p260
aVEPL
p261
aV27(1)
p262
aV2483
p263
aV1
aV3
aV5
aV-
aV0.3
p264
aV85.8
p265
aV0.8
p266
aV-
aV7.24
p267
aa(lp268
V2016/2017
p269
aVManchester Un..
p270
aVUEL
p271
aV8(1)
p272
aV751
p273
aV-
aV1
aV-
aV-
aV0.3
p274
aV84.2
p275
aV0.8
p276
aV-
aV7.13
p277
aa(lp278
V2015/2016
p279
aVManchester Un..
p280
aVUEL
p281
aV0(1)
p282
aV45
p283
aV-
aV-
aV-
aV-
aV-
aV73.1
p284
aV1
aV-
aV6.55
p285
aa(lp286
V2015/2016
p287
aVManchester Un..
p288
aVUCL
p289
aV2(1)
p290
aV140
p291
aV-
aV1
aV-
aV-
aV-
aV88.3
p292
aV0.7
p293
aV1
aV6.86
p294
aa(lp295
V2015/2016
p296
aVManchester Un..
p297
aVEPL
p298
aV8(6)
p299
aV855
p300
aV-
aV3
aV1
aV-
aV0.4
p301
aV88.2
p302
aV1.3
p303
aV-
aV7.05
p304
aa(lp305
V2014/2015
p306
aVManchester Un..
p307
aVEPL
p308
aV29(3)
p309
aV2584
p310
aV-
aV2
aV4
aV-
aV0.2
p311
aV89.5
p312
aV0.8
p313
aV1
aV7.23
p314
aa(lp315
V2013/2014
p316
aVManchester Un..
p317
aVUCL
p318
aV9(1)
p319
aV759
p320
aV2
aV2
aV1
aV-
aV0.8
p321
aV79.4
p322
aV1.3
p323
aV1
aV7.25
p324
aa(lp325
V2013/2014
p326
aVManchester Un..
p327
aVEPL
p328
aV20(9)
p329
aV1941
p330
aV2
aV3
aV6
aV1
aV0.6
p331
aV85.2
p332
aV1.2
p333
aV1
aV6.94
p334
aa(lp335
V2014
p336
aVEcuador
p337
aVWC
p338
aV3
aV230
p339
aV-
aV-
aV1
aV1
aV0.7
p340
aV77.6
p341
aV4.7
p342
aV-
aV6.08
p343
aa(lp344
V2012/2013
p345
aVManchester Un..
p346
aVUCL
p347
aV2(2)
p348
aV200
p349
aV-
aV-
aV1
aV-
aV0.3
p350
aV83.9
p351
aV0.8
p352
aV1
aV6.80
p353
aa(lp354
V2012/2013
p355
aVManchester Un..
p356
aVEPL
p357
aV24(6)
p358
aV2212
p359
aV1
aV5
aV6
aV-
aV0.5
p360
aV84.2
p361
aV1
aV-
aV7.00
p362
aa(lp363
V2011/2012
p364
aVManchester Un..
p365
aVUCL
p366
aV5
aV400
p367
aV1
aV1
aV-
aV-
aV1
aV81.1
p368
aV0.8
p369
aV-
aV6.93
p370
aa(lp371
V2011/2012
p372
aVManchester Un..
p373
aVEPL
p374
aV22(5)
p375
aV2120
p376
aV4
aV13
p377
aV3
aV-
aV1
aV85.6
p378
aV0.4
p379
aV4
aV7.51
p380
aa(lp381
V2010/2011
p382
aVManchester Un..
p383
aVUCL
p384
aV5(2)
p385
aV467
p386
aV1
aV1
aV1
aV-
aV0.6
p387
aV77.6
p388
aV0.6
p389
aV-
aV7.02
p390
aa(lp391
V2010/2011
p392
aVManchester Un..
p393
aVEPL
p394
aV8(2)
p395
aV741
p396
aV1
aV2
aV1
aV-
aV0.7
p397
aV86.1
p398
aV0.4
p399
aV2
aV7.27
p400
aa(lp401
V2009/2010
p402
aVManchester Un..
p403
aVUCL
p404
aV6(3)
p405
aV588
p406
aV2
aV3
aV-
aV-
aV1.1
p407
aV80.3
p408
aV0.6
p409
aV-
aV7.49
p410
aa(lp411
V2009/2010
p412
aVManchester Un..
p413
aVEPL
p414
aV29(5)
p415
aV2615
p416
aV5
aV7
aV3
aV-
aV1.1
p417
aV82.9
p418
aV0.9
p419
aV6
aV7.47
p420
aa(lp421
VTotal / Average
p422
aV
aV
aV297
p423
aV22815
p424
aV23
p425
aV48
p426
aV45
p427
aV2
aV0.6
p428
aV84.8
p429
aV0.8
p430
aV17
p431
aV7.17
p432
aasS'defensive_data'
p433
(lp434
(lp435
a(lp436
V2018/2019
p437
aVManchester Un..
p438
aVEPL
p439
aV4
aV360
p440
aV-
aV-
aV2
aV-
aV0.3
p441
aV83.3
p442
aV0.5
p443
aV-
aV6.80
p444
aa(lp445
V2018/2019
p446
aVManchester Un..
p447
aVUCL
p448
aV3
aV252
p449
aV-
aV-
aV2
aV-
aV-
aV86.5
p450
aV-
aV-
aV6.81
p451
aa(lp452
V2017/2018
p453
aVManchester Un..
p454
aVUCL
p455
aV4
aV329
p456
aV-
aV-
aV1
aV-
aV0.5
p457
aV80
p458
aV0.5
p459
aV-
aV7.13
p460
aa(lp461
V2017/2018
p462
aVManchester Un..
p463
aVEPL
p464
aV31
p465
aV2743
p466
aV3
aV1
aV7
aV-
aV0.5
p467
aV85.3
p468
aV0.7
p469
aV-
aV7.07
p470
aa(lp471
V2016/2017
p472
aVManchester Un..
p473
aVEPL
p474
aV27(1)
p475
aV2483
p476
aV1
aV3
aV5
aV-
aV0.3
p477
aV85.8
p478
aV0.8
p479
aV-
aV7.24
p480
aa(lp481
V2016/2017
p482
aVManchester Un..
p483
aVUEL
p484
aV8(1)
p485
aV751
p486
aV-
aV1
aV-
aV-
aV0.3
p487
aV84.2
p488
aV0.8
p489
aV-
aV7.13
p490
aa(lp491
V2015/2016
p492
aVManchester Un..
p493
aVUEL
p494
aV0(1)
p495
aV45
p496
aV-
aV-
aV-
aV-
aV-
aV73.1
p497
aV1
aV-
aV6.55
p498
aa(lp499
V2015/2016
p500
aVManchester Un..
p501
aVUCL
p502
aV2(1)
p503
aV140
p504
aV-
aV1
aV-
aV-
aV-
aV88.3
p505
aV0.7
p506
aV1
aV6.86
p507
aa(lp508
V2015/2016
p509
aVManchester Un..
p510
aVEPL
p511
aV8(6)
p512
aV855
p513
aV-
aV3
aV1
aV-
aV0.4
p514
aV88.2
p515
aV1.3
p516
aV-
aV7.05
p517
aa(lp518
V2014/2015
p519
aVManchester Un..
p520
aVEPL
p521
aV29(3)
p522
aV2584
p523
aV-
aV2
aV4
aV-
aV0.2
p524
aV89.5
p525
aV0.8
p526
aV1
aV7.23
p527
aa(lp528
V2013/2014
p529
aVManchester Un..
p530
aVUCL
p531
aV9(1)
p532
aV759
p533
aV2
aV2
aV1
aV-
aV0.8
p534
aV79.4
p535
aV1.3
p536
aV1
aV7.25
p537
aa(lp538
V2013/2014
p539
aVManchester Un..
p540
aVEPL
p541
aV20(9)
p542
aV1941
p543
aV2
aV3
aV6
aV1
aV0.6
p544
aV85.2
p545
aV1.2
p546
aV1
aV6.94
p547
aa(lp548
V2014
p549
aVEcuador
p550
aVWC
p551
aV3
aV230
p552
aV-
aV-
aV1
aV1
aV0.7
p553
aV77.6
p554
aV4.7
p555
aV-
aV6.08
p556
aa(lp557
V2012/2013
p558
aVManchester Un..
p559
aVUCL
p560
aV2(2)
p561
aV200
p562
aV-
aV-
aV1
aV-
aV0.3
p563
aV83.9
p564
aV0.8
p565
aV1
aV6.80
p566
aa(lp567
V2012/2013
p568
aVManchester Un..
p569
aVEPL
p570
aV24(6)
p571
aV2212
p572
aV1
aV5
aV6
aV-
aV0.5
p573
aV84.2
p574
aV1
aV-
aV7.00
p575
aa(lp576
V2011/2012
p577
aVManchester Un..
p578
aVUCL
p579
aV5
aV400
p580
aV1
aV1
aV-
aV-
aV1
aV81.1
p581
aV0.8
p582
aV-
aV6.93
p583
aa(lp584
V2011/2012
p585
aVManchester Un..
p586
aVEPL
p587
aV22(5)
p588
aV2120
p589
aV4
aV13
p590
aV3
aV-
aV1
aV85.6
p591
aV0.4
p592
aV4
aV7.51
p593
aa(lp594
V2010/2011
p595
aVManchester Un..
p596
aVUCL
p597
aV5(2)
p598
aV467
p599
aV1
aV1
aV1
aV-
aV0.6
p600
aV77.6
p601
aV0.6
p602
aV-
aV7.02
p603
aa(lp604
V2010/2011
p605
aVManchester Un..
p606
aVEPL
p607
aV8(2)
p608
aV741
p609
aV1
aV2
aV1
aV-
aV0.7
p610
aV86.1
p611
aV0.4
p612
aV2
aV7.27
p613
aa(lp614
V2009/2010
p615
aVManchester Un..
p616
aVUCL
p617
aV6(3)
p618
aV588
p619
aV2
aV3
aV-
aV-
aV1.1
p620
aV80.3
p621
aV0.6
p622
aV-
aV7.49
p623
aa(lp624
V2009/2010
p625
aVManchester Un..
p626
aVEPL
p627
aV29(5)
p628
aV2615
p629
aV5
aV7
aV3
aV-
aV1.1
p630
aV82.9
p631
aV0.9
p632
aV6
aV7.47
p633
aa(lp634
VTotal / Average
p635
aV
aV
aV297
p636
aV22815
p637
aV23
p638
aV48
p639
aV45
p640
aV2
aV0.6
p641
aV84.8
p642
aV0.8
p643
aV17
p644
aV7.17
p645
aasS'sumary_data'
p646
(lp647
(lp648
a(lp649
V2018/2019
p650
aVManchester Un..
p651
aVEPL
p652
aV4
aV360
p653
aV-
aV-
aV2
aV-
aV0.3
p654
aV83.3
p655
aV0.5
p656
aV-
aV6.80
p657
aa(lp658
V2018/2019
p659
aVManchester Un..
p660
aVUCL
p661
aV3
aV252
p662
aV-
aV-
aV2
aV-
aV-
aV86.5
p663
aV-
aV-
aV6.81
p664
aa(lp665
V2017/2018
p666
aVManchester Un..
p667
aVUCL
p668
aV4
aV329
p669
aV-
aV-
aV1
aV-
aV0.5
p670
aV80
p671
aV0.5
p672
aV-
aV7.13
p673
aa(lp674
V2017/2018
p675
aVManchester Un..
p676
aVEPL
p677
aV31
p678
aV2743
p679
aV3
aV1
aV7
aV-
aV0.5
p680
aV85.3
p681
aV0.7
p682
aV-
aV7.07
p683
aa(lp684
V2016/2017
p685
aVManchester Un..
p686
aVEPL
p687
aV27(1)
p688
aV2483
p689
aV1
aV3
aV5
aV-
aV0.3
p690
aV85.8
p691
aV0.8
p692
aV-
aV7.24
p693
aa(lp694
V2016/2017
p695
aVManchester Un..
p696
aVUEL
p697
aV8(1)
p698
aV751
p699
aV-
aV1
aV-
aV-
aV0.3
p700
aV84.2
p701
aV0.8
p702
aV-
aV7.13
p703
aa(lp704
V2015/2016
p705
aVManchester Un..
p706
aVUEL
p707
aV0(1)
p708
aV45
p709
aV-
aV-
aV-
aV-
aV-
aV73.1
p710
aV1
aV-
aV6.55
p711
aa(lp712
V2015/2016
p713
aVManchester Un..
p714
aVUCL
p715
aV2(1)
p716
aV140
p717
aV-
aV1
aV-
aV-
aV-
aV88.3
p718
aV0.7
p719
aV1
aV6.86
p720
aa(lp721
V2015/2016
p722
aVManchester Un..
p723
aVEPL
p724
aV8(6)
p725
aV855
p726
aV-
aV3
aV1
aV-
aV0.4
p727
aV88.2
p728
aV1.3
p729
aV-
aV7.05
p730
aa(lp731
V2014/2015
p732
aVManchester Un..
p733
aVEPL
p734
aV29(3)
p735
aV2584
p736
aV-
aV2
aV4
aV-
aV0.2
p737
aV89.5
p738
aV0.8
p739
aV1
aV7.23
p740
aa(lp741
V2013/2014
p742
aVManchester Un..
p743
aVUCL
p744
aV9(1)
p745
aV759
p746
aV2
aV2
aV1
aV-
aV0.8
p747
aV79.4
p748
aV1.3
p749
aV1
aV7.25
p750
aa(lp751
V2013/2014
p752
aVManchester Un..
p753
aVEPL
p754
aV20(9)
p755
aV1941
p756
aV2
aV3
aV6
aV1
aV0.6
p757
aV85.2
p758
aV1.2
p759
aV1
aV6.94
p760
aa(lp761
V2014
p762
aVEcuador
p763
aVWC
p764
aV3
aV230
p765
aV-
aV-
aV1
aV1
aV0.7
p766
aV77.6
p767
aV4.7
p768
aV-
aV6.08
p769
aa(lp770
V2012/2013
p771
aVManchester Un..
p772
aVUCL
p773
aV2(2)
p774
aV200
p775
aV-
aV-
aV1
aV-
aV0.3
p776
aV83.9
p777
aV0.8
p778
aV1
aV6.80
p779
aa(lp780
V2012/2013
p781
aVManchester Un..
p782
aVEPL
p783
aV24(6)
p784
aV2212
p785
aV1
aV5
aV6
aV-
aV0.5
p786
aV84.2
p787
aV1
aV-
aV7.00
p788
aa(lp789
V2011/2012
p790
aVManchester Un..
p791
aVUCL
p792
aV5
aV400
p793
aV1
aV1
aV-
aV-
aV1
aV81.1
p794
aV0.8
p795
aV-
aV6.93
p796
aa(lp797
V2011/2012
p798
aVManchester Un..
p799
aVEPL
p800
aV22(5)
p801
aV2120
p802
aV4
aV13
p803
aV3
aV-
aV1
aV85.6
p804
aV0.4
p805
aV4
aV7.51
p806
aa(lp807
V2010/2011
p808
aVManchester Un..
p809
aVUCL
p810
aV5(2)
p811
aV467
p812
aV1
aV1
aV1
aV-
aV0.6
p813
aV77.6
p814
aV0.6
p815
aV-
aV7.02
p816
aa(lp817
V2010/2011
p818
aVManchester Un..
p819
aVEPL
p820
aV8(2)
p821
aV741
p822
aV1
aV2
aV1
aV-
aV0.7
p823
aV86.1
p824
aV0.4
p825
aV2
aV7.27
p826
aa(lp827
V2009/2010
p828
aVManchester Un..
p829
aVUCL
p830
aV6(3)
p831
aV588
p832
aV2
aV3
aV-
aV-
aV1.1
p833
aV80.3
p834
aV0.6
p835
aV-
aV7.49
p836
aa(lp837
V2009/2010
p838
aVManchester Un..
p839
aVEPL
p840
aV29(5)
p841
aV2615
p842
aV5
aV7
aV3
aV-
aV1.1
p843
aV82.9
p844
aV0.9
p845
aV6
aV7.47
p846
aa(lp847
VTotal / Average
p848
aV
aV
aV297
p849
aV22815
p850
aV23
p851
aV48
p852
aV45
p853
aV2
aV0.6
p854
aV84.8
p855
aV0.8
p856
aV17
p857
aV7.17
p858
aasS'id'
p859
V18296
p860
sb.