(i__main__
Player
p1
(dp2
S'name'
p3
VFernandinho 
p4
sS'offensive_data'
p5
(lp6
(lp7
a(lp8
V2018/2019
p9
aVManchester Ci..
p10
aVEPL
p11
aV17
p12
aV1503
p13
aV1
aV3
aV2
aV-
aV1.1
p14
aV88.3
p15
aV2.4
p16
aV2
aV7.47
p17
aa(lp18
V2018/2019
p19
aVManchester Ci..
p20
aVUCL
p21
aV5
aV436
p22
aV-
aV-
aV2
aV-
aV0.8
p23
aV87.2
p24
aV2.2
p25
aV-
aV7.18
p26
aa(lp27
V2017/2018
p28
aVManchester Ci..
p29
aVUCL
p30
aV8
aV682
p31
aV-
aV-
aV2
aV-
aV1
aV89.9
p32
aV2.6
p33
aV-
aV6.96
p34
aa(lp35
V2017/2018
p36
aVManchester Ci..
p37
aVEPL
p38
aV33(1)
p39
aV2885
p40
aV5
aV3
aV7
aV-
aV1.4
p41
aV90.1
p42
aV2.8
p43
aV1
aV7.44
p44
aa(lp45
V2016/2017
p46
aVManchester Ci..
p47
aVUCL
p48
aV7
aV545
p49
aV1
aV-
aV2
aV1
aV0.7
p50
aV85.5
p51
aV1.3
p52
aV-
aV6.68
p53
aa(lp54
V2016/2017
p55
aVManchester Ci..
p56
aVEPL
p57
aV31(1)
p58
aV2755
p59
aV2
aV1
aV4
aV2
aV1.1
p60
aV86.6
p61
aV1.6
p62
aV1
aV7.16
p63
aa(lp64
V2018
p65
aVBrazil
p66
aVWC
p67
aV1(4)
p68
aV156
p69
aV-
aV-
aV1
aV-
aV0.6
p70
aV90.9
p71
aV1.6
p72
aV-
aV6.31
p73
aa(lp74
V2015/2016
p75
aVManchester Ci..
p76
aVUCL
p77
aV12
p78
aV1050
p79
aV2
aV3
aV2
aV-
aV1.5
p80
aV86.3
p81
aV1.1
p82
aV1
aV7.24
p83
aa(lp84
V2015/2016
p85
aVManchester Ci..
p86
aVEPL
p87
aV31(2)
p88
aV2732
p89
aV2
aV2
aV8
aV-
aV0.9
p90
aV87.4
p91
aV1.3
p92
aV2
aV7.17
p93
aa(lp94
V2015
p95
aVBrazil
p96
aVICA
p97
aV4
aV391
p98
aV-
aV-
aV1
aV-
aV-
aV87.2
p99
aV4
aV-
aV7.08
p100
aa(lp101
V2014/2015
p102
aVManchester Ci..
p103
aVUCL
p104
aV4(3)
p105
aV425
p106
aV-
aV-
aV1
aV1
aV0.3
p107
aV87.4
p108
aV0.4
p109
aV-
aV6.96
p110
aa(lp111
V2014/2015
p112
aVManchester Ci..
p113
aVEPL
p114
aV25(8)
p115
aV2273
p116
aV3
aV3
aV7
aV-
aV0.7
p117
aV88.5
p118
aV1.3
p119
aV1
aV7.19
p120
aa(lp121
V2013/2014
p122
aVManchester Ci..
p123
aVUCL
p124
aV8
aV653
p125
aV-
aV-
aV3
aV-
aV0.3
p126
aV88.8
p127
aV1.3
p128
aV-
aV6.93
p129
aa(lp130
V2013/2014
p131
aVManchester Ci..
p132
aVEPL
p133
aV29(4)
p134
aV2609
p135
aV5
aV3
aV8
aV-
aV1
aV88.3
p136
aV1.2
p137
aV1
aV7.40
p138
aa(lp139
V2014
p140
aVBrazil
p141
aVWC
p142
aV3(2)
p143
aV299
p144
aV1
aV-
aV1
aV-
aV0.6
p145
aV86.5
p146
aV0.6
p147
aV-
aV6.47
p148
aa(lp149
V2012/2013
p150
aVShakhtar Done..
p151
aVUCL
p152
aV8
aV720
p153
aV1
aV-
aV1
aV-
aV2.3
p154
aV86.2
p155
aV0.5
p156
aV2
aV7.86
p157
aa(lp158
V2011/2012
p159
aVShakhtar Done..
p160
aVUCL
p161
aV4
aV360
p162
aV-
aV-
aV-
aV-
aV2.3
p163
aV82
p164
aV0.5
p165
aV-
aV7.37
p166
aa(lp167
V2010/2011
p168
aVShakhtar Done..
p169
aVUCL
p170
aV0(2)
p171
aV36
p172
aV-
aV-
aV1
aV-
aV-
aV77.8
p173
aV-
aV-
aV5.90
p174
aa(lp175
VTotal / Average
p176
aV
aV
aV257
p177
aV20510
p178
aV23
p179
aV18
p180
aV53
p181
aV4
aV1
aV87.8
p182
aV1.6
p183
aV11
p184
aV7.21
p185
aasS'url'
p186
S'https://www.whoscored.com/Players/19119/History/'
p187
sS'passing_data'
p188
(lp189
(lp190
a(lp191
V2018/2019
p192
aVManchester Ci..
p193
aVEPL
p194
aV17
p195
aV1503
p196
aV1
aV3
aV2
aV-
aV1.1
p197
aV88.3
p198
aV2.4
p199
aV2
aV7.47
p200
aa(lp201
V2018/2019
p202
aVManchester Ci..
p203
aVUCL
p204
aV5
aV436
p205
aV-
aV-
aV2
aV-
aV0.8
p206
aV87.2
p207
aV2.2
p208
aV-
aV7.18
p209
aa(lp210
V2017/2018
p211
aVManchester Ci..
p212
aVUCL
p213
aV8
aV682
p214
aV-
aV-
aV2
aV-
aV1
aV89.9
p215
aV2.6
p216
aV-
aV6.96
p217
aa(lp218
V2017/2018
p219
aVManchester Ci..
p220
aVEPL
p221
aV33(1)
p222
aV2885
p223
aV5
aV3
aV7
aV-
aV1.4
p224
aV90.1
p225
aV2.8
p226
aV1
aV7.44
p227
aa(lp228
V2016/2017
p229
aVManchester Ci..
p230
aVUCL
p231
aV7
aV545
p232
aV1
aV-
aV2
aV1
aV0.7
p233
aV85.5
p234
aV1.3
p235
aV-
aV6.68
p236
aa(lp237
V2016/2017
p238
aVManchester Ci..
p239
aVEPL
p240
aV31(1)
p241
aV2755
p242
aV2
aV1
aV4
aV2
aV1.1
p243
aV86.6
p244
aV1.6
p245
aV1
aV7.16
p246
aa(lp247
V2018
p248
aVBrazil
p249
aVWC
p250
aV1(4)
p251
aV156
p252
aV-
aV-
aV1
aV-
aV0.6
p253
aV90.9
p254
aV1.6
p255
aV-
aV6.31
p256
aa(lp257
V2015/2016
p258
aVManchester Ci..
p259
aVUCL
p260
aV12
p261
aV1050
p262
aV2
aV3
aV2
aV-
aV1.5
p263
aV86.3
p264
aV1.1
p265
aV1
aV7.24
p266
aa(lp267
V2015/2016
p268
aVManchester Ci..
p269
aVEPL
p270
aV31(2)
p271
aV2732
p272
aV2
aV2
aV8
aV-
aV0.9
p273
aV87.4
p274
aV1.3
p275
aV2
aV7.17
p276
aa(lp277
V2015
p278
aVBrazil
p279
aVICA
p280
aV4
aV391
p281
aV-
aV-
aV1
aV-
aV-
aV87.2
p282
aV4
aV-
aV7.08
p283
aa(lp284
V2014/2015
p285
aVManchester Ci..
p286
aVUCL
p287
aV4(3)
p288
aV425
p289
aV-
aV-
aV1
aV1
aV0.3
p290
aV87.4
p291
aV0.4
p292
aV-
aV6.96
p293
aa(lp294
V2014/2015
p295
aVManchester Ci..
p296
aVEPL
p297
aV25(8)
p298
aV2273
p299
aV3
aV3
aV7
aV-
aV0.7
p300
aV88.5
p301
aV1.3
p302
aV1
aV7.19
p303
aa(lp304
V2013/2014
p305
aVManchester Ci..
p306
aVUCL
p307
aV8
aV653
p308
aV-
aV-
aV3
aV-
aV0.3
p309
aV88.8
p310
aV1.3
p311
aV-
aV6.93
p312
aa(lp313
V2013/2014
p314
aVManchester Ci..
p315
aVEPL
p316
aV29(4)
p317
aV2609
p318
aV5
aV3
aV8
aV-
aV1
aV88.3
p319
aV1.2
p320
aV1
aV7.40
p321
aa(lp322
V2014
p323
aVBrazil
p324
aVWC
p325
aV3(2)
p326
aV299
p327
aV1
aV-
aV1
aV-
aV0.6
p328
aV86.5
p329
aV0.6
p330
aV-
aV6.47
p331
aa(lp332
V2012/2013
p333
aVShakhtar Done..
p334
aVUCL
p335
aV8
aV720
p336
aV1
aV-
aV1
aV-
aV2.3
p337
aV86.2
p338
aV0.5
p339
aV2
aV7.86
p340
aa(lp341
V2011/2012
p342
aVShakhtar Done..
p343
aVUCL
p344
aV4
aV360
p345
aV-
aV-
aV-
aV-
aV2.3
p346
aV82
p347
aV0.5
p348
aV-
aV7.37
p349
aa(lp350
V2010/2011
p351
aVShakhtar Done..
p352
aVUCL
p353
aV0(2)
p354
aV36
p355
aV-
aV-
aV1
aV-
aV-
aV77.8
p356
aV-
aV-
aV5.90
p357
aa(lp358
VTotal / Average
p359
aV
aV
aV257
p360
aV20510
p361
aV23
p362
aV18
p363
aV53
p364
aV4
aV1
aV87.8
p365
aV1.6
p366
aV11
p367
aV7.21
p368
aasS'defensive_data'
p369
(lp370
(lp371
a(lp372
V2018/2019
p373
aVManchester Ci..
p374
aVEPL
p375
aV17
p376
aV1503
p377
aV1
aV3
aV2
aV-
aV1.1
p378
aV88.3
p379
aV2.4
p380
aV2
aV7.47
p381
aa(lp382
V2018/2019
p383
aVManchester Ci..
p384
aVUCL
p385
aV5
aV436
p386
aV-
aV-
aV2
aV-
aV0.8
p387
aV87.2
p388
aV2.2
p389
aV-
aV7.18
p390
aa(lp391
V2017/2018
p392
aVManchester Ci..
p393
aVUCL
p394
aV8
aV682
p395
aV-
aV-
aV2
aV-
aV1
aV89.9
p396
aV2.6
p397
aV-
aV6.96
p398
aa(lp399
V2017/2018
p400
aVManchester Ci..
p401
aVEPL
p402
aV33(1)
p403
aV2885
p404
aV5
aV3
aV7
aV-
aV1.4
p405
aV90.1
p406
aV2.8
p407
aV1
aV7.44
p408
aa(lp409
V2016/2017
p410
aVManchester Ci..
p411
aVUCL
p412
aV7
aV545
p413
aV1
aV-
aV2
aV1
aV0.7
p414
aV85.5
p415
aV1.3
p416
aV-
aV6.68
p417
aa(lp418
V2016/2017
p419
aVManchester Ci..
p420
aVEPL
p421
aV31(1)
p422
aV2755
p423
aV2
aV1
aV4
aV2
aV1.1
p424
aV86.6
p425
aV1.6
p426
aV1
aV7.16
p427
aa(lp428
V2018
p429
aVBrazil
p430
aVWC
p431
aV1(4)
p432
aV156
p433
aV-
aV-
aV1
aV-
aV0.6
p434
aV90.9
p435
aV1.6
p436
aV-
aV6.31
p437
aa(lp438
V2015/2016
p439
aVManchester Ci..
p440
aVUCL
p441
aV12
p442
aV1050
p443
aV2
aV3
aV2
aV-
aV1.5
p444
aV86.3
p445
aV1.1
p446
aV1
aV7.24
p447
aa(lp448
V2015/2016
p449
aVManchester Ci..
p450
aVEPL
p451
aV31(2)
p452
aV2732
p453
aV2
aV2
aV8
aV-
aV0.9
p454
aV87.4
p455
aV1.3
p456
aV2
aV7.17
p457
aa(lp458
V2015
p459
aVBrazil
p460
aVICA
p461
aV4
aV391
p462
aV-
aV-
aV1
aV-
aV-
aV87.2
p463
aV4
aV-
aV7.08
p464
aa(lp465
V2014/2015
p466
aVManchester Ci..
p467
aVUCL
p468
aV4(3)
p469
aV425
p470
aV-
aV-
aV1
aV1
aV0.3
p471
aV87.4
p472
aV0.4
p473
aV-
aV6.96
p474
aa(lp475
V2014/2015
p476
aVManchester Ci..
p477
aVEPL
p478
aV25(8)
p479
aV2273
p480
aV3
aV3
aV7
aV-
aV0.7
p481
aV88.5
p482
aV1.3
p483
aV1
aV7.19
p484
aa(lp485
V2013/2014
p486
aVManchester Ci..
p487
aVUCL
p488
aV8
aV653
p489
aV-
aV-
aV3
aV-
aV0.3
p490
aV88.8
p491
aV1.3
p492
aV-
aV6.93
p493
aa(lp494
V2013/2014
p495
aVManchester Ci..
p496
aVEPL
p497
aV29(4)
p498
aV2609
p499
aV5
aV3
aV8
aV-
aV1
aV88.3
p500
aV1.2
p501
aV1
aV7.40
p502
aa(lp503
V2014
p504
aVBrazil
p505
aVWC
p506
aV3(2)
p507
aV299
p508
aV1
aV-
aV1
aV-
aV0.6
p509
aV86.5
p510
aV0.6
p511
aV-
aV6.47
p512
aa(lp513
V2012/2013
p514
aVShakhtar Done..
p515
aVUCL
p516
aV8
aV720
p517
aV1
aV-
aV1
aV-
aV2.3
p518
aV86.2
p519
aV0.5
p520
aV2
aV7.86
p521
aa(lp522
V2011/2012
p523
aVShakhtar Done..
p524
aVUCL
p525
aV4
aV360
p526
aV-
aV-
aV-
aV-
aV2.3
p527
aV82
p528
aV0.5
p529
aV-
aV7.37
p530
aa(lp531
V2010/2011
p532
aVShakhtar Done..
p533
aVUCL
p534
aV0(2)
p535
aV36
p536
aV-
aV-
aV1
aV-
aV-
aV77.8
p537
aV-
aV-
aV5.90
p538
aa(lp539
VTotal / Average
p540
aV
aV
aV257
p541
aV20510
p542
aV23
p543
aV18
p544
aV53
p545
aV4
aV1
aV87.8
p546
aV1.6
p547
aV11
p548
aV7.21
p549
aasS'sumary_data'
p550
(lp551
(lp552
a(lp553
V2018/2019
p554
aVManchester Ci..
p555
aVEPL
p556
aV17
p557
aV1503
p558
aV1
aV3
aV2
aV-
aV1.1
p559
aV88.3
p560
aV2.4
p561
aV2
aV7.47
p562
aa(lp563
V2018/2019
p564
aVManchester Ci..
p565
aVUCL
p566
aV5
aV436
p567
aV-
aV-
aV2
aV-
aV0.8
p568
aV87.2
p569
aV2.2
p570
aV-
aV7.18
p571
aa(lp572
V2017/2018
p573
aVManchester Ci..
p574
aVUCL
p575
aV8
aV682
p576
aV-
aV-
aV2
aV-
aV1
aV89.9
p577
aV2.6
p578
aV-
aV6.96
p579
aa(lp580
V2017/2018
p581
aVManchester Ci..
p582
aVEPL
p583
aV33(1)
p584
aV2885
p585
aV5
aV3
aV7
aV-
aV1.4
p586
aV90.1
p587
aV2.8
p588
aV1
aV7.44
p589
aa(lp590
V2016/2017
p591
aVManchester Ci..
p592
aVUCL
p593
aV7
aV545
p594
aV1
aV-
aV2
aV1
aV0.7
p595
aV85.5
p596
aV1.3
p597
aV-
aV6.68
p598
aa(lp599
V2016/2017
p600
aVManchester Ci..
p601
aVEPL
p602
aV31(1)
p603
aV2755
p604
aV2
aV1
aV4
aV2
aV1.1
p605
aV86.6
p606
aV1.6
p607
aV1
aV7.16
p608
aa(lp609
V2018
p610
aVBrazil
p611
aVWC
p612
aV1(4)
p613
aV156
p614
aV-
aV-
aV1
aV-
aV0.6
p615
aV90.9
p616
aV1.6
p617
aV-
aV6.31
p618
aa(lp619
V2015/2016
p620
aVManchester Ci..
p621
aVUCL
p622
aV12
p623
aV1050
p624
aV2
aV3
aV2
aV-
aV1.5
p625
aV86.3
p626
aV1.1
p627
aV1
aV7.24
p628
aa(lp629
V2015/2016
p630
aVManchester Ci..
p631
aVEPL
p632
aV31(2)
p633
aV2732
p634
aV2
aV2
aV8
aV-
aV0.9
p635
aV87.4
p636
aV1.3
p637
aV2
aV7.17
p638
aa(lp639
V2015
p640
aVBrazil
p641
aVICA
p642
aV4
aV391
p643
aV-
aV-
aV1
aV-
aV-
aV87.2
p644
aV4
aV-
aV7.08
p645
aa(lp646
V2014/2015
p647
aVManchester Ci..
p648
aVUCL
p649
aV4(3)
p650
aV425
p651
aV-
aV-
aV1
aV1
aV0.3
p652
aV87.4
p653
aV0.4
p654
aV-
aV6.96
p655
aa(lp656
V2014/2015
p657
aVManchester Ci..
p658
aVEPL
p659
aV25(8)
p660
aV2273
p661
aV3
aV3
aV7
aV-
aV0.7
p662
aV88.5
p663
aV1.3
p664
aV1
aV7.19
p665
aa(lp666
V2013/2014
p667
aVManchester Ci..
p668
aVUCL
p669
aV8
aV653
p670
aV-
aV-
aV3
aV-
aV0.3
p671
aV88.8
p672
aV1.3
p673
aV-
aV6.93
p674
aa(lp675
V2013/2014
p676
aVManchester Ci..
p677
aVEPL
p678
aV29(4)
p679
aV2609
p680
aV5
aV3
aV8
aV-
aV1
aV88.3
p681
aV1.2
p682
aV1
aV7.40
p683
aa(lp684
V2014
p685
aVBrazil
p686
aVWC
p687
aV3(2)
p688
aV299
p689
aV1
aV-
aV1
aV-
aV0.6
p690
aV86.5
p691
aV0.6
p692
aV-
aV6.47
p693
aa(lp694
V2012/2013
p695
aVShakhtar Done..
p696
aVUCL
p697
aV8
aV720
p698
aV1
aV-
aV1
aV-
aV2.3
p699
aV86.2
p700
aV0.5
p701
aV2
aV7.86
p702
aa(lp703
V2011/2012
p704
aVShakhtar Done..
p705
aVUCL
p706
aV4
aV360
p707
aV-
aV-
aV-
aV-
aV2.3
p708
aV82
p709
aV0.5
p710
aV-
aV7.37
p711
aa(lp712
V2010/2011
p713
aVShakhtar Done..
p714
aVUCL
p715
aV0(2)
p716
aV36
p717
aV-
aV-
aV1
aV-
aV-
aV77.8
p718
aV-
aV-
aV5.90
p719
aa(lp720
VTotal / Average
p721
aV
aV
aV257
p722
aV20510
p723
aV23
p724
aV18
p725
aV53
p726
aV4
aV1
aV87.8
p727
aV1.6
p728
aV11
p729
aV7.21
p730
aasS'id'
p731
V19119
p732
sb.