(i__main__
Player
p1
(dp2
S'name'
p3
VSteven Defour 
p4
sS'offensive_data'
p5
(lp6
(lp7
a(lp8
V2018/2019
p9
aVBurnley
p10
aVEPL
p11
aV6
aV452
p12
aV-
aV-
aV-
aV-
aV-
aV81.5
p13
aV-
aV-
aV6.19
p14
aa(lp15
V2017/2018
p16
aVBurnley
p17
aVEPL
p18
aV24
p19
aV2009
p20
aV1
aV1
aV6
aV-
aV0.8
p21
aV83.8
p22
aV0.2
p23
aV-
aV6.77
p24
aa(lp25
V2016/2017
p26
aVBurnley
p27
aVEPL
p28
aV16(5)
p29
aV1080
p30
aV1
aV3
aV1
aV-
aV0.4
p31
aV80.2
p32
aV-
aV2
aV6.77
p33
aa(lp34
V2015/2016
p35
aVAnderlecht
p36
aVUEL
p37
aV8(1)
p38
aV737
p39
aV-
aV3
aV5
aV-
aV0.9
p40
aV83
p41
aV0.1
p42
aV-
aV6.94
p43
aa(lp44
V2014/2015
p45
aVAnderlecht
p46
aVUCL
p47
aV4
aV316
p48
aV-
aV1
aV2
aV-
aV0.8
p49
aV85.4
p50
aV-
aV-
aV6.63
p51
aa(lp52
V2014/2015
p53
aVAnderlecht
p54
aVUEL
p55
aV2
aV157
p56
aV-
aV-
aV-
aV-
aV1.5
p57
aV78.6
p58
aV-
aV-
aV7.42
p59
aa(lp60
V2013/2014
p61
aVFC Porto
p62
aVUCL
p63
aV4(1)
p64
aV320
p65
aV-
aV-
aV1
aV-
aV0.6
p66
aV90
p67
aV0.4
p68
aV-
aV6.49
p69
aa(lp70
V2013/2014
p71
aVFC Porto
p72
aVUEL
p73
aV4
aV337
p74
aV-
aV-
aV-
aV-
aV2
aV87
p75
aV0.5
p76
aV-
aV6.78
p77
aa(lp78
V2014
p79
aVBelgium
p80
aVWC
p81
aV1
aV44
p82
aV-
aV-
aV-
aV1
aV-
aV96.2
p83
aV-
aV-
aV5.59
p84
aa(lp85
V2012/2013
p86
aVFC Porto
p87
aVUCL
p88
aV4(3)
p89
aV329
p90
aV1
aV-
aV-
aV1
aV0.6
p91
aV89
p92
aV0.1
p93
aV-
aV6.49
p94
aa(lp95
V2011/2012
p96
aVFC Porto
p97
aVUCL
p98
aV3(3)
p99
aV268
p100
aV-
aV-
aV-
aV-
aV0.8
p101
aV87
p102
aV-
aV-
aV6.52
p103
aa(lp104
VTotal / Average
p105
aV
aV
aV89
p106
aV6049
p107
aV3
aV8
aV15
p108
aV2
aV0.7
p109
aV83.9
p110
aV0.1
p111
aV2
aV6.69
p112
aasS'url'
p113
S'https://www.whoscored.com/Players/19155/History/'
p114
sS'passing_data'
p115
(lp116
(lp117
a(lp118
V2018/2019
p119
aVBurnley
p120
aVEPL
p121
aV6
aV452
p122
aV-
aV-
aV-
aV-
aV-
aV81.5
p123
aV-
aV-
aV6.19
p124
aa(lp125
V2017/2018
p126
aVBurnley
p127
aVEPL
p128
aV24
p129
aV2009
p130
aV1
aV1
aV6
aV-
aV0.8
p131
aV83.8
p132
aV0.2
p133
aV-
aV6.77
p134
aa(lp135
V2016/2017
p136
aVBurnley
p137
aVEPL
p138
aV16(5)
p139
aV1080
p140
aV1
aV3
aV1
aV-
aV0.4
p141
aV80.2
p142
aV-
aV2
aV6.77
p143
aa(lp144
V2015/2016
p145
aVAnderlecht
p146
aVUEL
p147
aV8(1)
p148
aV737
p149
aV-
aV3
aV5
aV-
aV0.9
p150
aV83
p151
aV0.1
p152
aV-
aV6.94
p153
aa(lp154
V2014/2015
p155
aVAnderlecht
p156
aVUCL
p157
aV4
aV316
p158
aV-
aV1
aV2
aV-
aV0.8
p159
aV85.4
p160
aV-
aV-
aV6.63
p161
aa(lp162
V2014/2015
p163
aVAnderlecht
p164
aVUEL
p165
aV2
aV157
p166
aV-
aV-
aV-
aV-
aV1.5
p167
aV78.6
p168
aV-
aV-
aV7.42
p169
aa(lp170
V2013/2014
p171
aVFC Porto
p172
aVUCL
p173
aV4(1)
p174
aV320
p175
aV-
aV-
aV1
aV-
aV0.6
p176
aV90
p177
aV0.4
p178
aV-
aV6.49
p179
aa(lp180
V2013/2014
p181
aVFC Porto
p182
aVUEL
p183
aV4
aV337
p184
aV-
aV-
aV-
aV-
aV2
aV87
p185
aV0.5
p186
aV-
aV6.78
p187
aa(lp188
V2014
p189
aVBelgium
p190
aVWC
p191
aV1
aV44
p192
aV-
aV-
aV-
aV1
aV-
aV96.2
p193
aV-
aV-
aV5.59
p194
aa(lp195
V2012/2013
p196
aVFC Porto
p197
aVUCL
p198
aV4(3)
p199
aV329
p200
aV1
aV-
aV-
aV1
aV0.6
p201
aV89
p202
aV0.1
p203
aV-
aV6.49
p204
aa(lp205
V2011/2012
p206
aVFC Porto
p207
aVUCL
p208
aV3(3)
p209
aV268
p210
aV-
aV-
aV-
aV-
aV0.8
p211
aV87
p212
aV-
aV-
aV6.52
p213
aa(lp214
VTotal / Average
p215
aV
aV
aV89
p216
aV6049
p217
aV3
aV8
aV15
p218
aV2
aV0.7
p219
aV83.9
p220
aV0.1
p221
aV2
aV6.69
p222
aasS'defensive_data'
p223
(lp224
(lp225
a(lp226
V2018/2019
p227
aVBurnley
p228
aVEPL
p229
aV6
aV452
p230
aV-
aV-
aV-
aV-
aV-
aV81.5
p231
aV-
aV-
aV6.19
p232
aa(lp233
V2017/2018
p234
aVBurnley
p235
aVEPL
p236
aV24
p237
aV2009
p238
aV1
aV1
aV6
aV-
aV0.8
p239
aV83.8
p240
aV0.2
p241
aV-
aV6.77
p242
aa(lp243
V2016/2017
p244
aVBurnley
p245
aVEPL
p246
aV16(5)
p247
aV1080
p248
aV1
aV3
aV1
aV-
aV0.4
p249
aV80.2
p250
aV-
aV2
aV6.77
p251
aa(lp252
V2015/2016
p253
aVAnderlecht
p254
aVUEL
p255
aV8(1)
p256
aV737
p257
aV-
aV3
aV5
aV-
aV0.9
p258
aV83
p259
aV0.1
p260
aV-
aV6.94
p261
aa(lp262
V2014/2015
p263
aVAnderlecht
p264
aVUCL
p265
aV4
aV316
p266
aV-
aV1
aV2
aV-
aV0.8
p267
aV85.4
p268
aV-
aV-
aV6.63
p269
aa(lp270
V2014/2015
p271
aVAnderlecht
p272
aVUEL
p273
aV2
aV157
p274
aV-
aV-
aV-
aV-
aV1.5
p275
aV78.6
p276
aV-
aV-
aV7.42
p277
aa(lp278
V2013/2014
p279
aVFC Porto
p280
aVUCL
p281
aV4(1)
p282
aV320
p283
aV-
aV-
aV1
aV-
aV0.6
p284
aV90
p285
aV0.4
p286
aV-
aV6.49
p287
aa(lp288
V2013/2014
p289
aVFC Porto
p290
aVUEL
p291
aV4
aV337
p292
aV-
aV-
aV-
aV-
aV2
aV87
p293
aV0.5
p294
aV-
aV6.78
p295
aa(lp296
V2014
p297
aVBelgium
p298
aVWC
p299
aV1
aV44
p300
aV-
aV-
aV-
aV1
aV-
aV96.2
p301
aV-
aV-
aV5.59
p302
aa(lp303
V2012/2013
p304
aVFC Porto
p305
aVUCL
p306
aV4(3)
p307
aV329
p308
aV1
aV-
aV-
aV1
aV0.6
p309
aV89
p310
aV0.1
p311
aV-
aV6.49
p312
aa(lp313
V2011/2012
p314
aVFC Porto
p315
aVUCL
p316
aV3(3)
p317
aV268
p318
aV-
aV-
aV-
aV-
aV0.8
p319
aV87
p320
aV-
aV-
aV6.52
p321
aa(lp322
VTotal / Average
p323
aV
aV
aV89
p324
aV6049
p325
aV3
aV8
aV15
p326
aV2
aV0.7
p327
aV83.9
p328
aV0.1
p329
aV2
aV6.69
p330
aasS'sumary_data'
p331
(lp332
(lp333
a(lp334
V2018/2019
p335
aVBurnley
p336
aVEPL
p337
aV6
aV452
p338
aV-
aV-
aV-
aV-
aV-
aV81.5
p339
aV-
aV-
aV6.19
p340
aa(lp341
V2017/2018
p342
aVBurnley
p343
aVEPL
p344
aV24
p345
aV2009
p346
aV1
aV1
aV6
aV-
aV0.8
p347
aV83.8
p348
aV0.2
p349
aV-
aV6.77
p350
aa(lp351
V2016/2017
p352
aVBurnley
p353
aVEPL
p354
aV16(5)
p355
aV1080
p356
aV1
aV3
aV1
aV-
aV0.4
p357
aV80.2
p358
aV-
aV2
aV6.77
p359
aa(lp360
V2015/2016
p361
aVAnderlecht
p362
aVUEL
p363
aV8(1)
p364
aV737
p365
aV-
aV3
aV5
aV-
aV0.9
p366
aV83
p367
aV0.1
p368
aV-
aV6.94
p369
aa(lp370
V2014/2015
p371
aVAnderlecht
p372
aVUCL
p373
aV4
aV316
p374
aV-
aV1
aV2
aV-
aV0.8
p375
aV85.4
p376
aV-
aV-
aV6.63
p377
aa(lp378
V2014/2015
p379
aVAnderlecht
p380
aVUEL
p381
aV2
aV157
p382
aV-
aV-
aV-
aV-
aV1.5
p383
aV78.6
p384
aV-
aV-
aV7.42
p385
aa(lp386
V2013/2014
p387
aVFC Porto
p388
aVUCL
p389
aV4(1)
p390
aV320
p391
aV-
aV-
aV1
aV-
aV0.6
p392
aV90
p393
aV0.4
p394
aV-
aV6.49
p395
aa(lp396
V2013/2014
p397
aVFC Porto
p398
aVUEL
p399
aV4
aV337
p400
aV-
aV-
aV-
aV-
aV2
aV87
p401
aV0.5
p402
aV-
aV6.78
p403
aa(lp404
V2014
p405
aVBelgium
p406
aVWC
p407
aV1
aV44
p408
aV-
aV-
aV-
aV1
aV-
aV96.2
p409
aV-
aV-
aV5.59
p410
aa(lp411
V2012/2013
p412
aVFC Porto
p413
aVUCL
p414
aV4(3)
p415
aV329
p416
aV1
aV-
aV-
aV1
aV0.6
p417
aV89
p418
aV0.1
p419
aV-
aV6.49
p420
aa(lp421
V2011/2012
p422
aVFC Porto
p423
aVUCL
p424
aV3(3)
p425
aV268
p426
aV-
aV-
aV-
aV-
aV0.8
p427
aV87
p428
aV-
aV-
aV6.52
p429
aa(lp430
VTotal / Average
p431
aV
aV
aV89
p432
aV6049
p433
aV3
aV8
aV15
p434
aV2
aV0.7
p435
aV83.9
p436
aV0.1
p437
aV2
aV6.69
p438
aasS'id'
p439
V19155
p440
sb.