(i__main__
Player
p1
(dp2
S'name'
p3
VMichel Vorm 
p4
sS'offensive_data'
p5
(lp6
(lp7
a(lp8
V2018/2019
p9
aVTottenham
p10
aVEPL
p11
aV2
aV180
p12
aV-
aV-
aV-
aV-
aV-
aV77.3
p13
aV0.5
p14
aV1
aV6.85
p15
aa(lp16
V2018/2019
p17
aVTottenham
p18
aVUCL
p19
aV1(1)
p20
aV99
p21
aV-
aV-
aV1
aV-
aV-
aV84.1
p22
aV-
aV-
aV6.21
p23
aa(lp24
V2017/2018
p25
aVTottenham
p26
aVUCL
p27
aV1
aV90
p28
aV-
aV-
aV-
aV-
aV-
aV100
p29
aV-
aV-
aV6.54
p30
aa(lp31
V2017/2018
p32
aVTottenham
p33
aVEPL
p34
aV1
aV90
p35
aV-
aV-
aV-
aV-
aV-
aV87.5
p36
aV-
aV-
aV6.74
p37
aa(lp38
V2016/2017
p39
aVTottenham
p40
aVEPL
p41
aV4(1)
p42
aV415
p43
aV-
aV-
aV-
aV-
aV-
aV75.4
p44
aV-
aV-
aV6.52
p45
aa(lp46
V2015/2016
p47
aVTottenham
p48
aVUEL
p49
aV1
aV90
p50
aV-
aV-
aV-
aV-
aV-
aV61.1
p51
aV-
aV-
aV6.39
p52
aa(lp53
V2015/2016
p54
aVTottenham
p55
aVEPL
p56
aV1
aV90
p57
aV-
aV-
aV-
aV-
aV-
aV93.3
p58
aV-
aV-
aV6.18
p59
aa(lp60
V2014/2015
p61
aVTottenham
p62
aVUEL
p63
aV2
aV180
p64
aV-
aV-
aV-
aV-
aV-
aV80.3
p65
aV-
aV-
aV6.52
p66
aa(lp67
V2014/2015
p68
aVTottenham
p69
aVEPL
p70
aV3(1)
p71
aV356
p72
aV-
aV-
aV-
aV-
aV-
aV54.9
p73
aV-
aV-
aV6.90
p74
aa(lp75
V2013/2014
p76
aVSwansea
p77
aVUEL
p78
aV4
aV360
p79
aV-
aV-
aV-
aV-
aV-
aV82
p80
aV-
aV-
aV6.70
p81
aa(lp82
V2013/2014
p83
aVSwansea
p84
aVEPL
p85
aV26
p86
aV2340
p87
aV-
aV-
aV2
aV1
aV-
aV61.1
p88
aV0.2
p89
aV-
aV6.47
p90
aa(lp91
V2014
p92
aVNetherlands
p93
aVWC
p94
aV0(1)
p95
aV1
aV-
aV-
aV-
aV-
aV-
aV100
p96
aV-
aV-
aV6.00
p97
aa(lp98
V2012/2013
p99
aVSwansea
p100
aVEPL
p101
aV26
p102
aV2312
p103
aV-
aV-
aV1
aV-
aV-
aV59.8
p104
aV0.3
p105
aV-
aV6.69
p106
aa(lp107
V2011/2012
p108
aVSwansea
p109
aVEPL
p110
aV37
p111
aV3330
p112
aV-
aV-
aV2
aV-
aV-
aV66.8
p113
aV0.2
p114
aV5
aV7.06
p115
aa(lp116
VTotal / Average
p117
aV
aV
aV113
p118
aV9933
p119
aV0
aV0
aV6
aV1
aV0
aV66.1
p120
aV0.2
p121
aV6
aV6.74
p122
aasS'url'
p123
S'https://www.whoscored.com/Players/19270/History/'
p124
sS'passing_data'
p125
(lp126
(lp127
a(lp128
V2018/2019
p129
aVTottenham
p130
aVEPL
p131
aV2
aV180
p132
aV-
aV-
aV-
aV-
aV-
aV77.3
p133
aV0.5
p134
aV1
aV6.85
p135
aa(lp136
V2018/2019
p137
aVTottenham
p138
aVUCL
p139
aV1(1)
p140
aV99
p141
aV-
aV-
aV1
aV-
aV-
aV84.1
p142
aV-
aV-
aV6.21
p143
aa(lp144
V2017/2018
p145
aVTottenham
p146
aVUCL
p147
aV1
aV90
p148
aV-
aV-
aV-
aV-
aV-
aV100
p149
aV-
aV-
aV6.54
p150
aa(lp151
V2017/2018
p152
aVTottenham
p153
aVEPL
p154
aV1
aV90
p155
aV-
aV-
aV-
aV-
aV-
aV87.5
p156
aV-
aV-
aV6.74
p157
aa(lp158
V2016/2017
p159
aVTottenham
p160
aVEPL
p161
aV4(1)
p162
aV415
p163
aV-
aV-
aV-
aV-
aV-
aV75.4
p164
aV-
aV-
aV6.52
p165
aa(lp166
V2015/2016
p167
aVTottenham
p168
aVUEL
p169
aV1
aV90
p170
aV-
aV-
aV-
aV-
aV-
aV61.1
p171
aV-
aV-
aV6.39
p172
aa(lp173
V2015/2016
p174
aVTottenham
p175
aVEPL
p176
aV1
aV90
p177
aV-
aV-
aV-
aV-
aV-
aV93.3
p178
aV-
aV-
aV6.18
p179
aa(lp180
V2014/2015
p181
aVTottenham
p182
aVUEL
p183
aV2
aV180
p184
aV-
aV-
aV-
aV-
aV-
aV80.3
p185
aV-
aV-
aV6.52
p186
aa(lp187
V2014/2015
p188
aVTottenham
p189
aVEPL
p190
aV3(1)
p191
aV356
p192
aV-
aV-
aV-
aV-
aV-
aV54.9
p193
aV-
aV-
aV6.90
p194
aa(lp195
V2013/2014
p196
aVSwansea
p197
aVUEL
p198
aV4
aV360
p199
aV-
aV-
aV-
aV-
aV-
aV82
p200
aV-
aV-
aV6.70
p201
aa(lp202
V2013/2014
p203
aVSwansea
p204
aVEPL
p205
aV26
p206
aV2340
p207
aV-
aV-
aV2
aV1
aV-
aV61.1
p208
aV0.2
p209
aV-
aV6.47
p210
aa(lp211
V2014
p212
aVNetherlands
p213
aVWC
p214
aV0(1)
p215
aV1
aV-
aV-
aV-
aV-
aV-
aV100
p216
aV-
aV-
aV6.00
p217
aa(lp218
V2012/2013
p219
aVSwansea
p220
aVEPL
p221
aV26
p222
aV2312
p223
aV-
aV-
aV1
aV-
aV-
aV59.8
p224
aV0.3
p225
aV-
aV6.69
p226
aa(lp227
V2011/2012
p228
aVSwansea
p229
aVEPL
p230
aV37
p231
aV3330
p232
aV-
aV-
aV2
aV-
aV-
aV66.8
p233
aV0.2
p234
aV5
aV7.06
p235
aa(lp236
VTotal / Average
p237
aV
aV
aV113
p238
aV9933
p239
aV0
aV0
aV6
aV1
aV0
aV66.1
p240
aV0.2
p241
aV6
aV6.74
p242
aasS'defensive_data'
p243
(lp244
(lp245
a(lp246
V2018/2019
p247
aVTottenham
p248
aVEPL
p249
aV2
aV180
p250
aV-
aV-
aV-
aV-
aV-
aV77.3
p251
aV0.5
p252
aV1
aV6.85
p253
aa(lp254
V2018/2019
p255
aVTottenham
p256
aVUCL
p257
aV1(1)
p258
aV99
p259
aV-
aV-
aV1
aV-
aV-
aV84.1
p260
aV-
aV-
aV6.21
p261
aa(lp262
V2017/2018
p263
aVTottenham
p264
aVUCL
p265
aV1
aV90
p266
aV-
aV-
aV-
aV-
aV-
aV100
p267
aV-
aV-
aV6.54
p268
aa(lp269
V2017/2018
p270
aVTottenham
p271
aVEPL
p272
aV1
aV90
p273
aV-
aV-
aV-
aV-
aV-
aV87.5
p274
aV-
aV-
aV6.74
p275
aa(lp276
V2016/2017
p277
aVTottenham
p278
aVEPL
p279
aV4(1)
p280
aV415
p281
aV-
aV-
aV-
aV-
aV-
aV75.4
p282
aV-
aV-
aV6.52
p283
aa(lp284
V2015/2016
p285
aVTottenham
p286
aVUEL
p287
aV1
aV90
p288
aV-
aV-
aV-
aV-
aV-
aV61.1
p289
aV-
aV-
aV6.39
p290
aa(lp291
V2015/2016
p292
aVTottenham
p293
aVEPL
p294
aV1
aV90
p295
aV-
aV-
aV-
aV-
aV-
aV93.3
p296
aV-
aV-
aV6.18
p297
aa(lp298
V2014/2015
p299
aVTottenham
p300
aVUEL
p301
aV2
aV180
p302
aV-
aV-
aV-
aV-
aV-
aV80.3
p303
aV-
aV-
aV6.52
p304
aa(lp305
V2014/2015
p306
aVTottenham
p307
aVEPL
p308
aV3(1)
p309
aV356
p310
aV-
aV-
aV-
aV-
aV-
aV54.9
p311
aV-
aV-
aV6.90
p312
aa(lp313
V2013/2014
p314
aVSwansea
p315
aVUEL
p316
aV4
aV360
p317
aV-
aV-
aV-
aV-
aV-
aV82
p318
aV-
aV-
aV6.70
p319
aa(lp320
V2013/2014
p321
aVSwansea
p322
aVEPL
p323
aV26
p324
aV2340
p325
aV-
aV-
aV2
aV1
aV-
aV61.1
p326
aV0.2
p327
aV-
aV6.47
p328
aa(lp329
V2014
p330
aVNetherlands
p331
aVWC
p332
aV0(1)
p333
aV1
aV-
aV-
aV-
aV-
aV-
aV100
p334
aV-
aV-
aV6.00
p335
aa(lp336
V2012/2013
p337
aVSwansea
p338
aVEPL
p339
aV26
p340
aV2312
p341
aV-
aV-
aV1
aV-
aV-
aV59.8
p342
aV0.3
p343
aV-
aV6.69
p344
aa(lp345
V2011/2012
p346
aVSwansea
p347
aVEPL
p348
aV37
p349
aV3330
p350
aV-
aV-
aV2
aV-
aV-
aV66.8
p351
aV0.2
p352
aV5
aV7.06
p353
aa(lp354
VTotal / Average
p355
aV
aV
aV113
p356
aV9933
p357
aV0
aV0
aV6
aV1
aV0
aV66.1
p358
aV0.2
p359
aV6
aV6.74
p360
aasS'sumary_data'
p361
(lp362
(lp363
a(lp364
V2018/2019
p365
aVTottenham
p366
aVEPL
p367
aV2
aV180
p368
aV-
aV-
aV-
aV-
aV-
aV77.3
p369
aV0.5
p370
aV1
aV6.85
p371
aa(lp372
V2018/2019
p373
aVTottenham
p374
aVUCL
p375
aV1(1)
p376
aV99
p377
aV-
aV-
aV1
aV-
aV-
aV84.1
p378
aV-
aV-
aV6.21
p379
aa(lp380
V2017/2018
p381
aVTottenham
p382
aVUCL
p383
aV1
aV90
p384
aV-
aV-
aV-
aV-
aV-
aV100
p385
aV-
aV-
aV6.54
p386
aa(lp387
V2017/2018
p388
aVTottenham
p389
aVEPL
p390
aV1
aV90
p391
aV-
aV-
aV-
aV-
aV-
aV87.5
p392
aV-
aV-
aV6.74
p393
aa(lp394
V2016/2017
p395
aVTottenham
p396
aVEPL
p397
aV4(1)
p398
aV415
p399
aV-
aV-
aV-
aV-
aV-
aV75.4
p400
aV-
aV-
aV6.52
p401
aa(lp402
V2015/2016
p403
aVTottenham
p404
aVUEL
p405
aV1
aV90
p406
aV-
aV-
aV-
aV-
aV-
aV61.1
p407
aV-
aV-
aV6.39
p408
aa(lp409
V2015/2016
p410
aVTottenham
p411
aVEPL
p412
aV1
aV90
p413
aV-
aV-
aV-
aV-
aV-
aV93.3
p414
aV-
aV-
aV6.18
p415
aa(lp416
V2014/2015
p417
aVTottenham
p418
aVUEL
p419
aV2
aV180
p420
aV-
aV-
aV-
aV-
aV-
aV80.3
p421
aV-
aV-
aV6.52
p422
aa(lp423
V2014/2015
p424
aVTottenham
p425
aVEPL
p426
aV3(1)
p427
aV356
p428
aV-
aV-
aV-
aV-
aV-
aV54.9
p429
aV-
aV-
aV6.90
p430
aa(lp431
V2013/2014
p432
aVSwansea
p433
aVUEL
p434
aV4
aV360
p435
aV-
aV-
aV-
aV-
aV-
aV82
p436
aV-
aV-
aV6.70
p437
aa(lp438
V2013/2014
p439
aVSwansea
p440
aVEPL
p441
aV26
p442
aV2340
p443
aV-
aV-
aV2
aV1
aV-
aV61.1
p444
aV0.2
p445
aV-
aV6.47
p446
aa(lp447
V2014
p448
aVNetherlands
p449
aVWC
p450
aV0(1)
p451
aV1
aV-
aV-
aV-
aV-
aV-
aV100
p452
aV-
aV-
aV6.00
p453
aa(lp454
V2012/2013
p455
aVSwansea
p456
aVEPL
p457
aV26
p458
aV2312
p459
aV-
aV-
aV1
aV-
aV-
aV59.8
p460
aV0.3
p461
aV-
aV6.69
p462
aa(lp463
V2011/2012
p464
aVSwansea
p465
aVEPL
p466
aV37
p467
aV3330
p468
aV-
aV-
aV2
aV-
aV-
aV66.8
p469
aV0.2
p470
aV5
aV7.06
p471
aa(lp472
VTotal / Average
p473
aV
aV
aV113
p474
aV9933
p475
aV0
aV0
aV6
aV1
aV0
aV66.1
p476
aV0.2
p477
aV6
aV6.74
p478
aasS'id'
p479
V19270
p480
sb.