(i__main__
Player
p1
(dp2
S'name'
p3
VKasper Schmeichel 
p4
sS'offensive_data'
p5
(lp6
(lp7
a(lp8
V2018/2019
p9
aVLeicester
p10
aVEPL
p11
aV17
p12
aV1530
p13
aV-
aV-
aV1
aV-
aV0.1
p14
aV67.9
p15
aV0.4
p16
aV-
aV6.58
p17
aa(lp18
V2018/2019
p19
aVDenmark
p20
aVUNL
p21
aV3
aV270
p22
aV-
aV-
aV2
aV-
aV-
aV78.9
p23
aV-
aV-
aV6.82
p24
aa(lp25
V2017/2018
p26
aVLeicester
p27
aVEPL
p28
aV33
p29
aV2966
p30
aV-
aV-
aV3
aV-
aV-
aV49.6
p31
aV0.4
p32
aV3
aV6.61
p33
aa(lp34
V2016/2017
p35
aVLeicester
p36
aVUCL
p37
aV8
aV720
p38
aV-
aV-
aV1
aV-
aV-
aV40.3
p39
aV0.1
p40
aV-
aV7.24
p41
aa(lp42
V2016/2017
p43
aVLeicester
p44
aVEPL
p45
aV30
p46
aV2667
p47
aV-
aV-
aV1
aV-
aV-
aV39.9
p48
aV0.4
p49
aV1
aV6.84
p50
aa(lp51
V2018
p52
aVDenmark
p53
aVWC
p54
aV4
aV390
p55
aV-
aV-
aV-
aV-
aV-
aV52.6
p56
aV0.3
p57
aV2
aV7.51
p58
aa(lp59
V2015/2016
p60
aVLeicester
p61
aVEPL
p62
aV38
p63
aV3420
p64
aV-
aV-
aV2
aV-
aV-
aV35.7
p65
aV0.2
p66
aV-
aV6.78
p67
aa(lp68
V2014/2015
p69
aVLeicester
p70
aVEPL
p71
aV24
p72
aV2160
p73
aV-
aV-
aV-
aV-
aV-
aV41.1
p74
aV0.1
p75
aV-
aV6.63
p76
aa(lp77
V2013/2014
p78
aVLeicester
p79
aVEC
p80
aV46
p81
aV4140
p82
aV-
aV1
aV3
aV-
aV-
aV48.3
p83
aV0.2
p84
aV2
aV6.89
p85
aa(lp86
VTotal / Average
p87
aV
aV
aV203
p88
aV18263
p89
aV0
aV1
aV13
p90
aV0
aV0
aV45.9
p91
aV0.3
p92
aV8
aV6.79
p93
aasS'url'
p94
S'https://www.whoscored.com/Players/19545/History/'
p95
sS'passing_data'
p96
(lp97
(lp98
a(lp99
V2018/2019
p100
aVLeicester
p101
aVEPL
p102
aV17
p103
aV1530
p104
aV-
aV-
aV1
aV-
aV0.1
p105
aV67.9
p106
aV0.4
p107
aV-
aV6.58
p108
aa(lp109
V2018/2019
p110
aVDenmark
p111
aVUNL
p112
aV3
aV270
p113
aV-
aV-
aV2
aV-
aV-
aV78.9
p114
aV-
aV-
aV6.82
p115
aa(lp116
V2017/2018
p117
aVLeicester
p118
aVEPL
p119
aV33
p120
aV2966
p121
aV-
aV-
aV3
aV-
aV-
aV49.6
p122
aV0.4
p123
aV3
aV6.61
p124
aa(lp125
V2016/2017
p126
aVLeicester
p127
aVUCL
p128
aV8
aV720
p129
aV-
aV-
aV1
aV-
aV-
aV40.3
p130
aV0.1
p131
aV-
aV7.24
p132
aa(lp133
V2016/2017
p134
aVLeicester
p135
aVEPL
p136
aV30
p137
aV2667
p138
aV-
aV-
aV1
aV-
aV-
aV39.9
p139
aV0.4
p140
aV1
aV6.84
p141
aa(lp142
V2018
p143
aVDenmark
p144
aVWC
p145
aV4
aV390
p146
aV-
aV-
aV-
aV-
aV-
aV52.6
p147
aV0.3
p148
aV2
aV7.51
p149
aa(lp150
V2015/2016
p151
aVLeicester
p152
aVEPL
p153
aV38
p154
aV3420
p155
aV-
aV-
aV2
aV-
aV-
aV35.7
p156
aV0.2
p157
aV-
aV6.78
p158
aa(lp159
V2014/2015
p160
aVLeicester
p161
aVEPL
p162
aV24
p163
aV2160
p164
aV-
aV-
aV-
aV-
aV-
aV41.1
p165
aV0.1
p166
aV-
aV6.63
p167
aa(lp168
V2013/2014
p169
aVLeicester
p170
aVEC
p171
aV46
p172
aV4140
p173
aV-
aV1
aV3
aV-
aV-
aV48.3
p174
aV0.2
p175
aV2
aV6.89
p176
aa(lp177
VTotal / Average
p178
aV
aV
aV203
p179
aV18263
p180
aV0
aV1
aV13
p181
aV0
aV0
aV45.9
p182
aV0.3
p183
aV8
aV6.79
p184
aasS'defensive_data'
p185
(lp186
(lp187
a(lp188
V2018/2019
p189
aVLeicester
p190
aVEPL
p191
aV17
p192
aV1530
p193
aV-
aV-
aV1
aV-
aV0.1
p194
aV67.9
p195
aV0.4
p196
aV-
aV6.58
p197
aa(lp198
V2018/2019
p199
aVDenmark
p200
aVUNL
p201
aV3
aV270
p202
aV-
aV-
aV2
aV-
aV-
aV78.9
p203
aV-
aV-
aV6.82
p204
aa(lp205
V2017/2018
p206
aVLeicester
p207
aVEPL
p208
aV33
p209
aV2966
p210
aV-
aV-
aV3
aV-
aV-
aV49.6
p211
aV0.4
p212
aV3
aV6.61
p213
aa(lp214
V2016/2017
p215
aVLeicester
p216
aVUCL
p217
aV8
aV720
p218
aV-
aV-
aV1
aV-
aV-
aV40.3
p219
aV0.1
p220
aV-
aV7.24
p221
aa(lp222
V2016/2017
p223
aVLeicester
p224
aVEPL
p225
aV30
p226
aV2667
p227
aV-
aV-
aV1
aV-
aV-
aV39.9
p228
aV0.4
p229
aV1
aV6.84
p230
aa(lp231
V2018
p232
aVDenmark
p233
aVWC
p234
aV4
aV390
p235
aV-
aV-
aV-
aV-
aV-
aV52.6
p236
aV0.3
p237
aV2
aV7.51
p238
aa(lp239
V2015/2016
p240
aVLeicester
p241
aVEPL
p242
aV38
p243
aV3420
p244
aV-
aV-
aV2
aV-
aV-
aV35.7
p245
aV0.2
p246
aV-
aV6.78
p247
aa(lp248
V2014/2015
p249
aVLeicester
p250
aVEPL
p251
aV24
p252
aV2160
p253
aV-
aV-
aV-
aV-
aV-
aV41.1
p254
aV0.1
p255
aV-
aV6.63
p256
aa(lp257
V2013/2014
p258
aVLeicester
p259
aVEC
p260
aV46
p261
aV4140
p262
aV-
aV1
aV3
aV-
aV-
aV48.3
p263
aV0.2
p264
aV2
aV6.89
p265
aa(lp266
VTotal / Average
p267
aV
aV
aV203
p268
aV18263
p269
aV0
aV1
aV13
p270
aV0
aV0
aV45.9
p271
aV0.3
p272
aV8
aV6.79
p273
aasS'sumary_data'
p274
(lp275
(lp276
a(lp277
V2018/2019
p278
aVLeicester
p279
aVEPL
p280
aV17
p281
aV1530
p282
aV-
aV-
aV1
aV-
aV0.1
p283
aV67.9
p284
aV0.4
p285
aV-
aV6.58
p286
aa(lp287
V2018/2019
p288
aVDenmark
p289
aVUNL
p290
aV3
aV270
p291
aV-
aV-
aV2
aV-
aV-
aV78.9
p292
aV-
aV-
aV6.82
p293
aa(lp294
V2017/2018
p295
aVLeicester
p296
aVEPL
p297
aV33
p298
aV2966
p299
aV-
aV-
aV3
aV-
aV-
aV49.6
p300
aV0.4
p301
aV3
aV6.61
p302
aa(lp303
V2016/2017
p304
aVLeicester
p305
aVUCL
p306
aV8
aV720
p307
aV-
aV-
aV1
aV-
aV-
aV40.3
p308
aV0.1
p309
aV-
aV7.24
p310
aa(lp311
V2016/2017
p312
aVLeicester
p313
aVEPL
p314
aV30
p315
aV2667
p316
aV-
aV-
aV1
aV-
aV-
aV39.9
p317
aV0.4
p318
aV1
aV6.84
p319
aa(lp320
V2018
p321
aVDenmark
p322
aVWC
p323
aV4
aV390
p324
aV-
aV-
aV-
aV-
aV-
aV52.6
p325
aV0.3
p326
aV2
aV7.51
p327
aa(lp328
V2015/2016
p329
aVLeicester
p330
aVEPL
p331
aV38
p332
aV3420
p333
aV-
aV-
aV2
aV-
aV-
aV35.7
p334
aV0.2
p335
aV-
aV6.78
p336
aa(lp337
V2014/2015
p338
aVLeicester
p339
aVEPL
p340
aV24
p341
aV2160
p342
aV-
aV-
aV-
aV-
aV-
aV41.1
p343
aV0.1
p344
aV-
aV6.63
p345
aa(lp346
V2013/2014
p347
aVLeicester
p348
aVEC
p349
aV46
p350
aV4140
p351
aV-
aV1
aV3
aV-
aV-
aV48.3
p352
aV0.2
p353
aV2
aV6.89
p354
aa(lp355
VTotal / Average
p356
aV
aV
aV203
p357
aV18263
p358
aV0
aV1
aV13
p359
aV0
aV0
aV45.9
p360
aV0.3
p361
aV8
aV6.79
p362
aasS'id'
p363
V19545
p364
sb.