(i__main__
Player
p1
(dp2
S'name'
p3
VKevin McDonald 
p4
sS'offensive_data'
p5
(lp6
(lp7
a(lp8
V2018/2019
p9
aVFulham
p10
aVEPL
p11
aV7(2)
p12
aV617
p13
aV-
aV-
aV2
aV1
aV0.4
p14
aV85.1
p15
aV1.8
p16
aV-
aV6.12
p17
aa(lp18
V2018/2019
p19
aVScotland
p20
aVUNL
p21
aV2
aV136
p22
aV-
aV-
aV1
aV-
aV1
aV93.3
p23
aV1.5
p24
aV-
aV6.66
p25
aa(lp26
V2017/2018
p27
aVFulham
p28
aVEC
p29
aV45
p30
aV4004
p31
aV3
aV1
aV11
p32
aV-
aV1
aV85.8
p33
aV1.5
p34
aV3
aV7.06
p35
aa(lp36
V2016/2017
p37
aVFulham
p38
aVEC
p39
aV45
p40
aV3855
p41
aV3
aV3
aV13
p42
aV1
aV0.8
p43
aV86.5
p44
aV1.1
p45
aV1
aV6.99
p46
aa(lp47
V2015/2016
p48
aVWolverhampton..
p49
aVEC
p50
aV32(1)
p51
aV2805
p52
aV3
aV2
aV9
aV-
aV0.8
p53
aV79
p54
aV1.1
p55
aV1
aV6.98
p56
aa(lp57
V2014/2015
p58
aVWolverhampton..
p59
aVEC
p60
aV45(1)
p61
aV4068
p62
aV-
aV11
p63
aV8
aV1
aV0.9
p64
aV80.7
p65
aV0.7
p66
aV1
aV7.07
p67
aa(lp68
V2009/2010
p69
aVBurnley
p70
aVEPL
p71
aV15(11)
p72
aV1458
p73
aV1
aV1
aV5
aV-
aV0.6
p74
aV80.9
p75
aV0.3
p76
aV-
aV6.49
p77
aa(lp78
VTotal / Average
p79
aV
aV
aV206
p80
aV16943
p81
aV10
p82
aV18
p83
aV49
p84
aV3
aV0.8
p85
aV83.2
p86
aV1
aV6
aV6.92
p87
aasS'url'
p88
S'https://www.whoscored.com/Players/20100/History/'
p89
sS'passing_data'
p90
(lp91
(lp92
a(lp93
V2018/2019
p94
aVFulham
p95
aVEPL
p96
aV7(2)
p97
aV617
p98
aV-
aV-
aV2
aV1
aV0.4
p99
aV85.1
p100
aV1.8
p101
aV-
aV6.12
p102
aa(lp103
V2018/2019
p104
aVScotland
p105
aVUNL
p106
aV2
aV136
p107
aV-
aV-
aV1
aV-
aV1
aV93.3
p108
aV1.5
p109
aV-
aV6.66
p110
aa(lp111
V2017/2018
p112
aVFulham
p113
aVEC
p114
aV45
p115
aV4004
p116
aV3
aV1
aV11
p117
aV-
aV1
aV85.8
p118
aV1.5
p119
aV3
aV7.06
p120
aa(lp121
V2016/2017
p122
aVFulham
p123
aVEC
p124
aV45
p125
aV3855
p126
aV3
aV3
aV13
p127
aV1
aV0.8
p128
aV86.5
p129
aV1.1
p130
aV1
aV6.99
p131
aa(lp132
V2015/2016
p133
aVWolverhampton..
p134
aVEC
p135
aV32(1)
p136
aV2805
p137
aV3
aV2
aV9
aV-
aV0.8
p138
aV79
p139
aV1.1
p140
aV1
aV6.98
p141
aa(lp142
V2014/2015
p143
aVWolverhampton..
p144
aVEC
p145
aV45(1)
p146
aV4068
p147
aV-
aV11
p148
aV8
aV1
aV0.9
p149
aV80.7
p150
aV0.7
p151
aV1
aV7.07
p152
aa(lp153
V2009/2010
p154
aVBurnley
p155
aVEPL
p156
aV15(11)
p157
aV1458
p158
aV1
aV1
aV5
aV-
aV0.6
p159
aV80.9
p160
aV0.3
p161
aV-
aV6.49
p162
aa(lp163
VTotal / Average
p164
aV
aV
aV206
p165
aV16943
p166
aV10
p167
aV18
p168
aV49
p169
aV3
aV0.8
p170
aV83.2
p171
aV1
aV6
aV6.92
p172
aasS'defensive_data'
p173
(lp174
(lp175
a(lp176
V2018/2019
p177
aVFulham
p178
aVEPL
p179
aV7(2)
p180
aV617
p181
aV-
aV-
aV2
aV1
aV0.4
p182
aV85.1
p183
aV1.8
p184
aV-
aV6.12
p185
aa(lp186
V2018/2019
p187
aVScotland
p188
aVUNL
p189
aV2
aV136
p190
aV-
aV-
aV1
aV-
aV1
aV93.3
p191
aV1.5
p192
aV-
aV6.66
p193
aa(lp194
V2017/2018
p195
aVFulham
p196
aVEC
p197
aV45
p198
aV4004
p199
aV3
aV1
aV11
p200
aV-
aV1
aV85.8
p201
aV1.5
p202
aV3
aV7.06
p203
aa(lp204
V2016/2017
p205
aVFulham
p206
aVEC
p207
aV45
p208
aV3855
p209
aV3
aV3
aV13
p210
aV1
aV0.8
p211
aV86.5
p212
aV1.1
p213
aV1
aV6.99
p214
aa(lp215
V2015/2016
p216
aVWolverhampton..
p217
aVEC
p218
aV32(1)
p219
aV2805
p220
aV3
aV2
aV9
aV-
aV0.8
p221
aV79
p222
aV1.1
p223
aV1
aV6.98
p224
aa(lp225
V2014/2015
p226
aVWolverhampton..
p227
aVEC
p228
aV45(1)
p229
aV4068
p230
aV-
aV11
p231
aV8
aV1
aV0.9
p232
aV80.7
p233
aV0.7
p234
aV1
aV7.07
p235
aa(lp236
V2009/2010
p237
aVBurnley
p238
aVEPL
p239
aV15(11)
p240
aV1458
p241
aV1
aV1
aV5
aV-
aV0.6
p242
aV80.9
p243
aV0.3
p244
aV-
aV6.49
p245
aa(lp246
VTotal / Average
p247
aV
aV
aV206
p248
aV16943
p249
aV10
p250
aV18
p251
aV49
p252
aV3
aV0.8
p253
aV83.2
p254
aV1
aV6
aV6.92
p255
aasS'sumary_data'
p256
(lp257
(lp258
a(lp259
V2018/2019
p260
aVFulham
p261
aVEPL
p262
aV7(2)
p263
aV617
p264
aV-
aV-
aV2
aV1
aV0.4
p265
aV85.1
p266
aV1.8
p267
aV-
aV6.12
p268
aa(lp269
V2018/2019
p270
aVScotland
p271
aVUNL
p272
aV2
aV136
p273
aV-
aV-
aV1
aV-
aV1
aV93.3
p274
aV1.5
p275
aV-
aV6.66
p276
aa(lp277
V2017/2018
p278
aVFulham
p279
aVEC
p280
aV45
p281
aV4004
p282
aV3
aV1
aV11
p283
aV-
aV1
aV85.8
p284
aV1.5
p285
aV3
aV7.06
p286
aa(lp287
V2016/2017
p288
aVFulham
p289
aVEC
p290
aV45
p291
aV3855
p292
aV3
aV3
aV13
p293
aV1
aV0.8
p294
aV86.5
p295
aV1.1
p296
aV1
aV6.99
p297
aa(lp298
V2015/2016
p299
aVWolverhampton..
p300
aVEC
p301
aV32(1)
p302
aV2805
p303
aV3
aV2
aV9
aV-
aV0.8
p304
aV79
p305
aV1.1
p306
aV1
aV6.98
p307
aa(lp308
V2014/2015
p309
aVWolverhampton..
p310
aVEC
p311
aV45(1)
p312
aV4068
p313
aV-
aV11
p314
aV8
aV1
aV0.9
p315
aV80.7
p316
aV0.7
p317
aV1
aV7.07
p318
aa(lp319
V2009/2010
p320
aVBurnley
p321
aVEPL
p322
aV15(11)
p323
aV1458
p324
aV1
aV1
aV5
aV-
aV0.6
p325
aV80.9
p326
aV0.3
p327
aV-
aV6.49
p328
aa(lp329
VTotal / Average
p330
aV
aV
aV206
p331
aV16943
p332
aV10
p333
aV18
p334
aV49
p335
aV3
aV0.8
p336
aV83.2
p337
aV1
aV6
aV6.92
p338
aasS'id'
p339
V20100
p340
sb.