(i__main__
Player
p1
(dp2
S'name'
p3
VJames McArthur 
p4
sS'offensive_data'
p5
(lp6
(lp7
a(lp8
V2018/2019
p9
aVCrystal Palac..
p10
aVEPL
p11
aV17
p12
aV1377
p13
aV2
aV1
aV3
aV-
aV0.9
p14
aV79.8
p15
aV1.1
p16
aV1
aV6.70
p17
aa(lp18
V2017/2018
p19
aVCrystal Palac..
p20
aVEPL
p21
aV27(6)
p22
aV2434
p23
aV5
aV1
aV5
aV-
aV0.9
p24
aV79.1
p25
aV1.2
p26
aV-
aV6.75
p27
aa(lp28
V2016/2017
p29
aVCrystal Palac..
p30
aVEPL
p31
aV24(5)
p32
aV2010
p33
aV5
aV3
aV5
aV-
aV0.8
p34
aV78.5
p35
aV1.1
p36
aV-
aV6.67
p37
aa(lp38
V2015/2016
p39
aVCrystal Palac..
p40
aVEPL
p41
aV26(2)
p42
aV2193
p43
aV2
aV2
aV5
aV-
aV0.6
p44
aV85.4
p45
aV1.1
p46
aV-
aV6.85
p47
aa(lp48
V2014/2015
p49
aVWigan
p50
aVEC
p51
aV5
aV450
p52
aV1
aV2
aV1
aV-
aV1.6
p53
aV78.9
p54
aV2.8
p55
aV-
aV7.70
p56
aa(lp57
V2014/2015
p58
aVCrystal Palac..
p59
aVEPL
p60
aV29(3)
p61
aV2607
p62
aV2
aV-
aV6
aV-
aV1
aV78.6
p63
aV1.8
p64
aV2
aV7.17
p65
aa(lp66
V2013/2014
p67
aVWigan
p68
aVUEL
p69
aV5
aV435
p70
aV-
aV-
aV1
aV-
aV1.2
p71
aV84.6
p72
aV1.4
p73
aV-
aV7.00
p74
aa(lp75
V2013/2014
p76
aVWigan
p77
aVEC
p78
aV39(4)
p79
aV3394
p80
aV4
aV3
aV4
aV-
aV1.4
p81
aV78.3
p82
aV1
aV2
aV6.98
p83
aa(lp84
V2012/2013
p85
aVWigan
p86
aVEPL
p87
aV24(10)
p88
aV2407
p89
aV3
aV2
aV7
aV-
aV0.8
p90
aV85
p91
aV0.7
p92
aV1
aV6.83
p93
aa(lp94
V2011/2012
p95
aVWigan
p96
aVEPL
p97
aV18(13)
p98
aV1747
p99
aV3
aV1
aV4
aV-
aV0.5
p100
aV84
p101
aV0.7
p102
aV-
aV6.68
p103
aa(lp104
V2010/2011
p105
aVWigan
p106
aVEPL
p107
aV3(15)
p108
aV542
p109
aV-
aV-
aV-
aV-
aV0.3
p110
aV72.7
p111
aV0.6
p112
aV-
aV6.30
p113
aa(lp114
VTotal / Average
p115
aV
aV
aV275
p116
aV19596
p117
aV27
p118
aV15
p119
aV41
p120
aV0
aV0.9
p121
aV80.5
p122
aV1.1
p123
aV6
aV6.83
p124
aasS'url'
p125
S'https://www.whoscored.com/Players/20339/History/'
p126
sS'passing_data'
p127
(lp128
(lp129
a(lp130
V2018/2019
p131
aVCrystal Palac..
p132
aVEPL
p133
aV17
p134
aV1377
p135
aV2
aV1
aV3
aV-
aV0.9
p136
aV79.8
p137
aV1.1
p138
aV1
aV6.70
p139
aa(lp140
V2017/2018
p141
aVCrystal Palac..
p142
aVEPL
p143
aV27(6)
p144
aV2434
p145
aV5
aV1
aV5
aV-
aV0.9
p146
aV79.1
p147
aV1.2
p148
aV-
aV6.75
p149
aa(lp150
V2016/2017
p151
aVCrystal Palac..
p152
aVEPL
p153
aV24(5)
p154
aV2010
p155
aV5
aV3
aV5
aV-
aV0.8
p156
aV78.5
p157
aV1.1
p158
aV-
aV6.67
p159
aa(lp160
V2015/2016
p161
aVCrystal Palac..
p162
aVEPL
p163
aV26(2)
p164
aV2193
p165
aV2
aV2
aV5
aV-
aV0.6
p166
aV85.4
p167
aV1.1
p168
aV-
aV6.85
p169
aa(lp170
V2014/2015
p171
aVWigan
p172
aVEC
p173
aV5
aV450
p174
aV1
aV2
aV1
aV-
aV1.6
p175
aV78.9
p176
aV2.8
p177
aV-
aV7.70
p178
aa(lp179
V2014/2015
p180
aVCrystal Palac..
p181
aVEPL
p182
aV29(3)
p183
aV2607
p184
aV2
aV-
aV6
aV-
aV1
aV78.6
p185
aV1.8
p186
aV2
aV7.17
p187
aa(lp188
V2013/2014
p189
aVWigan
p190
aVUEL
p191
aV5
aV435
p192
aV-
aV-
aV1
aV-
aV1.2
p193
aV84.6
p194
aV1.4
p195
aV-
aV7.00
p196
aa(lp197
V2013/2014
p198
aVWigan
p199
aVEC
p200
aV39(4)
p201
aV3394
p202
aV4
aV3
aV4
aV-
aV1.4
p203
aV78.3
p204
aV1
aV2
aV6.98
p205
aa(lp206
V2012/2013
p207
aVWigan
p208
aVEPL
p209
aV24(10)
p210
aV2407
p211
aV3
aV2
aV7
aV-
aV0.8
p212
aV85
p213
aV0.7
p214
aV1
aV6.83
p215
aa(lp216
V2011/2012
p217
aVWigan
p218
aVEPL
p219
aV18(13)
p220
aV1747
p221
aV3
aV1
aV4
aV-
aV0.5
p222
aV84
p223
aV0.7
p224
aV-
aV6.68
p225
aa(lp226
V2010/2011
p227
aVWigan
p228
aVEPL
p229
aV3(15)
p230
aV542
p231
aV-
aV-
aV-
aV-
aV0.3
p232
aV72.7
p233
aV0.6
p234
aV-
aV6.30
p235
aa(lp236
VTotal / Average
p237
aV
aV
aV275
p238
aV19596
p239
aV27
p240
aV15
p241
aV41
p242
aV0
aV0.9
p243
aV80.5
p244
aV1.1
p245
aV6
aV6.83
p246
aasS'defensive_data'
p247
(lp248
(lp249
a(lp250
V2018/2019
p251
aVCrystal Palac..
p252
aVEPL
p253
aV17
p254
aV1377
p255
aV2
aV1
aV3
aV-
aV0.9
p256
aV79.8
p257
aV1.1
p258
aV1
aV6.70
p259
aa(lp260
V2017/2018
p261
aVCrystal Palac..
p262
aVEPL
p263
aV27(6)
p264
aV2434
p265
aV5
aV1
aV5
aV-
aV0.9
p266
aV79.1
p267
aV1.2
p268
aV-
aV6.75
p269
aa(lp270
V2016/2017
p271
aVCrystal Palac..
p272
aVEPL
p273
aV24(5)
p274
aV2010
p275
aV5
aV3
aV5
aV-
aV0.8
p276
aV78.5
p277
aV1.1
p278
aV-
aV6.67
p279
aa(lp280
V2015/2016
p281
aVCrystal Palac..
p282
aVEPL
p283
aV26(2)
p284
aV2193
p285
aV2
aV2
aV5
aV-
aV0.6
p286
aV85.4
p287
aV1.1
p288
aV-
aV6.85
p289
aa(lp290
V2014/2015
p291
aVWigan
p292
aVEC
p293
aV5
aV450
p294
aV1
aV2
aV1
aV-
aV1.6
p295
aV78.9
p296
aV2.8
p297
aV-
aV7.70
p298
aa(lp299
V2014/2015
p300
aVCrystal Palac..
p301
aVEPL
p302
aV29(3)
p303
aV2607
p304
aV2
aV-
aV6
aV-
aV1
aV78.6
p305
aV1.8
p306
aV2
aV7.17
p307
aa(lp308
V2013/2014
p309
aVWigan
p310
aVUEL
p311
aV5
aV435
p312
aV-
aV-
aV1
aV-
aV1.2
p313
aV84.6
p314
aV1.4
p315
aV-
aV7.00
p316
aa(lp317
V2013/2014
p318
aVWigan
p319
aVEC
p320
aV39(4)
p321
aV3394
p322
aV4
aV3
aV4
aV-
aV1.4
p323
aV78.3
p324
aV1
aV2
aV6.98
p325
aa(lp326
V2012/2013
p327
aVWigan
p328
aVEPL
p329
aV24(10)
p330
aV2407
p331
aV3
aV2
aV7
aV-
aV0.8
p332
aV85
p333
aV0.7
p334
aV1
aV6.83
p335
aa(lp336
V2011/2012
p337
aVWigan
p338
aVEPL
p339
aV18(13)
p340
aV1747
p341
aV3
aV1
aV4
aV-
aV0.5
p342
aV84
p343
aV0.7
p344
aV-
aV6.68
p345
aa(lp346
V2010/2011
p347
aVWigan
p348
aVEPL
p349
aV3(15)
p350
aV542
p351
aV-
aV-
aV-
aV-
aV0.3
p352
aV72.7
p353
aV0.6
p354
aV-
aV6.30
p355
aa(lp356
VTotal / Average
p357
aV
aV
aV275
p358
aV19596
p359
aV27
p360
aV15
p361
aV41
p362
aV0
aV0.9
p363
aV80.5
p364
aV1.1
p365
aV6
aV6.83
p366
aasS'sumary_data'
p367
(lp368
(lp369
a(lp370
V2018/2019
p371
aVCrystal Palac..
p372
aVEPL
p373
aV17
p374
aV1377
p375
aV2
aV1
aV3
aV-
aV0.9
p376
aV79.8
p377
aV1.1
p378
aV1
aV6.70
p379
aa(lp380
V2017/2018
p381
aVCrystal Palac..
p382
aVEPL
p383
aV27(6)
p384
aV2434
p385
aV5
aV1
aV5
aV-
aV0.9
p386
aV79.1
p387
aV1.2
p388
aV-
aV6.75
p389
aa(lp390
V2016/2017
p391
aVCrystal Palac..
p392
aVEPL
p393
aV24(5)
p394
aV2010
p395
aV5
aV3
aV5
aV-
aV0.8
p396
aV78.5
p397
aV1.1
p398
aV-
aV6.67
p399
aa(lp400
V2015/2016
p401
aVCrystal Palac..
p402
aVEPL
p403
aV26(2)
p404
aV2193
p405
aV2
aV2
aV5
aV-
aV0.6
p406
aV85.4
p407
aV1.1
p408
aV-
aV6.85
p409
aa(lp410
V2014/2015
p411
aVWigan
p412
aVEC
p413
aV5
aV450
p414
aV1
aV2
aV1
aV-
aV1.6
p415
aV78.9
p416
aV2.8
p417
aV-
aV7.70
p418
aa(lp419
V2014/2015
p420
aVCrystal Palac..
p421
aVEPL
p422
aV29(3)
p423
aV2607
p424
aV2
aV-
aV6
aV-
aV1
aV78.6
p425
aV1.8
p426
aV2
aV7.17
p427
aa(lp428
V2013/2014
p429
aVWigan
p430
aVUEL
p431
aV5
aV435
p432
aV-
aV-
aV1
aV-
aV1.2
p433
aV84.6
p434
aV1.4
p435
aV-
aV7.00
p436
aa(lp437
V2013/2014
p438
aVWigan
p439
aVEC
p440
aV39(4)
p441
aV3394
p442
aV4
aV3
aV4
aV-
aV1.4
p443
aV78.3
p444
aV1
aV2
aV6.98
p445
aa(lp446
V2012/2013
p447
aVWigan
p448
aVEPL
p449
aV24(10)
p450
aV2407
p451
aV3
aV2
aV7
aV-
aV0.8
p452
aV85
p453
aV0.7
p454
aV1
aV6.83
p455
aa(lp456
V2011/2012
p457
aVWigan
p458
aVEPL
p459
aV18(13)
p460
aV1747
p461
aV3
aV1
aV4
aV-
aV0.5
p462
aV84
p463
aV0.7
p464
aV-
aV6.68
p465
aa(lp466
V2010/2011
p467
aVWigan
p468
aVEPL
p469
aV3(15)
p470
aV542
p471
aV-
aV-
aV-
aV-
aV0.3
p472
aV72.7
p473
aV0.6
p474
aV-
aV6.30
p475
aa(lp476
VTotal / Average
p477
aV
aV
aV275
p478
aV19596
p479
aV27
p480
aV15
p481
aV41
p482
aV0
aV0.9
p483
aV80.5
p484
aV1.1
p485
aV6
aV6.83
p486
aasS'id'
p487
V20339
p488
sb.