(i__main__
Player
p1
(dp2
S'name'
p3
VLukasz Fabianski 
p4
sS'offensive_data'
p5
(lp6
(lp7
a(lp8
V2018/2019
p9
aVWest Ham
p10
aVEPL
p11
aV17
p12
aV1530
p13
aV-
aV-
aV-
aV-
aV-
aV47.4
p14
aV0.3
p15
aV-
aV7.03
p16
aa(lp17
V2018/2019
p18
aVPoland
p19
aVUNL
p20
aV2
aV180
p21
aV-
aV-
aV1
aV-
aV-
aV67.1
p22
aV0.5
p23
aV-
aV5.86
p24
aa(lp25
V2017/2018
p26
aVSwansea
p27
aVEPL
p28
aV38
p29
aV3420
p30
aV-
aV-
aV-
aV-
aV-
aV53.4
p31
aV0.4
p32
aV3
aV6.89
p33
aa(lp34
V2016/2017
p35
aVSwansea
p36
aVEPL
p37
aV37
p38
aV3330
p39
aV-
aV-
aV1
aV-
aV-
aV59.5
p40
aV0.4
p41
aV2
aV6.70
p42
aa(lp43
V2018
p44
aVPoland
p45
aVWC
p46
aV1
aV90
p47
aV-
aV-
aV-
aV-
aV-
aV76
p48
aV-
aV-
aV7.57
p49
aa(lp50
V2015/2016
p51
aVSwansea
p52
aVEPL
p53
aV37
p54
aV3330
p55
aV-
aV1
aV1
aV-
aV-
aV58
p56
aV0.4
p57
aV2
aV6.87
p58
aa(lp59
V2014/2015
p60
aVSwansea
p61
aVEPL
p62
aV37
p63
aV3308
p64
aV-
aV-
aV-
aV1
aV-
aV55.8
p65
aV0.5
p66
aV5
aV7.09
p67
aa(lp68
V2016
p69
aVPoland
p70
aVUEC
p71
aV4
aV420
p72
aV-
aV-
aV-
aV-
aV-
aV60.4
p73
aV0.8
p74
aV-
aV7.36
p75
aa(lp76
V2013/2014
p77
aVArsenal
p78
aVUCL
p79
aV1(1)
p80
aV141
p81
aV-
aV-
aV-
aV-
aV-
aV43.6
p82
aV-
aV1
aV7.44
p83
aa(lp84
V2013/2014
p85
aVArsenal
p86
aVEPL
p87
aV1
aV90
p88
aV-
aV-
aV-
aV-
aV-
aV62.9
p89
aV-
aV-
aV7.90
p90
aa(lp91
V2012/2013
p92
aVArsenal
p93
aVUCL
p94
aV1
aV90
p95
aV-
aV-
aV-
aV-
aV-
aV60
p96
aV-
aV-
aV8.15
p97
aa(lp98
V2012/2013
p99
aVArsenal
p100
aVEPL
p101
aV4
aV360
p102
aV-
aV-
aV-
aV-
aV-
aV54.3
p103
aV-
aV-
aV6.75
p104
aa(lp105
V2011/2012
p106
aVArsenal
p107
aVUCL
p108
aV1
aV28
p109
aV-
aV-
aV-
aV-
aV-
aV50
p110
aV-
aV-
aV5.45
p111
aa(lp112
V2010/2011
p113
aVArsenal
p114
aVUCL
p115
aV5
aV450
p116
aV-
aV-
aV-
aV-
aV-
aV65.2
p117
aV-
aV-
aV6.81
p118
aa(lp119
V2010/2011
p120
aVArsenal
p121
aVEPL
p122
aV14
p123
aV1260
p124
aV-
aV1
aV-
aV-
aV-
aV44.9
p125
aV0.1
p126
aV-
aV6.75
p127
aa(lp128
V2009/2010
p129
aVArsenal
p130
aVUCL
p131
aV1
aV90
p132
aV-
aV-
aV-
aV-
aV-
aV78.3
p133
aV-
aV-
aV7.26
p134
aa(lp135
V2009/2010
p136
aVArsenal
p137
aVEPL
p138
aV4
aV360
p139
aV-
aV-
aV1
aV-
aV-
aV43.3
p140
aV0.8
p141
aV-
aV6.41
p142
aa(lp143
VTotal / Average
p144
aV
aV
aV206
p145
aV18477
p146
aV0
aV2
aV4
aV1
aV0
aV55.2
p147
aV0.4
p148
aV13
p149
aV6.89
p150
aasS'url'
p151
S'https://www.whoscored.com/Players/20973/History/'
p152
sS'passing_data'
p153
(lp154
(lp155
a(lp156
V2018/2019
p157
aVWest Ham
p158
aVEPL
p159
aV17
p160
aV1530
p161
aV-
aV-
aV-
aV-
aV-
aV47.4
p162
aV0.3
p163
aV-
aV7.03
p164
aa(lp165
V2018/2019
p166
aVPoland
p167
aVUNL
p168
aV2
aV180
p169
aV-
aV-
aV1
aV-
aV-
aV67.1
p170
aV0.5
p171
aV-
aV5.86
p172
aa(lp173
V2017/2018
p174
aVSwansea
p175
aVEPL
p176
aV38
p177
aV3420
p178
aV-
aV-
aV-
aV-
aV-
aV53.4
p179
aV0.4
p180
aV3
aV6.89
p181
aa(lp182
V2016/2017
p183
aVSwansea
p184
aVEPL
p185
aV37
p186
aV3330
p187
aV-
aV-
aV1
aV-
aV-
aV59.5
p188
aV0.4
p189
aV2
aV6.70
p190
aa(lp191
V2018
p192
aVPoland
p193
aVWC
p194
aV1
aV90
p195
aV-
aV-
aV-
aV-
aV-
aV76
p196
aV-
aV-
aV7.57
p197
aa(lp198
V2015/2016
p199
aVSwansea
p200
aVEPL
p201
aV37
p202
aV3330
p203
aV-
aV1
aV1
aV-
aV-
aV58
p204
aV0.4
p205
aV2
aV6.87
p206
aa(lp207
V2014/2015
p208
aVSwansea
p209
aVEPL
p210
aV37
p211
aV3308
p212
aV-
aV-
aV-
aV1
aV-
aV55.8
p213
aV0.5
p214
aV5
aV7.09
p215
aa(lp216
V2016
p217
aVPoland
p218
aVUEC
p219
aV4
aV420
p220
aV-
aV-
aV-
aV-
aV-
aV60.4
p221
aV0.8
p222
aV-
aV7.36
p223
aa(lp224
V2013/2014
p225
aVArsenal
p226
aVUCL
p227
aV1(1)
p228
aV141
p229
aV-
aV-
aV-
aV-
aV-
aV43.6
p230
aV-
aV1
aV7.44
p231
aa(lp232
V2013/2014
p233
aVArsenal
p234
aVEPL
p235
aV1
aV90
p236
aV-
aV-
aV-
aV-
aV-
aV62.9
p237
aV-
aV-
aV7.90
p238
aa(lp239
V2012/2013
p240
aVArsenal
p241
aVUCL
p242
aV1
aV90
p243
aV-
aV-
aV-
aV-
aV-
aV60
p244
aV-
aV-
aV8.15
p245
aa(lp246
V2012/2013
p247
aVArsenal
p248
aVEPL
p249
aV4
aV360
p250
aV-
aV-
aV-
aV-
aV-
aV54.3
p251
aV-
aV-
aV6.75
p252
aa(lp253
V2011/2012
p254
aVArsenal
p255
aVUCL
p256
aV1
aV28
p257
aV-
aV-
aV-
aV-
aV-
aV50
p258
aV-
aV-
aV5.45
p259
aa(lp260
V2010/2011
p261
aVArsenal
p262
aVUCL
p263
aV5
aV450
p264
aV-
aV-
aV-
aV-
aV-
aV65.2
p265
aV-
aV-
aV6.81
p266
aa(lp267
V2010/2011
p268
aVArsenal
p269
aVEPL
p270
aV14
p271
aV1260
p272
aV-
aV1
aV-
aV-
aV-
aV44.9
p273
aV0.1
p274
aV-
aV6.75
p275
aa(lp276
V2009/2010
p277
aVArsenal
p278
aVUCL
p279
aV1
aV90
p280
aV-
aV-
aV-
aV-
aV-
aV78.3
p281
aV-
aV-
aV7.26
p282
aa(lp283
V2009/2010
p284
aVArsenal
p285
aVEPL
p286
aV4
aV360
p287
aV-
aV-
aV1
aV-
aV-
aV43.3
p288
aV0.8
p289
aV-
aV6.41
p290
aa(lp291
VTotal / Average
p292
aV
aV
aV206
p293
aV18477
p294
aV0
aV2
aV4
aV1
aV0
aV55.2
p295
aV0.4
p296
aV13
p297
aV6.89
p298
aasS'defensive_data'
p299
(lp300
(lp301
a(lp302
V2018/2019
p303
aVWest Ham
p304
aVEPL
p305
aV17
p306
aV1530
p307
aV-
aV-
aV-
aV-
aV-
aV47.4
p308
aV0.3
p309
aV-
aV7.03
p310
aa(lp311
V2018/2019
p312
aVPoland
p313
aVUNL
p314
aV2
aV180
p315
aV-
aV-
aV1
aV-
aV-
aV67.1
p316
aV0.5
p317
aV-
aV5.86
p318
aa(lp319
V2017/2018
p320
aVSwansea
p321
aVEPL
p322
aV38
p323
aV3420
p324
aV-
aV-
aV-
aV-
aV-
aV53.4
p325
aV0.4
p326
aV3
aV6.89
p327
aa(lp328
V2016/2017
p329
aVSwansea
p330
aVEPL
p331
aV37
p332
aV3330
p333
aV-
aV-
aV1
aV-
aV-
aV59.5
p334
aV0.4
p335
aV2
aV6.70
p336
aa(lp337
V2018
p338
aVPoland
p339
aVWC
p340
aV1
aV90
p341
aV-
aV-
aV-
aV-
aV-
aV76
p342
aV-
aV-
aV7.57
p343
aa(lp344
V2015/2016
p345
aVSwansea
p346
aVEPL
p347
aV37
p348
aV3330
p349
aV-
aV1
aV1
aV-
aV-
aV58
p350
aV0.4
p351
aV2
aV6.87
p352
aa(lp353
V2014/2015
p354
aVSwansea
p355
aVEPL
p356
aV37
p357
aV3308
p358
aV-
aV-
aV-
aV1
aV-
aV55.8
p359
aV0.5
p360
aV5
aV7.09
p361
aa(lp362
V2016
p363
aVPoland
p364
aVUEC
p365
aV4
aV420
p366
aV-
aV-
aV-
aV-
aV-
aV60.4
p367
aV0.8
p368
aV-
aV7.36
p369
aa(lp370
V2013/2014
p371
aVArsenal
p372
aVUCL
p373
aV1(1)
p374
aV141
p375
aV-
aV-
aV-
aV-
aV-
aV43.6
p376
aV-
aV1
aV7.44
p377
aa(lp378
V2013/2014
p379
aVArsenal
p380
aVEPL
p381
aV1
aV90
p382
aV-
aV-
aV-
aV-
aV-
aV62.9
p383
aV-
aV-
aV7.90
p384
aa(lp385
V2012/2013
p386
aVArsenal
p387
aVUCL
p388
aV1
aV90
p389
aV-
aV-
aV-
aV-
aV-
aV60
p390
aV-
aV-
aV8.15
p391
aa(lp392
V2012/2013
p393
aVArsenal
p394
aVEPL
p395
aV4
aV360
p396
aV-
aV-
aV-
aV-
aV-
aV54.3
p397
aV-
aV-
aV6.75
p398
aa(lp399
V2011/2012
p400
aVArsenal
p401
aVUCL
p402
aV1
aV28
p403
aV-
aV-
aV-
aV-
aV-
aV50
p404
aV-
aV-
aV5.45
p405
aa(lp406
V2010/2011
p407
aVArsenal
p408
aVUCL
p409
aV5
aV450
p410
aV-
aV-
aV-
aV-
aV-
aV65.2
p411
aV-
aV-
aV6.81
p412
aa(lp413
V2010/2011
p414
aVArsenal
p415
aVEPL
p416
aV14
p417
aV1260
p418
aV-
aV1
aV-
aV-
aV-
aV44.9
p419
aV0.1
p420
aV-
aV6.75
p421
aa(lp422
V2009/2010
p423
aVArsenal
p424
aVUCL
p425
aV1
aV90
p426
aV-
aV-
aV-
aV-
aV-
aV78.3
p427
aV-
aV-
aV7.26
p428
aa(lp429
V2009/2010
p430
aVArsenal
p431
aVEPL
p432
aV4
aV360
p433
aV-
aV-
aV1
aV-
aV-
aV43.3
p434
aV0.8
p435
aV-
aV6.41
p436
aa(lp437
VTotal / Average
p438
aV
aV
aV206
p439
aV18477
p440
aV0
aV2
aV4
aV1
aV0
aV55.2
p441
aV0.4
p442
aV13
p443
aV6.89
p444
aasS'sumary_data'
p445
(lp446
(lp447
a(lp448
V2018/2019
p449
aVWest Ham
p450
aVEPL
p451
aV17
p452
aV1530
p453
aV-
aV-
aV-
aV-
aV-
aV47.4
p454
aV0.3
p455
aV-
aV7.03
p456
aa(lp457
V2018/2019
p458
aVPoland
p459
aVUNL
p460
aV2
aV180
p461
aV-
aV-
aV1
aV-
aV-
aV67.1
p462
aV0.5
p463
aV-
aV5.86
p464
aa(lp465
V2017/2018
p466
aVSwansea
p467
aVEPL
p468
aV38
p469
aV3420
p470
aV-
aV-
aV-
aV-
aV-
aV53.4
p471
aV0.4
p472
aV3
aV6.89
p473
aa(lp474
V2016/2017
p475
aVSwansea
p476
aVEPL
p477
aV37
p478
aV3330
p479
aV-
aV-
aV1
aV-
aV-
aV59.5
p480
aV0.4
p481
aV2
aV6.70
p482
aa(lp483
V2018
p484
aVPoland
p485
aVWC
p486
aV1
aV90
p487
aV-
aV-
aV-
aV-
aV-
aV76
p488
aV-
aV-
aV7.57
p489
aa(lp490
V2015/2016
p491
aVSwansea
p492
aVEPL
p493
aV37
p494
aV3330
p495
aV-
aV1
aV1
aV-
aV-
aV58
p496
aV0.4
p497
aV2
aV6.87
p498
aa(lp499
V2014/2015
p500
aVSwansea
p501
aVEPL
p502
aV37
p503
aV3308
p504
aV-
aV-
aV-
aV1
aV-
aV55.8
p505
aV0.5
p506
aV5
aV7.09
p507
aa(lp508
V2016
p509
aVPoland
p510
aVUEC
p511
aV4
aV420
p512
aV-
aV-
aV-
aV-
aV-
aV60.4
p513
aV0.8
p514
aV-
aV7.36
p515
aa(lp516
V2013/2014
p517
aVArsenal
p518
aVUCL
p519
aV1(1)
p520
aV141
p521
aV-
aV-
aV-
aV-
aV-
aV43.6
p522
aV-
aV1
aV7.44
p523
aa(lp524
V2013/2014
p525
aVArsenal
p526
aVEPL
p527
aV1
aV90
p528
aV-
aV-
aV-
aV-
aV-
aV62.9
p529
aV-
aV-
aV7.90
p530
aa(lp531
V2012/2013
p532
aVArsenal
p533
aVUCL
p534
aV1
aV90
p535
aV-
aV-
aV-
aV-
aV-
aV60
p536
aV-
aV-
aV8.15
p537
aa(lp538
V2012/2013
p539
aVArsenal
p540
aVEPL
p541
aV4
aV360
p542
aV-
aV-
aV-
aV-
aV-
aV54.3
p543
aV-
aV-
aV6.75
p544
aa(lp545
V2011/2012
p546
aVArsenal
p547
aVUCL
p548
aV1
aV28
p549
aV-
aV-
aV-
aV-
aV-
aV50
p550
aV-
aV-
aV5.45
p551
aa(lp552
V2010/2011
p553
aVArsenal
p554
aVUCL
p555
aV5
aV450
p556
aV-
aV-
aV-
aV-
aV-
aV65.2
p557
aV-
aV-
aV6.81
p558
aa(lp559
V2010/2011
p560
aVArsenal
p561
aVEPL
p562
aV14
p563
aV1260
p564
aV-
aV1
aV-
aV-
aV-
aV44.9
p565
aV0.1
p566
aV-
aV6.75
p567
aa(lp568
V2009/2010
p569
aVArsenal
p570
aVUCL
p571
aV1
aV90
p572
aV-
aV-
aV-
aV-
aV-
aV78.3
p573
aV-
aV-
aV7.26
p574
aa(lp575
V2009/2010
p576
aVArsenal
p577
aVEPL
p578
aV4
aV360
p579
aV-
aV-
aV1
aV-
aV-
aV43.3
p580
aV0.8
p581
aV-
aV6.41
p582
aa(lp583
VTotal / Average
p584
aV
aV
aV206
p585
aV18477
p586
aV0
aV2
aV4
aV1
aV0
aV55.2
p587
aV0.4
p588
aV13
p589
aV6.89
p590
aasS'id'
p591
V20973
p592
sb.