(i__main__
Player
p1
(dp2
S'name'
p3
VSol Bamba 
p4
sS'offensive_data'
p5
(lp6
(lp7
a(lp8
V2018/2019
p9
aVCardiff
p10
aVEPL
p11
aV16
p12
aV1440
p13
aV2
aV1
aV2
aV-
aV0.9
p14
aV68.6
p15
aV4.1
p16
aV2
aV7.25
p17
aa(lp18
V2017/2018
p19
aVCardiff
p20
aVEC
p21
aV43(3)
p22
aV3851
p23
aV4
aV1
aV7
aV-
aV0.8
p24
aV63.8
p25
aV4.2
p26
aV8
aV7.51
p27
aa(lp28
V2016/2017
p29
aVLeeds
p30
aVEC
p31
aV2
aV180
p32
aV-
aV-
aV-
aV-
aV-
aV83.7
p33
aV4
aV-
aV6.81
p34
aa(lp35
V2016/2017
p36
aVCardiff
p37
aVEC
p38
aV26
p39
aV2294
p40
aV2
aV-
aV6
aV1
aV0.8
p41
aV62.4
p42
aV3.9
p43
aV4
aV7.44
p44
aa(lp45
V2015/2016
p46
aVLeeds
p47
aVEC
p48
aV28(2)
p49
aV2637
p50
aV4
aV-
aV9
aV-
aV0.7
p51
aV79
p52
aV3.7
p53
aV5
aV7.35
p54
aa(lp55
V2014/2015
p56
aVPalermo
p57
aVISA
p58
aV1
aV90
p59
aV-
aV-
aV1
aV-
aV-
aV81.8
p60
aV1
aV-
aV6.24
p61
aa(lp62
V2014/2015
p63
aVLeeds
p64
aVEC
p65
aV19
p66
aV1710
p67
aV1
aV-
aV6
aV-
aV0.8
p68
aV70.4
p69
aV4
aV4
aV7.67
p70
aa(lp71
V2013/2014
p72
aVTrabzonspor
p73
aVUEL
p74
aV5
aV411
p75
aV-
aV-
aV2
aV-
aV-
aV88.7
p76
aV2.4
p77
aV-
aV7.34
p78
aa(lp79
V2014
p80
aVIvory Coast
p81
aVWC
p82
aV3
aV270
p83
aV-
aV-
aV1
aV-
aV0.3
p84
aV92.5
p85
aV1.3
p86
aV-
aV6.81
p87
aa(lp88
VTotal / Average
p89
aV
aV
aV148
p90
aV12883
p91
aV13
p92
aV2
aV34
p93
aV1
aV0.8
p94
aV69.8
p95
aV3.9
p96
aV23
p97
aV7.42
p98
aasS'url'
p99
S'https://www.whoscored.com/Players/21370/History/'
p100
sS'passing_data'
p101
(lp102
(lp103
a(lp104
V2018/2019
p105
aVCardiff
p106
aVEPL
p107
aV16
p108
aV1440
p109
aV2
aV1
aV2
aV-
aV0.9
p110
aV68.6
p111
aV4.1
p112
aV2
aV7.25
p113
aa(lp114
V2017/2018
p115
aVCardiff
p116
aVEC
p117
aV43(3)
p118
aV3851
p119
aV4
aV1
aV7
aV-
aV0.8
p120
aV63.8
p121
aV4.2
p122
aV8
aV7.51
p123
aa(lp124
V2016/2017
p125
aVLeeds
p126
aVEC
p127
aV2
aV180
p128
aV-
aV-
aV-
aV-
aV-
aV83.7
p129
aV4
aV-
aV6.81
p130
aa(lp131
V2016/2017
p132
aVCardiff
p133
aVEC
p134
aV26
p135
aV2294
p136
aV2
aV-
aV6
aV1
aV0.8
p137
aV62.4
p138
aV3.9
p139
aV4
aV7.44
p140
aa(lp141
V2015/2016
p142
aVLeeds
p143
aVEC
p144
aV28(2)
p145
aV2637
p146
aV4
aV-
aV9
aV-
aV0.7
p147
aV79
p148
aV3.7
p149
aV5
aV7.35
p150
aa(lp151
V2014/2015
p152
aVPalermo
p153
aVISA
p154
aV1
aV90
p155
aV-
aV-
aV1
aV-
aV-
aV81.8
p156
aV1
aV-
aV6.24
p157
aa(lp158
V2014/2015
p159
aVLeeds
p160
aVEC
p161
aV19
p162
aV1710
p163
aV1
aV-
aV6
aV-
aV0.8
p164
aV70.4
p165
aV4
aV4
aV7.67
p166
aa(lp167
V2013/2014
p168
aVTrabzonspor
p169
aVUEL
p170
aV5
aV411
p171
aV-
aV-
aV2
aV-
aV-
aV88.7
p172
aV2.4
p173
aV-
aV7.34
p174
aa(lp175
V2014
p176
aVIvory Coast
p177
aVWC
p178
aV3
aV270
p179
aV-
aV-
aV1
aV-
aV0.3
p180
aV92.5
p181
aV1.3
p182
aV-
aV6.81
p183
aa(lp184
VTotal / Average
p185
aV
aV
aV148
p186
aV12883
p187
aV13
p188
aV2
aV34
p189
aV1
aV0.8
p190
aV69.8
p191
aV3.9
p192
aV23
p193
aV7.42
p194
aasS'defensive_data'
p195
(lp196
(lp197
a(lp198
V2018/2019
p199
aVCardiff
p200
aVEPL
p201
aV16
p202
aV1440
p203
aV2
aV1
aV2
aV-
aV0.9
p204
aV68.6
p205
aV4.1
p206
aV2
aV7.25
p207
aa(lp208
V2017/2018
p209
aVCardiff
p210
aVEC
p211
aV43(3)
p212
aV3851
p213
aV4
aV1
aV7
aV-
aV0.8
p214
aV63.8
p215
aV4.2
p216
aV8
aV7.51
p217
aa(lp218
V2016/2017
p219
aVLeeds
p220
aVEC
p221
aV2
aV180
p222
aV-
aV-
aV-
aV-
aV-
aV83.7
p223
aV4
aV-
aV6.81
p224
aa(lp225
V2016/2017
p226
aVCardiff
p227
aVEC
p228
aV26
p229
aV2294
p230
aV2
aV-
aV6
aV1
aV0.8
p231
aV62.4
p232
aV3.9
p233
aV4
aV7.44
p234
aa(lp235
V2015/2016
p236
aVLeeds
p237
aVEC
p238
aV28(2)
p239
aV2637
p240
aV4
aV-
aV9
aV-
aV0.7
p241
aV79
p242
aV3.7
p243
aV5
aV7.35
p244
aa(lp245
V2014/2015
p246
aVPalermo
p247
aVISA
p248
aV1
aV90
p249
aV-
aV-
aV1
aV-
aV-
aV81.8
p250
aV1
aV-
aV6.24
p251
aa(lp252
V2014/2015
p253
aVLeeds
p254
aVEC
p255
aV19
p256
aV1710
p257
aV1
aV-
aV6
aV-
aV0.8
p258
aV70.4
p259
aV4
aV4
aV7.67
p260
aa(lp261
V2013/2014
p262
aVTrabzonspor
p263
aVUEL
p264
aV5
aV411
p265
aV-
aV-
aV2
aV-
aV-
aV88.7
p266
aV2.4
p267
aV-
aV7.34
p268
aa(lp269
V2014
p270
aVIvory Coast
p271
aVWC
p272
aV3
aV270
p273
aV-
aV-
aV1
aV-
aV0.3
p274
aV92.5
p275
aV1.3
p276
aV-
aV6.81
p277
aa(lp278
VTotal / Average
p279
aV
aV
aV148
p280
aV12883
p281
aV13
p282
aV2
aV34
p283
aV1
aV0.8
p284
aV69.8
p285
aV3.9
p286
aV23
p287
aV7.42
p288
aasS'sumary_data'
p289
(lp290
(lp291
a(lp292
V2018/2019
p293
aVCardiff
p294
aVEPL
p295
aV16
p296
aV1440
p297
aV2
aV1
aV2
aV-
aV0.9
p298
aV68.6
p299
aV4.1
p300
aV2
aV7.25
p301
aa(lp302
V2017/2018
p303
aVCardiff
p304
aVEC
p305
aV43(3)
p306
aV3851
p307
aV4
aV1
aV7
aV-
aV0.8
p308
aV63.8
p309
aV4.2
p310
aV8
aV7.51
p311
aa(lp312
V2016/2017
p313
aVLeeds
p314
aVEC
p315
aV2
aV180
p316
aV-
aV-
aV-
aV-
aV-
aV83.7
p317
aV4
aV-
aV6.81
p318
aa(lp319
V2016/2017
p320
aVCardiff
p321
aVEC
p322
aV26
p323
aV2294
p324
aV2
aV-
aV6
aV1
aV0.8
p325
aV62.4
p326
aV3.9
p327
aV4
aV7.44
p328
aa(lp329
V2015/2016
p330
aVLeeds
p331
aVEC
p332
aV28(2)
p333
aV2637
p334
aV4
aV-
aV9
aV-
aV0.7
p335
aV79
p336
aV3.7
p337
aV5
aV7.35
p338
aa(lp339
V2014/2015
p340
aVPalermo
p341
aVISA
p342
aV1
aV90
p343
aV-
aV-
aV1
aV-
aV-
aV81.8
p344
aV1
aV-
aV6.24
p345
aa(lp346
V2014/2015
p347
aVLeeds
p348
aVEC
p349
aV19
p350
aV1710
p351
aV1
aV-
aV6
aV-
aV0.8
p352
aV70.4
p353
aV4
aV4
aV7.67
p354
aa(lp355
V2013/2014
p356
aVTrabzonspor
p357
aVUEL
p358
aV5
aV411
p359
aV-
aV-
aV2
aV-
aV-
aV88.7
p360
aV2.4
p361
aV-
aV7.34
p362
aa(lp363
V2014
p364
aVIvory Coast
p365
aVWC
p366
aV3
aV270
p367
aV-
aV-
aV1
aV-
aV0.3
p368
aV92.5
p369
aV1.3
p370
aV-
aV6.81
p371
aa(lp372
VTotal / Average
p373
aV
aV
aV148
p374
aV12883
p375
aV13
p376
aV2
aV34
p377
aV1
aV0.8
p378
aV69.8
p379
aV3.9
p380
aV23
p381
aV7.42
p382
aasS'id'
p383
V21370
p384
sb.