(i__main__
Player
p1
(dp2
S'name'
p3
VGlenn Murray 
p4
sS'offensive_data'
p5
(lp6
(lp7
a(lp8
V2018/2019
p9
aVBrighton
p10
aVEPL
p11
aV14(3)
p12
aV1128
p13
aV8
aV-
aV2
aV-
aV1.2
p14
aV56.7
p15
aV4.1
p16
aV3
aV6.80
p17
aa(lp18
V2017/2018
p19
aVBrighton
p20
aVEPL
p21
aV25(10)
p22
aV2198
p23
aV12
p24
aV-
aV9
aV-
aV1.5
p25
aV55.1
p26
aV3.3
p27
aV3
aV6.59
p28
aa(lp29
V2016/2017
p30
aVBrighton
p31
aVEC
p32
aV39(6)
p33
aV3447
p34
aV23
p35
aV5
aV7
aV1
aV2.4
p36
aV59.2
p37
aV3.6
p38
aV4
aV7.08
p39
aa(lp40
V2015/2016
p41
aVCrystal Palac..
p42
aVEPL
p43
aV2
aV128
p44
aV-
aV-
aV-
aV-
aV1
aV60
p45
aV2.5
p46
aV-
aV6.30
p47
aa(lp48
V2015/2016
p49
aVBournemouth
p50
aVEPL
p51
aV6(13)
p52
aV669
p53
aV3
aV-
aV2
aV-
aV1.2
p54
aV65.4
p55
aV1.2
p56
aV-
aV6.38
p57
aa(lp58
V2014/2015
p59
aVReading
p60
aVEC
p61
aV18
p62
aV1532
p63
aV8
aV1
aV4
aV-
aV3.6
p64
aV66.1
p65
aV3.5
p66
aV1
aV6.96
p67
aa(lp68
V2014/2015
p69
aVCrystal Palac..
p70
aVEPL
p71
aV9(8)
p72
aV866
p73
aV7
aV3
aV3
aV1
aV2.2
p74
aV57.1
p75
aV2.9
p76
aV2
aV6.89
p77
aa(lp78
V2013/2014
p79
aVCrystal Palac..
p80
aVEPL
p81
aV3(11)
p82
aV395
p83
aV1
aV1
aV1
aV-
aV0.9
p84
aV59.2
p85
aV1.5
p86
aV-
aV6.35
p87
aa(lp88
VTotal / Average
p89
aV
aV
aV167
p90
aV10363
p91
aV62
p92
aV10
p93
aV28
p94
aV2
aV1.9
p95
aV59.3
p96
aV3
aV13
p97
aV6.77
p98
aasS'url'
p99
S'https://www.whoscored.com/Players/21427/History/'
p100
sS'passing_data'
p101
(lp102
(lp103
a(lp104
V2018/2019
p105
aVBrighton
p106
aVEPL
p107
aV14(3)
p108
aV1128
p109
aV8
aV-
aV2
aV-
aV1.2
p110
aV56.7
p111
aV4.1
p112
aV3
aV6.80
p113
aa(lp114
V2017/2018
p115
aVBrighton
p116
aVEPL
p117
aV25(10)
p118
aV2198
p119
aV12
p120
aV-
aV9
aV-
aV1.5
p121
aV55.1
p122
aV3.3
p123
aV3
aV6.59
p124
aa(lp125
V2016/2017
p126
aVBrighton
p127
aVEC
p128
aV39(6)
p129
aV3447
p130
aV23
p131
aV5
aV7
aV1
aV2.4
p132
aV59.2
p133
aV3.6
p134
aV4
aV7.08
p135
aa(lp136
V2015/2016
p137
aVCrystal Palac..
p138
aVEPL
p139
aV2
aV128
p140
aV-
aV-
aV-
aV-
aV1
aV60
p141
aV2.5
p142
aV-
aV6.30
p143
aa(lp144
V2015/2016
p145
aVBournemouth
p146
aVEPL
p147
aV6(13)
p148
aV669
p149
aV3
aV-
aV2
aV-
aV1.2
p150
aV65.4
p151
aV1.2
p152
aV-
aV6.38
p153
aa(lp154
V2014/2015
p155
aVReading
p156
aVEC
p157
aV18
p158
aV1532
p159
aV8
aV1
aV4
aV-
aV3.6
p160
aV66.1
p161
aV3.5
p162
aV1
aV6.96
p163
aa(lp164
V2014/2015
p165
aVCrystal Palac..
p166
aVEPL
p167
aV9(8)
p168
aV866
p169
aV7
aV3
aV3
aV1
aV2.2
p170
aV57.1
p171
aV2.9
p172
aV2
aV6.89
p173
aa(lp174
V2013/2014
p175
aVCrystal Palac..
p176
aVEPL
p177
aV3(11)
p178
aV395
p179
aV1
aV1
aV1
aV-
aV0.9
p180
aV59.2
p181
aV1.5
p182
aV-
aV6.35
p183
aa(lp184
VTotal / Average
p185
aV
aV
aV167
p186
aV10363
p187
aV62
p188
aV10
p189
aV28
p190
aV2
aV1.9
p191
aV59.3
p192
aV3
aV13
p193
aV6.77
p194
aasS'defensive_data'
p195
(lp196
(lp197
a(lp198
V2018/2019
p199
aVBrighton
p200
aVEPL
p201
aV14(3)
p202
aV1128
p203
aV8
aV-
aV2
aV-
aV1.2
p204
aV56.7
p205
aV4.1
p206
aV3
aV6.80
p207
aa(lp208
V2017/2018
p209
aVBrighton
p210
aVEPL
p211
aV25(10)
p212
aV2198
p213
aV12
p214
aV-
aV9
aV-
aV1.5
p215
aV55.1
p216
aV3.3
p217
aV3
aV6.59
p218
aa(lp219
V2016/2017
p220
aVBrighton
p221
aVEC
p222
aV39(6)
p223
aV3447
p224
aV23
p225
aV5
aV7
aV1
aV2.4
p226
aV59.2
p227
aV3.6
p228
aV4
aV7.08
p229
aa(lp230
V2015/2016
p231
aVCrystal Palac..
p232
aVEPL
p233
aV2
aV128
p234
aV-
aV-
aV-
aV-
aV1
aV60
p235
aV2.5
p236
aV-
aV6.30
p237
aa(lp238
V2015/2016
p239
aVBournemouth
p240
aVEPL
p241
aV6(13)
p242
aV669
p243
aV3
aV-
aV2
aV-
aV1.2
p244
aV65.4
p245
aV1.2
p246
aV-
aV6.38
p247
aa(lp248
V2014/2015
p249
aVReading
p250
aVEC
p251
aV18
p252
aV1532
p253
aV8
aV1
aV4
aV-
aV3.6
p254
aV66.1
p255
aV3.5
p256
aV1
aV6.96
p257
aa(lp258
V2014/2015
p259
aVCrystal Palac..
p260
aVEPL
p261
aV9(8)
p262
aV866
p263
aV7
aV3
aV3
aV1
aV2.2
p264
aV57.1
p265
aV2.9
p266
aV2
aV6.89
p267
aa(lp268
V2013/2014
p269
aVCrystal Palac..
p270
aVEPL
p271
aV3(11)
p272
aV395
p273
aV1
aV1
aV1
aV-
aV0.9
p274
aV59.2
p275
aV1.5
p276
aV-
aV6.35
p277
aa(lp278
VTotal / Average
p279
aV
aV
aV167
p280
aV10363
p281
aV62
p282
aV10
p283
aV28
p284
aV2
aV1.9
p285
aV59.3
p286
aV3
aV13
p287
aV6.77
p288
aasS'sumary_data'
p289
(lp290
(lp291
a(lp292
V2018/2019
p293
aVBrighton
p294
aVEPL
p295
aV14(3)
p296
aV1128
p297
aV8
aV-
aV2
aV-
aV1.2
p298
aV56.7
p299
aV4.1
p300
aV3
aV6.80
p301
aa(lp302
V2017/2018
p303
aVBrighton
p304
aVEPL
p305
aV25(10)
p306
aV2198
p307
aV12
p308
aV-
aV9
aV-
aV1.5
p309
aV55.1
p310
aV3.3
p311
aV3
aV6.59
p312
aa(lp313
V2016/2017
p314
aVBrighton
p315
aVEC
p316
aV39(6)
p317
aV3447
p318
aV23
p319
aV5
aV7
aV1
aV2.4
p320
aV59.2
p321
aV3.6
p322
aV4
aV7.08
p323
aa(lp324
V2015/2016
p325
aVCrystal Palac..
p326
aVEPL
p327
aV2
aV128
p328
aV-
aV-
aV-
aV-
aV1
aV60
p329
aV2.5
p330
aV-
aV6.30
p331
aa(lp332
V2015/2016
p333
aVBournemouth
p334
aVEPL
p335
aV6(13)
p336
aV669
p337
aV3
aV-
aV2
aV-
aV1.2
p338
aV65.4
p339
aV1.2
p340
aV-
aV6.38
p341
aa(lp342
V2014/2015
p343
aVReading
p344
aVEC
p345
aV18
p346
aV1532
p347
aV8
aV1
aV4
aV-
aV3.6
p348
aV66.1
p349
aV3.5
p350
aV1
aV6.96
p351
aa(lp352
V2014/2015
p353
aVCrystal Palac..
p354
aVEPL
p355
aV9(8)
p356
aV866
p357
aV7
aV3
aV3
aV1
aV2.2
p358
aV57.1
p359
aV2.9
p360
aV2
aV6.89
p361
aa(lp362
V2013/2014
p363
aVCrystal Palac..
p364
aVEPL
p365
aV3(11)
p366
aV395
p367
aV1
aV1
aV1
aV-
aV0.9
p368
aV59.2
p369
aV1.5
p370
aV-
aV6.35
p371
aa(lp372
VTotal / Average
p373
aV
aV
aV167
p374
aV10363
p375
aV62
p376
aV10
p377
aV28
p378
aV2
aV1.9
p379
aV59.3
p380
aV3
aV13
p381
aV6.77
p382
aasS'id'
p383
V21427
p384
sb.