(i__main__
Player
p1
(dp2
S'name'
p3
VWayne Hennessey 
p4
sS'offensive_data'
p5
(lp6
(lp7
a(lp8
V2018/2019
p9
aVCrystal Palac..
p10
aVEPL
p11
aV16
p12
aV1440
p13
aV-
aV-
aV-
aV-
aV-
aV47.9
p14
aV0.5
p15
aV1
aV6.58
p16
aa(lp17
V2018/2019
p18
aVWales
p19
aVUNL
p20
aV4
aV360
p21
aV-
aV-
aV-
aV-
aV-
aV66.7
p22
aV-
aV-
aV6.57
p23
aa(lp24
V2017/2018
p25
aVCrystal Palac..
p26
aVEPL
p27
aV27
p28
aV2430
p29
aV-
aV-
aV1
aV-
aV-
aV46.2
p30
aV0.4
p31
aV1
aV6.74
p32
aa(lp33
V2016/2017
p34
aVCrystal Palac..
p35
aVEPL
p36
aV29
p37
aV2610
p38
aV-
aV-
aV1
aV-
aV-
aV47.2
p39
aV0.2
p40
aV-
aV6.65
p41
aa(lp42
V2015/2016
p43
aVCrystal Palac..
p44
aVEPL
p45
aV29
p46
aV2610
p47
aV-
aV-
aV1
aV-
aV-
aV43.8
p48
aV0.1
p49
aV-
aV6.48
p50
aa(lp51
V2014/2015
p52
aVCrystal Palac..
p53
aVEPL
p54
aV2(1)
p55
aV215
p56
aV-
aV-
aV-
aV-
aV-
aV33.8
p57
aV-
aV-
aV6.47
p58
aa(lp59
V2016
p60
aVWales
p61
aVUEC
p62
aV5
aV450
p63
aV-
aV-
aV-
aV-
aV-
aV58.8
p64
aV0.2
p65
aV-
aV6.92
p66
aa(lp67
V2013/2014
p68
aVYeovil
p69
aVEC
p70
aV12
p71
aV1080
p72
aV-
aV-
aV-
aV-
aV-
aV43.2
p73
aV0.1
p74
aV1
aV7.01
p75
aa(lp76
V2013/2014
p77
aVCrystal Palac..
p78
aVEPL
p79
aV1
aV90
p80
aV-
aV-
aV-
aV-
aV-
aV31.3
p81
aV-
aV-
aV6.58
p82
aa(lp83
V2011/2012
p84
aVWolverhampton..
p85
aVEPL
p86
aV34
p87
aV3060
p88
aV-
aV-
aV1
aV-
aV-
aV44.8
p89
aV-
aV4
aV6.88
p90
aa(lp91
V2010/2011
p92
aVWolverhampton..
p93
aVEPL
p94
aV24
p95
aV2160
p96
aV-
aV-
aV-
aV-
aV-
aV37.8
p97
aV0.1
p98
aV-
aV6.63
p99
aa(lp100
V2009/2010
p101
aVWolverhampton..
p102
aVEPL
p103
aV13
p104
aV1170
p105
aV-
aV1
aV-
aV-
aV-
aV34.6
p106
aV0.1
p107
aV-
aV6.55
p108
aa(lp109
VTotal / Average
p110
aV
aV
aV197
p111
aV17675
p112
aV0
aV1
aV4
aV0
aV0
aV44.4
p113
aV0.2
p114
aV7
aV6.69
p115
aasS'url'
p116
S'https://www.whoscored.com/Players/21571/History/'
p117
sS'passing_data'
p118
(lp119
(lp120
a(lp121
V2018/2019
p122
aVCrystal Palac..
p123
aVEPL
p124
aV16
p125
aV1440
p126
aV-
aV-
aV-
aV-
aV-
aV47.9
p127
aV0.5
p128
aV1
aV6.58
p129
aa(lp130
V2018/2019
p131
aVWales
p132
aVUNL
p133
aV4
aV360
p134
aV-
aV-
aV-
aV-
aV-
aV66.7
p135
aV-
aV-
aV6.57
p136
aa(lp137
V2017/2018
p138
aVCrystal Palac..
p139
aVEPL
p140
aV27
p141
aV2430
p142
aV-
aV-
aV1
aV-
aV-
aV46.2
p143
aV0.4
p144
aV1
aV6.74
p145
aa(lp146
V2016/2017
p147
aVCrystal Palac..
p148
aVEPL
p149
aV29
p150
aV2610
p151
aV-
aV-
aV1
aV-
aV-
aV47.2
p152
aV0.2
p153
aV-
aV6.65
p154
aa(lp155
V2015/2016
p156
aVCrystal Palac..
p157
aVEPL
p158
aV29
p159
aV2610
p160
aV-
aV-
aV1
aV-
aV-
aV43.8
p161
aV0.1
p162
aV-
aV6.48
p163
aa(lp164
V2014/2015
p165
aVCrystal Palac..
p166
aVEPL
p167
aV2(1)
p168
aV215
p169
aV-
aV-
aV-
aV-
aV-
aV33.8
p170
aV-
aV-
aV6.47
p171
aa(lp172
V2016
p173
aVWales
p174
aVUEC
p175
aV5
aV450
p176
aV-
aV-
aV-
aV-
aV-
aV58.8
p177
aV0.2
p178
aV-
aV6.92
p179
aa(lp180
V2013/2014
p181
aVYeovil
p182
aVEC
p183
aV12
p184
aV1080
p185
aV-
aV-
aV-
aV-
aV-
aV43.2
p186
aV0.1
p187
aV1
aV7.01
p188
aa(lp189
V2013/2014
p190
aVCrystal Palac..
p191
aVEPL
p192
aV1
aV90
p193
aV-
aV-
aV-
aV-
aV-
aV31.3
p194
aV-
aV-
aV6.58
p195
aa(lp196
V2011/2012
p197
aVWolverhampton..
p198
aVEPL
p199
aV34
p200
aV3060
p201
aV-
aV-
aV1
aV-
aV-
aV44.8
p202
aV-
aV4
aV6.88
p203
aa(lp204
V2010/2011
p205
aVWolverhampton..
p206
aVEPL
p207
aV24
p208
aV2160
p209
aV-
aV-
aV-
aV-
aV-
aV37.8
p210
aV0.1
p211
aV-
aV6.63
p212
aa(lp213
V2009/2010
p214
aVWolverhampton..
p215
aVEPL
p216
aV13
p217
aV1170
p218
aV-
aV1
aV-
aV-
aV-
aV34.6
p219
aV0.1
p220
aV-
aV6.55
p221
aa(lp222
VTotal / Average
p223
aV
aV
aV197
p224
aV17675
p225
aV0
aV1
aV4
aV0
aV0
aV44.4
p226
aV0.2
p227
aV7
aV6.69
p228
aasS'defensive_data'
p229
(lp230
(lp231
a(lp232
V2018/2019
p233
aVCrystal Palac..
p234
aVEPL
p235
aV16
p236
aV1440
p237
aV-
aV-
aV-
aV-
aV-
aV47.9
p238
aV0.5
p239
aV1
aV6.58
p240
aa(lp241
V2018/2019
p242
aVWales
p243
aVUNL
p244
aV4
aV360
p245
aV-
aV-
aV-
aV-
aV-
aV66.7
p246
aV-
aV-
aV6.57
p247
aa(lp248
V2017/2018
p249
aVCrystal Palac..
p250
aVEPL
p251
aV27
p252
aV2430
p253
aV-
aV-
aV1
aV-
aV-
aV46.2
p254
aV0.4
p255
aV1
aV6.74
p256
aa(lp257
V2016/2017
p258
aVCrystal Palac..
p259
aVEPL
p260
aV29
p261
aV2610
p262
aV-
aV-
aV1
aV-
aV-
aV47.2
p263
aV0.2
p264
aV-
aV6.65
p265
aa(lp266
V2015/2016
p267
aVCrystal Palac..
p268
aVEPL
p269
aV29
p270
aV2610
p271
aV-
aV-
aV1
aV-
aV-
aV43.8
p272
aV0.1
p273
aV-
aV6.48
p274
aa(lp275
V2014/2015
p276
aVCrystal Palac..
p277
aVEPL
p278
aV2(1)
p279
aV215
p280
aV-
aV-
aV-
aV-
aV-
aV33.8
p281
aV-
aV-
aV6.47
p282
aa(lp283
V2016
p284
aVWales
p285
aVUEC
p286
aV5
aV450
p287
aV-
aV-
aV-
aV-
aV-
aV58.8
p288
aV0.2
p289
aV-
aV6.92
p290
aa(lp291
V2013/2014
p292
aVYeovil
p293
aVEC
p294
aV12
p295
aV1080
p296
aV-
aV-
aV-
aV-
aV-
aV43.2
p297
aV0.1
p298
aV1
aV7.01
p299
aa(lp300
V2013/2014
p301
aVCrystal Palac..
p302
aVEPL
p303
aV1
aV90
p304
aV-
aV-
aV-
aV-
aV-
aV31.3
p305
aV-
aV-
aV6.58
p306
aa(lp307
V2011/2012
p308
aVWolverhampton..
p309
aVEPL
p310
aV34
p311
aV3060
p312
aV-
aV-
aV1
aV-
aV-
aV44.8
p313
aV-
aV4
aV6.88
p314
aa(lp315
V2010/2011
p316
aVWolverhampton..
p317
aVEPL
p318
aV24
p319
aV2160
p320
aV-
aV-
aV-
aV-
aV-
aV37.8
p321
aV0.1
p322
aV-
aV6.63
p323
aa(lp324
V2009/2010
p325
aVWolverhampton..
p326
aVEPL
p327
aV13
p328
aV1170
p329
aV-
aV1
aV-
aV-
aV-
aV34.6
p330
aV0.1
p331
aV-
aV6.55
p332
aa(lp333
VTotal / Average
p334
aV
aV
aV197
p335
aV17675
p336
aV0
aV1
aV4
aV0
aV0
aV44.4
p337
aV0.2
p338
aV7
aV6.69
p339
aasS'sumary_data'
p340
(lp341
(lp342
a(lp343
V2018/2019
p344
aVCrystal Palac..
p345
aVEPL
p346
aV16
p347
aV1440
p348
aV-
aV-
aV-
aV-
aV-
aV47.9
p349
aV0.5
p350
aV1
aV6.58
p351
aa(lp352
V2018/2019
p353
aVWales
p354
aVUNL
p355
aV4
aV360
p356
aV-
aV-
aV-
aV-
aV-
aV66.7
p357
aV-
aV-
aV6.57
p358
aa(lp359
V2017/2018
p360
aVCrystal Palac..
p361
aVEPL
p362
aV27
p363
aV2430
p364
aV-
aV-
aV1
aV-
aV-
aV46.2
p365
aV0.4
p366
aV1
aV6.74
p367
aa(lp368
V2016/2017
p369
aVCrystal Palac..
p370
aVEPL
p371
aV29
p372
aV2610
p373
aV-
aV-
aV1
aV-
aV-
aV47.2
p374
aV0.2
p375
aV-
aV6.65
p376
aa(lp377
V2015/2016
p378
aVCrystal Palac..
p379
aVEPL
p380
aV29
p381
aV2610
p382
aV-
aV-
aV1
aV-
aV-
aV43.8
p383
aV0.1
p384
aV-
aV6.48
p385
aa(lp386
V2014/2015
p387
aVCrystal Palac..
p388
aVEPL
p389
aV2(1)
p390
aV215
p391
aV-
aV-
aV-
aV-
aV-
aV33.8
p392
aV-
aV-
aV6.47
p393
aa(lp394
V2016
p395
aVWales
p396
aVUEC
p397
aV5
aV450
p398
aV-
aV-
aV-
aV-
aV-
aV58.8
p399
aV0.2
p400
aV-
aV6.92
p401
aa(lp402
V2013/2014
p403
aVYeovil
p404
aVEC
p405
aV12
p406
aV1080
p407
aV-
aV-
aV-
aV-
aV-
aV43.2
p408
aV0.1
p409
aV1
aV7.01
p410
aa(lp411
V2013/2014
p412
aVCrystal Palac..
p413
aVEPL
p414
aV1
aV90
p415
aV-
aV-
aV-
aV-
aV-
aV31.3
p416
aV-
aV-
aV6.58
p417
aa(lp418
V2011/2012
p419
aVWolverhampton..
p420
aVEPL
p421
aV34
p422
aV3060
p423
aV-
aV-
aV1
aV-
aV-
aV44.8
p424
aV-
aV4
aV6.88
p425
aa(lp426
V2010/2011
p427
aVWolverhampton..
p428
aVEPL
p429
aV24
p430
aV2160
p431
aV-
aV-
aV-
aV-
aV-
aV37.8
p432
aV0.1
p433
aV-
aV6.63
p434
aa(lp435
V2009/2010
p436
aVWolverhampton..
p437
aVEPL
p438
aV13
p439
aV1170
p440
aV-
aV1
aV-
aV-
aV-
aV34.6
p441
aV0.1
p442
aV-
aV6.55
p443
aa(lp444
VTotal / Average
p445
aV
aV
aV197
p446
aV17675
p447
aV0
aV1
aV4
aV0
aV0
aV44.4
p448
aV0.2
p449
aV7
aV6.69
p450
aasS'id'
p451
V21571
p452
sb.