(i__main__
Player
p1
(dp2
S'name'
p3
VAdam Lallana 
p4
sS'offensive_data'
p5
(lp6
(lp7
a(lp8
V2018/2019
p9
aVLiverpool
p10
aVEPL
p11
aV2(2)
p12
aV158
p13
aV-
aV-
aV1
aV-
aV0.5
p14
aV81.9
p15
aV0.8
p16
aV-
aV6.54
p17
aa(lp18
V2018/2019
p19
aVLiverpool
p20
aVUCL
p21
aV1(1)
p22
aV101
p23
aV-
aV-
aV1
aV-
aV1.5
p24
aV75
p25
aV1.5
p26
aV-
aV6.19
p27
aa(lp28
V2017/2018
p29
aVLiverpool
p30
aVUCL
p31
aV1(1)
p32
aV150
p33
aV-
aV-
aV-
aV-
aV0.5
p34
aV80
p35
aV0.5
p36
aV-
aV6.12
p37
aa(lp38
V2017/2018
p39
aVLiverpool
p40
aVEPL
p41
aV1(11)
p42
aV235
p43
aV-
aV-
aV1
aV-
aV0.9
p44
aV85.9
p45
aV0.3
p46
aV-
aV6.22
p47
aa(lp48
V2016/2017
p49
aVLiverpool
p50
aVEPL
p51
aV27(4)
p52
aV2350
p53
aV8
aV7
aV3
aV-
aV1.6
p54
aV84.3
p55
aV0.7
p56
aV1
aV7.10
p57
aa(lp58
V2015/2016
p59
aVLiverpool
p60
aVUEL
p61
aV11(2)
p62
aV977
p63
aV3
aV1
aV1
aV-
aV1.5
p64
aV79.3
p65
aV1
aV1
aV7.04
p66
aa(lp67
V2015/2016
p68
aVLiverpool
p69
aVEPL
p70
aV23(7)
p71
aV2113
p72
aV4
aV6
aV2
aV-
aV1.5
p73
aV82.4
p74
aV0.8
p75
aV1
aV7.08
p76
aa(lp77
V2014/2015
p78
aVLiverpool
p79
aVUCL
p80
aV2(2)
p81
aV222
p82
aV-
aV-
aV-
aV-
aV1
aV83.5
p83
aV1
aV-
aV6.57
p84
aa(lp85
V2014/2015
p86
aVLiverpool
p87
aVUEL
p88
aV1(1)
p89
aV116
p90
aV-
aV-
aV-
aV-
aV1.5
p91
aV88.2
p92
aV0.5
p93
aV-
aV6.28
p94
aa(lp95
V2014/2015
p96
aVLiverpool
p97
aVEPL
p98
aV23(4)
p99
aV1792
p100
aV5
aV3
aV4
aV-
aV1.4
p101
aV82.5
p102
aV0.7
p103
aV1
aV6.93
p104
aa(lp105
V2016
p106
aVEngland
p107
aVUEC
p108
aV3
aV223
p109
aV-
aV-
aV-
aV-
aV2.3
p110
aV84.9
p111
aV1.7
p112
aV-
aV6.85
p113
aa(lp114
V2013/2014
p115
aVSouthampton
p116
aVEPL
p117
aV37(1)
p118
aV3102
p119
aV9
aV5
aV3
aV-
aV1.8
p120
aV84.6
p121
aV0.5
p122
aV3
aV7.24
p123
aa(lp124
V2014
p125
aVEngland
p126
aVWC
p127
aV1(2)
p128
aV91
p129
aV-
aV-
aV1
aV-
aV-
aV75.6
p130
aV0.7
p131
aV-
aV6.16
p132
aa(lp133
V2012/2013
p134
aVSouthampton
p135
aVEPL
p136
aV26(4)
p137
aV2242
p138
aV3
aV5
aV2
aV-
aV1.7
p139
aV80.8
p140
aV0.7
p141
aV1
aV6.96
p142
aa(lp143
VTotal / Average
p144
aV
aV
aV201
p145
aV13872
p146
aV32
p147
aV27
p148
aV19
p149
aV0
aV1.5
p150
aV82.8
p151
aV0.7
p152
aV8
aV6.95
p153
aasS'url'
p154
S'https://www.whoscored.com/Players/21683/History/'
p155
sS'passing_data'
p156
(lp157
(lp158
a(lp159
V2018/2019
p160
aVLiverpool
p161
aVEPL
p162
aV2(2)
p163
aV158
p164
aV-
aV-
aV1
aV-
aV0.5
p165
aV81.9
p166
aV0.8
p167
aV-
aV6.54
p168
aa(lp169
V2018/2019
p170
aVLiverpool
p171
aVUCL
p172
aV1(1)
p173
aV101
p174
aV-
aV-
aV1
aV-
aV1.5
p175
aV75
p176
aV1.5
p177
aV-
aV6.19
p178
aa(lp179
V2017/2018
p180
aVLiverpool
p181
aVUCL
p182
aV1(1)
p183
aV150
p184
aV-
aV-
aV-
aV-
aV0.5
p185
aV80
p186
aV0.5
p187
aV-
aV6.12
p188
aa(lp189
V2017/2018
p190
aVLiverpool
p191
aVEPL
p192
aV1(11)
p193
aV235
p194
aV-
aV-
aV1
aV-
aV0.9
p195
aV85.9
p196
aV0.3
p197
aV-
aV6.22
p198
aa(lp199
V2016/2017
p200
aVLiverpool
p201
aVEPL
p202
aV27(4)
p203
aV2350
p204
aV8
aV7
aV3
aV-
aV1.6
p205
aV84.3
p206
aV0.7
p207
aV1
aV7.10
p208
aa(lp209
V2015/2016
p210
aVLiverpool
p211
aVUEL
p212
aV11(2)
p213
aV977
p214
aV3
aV1
aV1
aV-
aV1.5
p215
aV79.3
p216
aV1
aV1
aV7.04
p217
aa(lp218
V2015/2016
p219
aVLiverpool
p220
aVEPL
p221
aV23(7)
p222
aV2113
p223
aV4
aV6
aV2
aV-
aV1.5
p224
aV82.4
p225
aV0.8
p226
aV1
aV7.08
p227
aa(lp228
V2014/2015
p229
aVLiverpool
p230
aVUCL
p231
aV2(2)
p232
aV222
p233
aV-
aV-
aV-
aV-
aV1
aV83.5
p234
aV1
aV-
aV6.57
p235
aa(lp236
V2014/2015
p237
aVLiverpool
p238
aVUEL
p239
aV1(1)
p240
aV116
p241
aV-
aV-
aV-
aV-
aV1.5
p242
aV88.2
p243
aV0.5
p244
aV-
aV6.28
p245
aa(lp246
V2014/2015
p247
aVLiverpool
p248
aVEPL
p249
aV23(4)
p250
aV1792
p251
aV5
aV3
aV4
aV-
aV1.4
p252
aV82.5
p253
aV0.7
p254
aV1
aV6.93
p255
aa(lp256
V2016
p257
aVEngland
p258
aVUEC
p259
aV3
aV223
p260
aV-
aV-
aV-
aV-
aV2.3
p261
aV84.9
p262
aV1.7
p263
aV-
aV6.85
p264
aa(lp265
V2013/2014
p266
aVSouthampton
p267
aVEPL
p268
aV37(1)
p269
aV3102
p270
aV9
aV5
aV3
aV-
aV1.8
p271
aV84.6
p272
aV0.5
p273
aV3
aV7.24
p274
aa(lp275
V2014
p276
aVEngland
p277
aVWC
p278
aV1(2)
p279
aV91
p280
aV-
aV-
aV1
aV-
aV-
aV75.6
p281
aV0.7
p282
aV-
aV6.16
p283
aa(lp284
V2012/2013
p285
aVSouthampton
p286
aVEPL
p287
aV26(4)
p288
aV2242
p289
aV3
aV5
aV2
aV-
aV1.7
p290
aV80.8
p291
aV0.7
p292
aV1
aV6.96
p293
aa(lp294
VTotal / Average
p295
aV
aV
aV201
p296
aV13872
p297
aV32
p298
aV27
p299
aV19
p300
aV0
aV1.5
p301
aV82.8
p302
aV0.7
p303
aV8
aV6.95
p304
aasS'defensive_data'
p305
(lp306
(lp307
a(lp308
V2018/2019
p309
aVLiverpool
p310
aVEPL
p311
aV2(2)
p312
aV158
p313
aV-
aV-
aV1
aV-
aV0.5
p314
aV81.9
p315
aV0.8
p316
aV-
aV6.54
p317
aa(lp318
V2018/2019
p319
aVLiverpool
p320
aVUCL
p321
aV1(1)
p322
aV101
p323
aV-
aV-
aV1
aV-
aV1.5
p324
aV75
p325
aV1.5
p326
aV-
aV6.19
p327
aa(lp328
V2017/2018
p329
aVLiverpool
p330
aVUCL
p331
aV1(1)
p332
aV150
p333
aV-
aV-
aV-
aV-
aV0.5
p334
aV80
p335
aV0.5
p336
aV-
aV6.12
p337
aa(lp338
V2017/2018
p339
aVLiverpool
p340
aVEPL
p341
aV1(11)
p342
aV235
p343
aV-
aV-
aV1
aV-
aV0.9
p344
aV85.9
p345
aV0.3
p346
aV-
aV6.22
p347
aa(lp348
V2016/2017
p349
aVLiverpool
p350
aVEPL
p351
aV27(4)
p352
aV2350
p353
aV8
aV7
aV3
aV-
aV1.6
p354
aV84.3
p355
aV0.7
p356
aV1
aV7.10
p357
aa(lp358
V2015/2016
p359
aVLiverpool
p360
aVUEL
p361
aV11(2)
p362
aV977
p363
aV3
aV1
aV1
aV-
aV1.5
p364
aV79.3
p365
aV1
aV1
aV7.04
p366
aa(lp367
V2015/2016
p368
aVLiverpool
p369
aVEPL
p370
aV23(7)
p371
aV2113
p372
aV4
aV6
aV2
aV-
aV1.5
p373
aV82.4
p374
aV0.8
p375
aV1
aV7.08
p376
aa(lp377
V2014/2015
p378
aVLiverpool
p379
aVUCL
p380
aV2(2)
p381
aV222
p382
aV-
aV-
aV-
aV-
aV1
aV83.5
p383
aV1
aV-
aV6.57
p384
aa(lp385
V2014/2015
p386
aVLiverpool
p387
aVUEL
p388
aV1(1)
p389
aV116
p390
aV-
aV-
aV-
aV-
aV1.5
p391
aV88.2
p392
aV0.5
p393
aV-
aV6.28
p394
aa(lp395
V2014/2015
p396
aVLiverpool
p397
aVEPL
p398
aV23(4)
p399
aV1792
p400
aV5
aV3
aV4
aV-
aV1.4
p401
aV82.5
p402
aV0.7
p403
aV1
aV6.93
p404
aa(lp405
V2016
p406
aVEngland
p407
aVUEC
p408
aV3
aV223
p409
aV-
aV-
aV-
aV-
aV2.3
p410
aV84.9
p411
aV1.7
p412
aV-
aV6.85
p413
aa(lp414
V2013/2014
p415
aVSouthampton
p416
aVEPL
p417
aV37(1)
p418
aV3102
p419
aV9
aV5
aV3
aV-
aV1.8
p420
aV84.6
p421
aV0.5
p422
aV3
aV7.24
p423
aa(lp424
V2014
p425
aVEngland
p426
aVWC
p427
aV1(2)
p428
aV91
p429
aV-
aV-
aV1
aV-
aV-
aV75.6
p430
aV0.7
p431
aV-
aV6.16
p432
aa(lp433
V2012/2013
p434
aVSouthampton
p435
aVEPL
p436
aV26(4)
p437
aV2242
p438
aV3
aV5
aV2
aV-
aV1.7
p439
aV80.8
p440
aV0.7
p441
aV1
aV6.96
p442
aa(lp443
VTotal / Average
p444
aV
aV
aV201
p445
aV13872
p446
aV32
p447
aV27
p448
aV19
p449
aV0
aV1.5
p450
aV82.8
p451
aV0.7
p452
aV8
aV6.95
p453
aasS'sumary_data'
p454
(lp455
(lp456
a(lp457
V2018/2019
p458
aVLiverpool
p459
aVEPL
p460
aV2(2)
p461
aV158
p462
aV-
aV-
aV1
aV-
aV0.5
p463
aV81.9
p464
aV0.8
p465
aV-
aV6.54
p466
aa(lp467
V2018/2019
p468
aVLiverpool
p469
aVUCL
p470
aV1(1)
p471
aV101
p472
aV-
aV-
aV1
aV-
aV1.5
p473
aV75
p474
aV1.5
p475
aV-
aV6.19
p476
aa(lp477
V2017/2018
p478
aVLiverpool
p479
aVUCL
p480
aV1(1)
p481
aV150
p482
aV-
aV-
aV-
aV-
aV0.5
p483
aV80
p484
aV0.5
p485
aV-
aV6.12
p486
aa(lp487
V2017/2018
p488
aVLiverpool
p489
aVEPL
p490
aV1(11)
p491
aV235
p492
aV-
aV-
aV1
aV-
aV0.9
p493
aV85.9
p494
aV0.3
p495
aV-
aV6.22
p496
aa(lp497
V2016/2017
p498
aVLiverpool
p499
aVEPL
p500
aV27(4)
p501
aV2350
p502
aV8
aV7
aV3
aV-
aV1.6
p503
aV84.3
p504
aV0.7
p505
aV1
aV7.10
p506
aa(lp507
V2015/2016
p508
aVLiverpool
p509
aVUEL
p510
aV11(2)
p511
aV977
p512
aV3
aV1
aV1
aV-
aV1.5
p513
aV79.3
p514
aV1
aV1
aV7.04
p515
aa(lp516
V2015/2016
p517
aVLiverpool
p518
aVEPL
p519
aV23(7)
p520
aV2113
p521
aV4
aV6
aV2
aV-
aV1.5
p522
aV82.4
p523
aV0.8
p524
aV1
aV7.08
p525
aa(lp526
V2014/2015
p527
aVLiverpool
p528
aVUCL
p529
aV2(2)
p530
aV222
p531
aV-
aV-
aV-
aV-
aV1
aV83.5
p532
aV1
aV-
aV6.57
p533
aa(lp534
V2014/2015
p535
aVLiverpool
p536
aVUEL
p537
aV1(1)
p538
aV116
p539
aV-
aV-
aV-
aV-
aV1.5
p540
aV88.2
p541
aV0.5
p542
aV-
aV6.28
p543
aa(lp544
V2014/2015
p545
aVLiverpool
p546
aVEPL
p547
aV23(4)
p548
aV1792
p549
aV5
aV3
aV4
aV-
aV1.4
p550
aV82.5
p551
aV0.7
p552
aV1
aV6.93
p553
aa(lp554
V2016
p555
aVEngland
p556
aVUEC
p557
aV3
aV223
p558
aV-
aV-
aV-
aV-
aV2.3
p559
aV84.9
p560
aV1.7
p561
aV-
aV6.85
p562
aa(lp563
V2013/2014
p564
aVSouthampton
p565
aVEPL
p566
aV37(1)
p567
aV3102
p568
aV9
aV5
aV3
aV-
aV1.8
p569
aV84.6
p570
aV0.5
p571
aV3
aV7.24
p572
aa(lp573
V2014
p574
aVEngland
p575
aVWC
p576
aV1(2)
p577
aV91
p578
aV-
aV-
aV1
aV-
aV-
aV75.6
p579
aV0.7
p580
aV-
aV6.16
p581
aa(lp582
V2012/2013
p583
aVSouthampton
p584
aVEPL
p585
aV26(4)
p586
aV2242
p587
aV3
aV5
aV2
aV-
aV1.7
p588
aV80.8
p589
aV0.7
p590
aV1
aV6.96
p591
aa(lp592
VTotal / Average
p593
aV
aV
aV201
p594
aV13872
p595
aV32
p596
aV27
p597
aV19
p598
aV0
aV1.5
p599
aV82.8
p600
aV0.7
p601
aV8
aV6.95
p602
aasS'id'
p603
V21683
p604
sb.