(i__main__
Player
p1
(dp2
S'name'
p3
VJan Vertonghen 
p4
sS'offensive_data'
p5
(lp6
(lp7
a(lp8
V2018/2019
p9
aVTottenham
p10
aVEPL
p11
aV9
aV761
p12
aV1
aV-
aV-
aV1
aV0.4
p13
aV87
p14
aV2
aV1
aV6.86
p15
aa(lp16
V2018/2019
p17
aVTottenham
p18
aVUCL
p19
aV3
aV270
p20
aV-
aV-
aV1
aV-
aV0.3
p21
aV88.1
p22
aV0.7
p23
aV1
aV6.48
p24
aa(lp25
V2018/2019
p26
aVBelgium
p27
aVUNL
p28
aV1
aV90
p29
aV-
aV-
aV-
aV-
aV2
aV94.6
p30
aV1
aV-
aV7.02
p31
aa(lp32
V2017/2018
p33
aVTottenham
p34
aVUCL
p35
aV6
aV540
p36
aV-
aV1
aV1
aV1
aV0.3
p37
aV86.5
p38
aV2
aV-
aV6.75
p39
aa(lp40
V2017/2018
p41
aVTottenham
p42
aVEPL
p43
aV36
p44
aV3205
p45
aV-
aV-
aV4
aV-
aV0.7
p46
aV86.3
p47
aV3.3
p48
aV3
aV7.26
p49
aa(lp50
V2016/2017
p51
aVTottenham
p52
aVUCL
p53
aV5
aV450
p54
aV-
aV-
aV-
aV-
aV0.4
p55
aV87.9
p56
aV3.8
p57
aV-
aV7.47
p58
aa(lp59
V2016/2017
p60
aVTottenham
p61
aVEPL
p62
aV33
p63
aV2897
p64
aV-
aV-
aV5
aV-
aV0.4
p65
aV85.3
p66
aV3.2
p67
aV1
aV7.28
p68
aa(lp69
V2016/2017
p70
aVTottenham
p71
aVUEL
p72
aV1
aV90
p73
aV-
aV-
aV1
aV-
aV3
aV86.7
p74
aV4
aV-
aV7.06
p75
aa(lp76
V2018
p77
aVBelgium
p78
aVWC
p79
aV6
aV540
p80
aV1
aV-
aV2
aV-
aV0.3
p81
aV87.6
p82
aV2.2
p83
aV-
aV6.88
p84
aa(lp85
V2015/2016
p86
aVTottenham
p87
aVUEL
p88
aV4
aV360
p89
aV-
aV-
aV-
aV-
aV-
aV92.3
p90
aV1.3
p91
aV-
aV7.05
p92
aa(lp93
V2015/2016
p94
aVTottenham
p95
aVEPL
p96
aV29
p97
aV2595
p98
aV-
aV-
aV5
aV-
aV0.4
p99
aV87.7
p100
aV1.9
p101
aV-
aV7.06
p102
aa(lp103
V2014/2015
p104
aVTottenham
p105
aVUEL
p106
aV6
aV525
p107
aV-
aV-
aV-
aV-
aV0.3
p108
aV92.4
p109
aV0.2
p110
aV-
aV6.97
p111
aa(lp112
V2014/2015
p113
aVTottenham
p114
aVEPL
p115
aV31(1)
p116
aV2810
p117
aV-
aV-
aV6
aV-
aV0.4
p118
aV85.1
p119
aV2.8
p120
aV-
aV7.06
p121
aa(lp122
V2016
p123
aVBelgium
p124
aVUEC
p125
aV4
aV360
p126
aV-
aV-
aV1
aV-
aV0.5
p127
aV81
p128
aV2.3
p129
aV-
aV7.24
p130
aa(lp131
V2013/2014
p132
aVTottenham
p133
aVUEL
p134
aV5(2)
p135
aV520
p136
aV1
aV-
aV3
aV-
aV0.1
p137
aV93.9
p138
aV1.6
p139
aV1
aV6.99
p140
aa(lp141
V2013/2014
p142
aVTottenham
p143
aVEPL
p144
aV23
p145
aV2004
p146
aV-
aV-
aV4
aV-
aV0.6
p147
aV82.9
p148
aV2.5
p149
aV1
aV6.93
p150
aa(lp151
V2014
p152
aVBelgium
p153
aVWC
p154
aV4(1)
p155
aV449
p156
aV1
aV-
aV1
aV-
aV2
aV81.5
p157
aV1.8
p158
aV1
aV7.44
p159
aa(lp160
V2012/2013
p161
aVTottenham
p162
aVUEL
p163
aV12
p164
aV1110
p165
aV1
aV1
aV1
aV1
aV0.5
p166
aV90.7
p167
aV2.2
p168
aV-
aV7.22
p169
aa(lp170
V2012/2013
p171
aVTottenham
p172
aVEPL
p173
aV34
p174
aV3060
p175
aV4
aV3
aV7
aV-
aV1.1
p176
aV87.1
p177
aV1.6
p178
aV5
aV7.62
p179
aa(lp180
V2011/2012
p181
aVAjax
p182
aVUCL
p183
aV6
aV540
p184
aV-
aV-
aV1
aV-
aV2.3
p185
aV92
p186
aV0.8
p187
aV-
aV7.57
p188
aa(lp189
V2010/2011
p190
aVAjax
p191
aVUCL
p192
aV5
aV450
p193
aV-
aV-
aV1
aV-
aV0.8
p194
aV83.6
p195
aV1.4
p196
aV-
aV7.26
p197
aa(lp198
VTotal / Average
p199
aV
aV
aV267
p200
aV23626
p201
aV9
aV5
aV44
p202
aV3
aV0.6
p203
aV86.7
p204
aV2.3
p205
aV14
p206
aV7.18
p207
aasS'url'
p208
S'https://www.whoscored.com/Players/21778/History/'
p209
sS'passing_data'
p210
(lp211
(lp212
a(lp213
V2018/2019
p214
aVTottenham
p215
aVEPL
p216
aV9
aV761
p217
aV1
aV-
aV-
aV1
aV0.4
p218
aV87
p219
aV2
aV1
aV6.86
p220
aa(lp221
V2018/2019
p222
aVTottenham
p223
aVUCL
p224
aV3
aV270
p225
aV-
aV-
aV1
aV-
aV0.3
p226
aV88.1
p227
aV0.7
p228
aV1
aV6.48
p229
aa(lp230
V2018/2019
p231
aVBelgium
p232
aVUNL
p233
aV1
aV90
p234
aV-
aV-
aV-
aV-
aV2
aV94.6
p235
aV1
aV-
aV7.02
p236
aa(lp237
V2017/2018
p238
aVTottenham
p239
aVUCL
p240
aV6
aV540
p241
aV-
aV1
aV1
aV1
aV0.3
p242
aV86.5
p243
aV2
aV-
aV6.75
p244
aa(lp245
V2017/2018
p246
aVTottenham
p247
aVEPL
p248
aV36
p249
aV3205
p250
aV-
aV-
aV4
aV-
aV0.7
p251
aV86.3
p252
aV3.3
p253
aV3
aV7.26
p254
aa(lp255
V2016/2017
p256
aVTottenham
p257
aVUCL
p258
aV5
aV450
p259
aV-
aV-
aV-
aV-
aV0.4
p260
aV87.9
p261
aV3.8
p262
aV-
aV7.47
p263
aa(lp264
V2016/2017
p265
aVTottenham
p266
aVEPL
p267
aV33
p268
aV2897
p269
aV-
aV-
aV5
aV-
aV0.4
p270
aV85.3
p271
aV3.2
p272
aV1
aV7.28
p273
aa(lp274
V2016/2017
p275
aVTottenham
p276
aVUEL
p277
aV1
aV90
p278
aV-
aV-
aV1
aV-
aV3
aV86.7
p279
aV4
aV-
aV7.06
p280
aa(lp281
V2018
p282
aVBelgium
p283
aVWC
p284
aV6
aV540
p285
aV1
aV-
aV2
aV-
aV0.3
p286
aV87.6
p287
aV2.2
p288
aV-
aV6.88
p289
aa(lp290
V2015/2016
p291
aVTottenham
p292
aVUEL
p293
aV4
aV360
p294
aV-
aV-
aV-
aV-
aV-
aV92.3
p295
aV1.3
p296
aV-
aV7.05
p297
aa(lp298
V2015/2016
p299
aVTottenham
p300
aVEPL
p301
aV29
p302
aV2595
p303
aV-
aV-
aV5
aV-
aV0.4
p304
aV87.7
p305
aV1.9
p306
aV-
aV7.06
p307
aa(lp308
V2014/2015
p309
aVTottenham
p310
aVUEL
p311
aV6
aV525
p312
aV-
aV-
aV-
aV-
aV0.3
p313
aV92.4
p314
aV0.2
p315
aV-
aV6.97
p316
aa(lp317
V2014/2015
p318
aVTottenham
p319
aVEPL
p320
aV31(1)
p321
aV2810
p322
aV-
aV-
aV6
aV-
aV0.4
p323
aV85.1
p324
aV2.8
p325
aV-
aV7.06
p326
aa(lp327
V2016
p328
aVBelgium
p329
aVUEC
p330
aV4
aV360
p331
aV-
aV-
aV1
aV-
aV0.5
p332
aV81
p333
aV2.3
p334
aV-
aV7.24
p335
aa(lp336
V2013/2014
p337
aVTottenham
p338
aVUEL
p339
aV5(2)
p340
aV520
p341
aV1
aV-
aV3
aV-
aV0.1
p342
aV93.9
p343
aV1.6
p344
aV1
aV6.99
p345
aa(lp346
V2013/2014
p347
aVTottenham
p348
aVEPL
p349
aV23
p350
aV2004
p351
aV-
aV-
aV4
aV-
aV0.6
p352
aV82.9
p353
aV2.5
p354
aV1
aV6.93
p355
aa(lp356
V2014
p357
aVBelgium
p358
aVWC
p359
aV4(1)
p360
aV449
p361
aV1
aV-
aV1
aV-
aV2
aV81.5
p362
aV1.8
p363
aV1
aV7.44
p364
aa(lp365
V2012/2013
p366
aVTottenham
p367
aVUEL
p368
aV12
p369
aV1110
p370
aV1
aV1
aV1
aV1
aV0.5
p371
aV90.7
p372
aV2.2
p373
aV-
aV7.22
p374
aa(lp375
V2012/2013
p376
aVTottenham
p377
aVEPL
p378
aV34
p379
aV3060
p380
aV4
aV3
aV7
aV-
aV1.1
p381
aV87.1
p382
aV1.6
p383
aV5
aV7.62
p384
aa(lp385
V2011/2012
p386
aVAjax
p387
aVUCL
p388
aV6
aV540
p389
aV-
aV-
aV1
aV-
aV2.3
p390
aV92
p391
aV0.8
p392
aV-
aV7.57
p393
aa(lp394
V2010/2011
p395
aVAjax
p396
aVUCL
p397
aV5
aV450
p398
aV-
aV-
aV1
aV-
aV0.8
p399
aV83.6
p400
aV1.4
p401
aV-
aV7.26
p402
aa(lp403
VTotal / Average
p404
aV
aV
aV267
p405
aV23626
p406
aV9
aV5
aV44
p407
aV3
aV0.6
p408
aV86.7
p409
aV2.3
p410
aV14
p411
aV7.18
p412
aasS'defensive_data'
p413
(lp414
(lp415
a(lp416
V2018/2019
p417
aVTottenham
p418
aVEPL
p419
aV9
aV761
p420
aV1
aV-
aV-
aV1
aV0.4
p421
aV87
p422
aV2
aV1
aV6.86
p423
aa(lp424
V2018/2019
p425
aVTottenham
p426
aVUCL
p427
aV3
aV270
p428
aV-
aV-
aV1
aV-
aV0.3
p429
aV88.1
p430
aV0.7
p431
aV1
aV6.48
p432
aa(lp433
V2018/2019
p434
aVBelgium
p435
aVUNL
p436
aV1
aV90
p437
aV-
aV-
aV-
aV-
aV2
aV94.6
p438
aV1
aV-
aV7.02
p439
aa(lp440
V2017/2018
p441
aVTottenham
p442
aVUCL
p443
aV6
aV540
p444
aV-
aV1
aV1
aV1
aV0.3
p445
aV86.5
p446
aV2
aV-
aV6.75
p447
aa(lp448
V2017/2018
p449
aVTottenham
p450
aVEPL
p451
aV36
p452
aV3205
p453
aV-
aV-
aV4
aV-
aV0.7
p454
aV86.3
p455
aV3.3
p456
aV3
aV7.26
p457
aa(lp458
V2016/2017
p459
aVTottenham
p460
aVUCL
p461
aV5
aV450
p462
aV-
aV-
aV-
aV-
aV0.4
p463
aV87.9
p464
aV3.8
p465
aV-
aV7.47
p466
aa(lp467
V2016/2017
p468
aVTottenham
p469
aVEPL
p470
aV33
p471
aV2897
p472
aV-
aV-
aV5
aV-
aV0.4
p473
aV85.3
p474
aV3.2
p475
aV1
aV7.28
p476
aa(lp477
V2016/2017
p478
aVTottenham
p479
aVUEL
p480
aV1
aV90
p481
aV-
aV-
aV1
aV-
aV3
aV86.7
p482
aV4
aV-
aV7.06
p483
aa(lp484
V2018
p485
aVBelgium
p486
aVWC
p487
aV6
aV540
p488
aV1
aV-
aV2
aV-
aV0.3
p489
aV87.6
p490
aV2.2
p491
aV-
aV6.88
p492
aa(lp493
V2015/2016
p494
aVTottenham
p495
aVUEL
p496
aV4
aV360
p497
aV-
aV-
aV-
aV-
aV-
aV92.3
p498
aV1.3
p499
aV-
aV7.05
p500
aa(lp501
V2015/2016
p502
aVTottenham
p503
aVEPL
p504
aV29
p505
aV2595
p506
aV-
aV-
aV5
aV-
aV0.4
p507
aV87.7
p508
aV1.9
p509
aV-
aV7.06
p510
aa(lp511
V2014/2015
p512
aVTottenham
p513
aVUEL
p514
aV6
aV525
p515
aV-
aV-
aV-
aV-
aV0.3
p516
aV92.4
p517
aV0.2
p518
aV-
aV6.97
p519
aa(lp520
V2014/2015
p521
aVTottenham
p522
aVEPL
p523
aV31(1)
p524
aV2810
p525
aV-
aV-
aV6
aV-
aV0.4
p526
aV85.1
p527
aV2.8
p528
aV-
aV7.06
p529
aa(lp530
V2016
p531
aVBelgium
p532
aVUEC
p533
aV4
aV360
p534
aV-
aV-
aV1
aV-
aV0.5
p535
aV81
p536
aV2.3
p537
aV-
aV7.24
p538
aa(lp539
V2013/2014
p540
aVTottenham
p541
aVUEL
p542
aV5(2)
p543
aV520
p544
aV1
aV-
aV3
aV-
aV0.1
p545
aV93.9
p546
aV1.6
p547
aV1
aV6.99
p548
aa(lp549
V2013/2014
p550
aVTottenham
p551
aVEPL
p552
aV23
p553
aV2004
p554
aV-
aV-
aV4
aV-
aV0.6
p555
aV82.9
p556
aV2.5
p557
aV1
aV6.93
p558
aa(lp559
V2014
p560
aVBelgium
p561
aVWC
p562
aV4(1)
p563
aV449
p564
aV1
aV-
aV1
aV-
aV2
aV81.5
p565
aV1.8
p566
aV1
aV7.44
p567
aa(lp568
V2012/2013
p569
aVTottenham
p570
aVUEL
p571
aV12
p572
aV1110
p573
aV1
aV1
aV1
aV1
aV0.5
p574
aV90.7
p575
aV2.2
p576
aV-
aV7.22
p577
aa(lp578
V2012/2013
p579
aVTottenham
p580
aVEPL
p581
aV34
p582
aV3060
p583
aV4
aV3
aV7
aV-
aV1.1
p584
aV87.1
p585
aV1.6
p586
aV5
aV7.62
p587
aa(lp588
V2011/2012
p589
aVAjax
p590
aVUCL
p591
aV6
aV540
p592
aV-
aV-
aV1
aV-
aV2.3
p593
aV92
p594
aV0.8
p595
aV-
aV7.57
p596
aa(lp597
V2010/2011
p598
aVAjax
p599
aVUCL
p600
aV5
aV450
p601
aV-
aV-
aV1
aV-
aV0.8
p602
aV83.6
p603
aV1.4
p604
aV-
aV7.26
p605
aa(lp606
VTotal / Average
p607
aV
aV
aV267
p608
aV23626
p609
aV9
aV5
aV44
p610
aV3
aV0.6
p611
aV86.7
p612
aV2.3
p613
aV14
p614
aV7.18
p615
aasS'sumary_data'
p616
(lp617
(lp618
a(lp619
V2018/2019
p620
aVTottenham
p621
aVEPL
p622
aV9
aV761
p623
aV1
aV-
aV-
aV1
aV0.4
p624
aV87
p625
aV2
aV1
aV6.86
p626
aa(lp627
V2018/2019
p628
aVTottenham
p629
aVUCL
p630
aV3
aV270
p631
aV-
aV-
aV1
aV-
aV0.3
p632
aV88.1
p633
aV0.7
p634
aV1
aV6.48
p635
aa(lp636
V2018/2019
p637
aVBelgium
p638
aVUNL
p639
aV1
aV90
p640
aV-
aV-
aV-
aV-
aV2
aV94.6
p641
aV1
aV-
aV7.02
p642
aa(lp643
V2017/2018
p644
aVTottenham
p645
aVUCL
p646
aV6
aV540
p647
aV-
aV1
aV1
aV1
aV0.3
p648
aV86.5
p649
aV2
aV-
aV6.75
p650
aa(lp651
V2017/2018
p652
aVTottenham
p653
aVEPL
p654
aV36
p655
aV3205
p656
aV-
aV-
aV4
aV-
aV0.7
p657
aV86.3
p658
aV3.3
p659
aV3
aV7.26
p660
aa(lp661
V2016/2017
p662
aVTottenham
p663
aVUCL
p664
aV5
aV450
p665
aV-
aV-
aV-
aV-
aV0.4
p666
aV87.9
p667
aV3.8
p668
aV-
aV7.47
p669
aa(lp670
V2016/2017
p671
aVTottenham
p672
aVEPL
p673
aV33
p674
aV2897
p675
aV-
aV-
aV5
aV-
aV0.4
p676
aV85.3
p677
aV3.2
p678
aV1
aV7.28
p679
aa(lp680
V2016/2017
p681
aVTottenham
p682
aVUEL
p683
aV1
aV90
p684
aV-
aV-
aV1
aV-
aV3
aV86.7
p685
aV4
aV-
aV7.06
p686
aa(lp687
V2018
p688
aVBelgium
p689
aVWC
p690
aV6
aV540
p691
aV1
aV-
aV2
aV-
aV0.3
p692
aV87.6
p693
aV2.2
p694
aV-
aV6.88
p695
aa(lp696
V2015/2016
p697
aVTottenham
p698
aVUEL
p699
aV4
aV360
p700
aV-
aV-
aV-
aV-
aV-
aV92.3
p701
aV1.3
p702
aV-
aV7.05
p703
aa(lp704
V2015/2016
p705
aVTottenham
p706
aVEPL
p707
aV29
p708
aV2595
p709
aV-
aV-
aV5
aV-
aV0.4
p710
aV87.7
p711
aV1.9
p712
aV-
aV7.06
p713
aa(lp714
V2014/2015
p715
aVTottenham
p716
aVUEL
p717
aV6
aV525
p718
aV-
aV-
aV-
aV-
aV0.3
p719
aV92.4
p720
aV0.2
p721
aV-
aV6.97
p722
aa(lp723
V2014/2015
p724
aVTottenham
p725
aVEPL
p726
aV31(1)
p727
aV2810
p728
aV-
aV-
aV6
aV-
aV0.4
p729
aV85.1
p730
aV2.8
p731
aV-
aV7.06
p732
aa(lp733
V2016
p734
aVBelgium
p735
aVUEC
p736
aV4
aV360
p737
aV-
aV-
aV1
aV-
aV0.5
p738
aV81
p739
aV2.3
p740
aV-
aV7.24
p741
aa(lp742
V2013/2014
p743
aVTottenham
p744
aVUEL
p745
aV5(2)
p746
aV520
p747
aV1
aV-
aV3
aV-
aV0.1
p748
aV93.9
p749
aV1.6
p750
aV1
aV6.99
p751
aa(lp752
V2013/2014
p753
aVTottenham
p754
aVEPL
p755
aV23
p756
aV2004
p757
aV-
aV-
aV4
aV-
aV0.6
p758
aV82.9
p759
aV2.5
p760
aV1
aV6.93
p761
aa(lp762
V2014
p763
aVBelgium
p764
aVWC
p765
aV4(1)
p766
aV449
p767
aV1
aV-
aV1
aV-
aV2
aV81.5
p768
aV1.8
p769
aV1
aV7.44
p770
aa(lp771
V2012/2013
p772
aVTottenham
p773
aVUEL
p774
aV12
p775
aV1110
p776
aV1
aV1
aV1
aV1
aV0.5
p777
aV90.7
p778
aV2.2
p779
aV-
aV7.22
p780
aa(lp781
V2012/2013
p782
aVTottenham
p783
aVEPL
p784
aV34
p785
aV3060
p786
aV4
aV3
aV7
aV-
aV1.1
p787
aV87.1
p788
aV1.6
p789
aV5
aV7.62
p790
aa(lp791
V2011/2012
p792
aVAjax
p793
aVUCL
p794
aV6
aV540
p795
aV-
aV-
aV1
aV-
aV2.3
p796
aV92
p797
aV0.8
p798
aV-
aV7.57
p799
aa(lp800
V2010/2011
p801
aVAjax
p802
aVUCL
p803
aV5
aV450
p804
aV-
aV-
aV1
aV-
aV0.8
p805
aV83.6
p806
aV1.4
p807
aV-
aV7.26
p808
aa(lp809
VTotal / Average
p810
aV
aV
aV267
p811
aV23626
p812
aV9
aV5
aV44
p813
aV3
aV0.6
p814
aV86.7
p815
aV2.3
p816
aV14
p817
aV7.18
p818
aasS'id'
p819
V21778
p820
sb.