(i__main__
Player
p1
(dp2
S'name'
p3
VJonny Evans 
p4
sS'offensive_data'
p5
(lp6
(lp7
a(lp8
V2018/2019
p9
aVLeicester
p10
aVEPL
p11
aV7(2)
p12
aV693
p13
aV-
aV-
aV1
aV-
aV0.6
p14
aV83.5
p15
aV2
aV-
aV6.74
p16
aa(lp17
V2018/2019
p18
aVN.Ireland
p19
aVUNL
p20
aV4
aV360
p21
aV-
aV-
aV-
aV-
aV0.5
p22
aV76
p23
aV3
aV-
aV6.55
p24
aa(lp25
V2017/2018
p26
aVWest Bromwich..
p27
aVEPL
p28
aV26(2)
p29
aV2273
p30
aV2
aV2
aV7
aV-
aV0.4
p31
aV80
p32
aV1.9
p33
aV1
aV6.76
p34
aa(lp35
V2016/2017
p36
aVWest Bromwich..
p37
aVEPL
p38
aV30(1)
p39
aV2638
p40
aV2
aV1
aV8
aV-
aV0.3
p41
aV80.3
p42
aV1.5
p43
aV1
aV6.97
p44
aa(lp45
V2015/2016
p46
aVWest Bromwich..
p47
aVEPL
p48
aV30
p49
aV2593
p50
aV1
aV1
aV4
aV-
aV0.2
p51
aV75.1
p52
aV1.8
p53
aV1
aV7.20
p54
aa(lp55
V2014/2015
p56
aVManchester Un..
p57
aVEPL
p58
aV12(2)
p59
aV1091
p60
aV-
aV-
aV1
aV-
aV0.1
p61
aV85.1
p62
aV1.7
p63
aV-
aV7.13
p64
aa(lp65
V2016
p66
aVN.Ireland
p67
aVUEC
p68
aV4
aV360
p69
aV-
aV-
aV1
aV-
aV0.3
p70
aV70.4
p71
aV2.5
p72
aV-
aV7.19
p73
aa(lp74
V2013/2014
p75
aVManchester Un..
p76
aVUCL
p77
aV3
aV270
p78
aV1
aV-
aV-
aV-
aV0.7
p79
aV88
p80
aV2.7
p81
aV-
aV8.19
p82
aa(lp83
V2013/2014
p84
aVManchester Un..
p85
aVEPL
p86
aV17
p87
aV1378
p88
aV-
aV-
aV-
aV-
aV0.4
p89
aV87.3
p90
aV2.1
p91
aV-
aV6.95
p92
aa(lp93
V2012/2013
p94
aVManchester Un..
p95
aVUCL
p96
aV5
aV406
p97
aV1
aV-
aV-
aV-
aV0.6
p98
aV91.2
p99
aV3.2
p100
aV-
aV7.18
p101
aa(lp102
V2012/2013
p103
aVManchester Un..
p104
aVEPL
p105
aV21(2)
p106
aV1903
p107
aV3
aV1
aV2
aV-
aV0.4
p108
aV89.3
p109
aV2.3
p110
aV1
aV7.24
p111
aa(lp112
V2011/2012
p113
aVManchester Un..
p114
aVUCL
p115
aV2(2)
p116
aV244
p117
aV-
aV-
aV1
aV-
aV0.3
p118
aV94.1
p119
aV0.5
p120
aV-
aV6.86
p121
aa(lp122
V2011/2012
p123
aVManchester Un..
p124
aVEPL
p125
aV28(1)
p126
aV2428
p127
aV1
aV3
aV6
aV1
aV0.5
p128
aV90.1
p129
aV1.6
p130
aV1
aV7.21
p131
aa(lp132
V2010/2011
p133
aVManchester Un..
p134
aVUCL
p135
aV2(1)
p136
aV194
p137
aV-
aV-
aV-
aV-
aV-
aV80.2
p138
aV2.3
p139
aV-
aV7.08
p140
aa(lp141
V2010/2011
p142
aVManchester Un..
p143
aVEPL
p144
aV11(2)
p145
aV1006
p146
aV-
aV-
aV2
aV1
aV0.2
p147
aV84.2
p148
aV1.8
p149
aV-
aV6.90
p150
aa(lp151
V2009/2010
p152
aVManchester Un..
p153
aVUCL
p154
aV3
aV270
p155
aV-
aV-
aV-
aV-
aV-
aV91
p156
aV0.3
p157
aV-
aV7.19
p158
aa(lp159
V2009/2010
p160
aVManchester Un..
p161
aVEPL
p162
aV18
p163
aV1587
p164
aV-
aV-
aV2
aV-
aV0.4
p165
aV80.8
p166
aV2.7
p167
aV1
aV7.37
p168
aa(lp169
VTotal / Average
p170
aV
aV
aV238
p171
aV19694
p172
aV11
p173
aV8
aV35
p174
aV2
aV0.4
p175
aV83.3
p176
aV1.9
p177
aV6
aV7.07
p178
aasS'url'
p179
S'https://www.whoscored.com/Players/22079/History/'
p180
sS'passing_data'
p181
(lp182
(lp183
a(lp184
V2018/2019
p185
aVLeicester
p186
aVEPL
p187
aV7(2)
p188
aV693
p189
aV-
aV-
aV1
aV-
aV0.6
p190
aV83.5
p191
aV2
aV-
aV6.74
p192
aa(lp193
V2018/2019
p194
aVN.Ireland
p195
aVUNL
p196
aV4
aV360
p197
aV-
aV-
aV-
aV-
aV0.5
p198
aV76
p199
aV3
aV-
aV6.55
p200
aa(lp201
V2017/2018
p202
aVWest Bromwich..
p203
aVEPL
p204
aV26(2)
p205
aV2273
p206
aV2
aV2
aV7
aV-
aV0.4
p207
aV80
p208
aV1.9
p209
aV1
aV6.76
p210
aa(lp211
V2016/2017
p212
aVWest Bromwich..
p213
aVEPL
p214
aV30(1)
p215
aV2638
p216
aV2
aV1
aV8
aV-
aV0.3
p217
aV80.3
p218
aV1.5
p219
aV1
aV6.97
p220
aa(lp221
V2015/2016
p222
aVWest Bromwich..
p223
aVEPL
p224
aV30
p225
aV2593
p226
aV1
aV1
aV4
aV-
aV0.2
p227
aV75.1
p228
aV1.8
p229
aV1
aV7.20
p230
aa(lp231
V2014/2015
p232
aVManchester Un..
p233
aVEPL
p234
aV12(2)
p235
aV1091
p236
aV-
aV-
aV1
aV-
aV0.1
p237
aV85.1
p238
aV1.7
p239
aV-
aV7.13
p240
aa(lp241
V2016
p242
aVN.Ireland
p243
aVUEC
p244
aV4
aV360
p245
aV-
aV-
aV1
aV-
aV0.3
p246
aV70.4
p247
aV2.5
p248
aV-
aV7.19
p249
aa(lp250
V2013/2014
p251
aVManchester Un..
p252
aVUCL
p253
aV3
aV270
p254
aV1
aV-
aV-
aV-
aV0.7
p255
aV88
p256
aV2.7
p257
aV-
aV8.19
p258
aa(lp259
V2013/2014
p260
aVManchester Un..
p261
aVEPL
p262
aV17
p263
aV1378
p264
aV-
aV-
aV-
aV-
aV0.4
p265
aV87.3
p266
aV2.1
p267
aV-
aV6.95
p268
aa(lp269
V2012/2013
p270
aVManchester Un..
p271
aVUCL
p272
aV5
aV406
p273
aV1
aV-
aV-
aV-
aV0.6
p274
aV91.2
p275
aV3.2
p276
aV-
aV7.18
p277
aa(lp278
V2012/2013
p279
aVManchester Un..
p280
aVEPL
p281
aV21(2)
p282
aV1903
p283
aV3
aV1
aV2
aV-
aV0.4
p284
aV89.3
p285
aV2.3
p286
aV1
aV7.24
p287
aa(lp288
V2011/2012
p289
aVManchester Un..
p290
aVUCL
p291
aV2(2)
p292
aV244
p293
aV-
aV-
aV1
aV-
aV0.3
p294
aV94.1
p295
aV0.5
p296
aV-
aV6.86
p297
aa(lp298
V2011/2012
p299
aVManchester Un..
p300
aVEPL
p301
aV28(1)
p302
aV2428
p303
aV1
aV3
aV6
aV1
aV0.5
p304
aV90.1
p305
aV1.6
p306
aV1
aV7.21
p307
aa(lp308
V2010/2011
p309
aVManchester Un..
p310
aVUCL
p311
aV2(1)
p312
aV194
p313
aV-
aV-
aV-
aV-
aV-
aV80.2
p314
aV2.3
p315
aV-
aV7.08
p316
aa(lp317
V2010/2011
p318
aVManchester Un..
p319
aVEPL
p320
aV11(2)
p321
aV1006
p322
aV-
aV-
aV2
aV1
aV0.2
p323
aV84.2
p324
aV1.8
p325
aV-
aV6.90
p326
aa(lp327
V2009/2010
p328
aVManchester Un..
p329
aVUCL
p330
aV3
aV270
p331
aV-
aV-
aV-
aV-
aV-
aV91
p332
aV0.3
p333
aV-
aV7.19
p334
aa(lp335
V2009/2010
p336
aVManchester Un..
p337
aVEPL
p338
aV18
p339
aV1587
p340
aV-
aV-
aV2
aV-
aV0.4
p341
aV80.8
p342
aV2.7
p343
aV1
aV7.37
p344
aa(lp345
VTotal / Average
p346
aV
aV
aV238
p347
aV19694
p348
aV11
p349
aV8
aV35
p350
aV2
aV0.4
p351
aV83.3
p352
aV1.9
p353
aV6
aV7.07
p354
aasS'defensive_data'
p355
(lp356
(lp357
a(lp358
V2018/2019
p359
aVLeicester
p360
aVEPL
p361
aV7(2)
p362
aV693
p363
aV-
aV-
aV1
aV-
aV0.6
p364
aV83.5
p365
aV2
aV-
aV6.74
p366
aa(lp367
V2018/2019
p368
aVN.Ireland
p369
aVUNL
p370
aV4
aV360
p371
aV-
aV-
aV-
aV-
aV0.5
p372
aV76
p373
aV3
aV-
aV6.55
p374
aa(lp375
V2017/2018
p376
aVWest Bromwich..
p377
aVEPL
p378
aV26(2)
p379
aV2273
p380
aV2
aV2
aV7
aV-
aV0.4
p381
aV80
p382
aV1.9
p383
aV1
aV6.76
p384
aa(lp385
V2016/2017
p386
aVWest Bromwich..
p387
aVEPL
p388
aV30(1)
p389
aV2638
p390
aV2
aV1
aV8
aV-
aV0.3
p391
aV80.3
p392
aV1.5
p393
aV1
aV6.97
p394
aa(lp395
V2015/2016
p396
aVWest Bromwich..
p397
aVEPL
p398
aV30
p399
aV2593
p400
aV1
aV1
aV4
aV-
aV0.2
p401
aV75.1
p402
aV1.8
p403
aV1
aV7.20
p404
aa(lp405
V2014/2015
p406
aVManchester Un..
p407
aVEPL
p408
aV12(2)
p409
aV1091
p410
aV-
aV-
aV1
aV-
aV0.1
p411
aV85.1
p412
aV1.7
p413
aV-
aV7.13
p414
aa(lp415
V2016
p416
aVN.Ireland
p417
aVUEC
p418
aV4
aV360
p419
aV-
aV-
aV1
aV-
aV0.3
p420
aV70.4
p421
aV2.5
p422
aV-
aV7.19
p423
aa(lp424
V2013/2014
p425
aVManchester Un..
p426
aVUCL
p427
aV3
aV270
p428
aV1
aV-
aV-
aV-
aV0.7
p429
aV88
p430
aV2.7
p431
aV-
aV8.19
p432
aa(lp433
V2013/2014
p434
aVManchester Un..
p435
aVEPL
p436
aV17
p437
aV1378
p438
aV-
aV-
aV-
aV-
aV0.4
p439
aV87.3
p440
aV2.1
p441
aV-
aV6.95
p442
aa(lp443
V2012/2013
p444
aVManchester Un..
p445
aVUCL
p446
aV5
aV406
p447
aV1
aV-
aV-
aV-
aV0.6
p448
aV91.2
p449
aV3.2
p450
aV-
aV7.18
p451
aa(lp452
V2012/2013
p453
aVManchester Un..
p454
aVEPL
p455
aV21(2)
p456
aV1903
p457
aV3
aV1
aV2
aV-
aV0.4
p458
aV89.3
p459
aV2.3
p460
aV1
aV7.24
p461
aa(lp462
V2011/2012
p463
aVManchester Un..
p464
aVUCL
p465
aV2(2)
p466
aV244
p467
aV-
aV-
aV1
aV-
aV0.3
p468
aV94.1
p469
aV0.5
p470
aV-
aV6.86
p471
aa(lp472
V2011/2012
p473
aVManchester Un..
p474
aVEPL
p475
aV28(1)
p476
aV2428
p477
aV1
aV3
aV6
aV1
aV0.5
p478
aV90.1
p479
aV1.6
p480
aV1
aV7.21
p481
aa(lp482
V2010/2011
p483
aVManchester Un..
p484
aVUCL
p485
aV2(1)
p486
aV194
p487
aV-
aV-
aV-
aV-
aV-
aV80.2
p488
aV2.3
p489
aV-
aV7.08
p490
aa(lp491
V2010/2011
p492
aVManchester Un..
p493
aVEPL
p494
aV11(2)
p495
aV1006
p496
aV-
aV-
aV2
aV1
aV0.2
p497
aV84.2
p498
aV1.8
p499
aV-
aV6.90
p500
aa(lp501
V2009/2010
p502
aVManchester Un..
p503
aVUCL
p504
aV3
aV270
p505
aV-
aV-
aV-
aV-
aV-
aV91
p506
aV0.3
p507
aV-
aV7.19
p508
aa(lp509
V2009/2010
p510
aVManchester Un..
p511
aVEPL
p512
aV18
p513
aV1587
p514
aV-
aV-
aV2
aV-
aV0.4
p515
aV80.8
p516
aV2.7
p517
aV1
aV7.37
p518
aa(lp519
VTotal / Average
p520
aV
aV
aV238
p521
aV19694
p522
aV11
p523
aV8
aV35
p524
aV2
aV0.4
p525
aV83.3
p526
aV1.9
p527
aV6
aV7.07
p528
aasS'sumary_data'
p529
(lp530
(lp531
a(lp532
V2018/2019
p533
aVLeicester
p534
aVEPL
p535
aV7(2)
p536
aV693
p537
aV-
aV-
aV1
aV-
aV0.6
p538
aV83.5
p539
aV2
aV-
aV6.74
p540
aa(lp541
V2018/2019
p542
aVN.Ireland
p543
aVUNL
p544
aV4
aV360
p545
aV-
aV-
aV-
aV-
aV0.5
p546
aV76
p547
aV3
aV-
aV6.55
p548
aa(lp549
V2017/2018
p550
aVWest Bromwich..
p551
aVEPL
p552
aV26(2)
p553
aV2273
p554
aV2
aV2
aV7
aV-
aV0.4
p555
aV80
p556
aV1.9
p557
aV1
aV6.76
p558
aa(lp559
V2016/2017
p560
aVWest Bromwich..
p561
aVEPL
p562
aV30(1)
p563
aV2638
p564
aV2
aV1
aV8
aV-
aV0.3
p565
aV80.3
p566
aV1.5
p567
aV1
aV6.97
p568
aa(lp569
V2015/2016
p570
aVWest Bromwich..
p571
aVEPL
p572
aV30
p573
aV2593
p574
aV1
aV1
aV4
aV-
aV0.2
p575
aV75.1
p576
aV1.8
p577
aV1
aV7.20
p578
aa(lp579
V2014/2015
p580
aVManchester Un..
p581
aVEPL
p582
aV12(2)
p583
aV1091
p584
aV-
aV-
aV1
aV-
aV0.1
p585
aV85.1
p586
aV1.7
p587
aV-
aV7.13
p588
aa(lp589
V2016
p590
aVN.Ireland
p591
aVUEC
p592
aV4
aV360
p593
aV-
aV-
aV1
aV-
aV0.3
p594
aV70.4
p595
aV2.5
p596
aV-
aV7.19
p597
aa(lp598
V2013/2014
p599
aVManchester Un..
p600
aVUCL
p601
aV3
aV270
p602
aV1
aV-
aV-
aV-
aV0.7
p603
aV88
p604
aV2.7
p605
aV-
aV8.19
p606
aa(lp607
V2013/2014
p608
aVManchester Un..
p609
aVEPL
p610
aV17
p611
aV1378
p612
aV-
aV-
aV-
aV-
aV0.4
p613
aV87.3
p614
aV2.1
p615
aV-
aV6.95
p616
aa(lp617
V2012/2013
p618
aVManchester Un..
p619
aVUCL
p620
aV5
aV406
p621
aV1
aV-
aV-
aV-
aV0.6
p622
aV91.2
p623
aV3.2
p624
aV-
aV7.18
p625
aa(lp626
V2012/2013
p627
aVManchester Un..
p628
aVEPL
p629
aV21(2)
p630
aV1903
p631
aV3
aV1
aV2
aV-
aV0.4
p632
aV89.3
p633
aV2.3
p634
aV1
aV7.24
p635
aa(lp636
V2011/2012
p637
aVManchester Un..
p638
aVUCL
p639
aV2(2)
p640
aV244
p641
aV-
aV-
aV1
aV-
aV0.3
p642
aV94.1
p643
aV0.5
p644
aV-
aV6.86
p645
aa(lp646
V2011/2012
p647
aVManchester Un..
p648
aVEPL
p649
aV28(1)
p650
aV2428
p651
aV1
aV3
aV6
aV1
aV0.5
p652
aV90.1
p653
aV1.6
p654
aV1
aV7.21
p655
aa(lp656
V2010/2011
p657
aVManchester Un..
p658
aVUCL
p659
aV2(1)
p660
aV194
p661
aV-
aV-
aV-
aV-
aV-
aV80.2
p662
aV2.3
p663
aV-
aV7.08
p664
aa(lp665
V2010/2011
p666
aVManchester Un..
p667
aVEPL
p668
aV11(2)
p669
aV1006
p670
aV-
aV-
aV2
aV1
aV0.2
p671
aV84.2
p672
aV1.8
p673
aV-
aV6.90
p674
aa(lp675
V2009/2010
p676
aVManchester Un..
p677
aVUCL
p678
aV3
aV270
p679
aV-
aV-
aV-
aV-
aV-
aV91
p680
aV0.3
p681
aV-
aV7.19
p682
aa(lp683
V2009/2010
p684
aVManchester Un..
p685
aVEPL
p686
aV18
p687
aV1587
p688
aV-
aV-
aV2
aV-
aV0.4
p689
aV80.8
p690
aV2.7
p691
aV1
aV7.37
p692
aa(lp693
VTotal / Average
p694
aV
aV
aV238
p695
aV19694
p696
aV11
p697
aV8
aV35
p698
aV2
aV0.4
p699
aV83.3
p700
aV1.9
p701
aV6
aV7.07
p702
aasS'id'
p703
V22079
p704
sb.