(i__main__
Player
p1
(dp2
S'name'
p3
VSokratis 
p4
sS'offensive_data'
p5
(lp6
(lp7
a(lp8
V2018/2019
p9
aVArsenal
p10
aVEPL
p11
aV10
p12
aV849
p13
aV-
aV-
aV5
aV-
aV0.3
p14
aV89.2
p15
aV1.6
p16
aV-
aV6.60
p17
aa(lp18
V2018/2019
p19
aVArsenal
p20
aVUEL
p21
aV5
aV450
p22
aV1
aV-
aV-
aV-
aV0.8
p23
aV94.7
p24
aV1.6
p25
aV2
aV7.30
p26
aa(lp27
V2018/2019
p28
aVGreece
p29
aVUNL
p30
aV6
aV496
p31
aV-
aV-
aV2
aV-
aV0.7
p32
aV89.2
p33
aV2.5
p34
aV-
aV6.92
p35
aa(lp36
V2017/2018
p37
aVBorussia Dort..
p38
aVGB
p39
aV28(2)
p40
aV2376
p41
aV2
aV-
aV5
aV1
aV0.5
p42
aV86.9
p43
aV2.8
p44
aV2
aV6.92
p45
aa(lp46
V2017/2018
p47
aVBorussia Dort..
p48
aVUEL
p49
aV4
aV360
p50
aV-
aV-
aV2
aV-
aV1
aV81.8
p51
aV3.3
p52
aV-
aV7.07
p53
aa(lp54
V2017/2018
p55
aVBorussia Dort..
p56
aVUCL
p57
aV5
aV450
p58
aV1
aV-
aV1
aV-
aV0.4
p59
aV94.2
p60
aV2.2
p61
aV1
aV7.14
p62
aa(lp63
V2016/2017
p64
aVBorussia Dort..
p65
aVGB
p66
aV26
p67
aV2300
p68
aV2
aV-
aV7
aV-
aV0.8
p69
aV87.8
p70
aV3.7
p71
aV2
aV7.21
p72
aa(lp73
V2016/2017
p74
aVBorussia Dort..
p75
aVUCL
p76
aV9
aV808
p77
aV1
aV-
aV2
aV-
aV0.7
p78
aV92.3
p79
aV2.7
p80
aV-
aV7.11
p81
aa(lp82
V2015/2016
p83
aVBorussia Dort..
p84
aVGB
p85
aV23(2)
p86
aV2113
p87
aV1
aV-
aV5
aV-
aV0.4
p88
aV88.8
p89
aV3.6
p90
aV1
aV7.02
p91
aa(lp92
V2015/2016
p93
aVBorussia Dort..
p94
aVUEL
p95
aV5(1)
p96
aV428
p97
aV-
aV-
aV2
aV-
aV-
aV89.7
p98
aV1.7
p99
aV-
aV6.92
p100
aa(lp101
V2014/2015
p102
aVBorussia Dort..
p103
aVGB
p104
aV19(2)
p105
aV1727
p106
aV1
aV-
aV6
aV-
aV0.6
p107
aV79.1
p108
aV4.6
p109
aV-
aV7.17
p110
aa(lp111
V2014/2015
p112
aVBorussia Dort..
p113
aVUCL
p114
aV6
aV496
p115
aV1
aV-
aV-
aV-
aV1
aV84.5
p116
aV2.3
p117
aV1
aV7.61
p118
aa(lp119
V2013/2014
p120
aVBorussia Dort..
p121
aVUCL
p122
aV6(2)
p123
aV545
p124
aV-
aV-
aV-
aV-
aV0.3
p125
aV86.6
p126
aV1.9
p127
aV-
aV6.79
p128
aa(lp129
V2013/2014
p130
aVBorussia Dort..
p131
aVGB
p132
aV24(4)
p133
aV2265
p134
aV1
aV2
aV4
aV1
aV0.8
p135
aV81.7
p136
aV5.8
p137
aV1
aV7.54
p138
aa(lp139
V2014
p140
aVGreece
p141
aVWC
p142
aV4
aV391
p143
aV1
aV-
aV1
aV-
aV0.5
p144
aV83.5
p145
aV3
aV-
aV7.39
p146
aa(lp147
V2012/2013
p148
aVWerder Bremen
p149
aVGB
p150
aV29
p151
aV2566
p152
aV1
aV-
aV6
aV-
aV0.8
p153
aV79.1
p154
aV3.8
p155
aV-
aV7.38
p156
aa(lp157
V2012
p158
aVGreece
p159
aVUEC
p160
aV3
aV224
p161
aV-
aV-
aV1
aV1
aV-
aV80.3
p162
aV2
aV-
aV6.42
p163
aa(lp164
V2011/2012
p165
aVWerder Bremen
p166
aVGB
p167
aV30
p168
aV2545
p169
aV1
aV-
aV12
p170
aV1
aV0.8
p171
aV76.2
p172
aV1.8
p173
aV-
aV7.27
p174
aa(lp175
V2010/2011
p176
aVAC Milan
p177
aVISA
p178
aV3(2)
p179
aV343
p180
aV-
aV-
aV1
aV-
aV0.6
p181
aV92.8
p182
aV0.8
p183
aV-
aV6.77
p184
aa(lp185
V2009/2010
p186
aVGenoa
p187
aVISA
p188
aV25(5)
p189
aV2293
p190
aV-
aV1
aV10
p191
aV-
aV0.3
p192
aV81.4
p193
aV1.6
p194
aV1
aV6.88
p195
aa(lp196
VTotal / Average
p197
aV
aV
aV290
p198
aV24025
p199
aV14
p200
aV3
aV72
p201
aV4
aV0.6
p202
aV84.1
p203
aV3.1
p204
aV11
p205
aV7.13
p206
aasS'url'
p207
S'https://www.whoscored.com/Players/22210/History/'
p208
sS'passing_data'
p209
(lp210
(lp211
a(lp212
V2018/2019
p213
aVArsenal
p214
aVEPL
p215
aV10
p216
aV849
p217
aV-
aV-
aV5
aV-
aV0.3
p218
aV89.2
p219
aV1.6
p220
aV-
aV6.60
p221
aa(lp222
V2018/2019
p223
aVArsenal
p224
aVUEL
p225
aV5
aV450
p226
aV1
aV-
aV-
aV-
aV0.8
p227
aV94.7
p228
aV1.6
p229
aV2
aV7.30
p230
aa(lp231
V2018/2019
p232
aVGreece
p233
aVUNL
p234
aV6
aV496
p235
aV-
aV-
aV2
aV-
aV0.7
p236
aV89.2
p237
aV2.5
p238
aV-
aV6.92
p239
aa(lp240
V2017/2018
p241
aVBorussia Dort..
p242
aVGB
p243
aV28(2)
p244
aV2376
p245
aV2
aV-
aV5
aV1
aV0.5
p246
aV86.9
p247
aV2.8
p248
aV2
aV6.92
p249
aa(lp250
V2017/2018
p251
aVBorussia Dort..
p252
aVUEL
p253
aV4
aV360
p254
aV-
aV-
aV2
aV-
aV1
aV81.8
p255
aV3.3
p256
aV-
aV7.07
p257
aa(lp258
V2017/2018
p259
aVBorussia Dort..
p260
aVUCL
p261
aV5
aV450
p262
aV1
aV-
aV1
aV-
aV0.4
p263
aV94.2
p264
aV2.2
p265
aV1
aV7.14
p266
aa(lp267
V2016/2017
p268
aVBorussia Dort..
p269
aVGB
p270
aV26
p271
aV2300
p272
aV2
aV-
aV7
aV-
aV0.8
p273
aV87.8
p274
aV3.7
p275
aV2
aV7.21
p276
aa(lp277
V2016/2017
p278
aVBorussia Dort..
p279
aVUCL
p280
aV9
aV808
p281
aV1
aV-
aV2
aV-
aV0.7
p282
aV92.3
p283
aV2.7
p284
aV-
aV7.11
p285
aa(lp286
V2015/2016
p287
aVBorussia Dort..
p288
aVGB
p289
aV23(2)
p290
aV2113
p291
aV1
aV-
aV5
aV-
aV0.4
p292
aV88.8
p293
aV3.6
p294
aV1
aV7.02
p295
aa(lp296
V2015/2016
p297
aVBorussia Dort..
p298
aVUEL
p299
aV5(1)
p300
aV428
p301
aV-
aV-
aV2
aV-
aV-
aV89.7
p302
aV1.7
p303
aV-
aV6.92
p304
aa(lp305
V2014/2015
p306
aVBorussia Dort..
p307
aVGB
p308
aV19(2)
p309
aV1727
p310
aV1
aV-
aV6
aV-
aV0.6
p311
aV79.1
p312
aV4.6
p313
aV-
aV7.17
p314
aa(lp315
V2014/2015
p316
aVBorussia Dort..
p317
aVUCL
p318
aV6
aV496
p319
aV1
aV-
aV-
aV-
aV1
aV84.5
p320
aV2.3
p321
aV1
aV7.61
p322
aa(lp323
V2013/2014
p324
aVBorussia Dort..
p325
aVUCL
p326
aV6(2)
p327
aV545
p328
aV-
aV-
aV-
aV-
aV0.3
p329
aV86.6
p330
aV1.9
p331
aV-
aV6.79
p332
aa(lp333
V2013/2014
p334
aVBorussia Dort..
p335
aVGB
p336
aV24(4)
p337
aV2265
p338
aV1
aV2
aV4
aV1
aV0.8
p339
aV81.7
p340
aV5.8
p341
aV1
aV7.54
p342
aa(lp343
V2014
p344
aVGreece
p345
aVWC
p346
aV4
aV391
p347
aV1
aV-
aV1
aV-
aV0.5
p348
aV83.5
p349
aV3
aV-
aV7.39
p350
aa(lp351
V2012/2013
p352
aVWerder Bremen
p353
aVGB
p354
aV29
p355
aV2566
p356
aV1
aV-
aV6
aV-
aV0.8
p357
aV79.1
p358
aV3.8
p359
aV-
aV7.38
p360
aa(lp361
V2012
p362
aVGreece
p363
aVUEC
p364
aV3
aV224
p365
aV-
aV-
aV1
aV1
aV-
aV80.3
p366
aV2
aV-
aV6.42
p367
aa(lp368
V2011/2012
p369
aVWerder Bremen
p370
aVGB
p371
aV30
p372
aV2545
p373
aV1
aV-
aV12
p374
aV1
aV0.8
p375
aV76.2
p376
aV1.8
p377
aV-
aV7.27
p378
aa(lp379
V2010/2011
p380
aVAC Milan
p381
aVISA
p382
aV3(2)
p383
aV343
p384
aV-
aV-
aV1
aV-
aV0.6
p385
aV92.8
p386
aV0.8
p387
aV-
aV6.77
p388
aa(lp389
V2009/2010
p390
aVGenoa
p391
aVISA
p392
aV25(5)
p393
aV2293
p394
aV-
aV1
aV10
p395
aV-
aV0.3
p396
aV81.4
p397
aV1.6
p398
aV1
aV6.88
p399
aa(lp400
VTotal / Average
p401
aV
aV
aV290
p402
aV24025
p403
aV14
p404
aV3
aV72
p405
aV4
aV0.6
p406
aV84.1
p407
aV3.1
p408
aV11
p409
aV7.13
p410
aasS'defensive_data'
p411
(lp412
(lp413
a(lp414
V2018/2019
p415
aVArsenal
p416
aVEPL
p417
aV10
p418
aV849
p419
aV-
aV-
aV5
aV-
aV0.3
p420
aV89.2
p421
aV1.6
p422
aV-
aV6.60
p423
aa(lp424
V2018/2019
p425
aVArsenal
p426
aVUEL
p427
aV5
aV450
p428
aV1
aV-
aV-
aV-
aV0.8
p429
aV94.7
p430
aV1.6
p431
aV2
aV7.30
p432
aa(lp433
V2018/2019
p434
aVGreece
p435
aVUNL
p436
aV6
aV496
p437
aV-
aV-
aV2
aV-
aV0.7
p438
aV89.2
p439
aV2.5
p440
aV-
aV6.92
p441
aa(lp442
V2017/2018
p443
aVBorussia Dort..
p444
aVGB
p445
aV28(2)
p446
aV2376
p447
aV2
aV-
aV5
aV1
aV0.5
p448
aV86.9
p449
aV2.8
p450
aV2
aV6.92
p451
aa(lp452
V2017/2018
p453
aVBorussia Dort..
p454
aVUEL
p455
aV4
aV360
p456
aV-
aV-
aV2
aV-
aV1
aV81.8
p457
aV3.3
p458
aV-
aV7.07
p459
aa(lp460
V2017/2018
p461
aVBorussia Dort..
p462
aVUCL
p463
aV5
aV450
p464
aV1
aV-
aV1
aV-
aV0.4
p465
aV94.2
p466
aV2.2
p467
aV1
aV7.14
p468
aa(lp469
V2016/2017
p470
aVBorussia Dort..
p471
aVGB
p472
aV26
p473
aV2300
p474
aV2
aV-
aV7
aV-
aV0.8
p475
aV87.8
p476
aV3.7
p477
aV2
aV7.21
p478
aa(lp479
V2016/2017
p480
aVBorussia Dort..
p481
aVUCL
p482
aV9
aV808
p483
aV1
aV-
aV2
aV-
aV0.7
p484
aV92.3
p485
aV2.7
p486
aV-
aV7.11
p487
aa(lp488
V2015/2016
p489
aVBorussia Dort..
p490
aVGB
p491
aV23(2)
p492
aV2113
p493
aV1
aV-
aV5
aV-
aV0.4
p494
aV88.8
p495
aV3.6
p496
aV1
aV7.02
p497
aa(lp498
V2015/2016
p499
aVBorussia Dort..
p500
aVUEL
p501
aV5(1)
p502
aV428
p503
aV-
aV-
aV2
aV-
aV-
aV89.7
p504
aV1.7
p505
aV-
aV6.92
p506
aa(lp507
V2014/2015
p508
aVBorussia Dort..
p509
aVGB
p510
aV19(2)
p511
aV1727
p512
aV1
aV-
aV6
aV-
aV0.6
p513
aV79.1
p514
aV4.6
p515
aV-
aV7.17
p516
aa(lp517
V2014/2015
p518
aVBorussia Dort..
p519
aVUCL
p520
aV6
aV496
p521
aV1
aV-
aV-
aV-
aV1
aV84.5
p522
aV2.3
p523
aV1
aV7.61
p524
aa(lp525
V2013/2014
p526
aVBorussia Dort..
p527
aVUCL
p528
aV6(2)
p529
aV545
p530
aV-
aV-
aV-
aV-
aV0.3
p531
aV86.6
p532
aV1.9
p533
aV-
aV6.79
p534
aa(lp535
V2013/2014
p536
aVBorussia Dort..
p537
aVGB
p538
aV24(4)
p539
aV2265
p540
aV1
aV2
aV4
aV1
aV0.8
p541
aV81.7
p542
aV5.8
p543
aV1
aV7.54
p544
aa(lp545
V2014
p546
aVGreece
p547
aVWC
p548
aV4
aV391
p549
aV1
aV-
aV1
aV-
aV0.5
p550
aV83.5
p551
aV3
aV-
aV7.39
p552
aa(lp553
V2012/2013
p554
aVWerder Bremen
p555
aVGB
p556
aV29
p557
aV2566
p558
aV1
aV-
aV6
aV-
aV0.8
p559
aV79.1
p560
aV3.8
p561
aV-
aV7.38
p562
aa(lp563
V2012
p564
aVGreece
p565
aVUEC
p566
aV3
aV224
p567
aV-
aV-
aV1
aV1
aV-
aV80.3
p568
aV2
aV-
aV6.42
p569
aa(lp570
V2011/2012
p571
aVWerder Bremen
p572
aVGB
p573
aV30
p574
aV2545
p575
aV1
aV-
aV12
p576
aV1
aV0.8
p577
aV76.2
p578
aV1.8
p579
aV-
aV7.27
p580
aa(lp581
V2010/2011
p582
aVAC Milan
p583
aVISA
p584
aV3(2)
p585
aV343
p586
aV-
aV-
aV1
aV-
aV0.6
p587
aV92.8
p588
aV0.8
p589
aV-
aV6.77
p590
aa(lp591
V2009/2010
p592
aVGenoa
p593
aVISA
p594
aV25(5)
p595
aV2293
p596
aV-
aV1
aV10
p597
aV-
aV0.3
p598
aV81.4
p599
aV1.6
p600
aV1
aV6.88
p601
aa(lp602
VTotal / Average
p603
aV
aV
aV290
p604
aV24025
p605
aV14
p606
aV3
aV72
p607
aV4
aV0.6
p608
aV84.1
p609
aV3.1
p610
aV11
p611
aV7.13
p612
aasS'sumary_data'
p613
(lp614
(lp615
a(lp616
V2018/2019
p617
aVArsenal
p618
aVEPL
p619
aV10
p620
aV849
p621
aV-
aV-
aV5
aV-
aV0.3
p622
aV89.2
p623
aV1.6
p624
aV-
aV6.60
p625
aa(lp626
V2018/2019
p627
aVArsenal
p628
aVUEL
p629
aV5
aV450
p630
aV1
aV-
aV-
aV-
aV0.8
p631
aV94.7
p632
aV1.6
p633
aV2
aV7.30
p634
aa(lp635
V2018/2019
p636
aVGreece
p637
aVUNL
p638
aV6
aV496
p639
aV-
aV-
aV2
aV-
aV0.7
p640
aV89.2
p641
aV2.5
p642
aV-
aV6.92
p643
aa(lp644
V2017/2018
p645
aVBorussia Dort..
p646
aVGB
p647
aV28(2)
p648
aV2376
p649
aV2
aV-
aV5
aV1
aV0.5
p650
aV86.9
p651
aV2.8
p652
aV2
aV6.92
p653
aa(lp654
V2017/2018
p655
aVBorussia Dort..
p656
aVUEL
p657
aV4
aV360
p658
aV-
aV-
aV2
aV-
aV1
aV81.8
p659
aV3.3
p660
aV-
aV7.07
p661
aa(lp662
V2017/2018
p663
aVBorussia Dort..
p664
aVUCL
p665
aV5
aV450
p666
aV1
aV-
aV1
aV-
aV0.4
p667
aV94.2
p668
aV2.2
p669
aV1
aV7.14
p670
aa(lp671
V2016/2017
p672
aVBorussia Dort..
p673
aVGB
p674
aV26
p675
aV2300
p676
aV2
aV-
aV7
aV-
aV0.8
p677
aV87.8
p678
aV3.7
p679
aV2
aV7.21
p680
aa(lp681
V2016/2017
p682
aVBorussia Dort..
p683
aVUCL
p684
aV9
aV808
p685
aV1
aV-
aV2
aV-
aV0.7
p686
aV92.3
p687
aV2.7
p688
aV-
aV7.11
p689
aa(lp690
V2015/2016
p691
aVBorussia Dort..
p692
aVGB
p693
aV23(2)
p694
aV2113
p695
aV1
aV-
aV5
aV-
aV0.4
p696
aV88.8
p697
aV3.6
p698
aV1
aV7.02
p699
aa(lp700
V2015/2016
p701
aVBorussia Dort..
p702
aVUEL
p703
aV5(1)
p704
aV428
p705
aV-
aV-
aV2
aV-
aV-
aV89.7
p706
aV1.7
p707
aV-
aV6.92
p708
aa(lp709
V2014/2015
p710
aVBorussia Dort..
p711
aVGB
p712
aV19(2)
p713
aV1727
p714
aV1
aV-
aV6
aV-
aV0.6
p715
aV79.1
p716
aV4.6
p717
aV-
aV7.17
p718
aa(lp719
V2014/2015
p720
aVBorussia Dort..
p721
aVUCL
p722
aV6
aV496
p723
aV1
aV-
aV-
aV-
aV1
aV84.5
p724
aV2.3
p725
aV1
aV7.61
p726
aa(lp727
V2013/2014
p728
aVBorussia Dort..
p729
aVUCL
p730
aV6(2)
p731
aV545
p732
aV-
aV-
aV-
aV-
aV0.3
p733
aV86.6
p734
aV1.9
p735
aV-
aV6.79
p736
aa(lp737
V2013/2014
p738
aVBorussia Dort..
p739
aVGB
p740
aV24(4)
p741
aV2265
p742
aV1
aV2
aV4
aV1
aV0.8
p743
aV81.7
p744
aV5.8
p745
aV1
aV7.54
p746
aa(lp747
V2014
p748
aVGreece
p749
aVWC
p750
aV4
aV391
p751
aV1
aV-
aV1
aV-
aV0.5
p752
aV83.5
p753
aV3
aV-
aV7.39
p754
aa(lp755
V2012/2013
p756
aVWerder Bremen
p757
aVGB
p758
aV29
p759
aV2566
p760
aV1
aV-
aV6
aV-
aV0.8
p761
aV79.1
p762
aV3.8
p763
aV-
aV7.38
p764
aa(lp765
V2012
p766
aVGreece
p767
aVUEC
p768
aV3
aV224
p769
aV-
aV-
aV1
aV1
aV-
aV80.3
p770
aV2
aV-
aV6.42
p771
aa(lp772
V2011/2012
p773
aVWerder Bremen
p774
aVGB
p775
aV30
p776
aV2545
p777
aV1
aV-
aV12
p778
aV1
aV0.8
p779
aV76.2
p780
aV1.8
p781
aV-
aV7.27
p782
aa(lp783
V2010/2011
p784
aVAC Milan
p785
aVISA
p786
aV3(2)
p787
aV343
p788
aV-
aV-
aV1
aV-
aV0.6
p789
aV92.8
p790
aV0.8
p791
aV-
aV6.77
p792
aa(lp793
V2009/2010
p794
aVGenoa
p795
aVISA
p796
aV25(5)
p797
aV2293
p798
aV-
aV1
aV10
p799
aV-
aV0.3
p800
aV81.4
p801
aV1.6
p802
aV1
aV6.88
p803
aa(lp804
VTotal / Average
p805
aV
aV
aV290
p806
aV24025
p807
aV14
p808
aV3
aV72
p809
aV4
aV0.6
p810
aV84.1
p811
aV3.1
p812
aV11
p813
aV7.13
p814
aasS'id'
p815
V22210
p816
sb.