(i__main__
Player
p1
(dp2
S'name'
p3
VLee Peltier 
p4
sS'offensive_data'
p5
(lp6
(lp7
a(lp8
V2018/2019
p9
aVCardiff
p10
aVEPL
p11
aV2(2)
p12
aV192
p13
aV-
aV-
aV1
aV-
aV-
aV60.9
p14
aV0.3
p15
aV-
aV6.14
p16
aa(lp17
V2017/2018
p18
aVCardiff
p19
aVEC
p20
aV27(3)
p21
aV2420
p22
aV-
aV1
aV11
p23
aV-
aV0.1
p24
aV56.4
p25
aV3
aV-
aV6.89
p26
aa(lp27
V2016/2017
p28
aVCardiff
p29
aVEC
p30
aV28
p31
aV2325
p32
aV-
aV1
aV3
aV1
aV0.1
p33
aV62.2
p34
aV2.6
p35
aV-
aV6.77
p36
aa(lp37
V2015/2016
p38
aVCardiff
p39
aVEC
p40
aV38(3)
p41
aV3305
p42
aV-
aV-
aV8
aV1
aV0.1
p43
aV68.4
p44
aV2.8
p45
aV-
aV6.83
p46
aa(lp47
V2014/2015
p48
aVHuddersfield
p49
aVEC
p50
aV8(3)
p51
aV685
p52
aV-
aV-
aV2
aV-
aV0.3
p53
aV73.8
p54
aV0.8
p55
aV-
aV6.47
p56
aa(lp57
V2014/2015
p58
aVCardiff
p59
aVEC
p60
aV15
p61
aV1243
p62
aV-
aV1
aV5
aV-
aV0.1
p63
aV62.8
p64
aV2.6
p65
aV-
aV7.03
p66
aa(lp67
V2013/2014
p68
aVNottingham Fo..
p69
aVEC
p70
aV7
aV630
p71
aV-
aV-
aV2
aV-
aV0.6
p72
aV74
p73
aV3.7
p74
aV-
aV6.88
p75
aa(lp76
V2013/2014
p77
aVLeeds
p78
aVEC
p79
aV23(2)
p80
aV1903
p81
aV1
aV1
aV1
aV-
aV0.2
p82
aV69.9
p83
aV2.2
p84
aV2
aV6.92
p85
aa(lp86
VTotal / Average
p87
aV
aV
aV161
p88
aV12703
p89
aV1
aV4
aV33
p90
aV2
aV0.1
p91
aV65.2
p92
aV2.5
p93
aV2
aV6.83
p94
aasS'url'
p95
S'https://www.whoscored.com/Players/22654/History/'
p96
sS'passing_data'
p97
(lp98
(lp99
a(lp100
V2018/2019
p101
aVCardiff
p102
aVEPL
p103
aV2(2)
p104
aV192
p105
aV-
aV-
aV1
aV-
aV-
aV60.9
p106
aV0.3
p107
aV-
aV6.14
p108
aa(lp109
V2017/2018
p110
aVCardiff
p111
aVEC
p112
aV27(3)
p113
aV2420
p114
aV-
aV1
aV11
p115
aV-
aV0.1
p116
aV56.4
p117
aV3
aV-
aV6.89
p118
aa(lp119
V2016/2017
p120
aVCardiff
p121
aVEC
p122
aV28
p123
aV2325
p124
aV-
aV1
aV3
aV1
aV0.1
p125
aV62.2
p126
aV2.6
p127
aV-
aV6.77
p128
aa(lp129
V2015/2016
p130
aVCardiff
p131
aVEC
p132
aV38(3)
p133
aV3305
p134
aV-
aV-
aV8
aV1
aV0.1
p135
aV68.4
p136
aV2.8
p137
aV-
aV6.83
p138
aa(lp139
V2014/2015
p140
aVHuddersfield
p141
aVEC
p142
aV8(3)
p143
aV685
p144
aV-
aV-
aV2
aV-
aV0.3
p145
aV73.8
p146
aV0.8
p147
aV-
aV6.47
p148
aa(lp149
V2014/2015
p150
aVCardiff
p151
aVEC
p152
aV15
p153
aV1243
p154
aV-
aV1
aV5
aV-
aV0.1
p155
aV62.8
p156
aV2.6
p157
aV-
aV7.03
p158
aa(lp159
V2013/2014
p160
aVNottingham Fo..
p161
aVEC
p162
aV7
aV630
p163
aV-
aV-
aV2
aV-
aV0.6
p164
aV74
p165
aV3.7
p166
aV-
aV6.88
p167
aa(lp168
V2013/2014
p169
aVLeeds
p170
aVEC
p171
aV23(2)
p172
aV1903
p173
aV1
aV1
aV1
aV-
aV0.2
p174
aV69.9
p175
aV2.2
p176
aV2
aV6.92
p177
aa(lp178
VTotal / Average
p179
aV
aV
aV161
p180
aV12703
p181
aV1
aV4
aV33
p182
aV2
aV0.1
p183
aV65.2
p184
aV2.5
p185
aV2
aV6.83
p186
aasS'defensive_data'
p187
(lp188
(lp189
a(lp190
V2018/2019
p191
aVCardiff
p192
aVEPL
p193
aV2(2)
p194
aV192
p195
aV-
aV-
aV1
aV-
aV-
aV60.9
p196
aV0.3
p197
aV-
aV6.14
p198
aa(lp199
V2017/2018
p200
aVCardiff
p201
aVEC
p202
aV27(3)
p203
aV2420
p204
aV-
aV1
aV11
p205
aV-
aV0.1
p206
aV56.4
p207
aV3
aV-
aV6.89
p208
aa(lp209
V2016/2017
p210
aVCardiff
p211
aVEC
p212
aV28
p213
aV2325
p214
aV-
aV1
aV3
aV1
aV0.1
p215
aV62.2
p216
aV2.6
p217
aV-
aV6.77
p218
aa(lp219
V2015/2016
p220
aVCardiff
p221
aVEC
p222
aV38(3)
p223
aV3305
p224
aV-
aV-
aV8
aV1
aV0.1
p225
aV68.4
p226
aV2.8
p227
aV-
aV6.83
p228
aa(lp229
V2014/2015
p230
aVHuddersfield
p231
aVEC
p232
aV8(3)
p233
aV685
p234
aV-
aV-
aV2
aV-
aV0.3
p235
aV73.8
p236
aV0.8
p237
aV-
aV6.47
p238
aa(lp239
V2014/2015
p240
aVCardiff
p241
aVEC
p242
aV15
p243
aV1243
p244
aV-
aV1
aV5
aV-
aV0.1
p245
aV62.8
p246
aV2.6
p247
aV-
aV7.03
p248
aa(lp249
V2013/2014
p250
aVNottingham Fo..
p251
aVEC
p252
aV7
aV630
p253
aV-
aV-
aV2
aV-
aV0.6
p254
aV74
p255
aV3.7
p256
aV-
aV6.88
p257
aa(lp258
V2013/2014
p259
aVLeeds
p260
aVEC
p261
aV23(2)
p262
aV1903
p263
aV1
aV1
aV1
aV-
aV0.2
p264
aV69.9
p265
aV2.2
p266
aV2
aV6.92
p267
aa(lp268
VTotal / Average
p269
aV
aV
aV161
p270
aV12703
p271
aV1
aV4
aV33
p272
aV2
aV0.1
p273
aV65.2
p274
aV2.5
p275
aV2
aV6.83
p276
aasS'sumary_data'
p277
(lp278
(lp279
a(lp280
V2018/2019
p281
aVCardiff
p282
aVEPL
p283
aV2(2)
p284
aV192
p285
aV-
aV-
aV1
aV-
aV-
aV60.9
p286
aV0.3
p287
aV-
aV6.14
p288
aa(lp289
V2017/2018
p290
aVCardiff
p291
aVEC
p292
aV27(3)
p293
aV2420
p294
aV-
aV1
aV11
p295
aV-
aV0.1
p296
aV56.4
p297
aV3
aV-
aV6.89
p298
aa(lp299
V2016/2017
p300
aVCardiff
p301
aVEC
p302
aV28
p303
aV2325
p304
aV-
aV1
aV3
aV1
aV0.1
p305
aV62.2
p306
aV2.6
p307
aV-
aV6.77
p308
aa(lp309
V2015/2016
p310
aVCardiff
p311
aVEC
p312
aV38(3)
p313
aV3305
p314
aV-
aV-
aV8
aV1
aV0.1
p315
aV68.4
p316
aV2.8
p317
aV-
aV6.83
p318
aa(lp319
V2014/2015
p320
aVHuddersfield
p321
aVEC
p322
aV8(3)
p323
aV685
p324
aV-
aV-
aV2
aV-
aV0.3
p325
aV73.8
p326
aV0.8
p327
aV-
aV6.47
p328
aa(lp329
V2014/2015
p330
aVCardiff
p331
aVEC
p332
aV15
p333
aV1243
p334
aV-
aV1
aV5
aV-
aV0.1
p335
aV62.8
p336
aV2.6
p337
aV-
aV7.03
p338
aa(lp339
V2013/2014
p340
aVNottingham Fo..
p341
aVEC
p342
aV7
aV630
p343
aV-
aV-
aV2
aV-
aV0.6
p344
aV74
p345
aV3.7
p346
aV-
aV6.88
p347
aa(lp348
V2013/2014
p349
aVLeeds
p350
aVEC
p351
aV23(2)
p352
aV1903
p353
aV1
aV1
aV1
aV-
aV0.2
p354
aV69.9
p355
aV2.2
p356
aV2
aV6.92
p357
aa(lp358
VTotal / Average
p359
aV
aV
aV161
p360
aV12703
p361
aV1
aV4
aV33
p362
aV2
aV0.1
p363
aV65.2
p364
aV2.5
p365
aV2
aV6.83
p366
aasS'id'
p367
V22654
p368
sb.