(i__main__
Player
p1
(dp2
S'name'
p3
VMarouane Fellaini 
p4
sS'offensive_data'
p5
(lp6
(lp7
a(lp8
V2018/2019
p9
aVManchester Un..
p10
aVEPL
p11
aV6(7)
p12
aV745
p13
aV-
aV1
aV1
aV-
aV0.5
p14
aV81
p15
aV3.7
p16
aV-
aV6.71
p17
aa(lp18
V2018/2019
p19
aVManchester Un..
p20
aVUCL
p21
aV3(2)
p22
aV302
p23
aV1
aV-
aV-
aV-
aV1
aV89.2
p24
aV2.4
p25
aV1
aV7.10
p26
aa(lp27
V2017/2018
p28
aVManchester Un..
p29
aVUCL
p30
aV2(1)
p31
aV221
p32
aV1
aV-
aV-
aV-
aV2.3
p33
aV82.4
p34
aV5
aV-
aV7.21
p35
aa(lp36
V2017/2018
p37
aVManchester Un..
p38
aVEPL
p39
aV5(11)
p40
aV613
p41
aV4
aV-
aV1
aV-
aV0.6
p42
aV85.2
p43
aV2.4
p44
aV2
aV6.94
p45
aa(lp46
V2016/2017
p47
aVManchester Un..
p48
aVEPL
p49
aV18(10)
p50
aV1600
p51
aV1
aV-
aV9
aV1
aV0.8
p52
aV86
p53
aV3.4
p54
aV-
aV6.91
p55
aa(lp56
V2016/2017
p57
aVManchester Un..
p58
aVUEL
p59
aV7(4)
p60
aV725
p61
aV1
aV2
aV2
aV-
aV1.5
p62
aV83.5
p63
aV4.9
p64
aV3
aV7.25
p65
aa(lp66
V2018
p67
aVBelgium
p68
aVWC
p69
aV3(2)
p70
aV316
p71
aV1
aV-
aV-
aV-
aV1
aV84.4
p72
aV3.2
p73
aV1
aV7.15
p74
aa(lp75
V2015/2016
p76
aVManchester Un..
p77
aVUEL
p78
aV2
aV180
p79
aV-
aV-
aV2
aV-
aV1.5
p80
aV76.3
p81
aV5.5
p82
aV-
aV6.83
p83
aa(lp84
V2015/2016
p85
aVManchester Un..
p86
aVUCL
p87
aV1(4)
p88
aV207
p89
aV-
aV-
aV1
aV-
aV0.8
p90
aV78.7
p91
aV2.8
p92
aV-
aV6.25
p93
aa(lp94
V2015/2016
p95
aVManchester Un..
p96
aVEPL
p97
aV12(6)
p98
aV1070
p99
aV1
aV-
aV2
aV-
aV1.3
p100
aV83.6
p101
aV2.7
p102
aV-
aV6.78
p103
aa(lp104
V2014/2015
p105
aVManchester Un..
p106
aVEPL
p107
aV19(8)
p108
aV1831
p109
aV6
aV-
aV5
aV1
aV1.3
p110
aV84.7
p111
aV4.1
p112
aV3
aV7.16
p113
aa(lp114
V2016
p115
aVBelgium
p116
aVUEC
p117
aV1(2)
p118
aV144
p119
aV-
aV-
aV2
aV-
aV0.7
p120
aV82.5
p121
aV3.7
p122
aV-
aV6.73
p123
aa(lp124
V2013/2014
p125
aVManchester Un..
p126
aVUCL
p127
aV4(1)
p128
aV328
p129
aV-
aV-
aV1
aV1
aV-
aV84.7
p130
aV2.4
p131
aV-
aV6.68
p132
aa(lp133
V2013/2014
p134
aVManchester Un..
p135
aVEPL
p136
aV12(4)
p137
aV1106
p138
aV-
aV1
aV2
aV-
aV1.6
p139
aV88.5
p140
aV3.1
p141
aV-
aV7.21
p142
aa(lp143
V2013/2014
p144
aVEverton
p145
aVEPL
p146
aV3
aV270
p147
aV-
aV-
aV-
aV-
aV1.7
p148
aV89.1
p149
aV6.3
p150
aV-
aV7.75
p151
aa(lp152
V2014
p153
aVBelgium
p154
aVWC
p155
aV4(1)
p156
aV415
p157
aV1
aV-
aV-
aV-
aV1.6
p158
aV76.4
p159
aV4.6
p160
aV-
aV7.05
p161
aa(lp162
V2012/2013
p163
aVEverton
p164
aVEPL
p165
aV31
p166
aV2786
p167
aV11
p168
aV5
aV8
aV-
aV2.9
p169
aV79.3
p170
aV4.8
p171
aV8
aV7.59
p172
aa(lp173
V2011/2012
p174
aVEverton
p175
aVEPL
p176
aV31(3)
p177
aV2856
p178
aV3
aV4
aV6
aV-
aV1.6
p179
aV79.7
p180
aV2.6
p181
aV3
aV7.10
p182
aa(lp183
V2010/2011
p184
aVEverton
p185
aVEPL
p186
aV19(1)
p187
aV1654
p188
aV1
aV2
aV3
aV1
aV1.3
p189
aV77.3
p190
aV3.6
p191
aV1
aV7.10
p192
aa(lp193
V2009/2010
p194
aVEverton
p195
aVEPL
p196
aV20(3)
p197
aV1763
p198
aV2
aV2
aV6
aV-
aV1.6
p199
aV75.3
p200
aV3.9
p201
aV5
aV7.49
p202
aa(lp203
VTotal / Average
p204
aV
aV
aV273
p205
aV19132
p206
aV34
p207
aV17
p208
aV51
p209
aV4
aV1.4
p210
aV82
p211
aV3.6
p212
aV27
p213
aV7.12
p214
aasS'url'
p215
S'https://www.whoscored.com/Players/22738/History/'
p216
sS'passing_data'
p217
(lp218
(lp219
a(lp220
V2018/2019
p221
aVManchester Un..
p222
aVEPL
p223
aV6(7)
p224
aV745
p225
aV-
aV1
aV1
aV-
aV0.5
p226
aV81
p227
aV3.7
p228
aV-
aV6.71
p229
aa(lp230
V2018/2019
p231
aVManchester Un..
p232
aVUCL
p233
aV3(2)
p234
aV302
p235
aV1
aV-
aV-
aV-
aV1
aV89.2
p236
aV2.4
p237
aV1
aV7.10
p238
aa(lp239
V2017/2018
p240
aVManchester Un..
p241
aVUCL
p242
aV2(1)
p243
aV221
p244
aV1
aV-
aV-
aV-
aV2.3
p245
aV82.4
p246
aV5
aV-
aV7.21
p247
aa(lp248
V2017/2018
p249
aVManchester Un..
p250
aVEPL
p251
aV5(11)
p252
aV613
p253
aV4
aV-
aV1
aV-
aV0.6
p254
aV85.2
p255
aV2.4
p256
aV2
aV6.94
p257
aa(lp258
V2016/2017
p259
aVManchester Un..
p260
aVEPL
p261
aV18(10)
p262
aV1600
p263
aV1
aV-
aV9
aV1
aV0.8
p264
aV86
p265
aV3.4
p266
aV-
aV6.91
p267
aa(lp268
V2016/2017
p269
aVManchester Un..
p270
aVUEL
p271
aV7(4)
p272
aV725
p273
aV1
aV2
aV2
aV-
aV1.5
p274
aV83.5
p275
aV4.9
p276
aV3
aV7.25
p277
aa(lp278
V2018
p279
aVBelgium
p280
aVWC
p281
aV3(2)
p282
aV316
p283
aV1
aV-
aV-
aV-
aV1
aV84.4
p284
aV3.2
p285
aV1
aV7.15
p286
aa(lp287
V2015/2016
p288
aVManchester Un..
p289
aVUEL
p290
aV2
aV180
p291
aV-
aV-
aV2
aV-
aV1.5
p292
aV76.3
p293
aV5.5
p294
aV-
aV6.83
p295
aa(lp296
V2015/2016
p297
aVManchester Un..
p298
aVUCL
p299
aV1(4)
p300
aV207
p301
aV-
aV-
aV1
aV-
aV0.8
p302
aV78.7
p303
aV2.8
p304
aV-
aV6.25
p305
aa(lp306
V2015/2016
p307
aVManchester Un..
p308
aVEPL
p309
aV12(6)
p310
aV1070
p311
aV1
aV-
aV2
aV-
aV1.3
p312
aV83.6
p313
aV2.7
p314
aV-
aV6.78
p315
aa(lp316
V2014/2015
p317
aVManchester Un..
p318
aVEPL
p319
aV19(8)
p320
aV1831
p321
aV6
aV-
aV5
aV1
aV1.3
p322
aV84.7
p323
aV4.1
p324
aV3
aV7.16
p325
aa(lp326
V2016
p327
aVBelgium
p328
aVUEC
p329
aV1(2)
p330
aV144
p331
aV-
aV-
aV2
aV-
aV0.7
p332
aV82.5
p333
aV3.7
p334
aV-
aV6.73
p335
aa(lp336
V2013/2014
p337
aVManchester Un..
p338
aVUCL
p339
aV4(1)
p340
aV328
p341
aV-
aV-
aV1
aV1
aV-
aV84.7
p342
aV2.4
p343
aV-
aV6.68
p344
aa(lp345
V2013/2014
p346
aVManchester Un..
p347
aVEPL
p348
aV12(4)
p349
aV1106
p350
aV-
aV1
aV2
aV-
aV1.6
p351
aV88.5
p352
aV3.1
p353
aV-
aV7.21
p354
aa(lp355
V2013/2014
p356
aVEverton
p357
aVEPL
p358
aV3
aV270
p359
aV-
aV-
aV-
aV-
aV1.7
p360
aV89.1
p361
aV6.3
p362
aV-
aV7.75
p363
aa(lp364
V2014
p365
aVBelgium
p366
aVWC
p367
aV4(1)
p368
aV415
p369
aV1
aV-
aV-
aV-
aV1.6
p370
aV76.4
p371
aV4.6
p372
aV-
aV7.05
p373
aa(lp374
V2012/2013
p375
aVEverton
p376
aVEPL
p377
aV31
p378
aV2786
p379
aV11
p380
aV5
aV8
aV-
aV2.9
p381
aV79.3
p382
aV4.8
p383
aV8
aV7.59
p384
aa(lp385
V2011/2012
p386
aVEverton
p387
aVEPL
p388
aV31(3)
p389
aV2856
p390
aV3
aV4
aV6
aV-
aV1.6
p391
aV79.7
p392
aV2.6
p393
aV3
aV7.10
p394
aa(lp395
V2010/2011
p396
aVEverton
p397
aVEPL
p398
aV19(1)
p399
aV1654
p400
aV1
aV2
aV3
aV1
aV1.3
p401
aV77.3
p402
aV3.6
p403
aV1
aV7.10
p404
aa(lp405
V2009/2010
p406
aVEverton
p407
aVEPL
p408
aV20(3)
p409
aV1763
p410
aV2
aV2
aV6
aV-
aV1.6
p411
aV75.3
p412
aV3.9
p413
aV5
aV7.49
p414
aa(lp415
VTotal / Average
p416
aV
aV
aV273
p417
aV19132
p418
aV34
p419
aV17
p420
aV51
p421
aV4
aV1.4
p422
aV82
p423
aV3.6
p424
aV27
p425
aV7.12
p426
aasS'defensive_data'
p427
(lp428
(lp429
a(lp430
V2018/2019
p431
aVManchester Un..
p432
aVEPL
p433
aV6(7)
p434
aV745
p435
aV-
aV1
aV1
aV-
aV0.5
p436
aV81
p437
aV3.7
p438
aV-
aV6.71
p439
aa(lp440
V2018/2019
p441
aVManchester Un..
p442
aVUCL
p443
aV3(2)
p444
aV302
p445
aV1
aV-
aV-
aV-
aV1
aV89.2
p446
aV2.4
p447
aV1
aV7.10
p448
aa(lp449
V2017/2018
p450
aVManchester Un..
p451
aVUCL
p452
aV2(1)
p453
aV221
p454
aV1
aV-
aV-
aV-
aV2.3
p455
aV82.4
p456
aV5
aV-
aV7.21
p457
aa(lp458
V2017/2018
p459
aVManchester Un..
p460
aVEPL
p461
aV5(11)
p462
aV613
p463
aV4
aV-
aV1
aV-
aV0.6
p464
aV85.2
p465
aV2.4
p466
aV2
aV6.94
p467
aa(lp468
V2016/2017
p469
aVManchester Un..
p470
aVEPL
p471
aV18(10)
p472
aV1600
p473
aV1
aV-
aV9
aV1
aV0.8
p474
aV86
p475
aV3.4
p476
aV-
aV6.91
p477
aa(lp478
V2016/2017
p479
aVManchester Un..
p480
aVUEL
p481
aV7(4)
p482
aV725
p483
aV1
aV2
aV2
aV-
aV1.5
p484
aV83.5
p485
aV4.9
p486
aV3
aV7.25
p487
aa(lp488
V2018
p489
aVBelgium
p490
aVWC
p491
aV3(2)
p492
aV316
p493
aV1
aV-
aV-
aV-
aV1
aV84.4
p494
aV3.2
p495
aV1
aV7.15
p496
aa(lp497
V2015/2016
p498
aVManchester Un..
p499
aVUEL
p500
aV2
aV180
p501
aV-
aV-
aV2
aV-
aV1.5
p502
aV76.3
p503
aV5.5
p504
aV-
aV6.83
p505
aa(lp506
V2015/2016
p507
aVManchester Un..
p508
aVUCL
p509
aV1(4)
p510
aV207
p511
aV-
aV-
aV1
aV-
aV0.8
p512
aV78.7
p513
aV2.8
p514
aV-
aV6.25
p515
aa(lp516
V2015/2016
p517
aVManchester Un..
p518
aVEPL
p519
aV12(6)
p520
aV1070
p521
aV1
aV-
aV2
aV-
aV1.3
p522
aV83.6
p523
aV2.7
p524
aV-
aV6.78
p525
aa(lp526
V2014/2015
p527
aVManchester Un..
p528
aVEPL
p529
aV19(8)
p530
aV1831
p531
aV6
aV-
aV5
aV1
aV1.3
p532
aV84.7
p533
aV4.1
p534
aV3
aV7.16
p535
aa(lp536
V2016
p537
aVBelgium
p538
aVUEC
p539
aV1(2)
p540
aV144
p541
aV-
aV-
aV2
aV-
aV0.7
p542
aV82.5
p543
aV3.7
p544
aV-
aV6.73
p545
aa(lp546
V2013/2014
p547
aVManchester Un..
p548
aVUCL
p549
aV4(1)
p550
aV328
p551
aV-
aV-
aV1
aV1
aV-
aV84.7
p552
aV2.4
p553
aV-
aV6.68
p554
aa(lp555
V2013/2014
p556
aVManchester Un..
p557
aVEPL
p558
aV12(4)
p559
aV1106
p560
aV-
aV1
aV2
aV-
aV1.6
p561
aV88.5
p562
aV3.1
p563
aV-
aV7.21
p564
aa(lp565
V2013/2014
p566
aVEverton
p567
aVEPL
p568
aV3
aV270
p569
aV-
aV-
aV-
aV-
aV1.7
p570
aV89.1
p571
aV6.3
p572
aV-
aV7.75
p573
aa(lp574
V2014
p575
aVBelgium
p576
aVWC
p577
aV4(1)
p578
aV415
p579
aV1
aV-
aV-
aV-
aV1.6
p580
aV76.4
p581
aV4.6
p582
aV-
aV7.05
p583
aa(lp584
V2012/2013
p585
aVEverton
p586
aVEPL
p587
aV31
p588
aV2786
p589
aV11
p590
aV5
aV8
aV-
aV2.9
p591
aV79.3
p592
aV4.8
p593
aV8
aV7.59
p594
aa(lp595
V2011/2012
p596
aVEverton
p597
aVEPL
p598
aV31(3)
p599
aV2856
p600
aV3
aV4
aV6
aV-
aV1.6
p601
aV79.7
p602
aV2.6
p603
aV3
aV7.10
p604
aa(lp605
V2010/2011
p606
aVEverton
p607
aVEPL
p608
aV19(1)
p609
aV1654
p610
aV1
aV2
aV3
aV1
aV1.3
p611
aV77.3
p612
aV3.6
p613
aV1
aV7.10
p614
aa(lp615
V2009/2010
p616
aVEverton
p617
aVEPL
p618
aV20(3)
p619
aV1763
p620
aV2
aV2
aV6
aV-
aV1.6
p621
aV75.3
p622
aV3.9
p623
aV5
aV7.49
p624
aa(lp625
VTotal / Average
p626
aV
aV
aV273
p627
aV19132
p628
aV34
p629
aV17
p630
aV51
p631
aV4
aV1.4
p632
aV82
p633
aV3.6
p634
aV27
p635
aV7.12
p636
aasS'sumary_data'
p637
(lp638
(lp639
a(lp640
V2018/2019
p641
aVManchester Un..
p642
aVEPL
p643
aV6(7)
p644
aV745
p645
aV-
aV1
aV1
aV-
aV0.5
p646
aV81
p647
aV3.7
p648
aV-
aV6.71
p649
aa(lp650
V2018/2019
p651
aVManchester Un..
p652
aVUCL
p653
aV3(2)
p654
aV302
p655
aV1
aV-
aV-
aV-
aV1
aV89.2
p656
aV2.4
p657
aV1
aV7.10
p658
aa(lp659
V2017/2018
p660
aVManchester Un..
p661
aVUCL
p662
aV2(1)
p663
aV221
p664
aV1
aV-
aV-
aV-
aV2.3
p665
aV82.4
p666
aV5
aV-
aV7.21
p667
aa(lp668
V2017/2018
p669
aVManchester Un..
p670
aVEPL
p671
aV5(11)
p672
aV613
p673
aV4
aV-
aV1
aV-
aV0.6
p674
aV85.2
p675
aV2.4
p676
aV2
aV6.94
p677
aa(lp678
V2016/2017
p679
aVManchester Un..
p680
aVEPL
p681
aV18(10)
p682
aV1600
p683
aV1
aV-
aV9
aV1
aV0.8
p684
aV86
p685
aV3.4
p686
aV-
aV6.91
p687
aa(lp688
V2016/2017
p689
aVManchester Un..
p690
aVUEL
p691
aV7(4)
p692
aV725
p693
aV1
aV2
aV2
aV-
aV1.5
p694
aV83.5
p695
aV4.9
p696
aV3
aV7.25
p697
aa(lp698
V2018
p699
aVBelgium
p700
aVWC
p701
aV3(2)
p702
aV316
p703
aV1
aV-
aV-
aV-
aV1
aV84.4
p704
aV3.2
p705
aV1
aV7.15
p706
aa(lp707
V2015/2016
p708
aVManchester Un..
p709
aVUEL
p710
aV2
aV180
p711
aV-
aV-
aV2
aV-
aV1.5
p712
aV76.3
p713
aV5.5
p714
aV-
aV6.83
p715
aa(lp716
V2015/2016
p717
aVManchester Un..
p718
aVUCL
p719
aV1(4)
p720
aV207
p721
aV-
aV-
aV1
aV-
aV0.8
p722
aV78.7
p723
aV2.8
p724
aV-
aV6.25
p725
aa(lp726
V2015/2016
p727
aVManchester Un..
p728
aVEPL
p729
aV12(6)
p730
aV1070
p731
aV1
aV-
aV2
aV-
aV1.3
p732
aV83.6
p733
aV2.7
p734
aV-
aV6.78
p735
aa(lp736
V2014/2015
p737
aVManchester Un..
p738
aVEPL
p739
aV19(8)
p740
aV1831
p741
aV6
aV-
aV5
aV1
aV1.3
p742
aV84.7
p743
aV4.1
p744
aV3
aV7.16
p745
aa(lp746
V2016
p747
aVBelgium
p748
aVUEC
p749
aV1(2)
p750
aV144
p751
aV-
aV-
aV2
aV-
aV0.7
p752
aV82.5
p753
aV3.7
p754
aV-
aV6.73
p755
aa(lp756
V2013/2014
p757
aVManchester Un..
p758
aVUCL
p759
aV4(1)
p760
aV328
p761
aV-
aV-
aV1
aV1
aV-
aV84.7
p762
aV2.4
p763
aV-
aV6.68
p764
aa(lp765
V2013/2014
p766
aVManchester Un..
p767
aVEPL
p768
aV12(4)
p769
aV1106
p770
aV-
aV1
aV2
aV-
aV1.6
p771
aV88.5
p772
aV3.1
p773
aV-
aV7.21
p774
aa(lp775
V2013/2014
p776
aVEverton
p777
aVEPL
p778
aV3
aV270
p779
aV-
aV-
aV-
aV-
aV1.7
p780
aV89.1
p781
aV6.3
p782
aV-
aV7.75
p783
aa(lp784
V2014
p785
aVBelgium
p786
aVWC
p787
aV4(1)
p788
aV415
p789
aV1
aV-
aV-
aV-
aV1.6
p790
aV76.4
p791
aV4.6
p792
aV-
aV7.05
p793
aa(lp794
V2012/2013
p795
aVEverton
p796
aVEPL
p797
aV31
p798
aV2786
p799
aV11
p800
aV5
aV8
aV-
aV2.9
p801
aV79.3
p802
aV4.8
p803
aV8
aV7.59
p804
aa(lp805
V2011/2012
p806
aVEverton
p807
aVEPL
p808
aV31(3)
p809
aV2856
p810
aV3
aV4
aV6
aV-
aV1.6
p811
aV79.7
p812
aV2.6
p813
aV3
aV7.10
p814
aa(lp815
V2010/2011
p816
aVEverton
p817
aVEPL
p818
aV19(1)
p819
aV1654
p820
aV1
aV2
aV3
aV1
aV1.3
p821
aV77.3
p822
aV3.6
p823
aV1
aV7.10
p824
aa(lp825
V2009/2010
p826
aVEverton
p827
aVEPL
p828
aV20(3)
p829
aV1763
p830
aV2
aV2
aV6
aV-
aV1.6
p831
aV75.3
p832
aV3.9
p833
aV5
aV7.49
p834
aa(lp835
VTotal / Average
p836
aV
aV
aV273
p837
aV19132
p838
aV34
p839
aV17
p840
aV51
p841
aV4
aV1.4
p842
aV82
p843
aV3.6
p844
aV27
p845
aV7.12
p846
aasS'id'
p847
V22738
p848
sb.