(i__main__
Player
p1
(dp2
S'name'
p3
VRyan Bertrand 
p4
sS'offensive_data'
p5
(lp6
(lp7
a(lp8
V2018/2019
p9
aVSouthampton
p10
aVEPL
p11
aV12
p12
aV1080
p13
aV1
aV-
aV5
aV-
aV0.9
p14
aV77.3
p15
aV1.4
p16
aV-
aV6.69
p17
aa(lp18
V2017/2018
p19
aVSouthampton
p20
aVEPL
p21
aV35
p22
aV3137
p23
aV-
aV4
aV2
aV-
aV0.6
p24
aV78.9
p25
aV1.3
p26
aV-
aV6.66
p27
aa(lp28
V2016/2017
p29
aVSouthampton
p30
aVEPL
p31
aV28
p32
aV2508
p33
aV2
aV4
aV3
aV-
aV0.7
p34
aV83.4
p35
aV1.5
p36
aV-
aV6.86
p37
aa(lp38
V2016/2017
p39
aVSouthampton
p40
aVUEL
p41
aV1
aV90
p42
aV-
aV-
aV1
aV-
aV1
aV81.8
p43
aV1
aV-
aV7.04
p44
aa(lp45
V2015/2016
p46
aVSouthampton
p47
aVEPL
p48
aV32
p49
aV2880
p50
aV1
aV3
aV6
aV-
aV0.4
p51
aV79.8
p52
aV1.2
p53
aV-
aV6.92
p54
aa(lp55
V2014/2015
p56
aVSouthampton
p57
aVEPL
p58
aV34
p59
aV3055
p60
aV2
aV2
aV3
aV1
aV0.4
p61
aV79.4
p62
aV1.6
p63
aV-
aV7.02
p64
aa(lp65
V2016
p66
aVEngland
p67
aVUEC
p68
aV1
aV90
p69
aV-
aV-
aV1
aV-
aV-
aV89.7
p70
aV1
aV-
aV7.03
p71
aa(lp72
V2013/2014
p73
aVAston Villa
p74
aVEPL
p75
aV16
p76
aV1391
p77
aV-
aV-
aV3
aV-
aV0.1
p78
aV74.2
p79
aV1.3
p80
aV-
aV6.44
p81
aa(lp82
V2013/2014
p83
aVChelsea
p84
aVEPL
p85
aV1
aV64
p86
aV-
aV-
aV-
aV-
aV-
aV96.6
p87
aV2
aV-
aV6.77
p88
aa(lp89
V2012/2013
p90
aVChelsea
p91
aVUEL
p92
aV5
aV450
p93
aV-
aV1
aV2
aV-
aV-
aV90.6
p94
aV0.8
p95
aV-
aV6.85
p96
aa(lp97
V2012/2013
p98
aVChelsea
p99
aVUCL
p100
aV1(2)
p101
aV140
p102
aV-
aV-
aV-
aV-
aV-
aV89.4
p103
aV1
aV-
aV6.50
p104
aa(lp105
V2012/2013
p106
aVChelsea
p107
aVEPL
p108
aV14(5)
p109
aV1280
p110
aV-
aV-
aV1
aV-
aV0.4
p111
aV84.4
p112
aV0.6
p113
aV-
aV6.48
p114
aa(lp115
V2011/2012
p116
aVChelsea
p117
aVUCL
p118
aV1
aV75
p119
aV-
aV-
aV-
aV-
aV-
aV80
p120
aV3
aV-
aV6.97
p121
aa(lp122
V2011/2012
p123
aVChelsea
p124
aVEPL
p125
aV6(1)
p126
aV540
p127
aV-
aV-
aV1
aV-
aV0.3
p128
aV90.8
p129
aV0.9
p130
aV-
aV6.80
p131
aa(lp132
V2010/2011
p133
aVChelsea
p134
aVEPL
p135
aV0(1)
p136
aV33
p137
aV-
aV1
aV-
aV-
aV-
aV90.5
p138
aV-
aV-
aV6.82
p139
aa(lp140
VTotal / Average
p141
aV
aV
aV196
p142
aV16813
p143
aV6
aV15
p144
aV28
p145
aV1
aV0.5
p146
aV80.9
p147
aV1.3
p148
aV0
aV6.77
p149
aasS'url'
p150
S'https://www.whoscored.com/Players/22846/History/'
p151
sS'passing_data'
p152
(lp153
(lp154
a(lp155
V2018/2019
p156
aVSouthampton
p157
aVEPL
p158
aV12
p159
aV1080
p160
aV1
aV-
aV5
aV-
aV0.9
p161
aV77.3
p162
aV1.4
p163
aV-
aV6.69
p164
aa(lp165
V2017/2018
p166
aVSouthampton
p167
aVEPL
p168
aV35
p169
aV3137
p170
aV-
aV4
aV2
aV-
aV0.6
p171
aV78.9
p172
aV1.3
p173
aV-
aV6.66
p174
aa(lp175
V2016/2017
p176
aVSouthampton
p177
aVEPL
p178
aV28
p179
aV2508
p180
aV2
aV4
aV3
aV-
aV0.7
p181
aV83.4
p182
aV1.5
p183
aV-
aV6.86
p184
aa(lp185
V2016/2017
p186
aVSouthampton
p187
aVUEL
p188
aV1
aV90
p189
aV-
aV-
aV1
aV-
aV1
aV81.8
p190
aV1
aV-
aV7.04
p191
aa(lp192
V2015/2016
p193
aVSouthampton
p194
aVEPL
p195
aV32
p196
aV2880
p197
aV1
aV3
aV6
aV-
aV0.4
p198
aV79.8
p199
aV1.2
p200
aV-
aV6.92
p201
aa(lp202
V2014/2015
p203
aVSouthampton
p204
aVEPL
p205
aV34
p206
aV3055
p207
aV2
aV2
aV3
aV1
aV0.4
p208
aV79.4
p209
aV1.6
p210
aV-
aV7.02
p211
aa(lp212
V2016
p213
aVEngland
p214
aVUEC
p215
aV1
aV90
p216
aV-
aV-
aV1
aV-
aV-
aV89.7
p217
aV1
aV-
aV7.03
p218
aa(lp219
V2013/2014
p220
aVAston Villa
p221
aVEPL
p222
aV16
p223
aV1391
p224
aV-
aV-
aV3
aV-
aV0.1
p225
aV74.2
p226
aV1.3
p227
aV-
aV6.44
p228
aa(lp229
V2013/2014
p230
aVChelsea
p231
aVEPL
p232
aV1
aV64
p233
aV-
aV-
aV-
aV-
aV-
aV96.6
p234
aV2
aV-
aV6.77
p235
aa(lp236
V2012/2013
p237
aVChelsea
p238
aVUEL
p239
aV5
aV450
p240
aV-
aV1
aV2
aV-
aV-
aV90.6
p241
aV0.8
p242
aV-
aV6.85
p243
aa(lp244
V2012/2013
p245
aVChelsea
p246
aVUCL
p247
aV1(2)
p248
aV140
p249
aV-
aV-
aV-
aV-
aV-
aV89.4
p250
aV1
aV-
aV6.50
p251
aa(lp252
V2012/2013
p253
aVChelsea
p254
aVEPL
p255
aV14(5)
p256
aV1280
p257
aV-
aV-
aV1
aV-
aV0.4
p258
aV84.4
p259
aV0.6
p260
aV-
aV6.48
p261
aa(lp262
V2011/2012
p263
aVChelsea
p264
aVUCL
p265
aV1
aV75
p266
aV-
aV-
aV-
aV-
aV-
aV80
p267
aV3
aV-
aV6.97
p268
aa(lp269
V2011/2012
p270
aVChelsea
p271
aVEPL
p272
aV6(1)
p273
aV540
p274
aV-
aV-
aV1
aV-
aV0.3
p275
aV90.8
p276
aV0.9
p277
aV-
aV6.80
p278
aa(lp279
V2010/2011
p280
aVChelsea
p281
aVEPL
p282
aV0(1)
p283
aV33
p284
aV-
aV1
aV-
aV-
aV-
aV90.5
p285
aV-
aV-
aV6.82
p286
aa(lp287
VTotal / Average
p288
aV
aV
aV196
p289
aV16813
p290
aV6
aV15
p291
aV28
p292
aV1
aV0.5
p293
aV80.9
p294
aV1.3
p295
aV0
aV6.77
p296
aasS'defensive_data'
p297
(lp298
(lp299
a(lp300
V2018/2019
p301
aVSouthampton
p302
aVEPL
p303
aV12
p304
aV1080
p305
aV1
aV-
aV5
aV-
aV0.9
p306
aV77.3
p307
aV1.4
p308
aV-
aV6.69
p309
aa(lp310
V2017/2018
p311
aVSouthampton
p312
aVEPL
p313
aV35
p314
aV3137
p315
aV-
aV4
aV2
aV-
aV0.6
p316
aV78.9
p317
aV1.3
p318
aV-
aV6.66
p319
aa(lp320
V2016/2017
p321
aVSouthampton
p322
aVEPL
p323
aV28
p324
aV2508
p325
aV2
aV4
aV3
aV-
aV0.7
p326
aV83.4
p327
aV1.5
p328
aV-
aV6.86
p329
aa(lp330
V2016/2017
p331
aVSouthampton
p332
aVUEL
p333
aV1
aV90
p334
aV-
aV-
aV1
aV-
aV1
aV81.8
p335
aV1
aV-
aV7.04
p336
aa(lp337
V2015/2016
p338
aVSouthampton
p339
aVEPL
p340
aV32
p341
aV2880
p342
aV1
aV3
aV6
aV-
aV0.4
p343
aV79.8
p344
aV1.2
p345
aV-
aV6.92
p346
aa(lp347
V2014/2015
p348
aVSouthampton
p349
aVEPL
p350
aV34
p351
aV3055
p352
aV2
aV2
aV3
aV1
aV0.4
p353
aV79.4
p354
aV1.6
p355
aV-
aV7.02
p356
aa(lp357
V2016
p358
aVEngland
p359
aVUEC
p360
aV1
aV90
p361
aV-
aV-
aV1
aV-
aV-
aV89.7
p362
aV1
aV-
aV7.03
p363
aa(lp364
V2013/2014
p365
aVAston Villa
p366
aVEPL
p367
aV16
p368
aV1391
p369
aV-
aV-
aV3
aV-
aV0.1
p370
aV74.2
p371
aV1.3
p372
aV-
aV6.44
p373
aa(lp374
V2013/2014
p375
aVChelsea
p376
aVEPL
p377
aV1
aV64
p378
aV-
aV-
aV-
aV-
aV-
aV96.6
p379
aV2
aV-
aV6.77
p380
aa(lp381
V2012/2013
p382
aVChelsea
p383
aVUEL
p384
aV5
aV450
p385
aV-
aV1
aV2
aV-
aV-
aV90.6
p386
aV0.8
p387
aV-
aV6.85
p388
aa(lp389
V2012/2013
p390
aVChelsea
p391
aVUCL
p392
aV1(2)
p393
aV140
p394
aV-
aV-
aV-
aV-
aV-
aV89.4
p395
aV1
aV-
aV6.50
p396
aa(lp397
V2012/2013
p398
aVChelsea
p399
aVEPL
p400
aV14(5)
p401
aV1280
p402
aV-
aV-
aV1
aV-
aV0.4
p403
aV84.4
p404
aV0.6
p405
aV-
aV6.48
p406
aa(lp407
V2011/2012
p408
aVChelsea
p409
aVUCL
p410
aV1
aV75
p411
aV-
aV-
aV-
aV-
aV-
aV80
p412
aV3
aV-
aV6.97
p413
aa(lp414
V2011/2012
p415
aVChelsea
p416
aVEPL
p417
aV6(1)
p418
aV540
p419
aV-
aV-
aV1
aV-
aV0.3
p420
aV90.8
p421
aV0.9
p422
aV-
aV6.80
p423
aa(lp424
V2010/2011
p425
aVChelsea
p426
aVEPL
p427
aV0(1)
p428
aV33
p429
aV-
aV1
aV-
aV-
aV-
aV90.5
p430
aV-
aV-
aV6.82
p431
aa(lp432
VTotal / Average
p433
aV
aV
aV196
p434
aV16813
p435
aV6
aV15
p436
aV28
p437
aV1
aV0.5
p438
aV80.9
p439
aV1.3
p440
aV0
aV6.77
p441
aasS'sumary_data'
p442
(lp443
(lp444
a(lp445
V2018/2019
p446
aVSouthampton
p447
aVEPL
p448
aV12
p449
aV1080
p450
aV1
aV-
aV5
aV-
aV0.9
p451
aV77.3
p452
aV1.4
p453
aV-
aV6.69
p454
aa(lp455
V2017/2018
p456
aVSouthampton
p457
aVEPL
p458
aV35
p459
aV3137
p460
aV-
aV4
aV2
aV-
aV0.6
p461
aV78.9
p462
aV1.3
p463
aV-
aV6.66
p464
aa(lp465
V2016/2017
p466
aVSouthampton
p467
aVEPL
p468
aV28
p469
aV2508
p470
aV2
aV4
aV3
aV-
aV0.7
p471
aV83.4
p472
aV1.5
p473
aV-
aV6.86
p474
aa(lp475
V2016/2017
p476
aVSouthampton
p477
aVUEL
p478
aV1
aV90
p479
aV-
aV-
aV1
aV-
aV1
aV81.8
p480
aV1
aV-
aV7.04
p481
aa(lp482
V2015/2016
p483
aVSouthampton
p484
aVEPL
p485
aV32
p486
aV2880
p487
aV1
aV3
aV6
aV-
aV0.4
p488
aV79.8
p489
aV1.2
p490
aV-
aV6.92
p491
aa(lp492
V2014/2015
p493
aVSouthampton
p494
aVEPL
p495
aV34
p496
aV3055
p497
aV2
aV2
aV3
aV1
aV0.4
p498
aV79.4
p499
aV1.6
p500
aV-
aV7.02
p501
aa(lp502
V2016
p503
aVEngland
p504
aVUEC
p505
aV1
aV90
p506
aV-
aV-
aV1
aV-
aV-
aV89.7
p507
aV1
aV-
aV7.03
p508
aa(lp509
V2013/2014
p510
aVAston Villa
p511
aVEPL
p512
aV16
p513
aV1391
p514
aV-
aV-
aV3
aV-
aV0.1
p515
aV74.2
p516
aV1.3
p517
aV-
aV6.44
p518
aa(lp519
V2013/2014
p520
aVChelsea
p521
aVEPL
p522
aV1
aV64
p523
aV-
aV-
aV-
aV-
aV-
aV96.6
p524
aV2
aV-
aV6.77
p525
aa(lp526
V2012/2013
p527
aVChelsea
p528
aVUEL
p529
aV5
aV450
p530
aV-
aV1
aV2
aV-
aV-
aV90.6
p531
aV0.8
p532
aV-
aV6.85
p533
aa(lp534
V2012/2013
p535
aVChelsea
p536
aVUCL
p537
aV1(2)
p538
aV140
p539
aV-
aV-
aV-
aV-
aV-
aV89.4
p540
aV1
aV-
aV6.50
p541
aa(lp542
V2012/2013
p543
aVChelsea
p544
aVEPL
p545
aV14(5)
p546
aV1280
p547
aV-
aV-
aV1
aV-
aV0.4
p548
aV84.4
p549
aV0.6
p550
aV-
aV6.48
p551
aa(lp552
V2011/2012
p553
aVChelsea
p554
aVUCL
p555
aV1
aV75
p556
aV-
aV-
aV-
aV-
aV-
aV80
p557
aV3
aV-
aV6.97
p558
aa(lp559
V2011/2012
p560
aVChelsea
p561
aVEPL
p562
aV6(1)
p563
aV540
p564
aV-
aV-
aV1
aV-
aV0.3
p565
aV90.8
p566
aV0.9
p567
aV-
aV6.80
p568
aa(lp569
V2010/2011
p570
aVChelsea
p571
aVEPL
p572
aV0(1)
p573
aV33
p574
aV-
aV1
aV-
aV-
aV-
aV90.5
p575
aV-
aV-
aV6.82
p576
aa(lp577
VTotal / Average
p578
aV
aV
aV196
p579
aV16813
p580
aV6
aV15
p581
aV28
p582
aV1
aV0.5
p583
aV80.9
p584
aV1.3
p585
aV0
aV6.77
p586
aasS'id'
p587
V22846
p588
sb.