(i__main__
Player
p1
(dp2
S'name'
p3
VJack Cork 
p4
sS'offensive_data'
p5
(lp6
(lp7
a(lp8
V2018/2019
p9
aVBurnley
p10
aVEPL
p11
aV16
p12
aV1423
p13
aV1
aV1
aV3
aV-
aV0.4
p14
aV83.1
p15
aV0.9
p16
aV-
aV6.51
p17
aa(lp18
V2017/2018
p19
aVBurnley
p20
aVEPL
p21
aV38
p22
aV3420
p23
aV2
aV1
aV7
aV-
aV0.4
p24
aV80.6
p25
aV1.5
p26
aV-
aV6.74
p27
aa(lp28
V2016/2017
p29
aVSwansea
p30
aVEPL
p31
aV25(5)
p32
aV2233
p33
aV-
aV-
aV7
aV-
aV0.6
p34
aV83.5
p35
aV1.2
p36
aV-
aV6.60
p37
aa(lp38
V2015/2016
p39
aVSwansea
p40
aVEPL
p41
aV28(7)
p42
aV2545
p43
aV1
aV2
aV3
aV-
aV0.5
p44
aV83.8
p45
aV1.7
p46
aV1
aV7.05
p47
aa(lp48
V2014/2015
p49
aVSouthampton
p50
aVEPL
p51
aV5(7)
p52
aV477
p53
aV2
aV-
aV-
aV-
aV0.3
p54
aV86.9
p55
aV0.5
p56
aV-
aV6.63
p57
aa(lp58
V2014/2015
p59
aVSwansea
p60
aVEPL
p61
aV15
p62
aV1325
p63
aV1
aV-
aV1
aV-
aV0.3
p64
aV85.4
p65
aV3.1
p66
aV-
aV7.18
p67
aa(lp68
V2013/2014
p69
aVSouthampton
p70
aVEPL
p71
aV21(7)
p72
aV1736
p73
aV-
aV1
aV5
aV-
aV0.6
p74
aV86
p75
aV1.1
p76
aV-
aV6.79
p77
aa(lp78
V2012/2013
p79
aVSouthampton
p80
aVEPL
p81
aV28
p82
aV2431
p83
aV-
aV-
aV1
aV-
aV0.5
p84
aV83.6
p85
aV1.5
p86
aV-
aV6.88
p87
aa(lp88
V2009/2010
p89
aVBurnley
p90
aVEPL
p91
aV8(3)
p92
aV773
p93
aV1
aV3
aV1
aV-
aV0.9
p94
aV81.5
p95
aV0.5
p96
aV-
aV6.73
p97
aa(lp98
VTotal / Average
p99
aV
aV
aV213
p100
aV16363
p101
aV8
aV8
aV28
p102
aV0
aV0.5
p103
aV83.6
p104
aV1.4
p105
aV1
aV6.80
p106
aasS'url'
p107
S'https://www.whoscored.com/Players/22847/History/'
p108
sS'passing_data'
p109
(lp110
(lp111
a(lp112
V2018/2019
p113
aVBurnley
p114
aVEPL
p115
aV16
p116
aV1423
p117
aV1
aV1
aV3
aV-
aV0.4
p118
aV83.1
p119
aV0.9
p120
aV-
aV6.51
p121
aa(lp122
V2017/2018
p123
aVBurnley
p124
aVEPL
p125
aV38
p126
aV3420
p127
aV2
aV1
aV7
aV-
aV0.4
p128
aV80.6
p129
aV1.5
p130
aV-
aV6.74
p131
aa(lp132
V2016/2017
p133
aVSwansea
p134
aVEPL
p135
aV25(5)
p136
aV2233
p137
aV-
aV-
aV7
aV-
aV0.6
p138
aV83.5
p139
aV1.2
p140
aV-
aV6.60
p141
aa(lp142
V2015/2016
p143
aVSwansea
p144
aVEPL
p145
aV28(7)
p146
aV2545
p147
aV1
aV2
aV3
aV-
aV0.5
p148
aV83.8
p149
aV1.7
p150
aV1
aV7.05
p151
aa(lp152
V2014/2015
p153
aVSouthampton
p154
aVEPL
p155
aV5(7)
p156
aV477
p157
aV2
aV-
aV-
aV-
aV0.3
p158
aV86.9
p159
aV0.5
p160
aV-
aV6.63
p161
aa(lp162
V2014/2015
p163
aVSwansea
p164
aVEPL
p165
aV15
p166
aV1325
p167
aV1
aV-
aV1
aV-
aV0.3
p168
aV85.4
p169
aV3.1
p170
aV-
aV7.18
p171
aa(lp172
V2013/2014
p173
aVSouthampton
p174
aVEPL
p175
aV21(7)
p176
aV1736
p177
aV-
aV1
aV5
aV-
aV0.6
p178
aV86
p179
aV1.1
p180
aV-
aV6.79
p181
aa(lp182
V2012/2013
p183
aVSouthampton
p184
aVEPL
p185
aV28
p186
aV2431
p187
aV-
aV-
aV1
aV-
aV0.5
p188
aV83.6
p189
aV1.5
p190
aV-
aV6.88
p191
aa(lp192
V2009/2010
p193
aVBurnley
p194
aVEPL
p195
aV8(3)
p196
aV773
p197
aV1
aV3
aV1
aV-
aV0.9
p198
aV81.5
p199
aV0.5
p200
aV-
aV6.73
p201
aa(lp202
VTotal / Average
p203
aV
aV
aV213
p204
aV16363
p205
aV8
aV8
aV28
p206
aV0
aV0.5
p207
aV83.6
p208
aV1.4
p209
aV1
aV6.80
p210
aasS'defensive_data'
p211
(lp212
(lp213
a(lp214
V2018/2019
p215
aVBurnley
p216
aVEPL
p217
aV16
p218
aV1423
p219
aV1
aV1
aV3
aV-
aV0.4
p220
aV83.1
p221
aV0.9
p222
aV-
aV6.51
p223
aa(lp224
V2017/2018
p225
aVBurnley
p226
aVEPL
p227
aV38
p228
aV3420
p229
aV2
aV1
aV7
aV-
aV0.4
p230
aV80.6
p231
aV1.5
p232
aV-
aV6.74
p233
aa(lp234
V2016/2017
p235
aVSwansea
p236
aVEPL
p237
aV25(5)
p238
aV2233
p239
aV-
aV-
aV7
aV-
aV0.6
p240
aV83.5
p241
aV1.2
p242
aV-
aV6.60
p243
aa(lp244
V2015/2016
p245
aVSwansea
p246
aVEPL
p247
aV28(7)
p248
aV2545
p249
aV1
aV2
aV3
aV-
aV0.5
p250
aV83.8
p251
aV1.7
p252
aV1
aV7.05
p253
aa(lp254
V2014/2015
p255
aVSouthampton
p256
aVEPL
p257
aV5(7)
p258
aV477
p259
aV2
aV-
aV-
aV-
aV0.3
p260
aV86.9
p261
aV0.5
p262
aV-
aV6.63
p263
aa(lp264
V2014/2015
p265
aVSwansea
p266
aVEPL
p267
aV15
p268
aV1325
p269
aV1
aV-
aV1
aV-
aV0.3
p270
aV85.4
p271
aV3.1
p272
aV-
aV7.18
p273
aa(lp274
V2013/2014
p275
aVSouthampton
p276
aVEPL
p277
aV21(7)
p278
aV1736
p279
aV-
aV1
aV5
aV-
aV0.6
p280
aV86
p281
aV1.1
p282
aV-
aV6.79
p283
aa(lp284
V2012/2013
p285
aVSouthampton
p286
aVEPL
p287
aV28
p288
aV2431
p289
aV-
aV-
aV1
aV-
aV0.5
p290
aV83.6
p291
aV1.5
p292
aV-
aV6.88
p293
aa(lp294
V2009/2010
p295
aVBurnley
p296
aVEPL
p297
aV8(3)
p298
aV773
p299
aV1
aV3
aV1
aV-
aV0.9
p300
aV81.5
p301
aV0.5
p302
aV-
aV6.73
p303
aa(lp304
VTotal / Average
p305
aV
aV
aV213
p306
aV16363
p307
aV8
aV8
aV28
p308
aV0
aV0.5
p309
aV83.6
p310
aV1.4
p311
aV1
aV6.80
p312
aasS'sumary_data'
p313
(lp314
(lp315
a(lp316
V2018/2019
p317
aVBurnley
p318
aVEPL
p319
aV16
p320
aV1423
p321
aV1
aV1
aV3
aV-
aV0.4
p322
aV83.1
p323
aV0.9
p324
aV-
aV6.51
p325
aa(lp326
V2017/2018
p327
aVBurnley
p328
aVEPL
p329
aV38
p330
aV3420
p331
aV2
aV1
aV7
aV-
aV0.4
p332
aV80.6
p333
aV1.5
p334
aV-
aV6.74
p335
aa(lp336
V2016/2017
p337
aVSwansea
p338
aVEPL
p339
aV25(5)
p340
aV2233
p341
aV-
aV-
aV7
aV-
aV0.6
p342
aV83.5
p343
aV1.2
p344
aV-
aV6.60
p345
aa(lp346
V2015/2016
p347
aVSwansea
p348
aVEPL
p349
aV28(7)
p350
aV2545
p351
aV1
aV2
aV3
aV-
aV0.5
p352
aV83.8
p353
aV1.7
p354
aV1
aV7.05
p355
aa(lp356
V2014/2015
p357
aVSouthampton
p358
aVEPL
p359
aV5(7)
p360
aV477
p361
aV2
aV-
aV-
aV-
aV0.3
p362
aV86.9
p363
aV0.5
p364
aV-
aV6.63
p365
aa(lp366
V2014/2015
p367
aVSwansea
p368
aVEPL
p369
aV15
p370
aV1325
p371
aV1
aV-
aV1
aV-
aV0.3
p372
aV85.4
p373
aV3.1
p374
aV-
aV7.18
p375
aa(lp376
V2013/2014
p377
aVSouthampton
p378
aVEPL
p379
aV21(7)
p380
aV1736
p381
aV-
aV1
aV5
aV-
aV0.6
p382
aV86
p383
aV1.1
p384
aV-
aV6.79
p385
aa(lp386
V2012/2013
p387
aVSouthampton
p388
aVEPL
p389
aV28
p390
aV2431
p391
aV-
aV-
aV1
aV-
aV0.5
p392
aV83.6
p393
aV1.5
p394
aV-
aV6.88
p395
aa(lp396
V2009/2010
p397
aVBurnley
p398
aVEPL
p399
aV8(3)
p400
aV773
p401
aV1
aV3
aV1
aV-
aV0.9
p402
aV81.5
p403
aV0.5
p404
aV-
aV6.73
p405
aa(lp406
VTotal / Average
p407
aV
aV
aV213
p408
aV16363
p409
aV8
aV8
aV28
p410
aV0
aV0.5
p411
aV83.6
p412
aV1.4
p413
aV1
aV6.80
p414
aasS'id'
p415
V22847
p416
sb.