(i__main__
Player
p1
(dp2
S'name'
p3
VNacho Monreal 
p4
sS'offensive_data'
p5
(lp6
(lp7
a(lp8
V2018/2019
p9
aVArsenal
p10
aVEPL
p11
aV8(1)
p12
aV744
p13
aV1
aV2
aV1
aV-
aV0.7
p14
aV87
p15
aV1.7
p16
aV-
aV7.01
p17
aa(lp18
V2018/2019
p19
aVArsenal
p20
aVUEL
p21
aV2(1)
p22
aV154
p23
aV-
aV1
aV-
aV-
aV0.3
p24
aV91.5
p25
aV1.3
p26
aV-
aV6.80
p27
aa(lp28
V2017/2018
p29
aVArsenal
p30
aVUEL
p31
aV7
aV613
p32
aV1
aV-
aV2
aV-
aV0.9
p33
aV87.3
p34
aV1.6
p35
aV-
aV6.97
p36
aa(lp37
V2017/2018
p38
aVArsenal
p39
aVEPL
p40
aV26(2)
p41
aV2244
p42
aV5
aV2
aV3
aV-
aV0.8
p43
aV89.5
p44
aV2.2
p45
aV2
aV7.13
p46
aa(lp47
V2016/2017
p48
aVArsenal
p49
aVUCL
p50
aV3
aV255
p51
aV-
aV-
aV-
aV-
aV0.7
p52
aV92.5
p53
aV0.7
p54
aV-
aV6.86
p55
aa(lp56
V2016/2017
p57
aVArsenal
p58
aVEPL
p59
aV35(1)
p60
aV3153
p61
aV-
aV2
aV5
aV-
aV0.3
p62
aV85.6
p63
aV1.6
p64
aV-
aV6.98
p65
aa(lp66
V2015/2016
p67
aVArsenal
p68
aVUCL
p69
aV6
aV540
p70
aV-
aV1
aV2
aV-
aV0.5
p71
aV85.1
p72
aV1.3
p73
aV-
aV7.11
p74
aa(lp75
V2015/2016
p76
aVArsenal
p77
aVEPL
p78
aV36(1)
p79
aV3248
p80
aV-
aV3
aV1
aV-
aV0.3
p81
aV85.5
p82
aV1.9
p83
aV1
aV7.26
p84
aa(lp85
V2014/2015
p86
aVArsenal
p87
aVUCL
p88
aV4
aV353
p89
aV-
aV-
aV2
aV-
aV-
aV96.9
p90
aV1
aV-
aV6.93
p91
aa(lp92
V2014/2015
p93
aVArsenal
p94
aVEPL
p95
aV26(2)
p96
aV2311
p97
aV-
aV1
aV3
aV-
aV0.1
p98
aV85.6
p99
aV2.8
p100
aV-
aV7.33
p101
aa(lp102
V2013/2014
p103
aVArsenal
p104
aVUCL
p105
aV1(5)
p106
aV195
p107
aV-
aV-
aV-
aV-
aV-
aV87.2
p108
aV0.5
p109
aV-
aV6.45
p110
aa(lp111
V2013/2014
p112
aVArsenal
p113
aVEPL
p114
aV13(10)
p115
aV1179
p116
aV-
aV1
aV2
aV-
aV0.2
p117
aV88.2
p118
aV0.8
p119
aV-
aV6.67
p120
aa(lp121
V2013
p122
aVSpain
p123
aVICC
p124
aV1
aV90
p125
aV-
aV1
aV-
aV-
aV-
aV97.2
p126
aV-
aV-
aV8.30
p127
aa(lp128
V2012/2013
p129
aVMalaga
p130
aVSLL
p131
aV14
p132
aV1191
p133
aV1
aV2
aV3
aV-
aV0.8
p134
aV85.3
p135
aV1.6
p136
aV1
aV7.23
p137
aa(lp138
V2012/2013
p139
aVMalaga
p140
aVUCL
p141
aV2
aV180
p142
aV-
aV-
aV-
aV-
aV1
aV80.5
p143
aV1
aV-
aV7.73
p144
aa(lp145
V2012/2013
p146
aVArsenal
p147
aVEPL
p148
aV9(1)
p149
aV792
p150
aV1
aV1
aV2
aV-
aV0.6
p151
aV86.8
p152
aV1.1
p153
aV1
aV7.13
p154
aa(lp155
V2011/2012
p156
aVMalaga
p157
aVSLL
p158
aV28(3)
p159
aV2564
p160
aV-
aV4
aV1
aV-
aV0.4
p161
aV81.9
p162
aV1.5
p163
aV1
aV7.17
p164
aa(lp165
V2010/2011
p166
aVOsasuna
p167
aVSLL
p168
aV31
p169
aV2758
p170
aV1
aV2
aV6
aV1
aV0.5
p171
aV71.8
p172
aV1.6
p173
aV-
aV7.14
p174
aa(lp175
V2009/2010
p176
aVOsasuna
p177
aVSLL
p178
aV31
p179
aV2747
p180
aV1
aV1
aV6
aV1
aV0.3
p181
aV71.8
p182
aV1.4
p183
aV-
aV6.87
p184
aa(lp185
VTotal / Average
p186
aV
aV
aV310
p187
aV25311
p188
aV11
p189
aV24
p190
aV39
p191
aV2
aV0.4
p192
aV83.4
p193
aV1.6
p194
aV6
aV7.07
p195
aasS'url'
p196
S'https://www.whoscored.com/Players/23072/History/'
p197
sS'passing_data'
p198
(lp199
(lp200
a(lp201
V2018/2019
p202
aVArsenal
p203
aVEPL
p204
aV8(1)
p205
aV744
p206
aV1
aV2
aV1
aV-
aV0.7
p207
aV87
p208
aV1.7
p209
aV-
aV7.01
p210
aa(lp211
V2018/2019
p212
aVArsenal
p213
aVUEL
p214
aV2(1)
p215
aV154
p216
aV-
aV1
aV-
aV-
aV0.3
p217
aV91.5
p218
aV1.3
p219
aV-
aV6.80
p220
aa(lp221
V2017/2018
p222
aVArsenal
p223
aVUEL
p224
aV7
aV613
p225
aV1
aV-
aV2
aV-
aV0.9
p226
aV87.3
p227
aV1.6
p228
aV-
aV6.97
p229
aa(lp230
V2017/2018
p231
aVArsenal
p232
aVEPL
p233
aV26(2)
p234
aV2244
p235
aV5
aV2
aV3
aV-
aV0.8
p236
aV89.5
p237
aV2.2
p238
aV2
aV7.13
p239
aa(lp240
V2016/2017
p241
aVArsenal
p242
aVUCL
p243
aV3
aV255
p244
aV-
aV-
aV-
aV-
aV0.7
p245
aV92.5
p246
aV0.7
p247
aV-
aV6.86
p248
aa(lp249
V2016/2017
p250
aVArsenal
p251
aVEPL
p252
aV35(1)
p253
aV3153
p254
aV-
aV2
aV5
aV-
aV0.3
p255
aV85.6
p256
aV1.6
p257
aV-
aV6.98
p258
aa(lp259
V2015/2016
p260
aVArsenal
p261
aVUCL
p262
aV6
aV540
p263
aV-
aV1
aV2
aV-
aV0.5
p264
aV85.1
p265
aV1.3
p266
aV-
aV7.11
p267
aa(lp268
V2015/2016
p269
aVArsenal
p270
aVEPL
p271
aV36(1)
p272
aV3248
p273
aV-
aV3
aV1
aV-
aV0.3
p274
aV85.5
p275
aV1.9
p276
aV1
aV7.26
p277
aa(lp278
V2014/2015
p279
aVArsenal
p280
aVUCL
p281
aV4
aV353
p282
aV-
aV-
aV2
aV-
aV-
aV96.9
p283
aV1
aV-
aV6.93
p284
aa(lp285
V2014/2015
p286
aVArsenal
p287
aVEPL
p288
aV26(2)
p289
aV2311
p290
aV-
aV1
aV3
aV-
aV0.1
p291
aV85.6
p292
aV2.8
p293
aV-
aV7.33
p294
aa(lp295
V2013/2014
p296
aVArsenal
p297
aVUCL
p298
aV1(5)
p299
aV195
p300
aV-
aV-
aV-
aV-
aV-
aV87.2
p301
aV0.5
p302
aV-
aV6.45
p303
aa(lp304
V2013/2014
p305
aVArsenal
p306
aVEPL
p307
aV13(10)
p308
aV1179
p309
aV-
aV1
aV2
aV-
aV0.2
p310
aV88.2
p311
aV0.8
p312
aV-
aV6.67
p313
aa(lp314
V2013
p315
aVSpain
p316
aVICC
p317
aV1
aV90
p318
aV-
aV1
aV-
aV-
aV-
aV97.2
p319
aV-
aV-
aV8.30
p320
aa(lp321
V2012/2013
p322
aVMalaga
p323
aVSLL
p324
aV14
p325
aV1191
p326
aV1
aV2
aV3
aV-
aV0.8
p327
aV85.3
p328
aV1.6
p329
aV1
aV7.23
p330
aa(lp331
V2012/2013
p332
aVMalaga
p333
aVUCL
p334
aV2
aV180
p335
aV-
aV-
aV-
aV-
aV1
aV80.5
p336
aV1
aV-
aV7.73
p337
aa(lp338
V2012/2013
p339
aVArsenal
p340
aVEPL
p341
aV9(1)
p342
aV792
p343
aV1
aV1
aV2
aV-
aV0.6
p344
aV86.8
p345
aV1.1
p346
aV1
aV7.13
p347
aa(lp348
V2011/2012
p349
aVMalaga
p350
aVSLL
p351
aV28(3)
p352
aV2564
p353
aV-
aV4
aV1
aV-
aV0.4
p354
aV81.9
p355
aV1.5
p356
aV1
aV7.17
p357
aa(lp358
V2010/2011
p359
aVOsasuna
p360
aVSLL
p361
aV31
p362
aV2758
p363
aV1
aV2
aV6
aV1
aV0.5
p364
aV71.8
p365
aV1.6
p366
aV-
aV7.14
p367
aa(lp368
V2009/2010
p369
aVOsasuna
p370
aVSLL
p371
aV31
p372
aV2747
p373
aV1
aV1
aV6
aV1
aV0.3
p374
aV71.8
p375
aV1.4
p376
aV-
aV6.87
p377
aa(lp378
VTotal / Average
p379
aV
aV
aV310
p380
aV25311
p381
aV11
p382
aV24
p383
aV39
p384
aV2
aV0.4
p385
aV83.4
p386
aV1.6
p387
aV6
aV7.07
p388
aasS'defensive_data'
p389
(lp390
(lp391
a(lp392
V2018/2019
p393
aVArsenal
p394
aVEPL
p395
aV8(1)
p396
aV744
p397
aV1
aV2
aV1
aV-
aV0.7
p398
aV87
p399
aV1.7
p400
aV-
aV7.01
p401
aa(lp402
V2018/2019
p403
aVArsenal
p404
aVUEL
p405
aV2(1)
p406
aV154
p407
aV-
aV1
aV-
aV-
aV0.3
p408
aV91.5
p409
aV1.3
p410
aV-
aV6.80
p411
aa(lp412
V2017/2018
p413
aVArsenal
p414
aVUEL
p415
aV7
aV613
p416
aV1
aV-
aV2
aV-
aV0.9
p417
aV87.3
p418
aV1.6
p419
aV-
aV6.97
p420
aa(lp421
V2017/2018
p422
aVArsenal
p423
aVEPL
p424
aV26(2)
p425
aV2244
p426
aV5
aV2
aV3
aV-
aV0.8
p427
aV89.5
p428
aV2.2
p429
aV2
aV7.13
p430
aa(lp431
V2016/2017
p432
aVArsenal
p433
aVUCL
p434
aV3
aV255
p435
aV-
aV-
aV-
aV-
aV0.7
p436
aV92.5
p437
aV0.7
p438
aV-
aV6.86
p439
aa(lp440
V2016/2017
p441
aVArsenal
p442
aVEPL
p443
aV35(1)
p444
aV3153
p445
aV-
aV2
aV5
aV-
aV0.3
p446
aV85.6
p447
aV1.6
p448
aV-
aV6.98
p449
aa(lp450
V2015/2016
p451
aVArsenal
p452
aVUCL
p453
aV6
aV540
p454
aV-
aV1
aV2
aV-
aV0.5
p455
aV85.1
p456
aV1.3
p457
aV-
aV7.11
p458
aa(lp459
V2015/2016
p460
aVArsenal
p461
aVEPL
p462
aV36(1)
p463
aV3248
p464
aV-
aV3
aV1
aV-
aV0.3
p465
aV85.5
p466
aV1.9
p467
aV1
aV7.26
p468
aa(lp469
V2014/2015
p470
aVArsenal
p471
aVUCL
p472
aV4
aV353
p473
aV-
aV-
aV2
aV-
aV-
aV96.9
p474
aV1
aV-
aV6.93
p475
aa(lp476
V2014/2015
p477
aVArsenal
p478
aVEPL
p479
aV26(2)
p480
aV2311
p481
aV-
aV1
aV3
aV-
aV0.1
p482
aV85.6
p483
aV2.8
p484
aV-
aV7.33
p485
aa(lp486
V2013/2014
p487
aVArsenal
p488
aVUCL
p489
aV1(5)
p490
aV195
p491
aV-
aV-
aV-
aV-
aV-
aV87.2
p492
aV0.5
p493
aV-
aV6.45
p494
aa(lp495
V2013/2014
p496
aVArsenal
p497
aVEPL
p498
aV13(10)
p499
aV1179
p500
aV-
aV1
aV2
aV-
aV0.2
p501
aV88.2
p502
aV0.8
p503
aV-
aV6.67
p504
aa(lp505
V2013
p506
aVSpain
p507
aVICC
p508
aV1
aV90
p509
aV-
aV1
aV-
aV-
aV-
aV97.2
p510
aV-
aV-
aV8.30
p511
aa(lp512
V2012/2013
p513
aVMalaga
p514
aVSLL
p515
aV14
p516
aV1191
p517
aV1
aV2
aV3
aV-
aV0.8
p518
aV85.3
p519
aV1.6
p520
aV1
aV7.23
p521
aa(lp522
V2012/2013
p523
aVMalaga
p524
aVUCL
p525
aV2
aV180
p526
aV-
aV-
aV-
aV-
aV1
aV80.5
p527
aV1
aV-
aV7.73
p528
aa(lp529
V2012/2013
p530
aVArsenal
p531
aVEPL
p532
aV9(1)
p533
aV792
p534
aV1
aV1
aV2
aV-
aV0.6
p535
aV86.8
p536
aV1.1
p537
aV1
aV7.13
p538
aa(lp539
V2011/2012
p540
aVMalaga
p541
aVSLL
p542
aV28(3)
p543
aV2564
p544
aV-
aV4
aV1
aV-
aV0.4
p545
aV81.9
p546
aV1.5
p547
aV1
aV7.17
p548
aa(lp549
V2010/2011
p550
aVOsasuna
p551
aVSLL
p552
aV31
p553
aV2758
p554
aV1
aV2
aV6
aV1
aV0.5
p555
aV71.8
p556
aV1.6
p557
aV-
aV7.14
p558
aa(lp559
V2009/2010
p560
aVOsasuna
p561
aVSLL
p562
aV31
p563
aV2747
p564
aV1
aV1
aV6
aV1
aV0.3
p565
aV71.8
p566
aV1.4
p567
aV-
aV6.87
p568
aa(lp569
VTotal / Average
p570
aV
aV
aV310
p571
aV25311
p572
aV11
p573
aV24
p574
aV39
p575
aV2
aV0.4
p576
aV83.4
p577
aV1.6
p578
aV6
aV7.07
p579
aasS'sumary_data'
p580
(lp581
(lp582
a(lp583
V2018/2019
p584
aVArsenal
p585
aVEPL
p586
aV8(1)
p587
aV744
p588
aV1
aV2
aV1
aV-
aV0.7
p589
aV87
p590
aV1.7
p591
aV-
aV7.01
p592
aa(lp593
V2018/2019
p594
aVArsenal
p595
aVUEL
p596
aV2(1)
p597
aV154
p598
aV-
aV1
aV-
aV-
aV0.3
p599
aV91.5
p600
aV1.3
p601
aV-
aV6.80
p602
aa(lp603
V2017/2018
p604
aVArsenal
p605
aVUEL
p606
aV7
aV613
p607
aV1
aV-
aV2
aV-
aV0.9
p608
aV87.3
p609
aV1.6
p610
aV-
aV6.97
p611
aa(lp612
V2017/2018
p613
aVArsenal
p614
aVEPL
p615
aV26(2)
p616
aV2244
p617
aV5
aV2
aV3
aV-
aV0.8
p618
aV89.5
p619
aV2.2
p620
aV2
aV7.13
p621
aa(lp622
V2016/2017
p623
aVArsenal
p624
aVUCL
p625
aV3
aV255
p626
aV-
aV-
aV-
aV-
aV0.7
p627
aV92.5
p628
aV0.7
p629
aV-
aV6.86
p630
aa(lp631
V2016/2017
p632
aVArsenal
p633
aVEPL
p634
aV35(1)
p635
aV3153
p636
aV-
aV2
aV5
aV-
aV0.3
p637
aV85.6
p638
aV1.6
p639
aV-
aV6.98
p640
aa(lp641
V2015/2016
p642
aVArsenal
p643
aVUCL
p644
aV6
aV540
p645
aV-
aV1
aV2
aV-
aV0.5
p646
aV85.1
p647
aV1.3
p648
aV-
aV7.11
p649
aa(lp650
V2015/2016
p651
aVArsenal
p652
aVEPL
p653
aV36(1)
p654
aV3248
p655
aV-
aV3
aV1
aV-
aV0.3
p656
aV85.5
p657
aV1.9
p658
aV1
aV7.26
p659
aa(lp660
V2014/2015
p661
aVArsenal
p662
aVUCL
p663
aV4
aV353
p664
aV-
aV-
aV2
aV-
aV-
aV96.9
p665
aV1
aV-
aV6.93
p666
aa(lp667
V2014/2015
p668
aVArsenal
p669
aVEPL
p670
aV26(2)
p671
aV2311
p672
aV-
aV1
aV3
aV-
aV0.1
p673
aV85.6
p674
aV2.8
p675
aV-
aV7.33
p676
aa(lp677
V2013/2014
p678
aVArsenal
p679
aVUCL
p680
aV1(5)
p681
aV195
p682
aV-
aV-
aV-
aV-
aV-
aV87.2
p683
aV0.5
p684
aV-
aV6.45
p685
aa(lp686
V2013/2014
p687
aVArsenal
p688
aVEPL
p689
aV13(10)
p690
aV1179
p691
aV-
aV1
aV2
aV-
aV0.2
p692
aV88.2
p693
aV0.8
p694
aV-
aV6.67
p695
aa(lp696
V2013
p697
aVSpain
p698
aVICC
p699
aV1
aV90
p700
aV-
aV1
aV-
aV-
aV-
aV97.2
p701
aV-
aV-
aV8.30
p702
aa(lp703
V2012/2013
p704
aVMalaga
p705
aVSLL
p706
aV14
p707
aV1191
p708
aV1
aV2
aV3
aV-
aV0.8
p709
aV85.3
p710
aV1.6
p711
aV1
aV7.23
p712
aa(lp713
V2012/2013
p714
aVMalaga
p715
aVUCL
p716
aV2
aV180
p717
aV-
aV-
aV-
aV-
aV1
aV80.5
p718
aV1
aV-
aV7.73
p719
aa(lp720
V2012/2013
p721
aVArsenal
p722
aVEPL
p723
aV9(1)
p724
aV792
p725
aV1
aV1
aV2
aV-
aV0.6
p726
aV86.8
p727
aV1.1
p728
aV1
aV7.13
p729
aa(lp730
V2011/2012
p731
aVMalaga
p732
aVSLL
p733
aV28(3)
p734
aV2564
p735
aV-
aV4
aV1
aV-
aV0.4
p736
aV81.9
p737
aV1.5
p738
aV1
aV7.17
p739
aa(lp740
V2010/2011
p741
aVOsasuna
p742
aVSLL
p743
aV31
p744
aV2758
p745
aV1
aV2
aV6
aV1
aV0.5
p746
aV71.8
p747
aV1.6
p748
aV-
aV7.14
p749
aa(lp750
V2009/2010
p751
aVOsasuna
p752
aVSLL
p753
aV31
p754
aV2747
p755
aV1
aV1
aV6
aV1
aV0.3
p756
aV71.8
p757
aV1.4
p758
aV-
aV6.87
p759
aa(lp760
VTotal / Average
p761
aV
aV
aV310
p762
aV25311
p763
aV11
p764
aV24
p765
aV39
p766
aV2
aV0.4
p767
aV83.4
p768
aV1.6
p769
aV6
aV7.07
p770
aasS'id'
p771
V23072
p772
sb.