(i__main__
Player
p1
(dp2
S'name'
p3
VAsmir Begovic 
p4
sS'offensive_data'
p5
(lp6
(lp7
a(lp8
V2018/2019
p9
aVBournemouth
p10
aVEPL
p11
aV17
p12
aV1530
p13
aV-
aV-
aV-
aV-
aV-
aV60.4
p14
aV0.4
p15
aV-
aV6.46
p16
aa(lp17
V2017/2018
p18
aVBournemouth
p19
aVEPL
p20
aV38
p21
aV3420
p22
aV-
aV-
aV2
aV-
aV-
aV51.3
p23
aV0.3
p24
aV-
aV6.52
p25
aa(lp26
V2016/2017
p27
aVChelsea
p28
aVEPL
p29
aV2
aV180
p30
aV-
aV-
aV-
aV-
aV-
aV76.1
p31
aV-
aV-
aV5.67
p32
aa(lp33
V2015/2016
p34
aVChelsea
p35
aVUCL
p36
aV5
aV450
p37
aV-
aV-
aV-
aV-
aV-
aV49.5
p38
aV-
aV-
aV6.71
p39
aa(lp40
V2015/2016
p41
aVChelsea
p42
aVEPL
p43
aV15(2)
p44
aV1397
p45
aV-
aV-
aV-
aV-
aV-
aV47
p46
aV0.4
p47
aV-
aV6.76
p48
aa(lp49
V2014/2015
p50
aVStoke
p51
aVEPL
p52
aV35
p53
aV3150
p54
aV-
aV-
aV3
aV-
aV-
aV61.7
p55
aV0.2
p56
aV-
aV6.65
p57
aa(lp58
V2013/2014
p59
aVStoke
p60
aVEPL
p61
aV32
p62
aV2880
p63
aV1
aV-
aV1
aV-
aV-
aV59.6
p64
aV0.4
p65
aV2
aV7.01
p66
aa(lp67
V2014
p68
aVBosnia and He..
p69
aVWC
p70
aV3
aV270
p71
aV-
aV-
aV-
aV-
aV-
aV60.4
p72
aV-
aV-
aV6.95
p73
aa(lp74
V2012/2013
p75
aVStoke
p76
aVEPL
p77
aV38
p78
aV3420
p79
aV-
aV-
aV3
aV-
aV-
aV55.4
p80
aV0.2
p81
aV2
aV6.79
p82
aa(lp83
V2011/2012
p84
aVStoke
p85
aVEPL
p86
aV22(1)
p87
aV1996
p88
aV-
aV-
aV-
aV-
aV-
aV54.2
p89
aV-
aV2
aV6.72
p90
aa(lp91
V2010/2011
p92
aVStoke
p93
aVEPL
p94
aV28
p95
aV2520
p96
aV-
aV-
aV3
aV-
aV-
aV44.9
p97
aV0.1
p98
aV1
aV6.90
p99
aa(lp100
V2009/2010
p101
aVStoke
p102
aVEPL
p103
aV3(1)
p104
aV324
p105
aV-
aV-
aV-
aV-
aV-
aV53.4
p106
aV-
aV-
aV6.82
p107
aa(lp108
V2009/2010
p109
aVPortsmouth
p110
aVEPL
p111
aV8(1)
p112
aV736
p113
aV-
aV-
aV-
aV-
aV-
aV44.5
p114
aV0.1
p115
aV-
aV6.80
p116
aa(lp117
VTotal / Average
p118
aV
aV
aV251
p119
aV22273
p120
aV1
aV0
aV12
p121
aV0
aV0
aV54.4
p122
aV0.2
p123
aV7
aV6.73
p124
aasS'url'
p125
S'https://www.whoscored.com/Players/23122/History/'
p126
sS'passing_data'
p127
(lp128
(lp129
a(lp130
V2018/2019
p131
aVBournemouth
p132
aVEPL
p133
aV17
p134
aV1530
p135
aV-
aV-
aV-
aV-
aV-
aV60.4
p136
aV0.4
p137
aV-
aV6.46
p138
aa(lp139
V2017/2018
p140
aVBournemouth
p141
aVEPL
p142
aV38
p143
aV3420
p144
aV-
aV-
aV2
aV-
aV-
aV51.3
p145
aV0.3
p146
aV-
aV6.52
p147
aa(lp148
V2016/2017
p149
aVChelsea
p150
aVEPL
p151
aV2
aV180
p152
aV-
aV-
aV-
aV-
aV-
aV76.1
p153
aV-
aV-
aV5.67
p154
aa(lp155
V2015/2016
p156
aVChelsea
p157
aVUCL
p158
aV5
aV450
p159
aV-
aV-
aV-
aV-
aV-
aV49.5
p160
aV-
aV-
aV6.71
p161
aa(lp162
V2015/2016
p163
aVChelsea
p164
aVEPL
p165
aV15(2)
p166
aV1397
p167
aV-
aV-
aV-
aV-
aV-
aV47
p168
aV0.4
p169
aV-
aV6.76
p170
aa(lp171
V2014/2015
p172
aVStoke
p173
aVEPL
p174
aV35
p175
aV3150
p176
aV-
aV-
aV3
aV-
aV-
aV61.7
p177
aV0.2
p178
aV-
aV6.65
p179
aa(lp180
V2013/2014
p181
aVStoke
p182
aVEPL
p183
aV32
p184
aV2880
p185
aV1
aV-
aV1
aV-
aV-
aV59.6
p186
aV0.4
p187
aV2
aV7.01
p188
aa(lp189
V2014
p190
aVBosnia and He..
p191
aVWC
p192
aV3
aV270
p193
aV-
aV-
aV-
aV-
aV-
aV60.4
p194
aV-
aV-
aV6.95
p195
aa(lp196
V2012/2013
p197
aVStoke
p198
aVEPL
p199
aV38
p200
aV3420
p201
aV-
aV-
aV3
aV-
aV-
aV55.4
p202
aV0.2
p203
aV2
aV6.79
p204
aa(lp205
V2011/2012
p206
aVStoke
p207
aVEPL
p208
aV22(1)
p209
aV1996
p210
aV-
aV-
aV-
aV-
aV-
aV54.2
p211
aV-
aV2
aV6.72
p212
aa(lp213
V2010/2011
p214
aVStoke
p215
aVEPL
p216
aV28
p217
aV2520
p218
aV-
aV-
aV3
aV-
aV-
aV44.9
p219
aV0.1
p220
aV1
aV6.90
p221
aa(lp222
V2009/2010
p223
aVStoke
p224
aVEPL
p225
aV3(1)
p226
aV324
p227
aV-
aV-
aV-
aV-
aV-
aV53.4
p228
aV-
aV-
aV6.82
p229
aa(lp230
V2009/2010
p231
aVPortsmouth
p232
aVEPL
p233
aV8(1)
p234
aV736
p235
aV-
aV-
aV-
aV-
aV-
aV44.5
p236
aV0.1
p237
aV-
aV6.80
p238
aa(lp239
VTotal / Average
p240
aV
aV
aV251
p241
aV22273
p242
aV1
aV0
aV12
p243
aV0
aV0
aV54.4
p244
aV0.2
p245
aV7
aV6.73
p246
aasS'defensive_data'
p247
(lp248
(lp249
a(lp250
V2018/2019
p251
aVBournemouth
p252
aVEPL
p253
aV17
p254
aV1530
p255
aV-
aV-
aV-
aV-
aV-
aV60.4
p256
aV0.4
p257
aV-
aV6.46
p258
aa(lp259
V2017/2018
p260
aVBournemouth
p261
aVEPL
p262
aV38
p263
aV3420
p264
aV-
aV-
aV2
aV-
aV-
aV51.3
p265
aV0.3
p266
aV-
aV6.52
p267
aa(lp268
V2016/2017
p269
aVChelsea
p270
aVEPL
p271
aV2
aV180
p272
aV-
aV-
aV-
aV-
aV-
aV76.1
p273
aV-
aV-
aV5.67
p274
aa(lp275
V2015/2016
p276
aVChelsea
p277
aVUCL
p278
aV5
aV450
p279
aV-
aV-
aV-
aV-
aV-
aV49.5
p280
aV-
aV-
aV6.71
p281
aa(lp282
V2015/2016
p283
aVChelsea
p284
aVEPL
p285
aV15(2)
p286
aV1397
p287
aV-
aV-
aV-
aV-
aV-
aV47
p288
aV0.4
p289
aV-
aV6.76
p290
aa(lp291
V2014/2015
p292
aVStoke
p293
aVEPL
p294
aV35
p295
aV3150
p296
aV-
aV-
aV3
aV-
aV-
aV61.7
p297
aV0.2
p298
aV-
aV6.65
p299
aa(lp300
V2013/2014
p301
aVStoke
p302
aVEPL
p303
aV32
p304
aV2880
p305
aV1
aV-
aV1
aV-
aV-
aV59.6
p306
aV0.4
p307
aV2
aV7.01
p308
aa(lp309
V2014
p310
aVBosnia and He..
p311
aVWC
p312
aV3
aV270
p313
aV-
aV-
aV-
aV-
aV-
aV60.4
p314
aV-
aV-
aV6.95
p315
aa(lp316
V2012/2013
p317
aVStoke
p318
aVEPL
p319
aV38
p320
aV3420
p321
aV-
aV-
aV3
aV-
aV-
aV55.4
p322
aV0.2
p323
aV2
aV6.79
p324
aa(lp325
V2011/2012
p326
aVStoke
p327
aVEPL
p328
aV22(1)
p329
aV1996
p330
aV-
aV-
aV-
aV-
aV-
aV54.2
p331
aV-
aV2
aV6.72
p332
aa(lp333
V2010/2011
p334
aVStoke
p335
aVEPL
p336
aV28
p337
aV2520
p338
aV-
aV-
aV3
aV-
aV-
aV44.9
p339
aV0.1
p340
aV1
aV6.90
p341
aa(lp342
V2009/2010
p343
aVStoke
p344
aVEPL
p345
aV3(1)
p346
aV324
p347
aV-
aV-
aV-
aV-
aV-
aV53.4
p348
aV-
aV-
aV6.82
p349
aa(lp350
V2009/2010
p351
aVPortsmouth
p352
aVEPL
p353
aV8(1)
p354
aV736
p355
aV-
aV-
aV-
aV-
aV-
aV44.5
p356
aV0.1
p357
aV-
aV6.80
p358
aa(lp359
VTotal / Average
p360
aV
aV
aV251
p361
aV22273
p362
aV1
aV0
aV12
p363
aV0
aV0
aV54.4
p364
aV0.2
p365
aV7
aV6.73
p366
aasS'sumary_data'
p367
(lp368
(lp369
a(lp370
V2018/2019
p371
aVBournemouth
p372
aVEPL
p373
aV17
p374
aV1530
p375
aV-
aV-
aV-
aV-
aV-
aV60.4
p376
aV0.4
p377
aV-
aV6.46
p378
aa(lp379
V2017/2018
p380
aVBournemouth
p381
aVEPL
p382
aV38
p383
aV3420
p384
aV-
aV-
aV2
aV-
aV-
aV51.3
p385
aV0.3
p386
aV-
aV6.52
p387
aa(lp388
V2016/2017
p389
aVChelsea
p390
aVEPL
p391
aV2
aV180
p392
aV-
aV-
aV-
aV-
aV-
aV76.1
p393
aV-
aV-
aV5.67
p394
aa(lp395
V2015/2016
p396
aVChelsea
p397
aVUCL
p398
aV5
aV450
p399
aV-
aV-
aV-
aV-
aV-
aV49.5
p400
aV-
aV-
aV6.71
p401
aa(lp402
V2015/2016
p403
aVChelsea
p404
aVEPL
p405
aV15(2)
p406
aV1397
p407
aV-
aV-
aV-
aV-
aV-
aV47
p408
aV0.4
p409
aV-
aV6.76
p410
aa(lp411
V2014/2015
p412
aVStoke
p413
aVEPL
p414
aV35
p415
aV3150
p416
aV-
aV-
aV3
aV-
aV-
aV61.7
p417
aV0.2
p418
aV-
aV6.65
p419
aa(lp420
V2013/2014
p421
aVStoke
p422
aVEPL
p423
aV32
p424
aV2880
p425
aV1
aV-
aV1
aV-
aV-
aV59.6
p426
aV0.4
p427
aV2
aV7.01
p428
aa(lp429
V2014
p430
aVBosnia and He..
p431
aVWC
p432
aV3
aV270
p433
aV-
aV-
aV-
aV-
aV-
aV60.4
p434
aV-
aV-
aV6.95
p435
aa(lp436
V2012/2013
p437
aVStoke
p438
aVEPL
p439
aV38
p440
aV3420
p441
aV-
aV-
aV3
aV-
aV-
aV55.4
p442
aV0.2
p443
aV2
aV6.79
p444
aa(lp445
V2011/2012
p446
aVStoke
p447
aVEPL
p448
aV22(1)
p449
aV1996
p450
aV-
aV-
aV-
aV-
aV-
aV54.2
p451
aV-
aV2
aV6.72
p452
aa(lp453
V2010/2011
p454
aVStoke
p455
aVEPL
p456
aV28
p457
aV2520
p458
aV-
aV-
aV3
aV-
aV-
aV44.9
p459
aV0.1
p460
aV1
aV6.90
p461
aa(lp462
V2009/2010
p463
aVStoke
p464
aVEPL
p465
aV3(1)
p466
aV324
p467
aV-
aV-
aV-
aV-
aV-
aV53.4
p468
aV-
aV-
aV6.82
p469
aa(lp470
V2009/2010
p471
aVPortsmouth
p472
aVEPL
p473
aV8(1)
p474
aV736
p475
aV-
aV-
aV-
aV-
aV-
aV44.5
p476
aV0.1
p477
aV-
aV6.80
p478
aa(lp479
VTotal / Average
p480
aV
aV
aV251
p481
aV22273
p482
aV1
aV0
aV12
p483
aV0
aV0
aV54.4
p484
aV0.2
p485
aV7
aV6.73
p486
aasS'id'
p487
V23122
p488
sb.