(i__main__
Player
p1
(dp2
S'name'
p3
VMatteo Darmian 
p4
sS'offensive_data'
p5
(lp6
(lp7
a(lp8
V2018/2019
p9
aVManchester Un..
p10
aVEPL
p11
aV4
aV360
p12
aV-
aV-
aV-
aV-
aV0.3
p13
aV81.9
p14
aV0.8
p15
aV-
aV6.92
p16
aa(lp17
V2017/2018
p18
aVManchester Un..
p19
aVUCL
p20
aV2(1)
p21
aV203
p22
aV-
aV-
aV1
aV-
aV0.3
p23
aV83.1
p24
aV1
aV-
aV6.82
p25
aa(lp26
V2017/2018
p27
aVManchester Un..
p28
aVEPL
p29
aV5(3)
p30
aV444
p31
aV-
aV-
aV-
aV-
aV0.3
p32
aV83.6
p33
aV0.8
p34
aV1
aV6.61
p35
aa(lp36
V2016/2017
p37
aVManchester Un..
p38
aVEPL
p39
aV15(3)
p40
aV1334
p41
aV-
aV-
aV3
aV-
aV0.1
p42
aV81.5
p43
aV1.4
p44
aV-
aV6.95
p45
aa(lp46
V2016/2017
p47
aVManchester Un..
p48
aVUEL
p49
aV7
aV630
p50
aV-
aV-
aV-
aV-
aV-
aV77.4
p51
aV1.6
p52
aV-
aV7.17
p53
aa(lp54
V2015/2016
p55
aVManchester Un..
p56
aVUEL
p57
aV0(1)
p58
aV28
p59
aV-
aV-
aV-
aV-
aV1
aV88.9
p60
aV1
aV-
aV6.42
p61
aa(lp62
V2015/2016
p63
aVManchester Un..
p64
aVUCL
p65
aV4
aV308
p66
aV-
aV-
aV1
aV-
aV0.3
p67
aV81.3
p68
aV1.5
p69
aV-
aV6.64
p70
aa(lp71
V2015/2016
p72
aVManchester Un..
p73
aVEPL
p74
aV24(4)
p75
aV1932
p76
aV1
aV-
aV8
aV-
aV0.2
p77
aV79.3
p78
aV0.7
p79
aV2
aV6.91
p80
aa(lp81
V2014/2015
p82
aVTorino
p83
aVISA
p84
aV28(5)
p85
aV2568
p86
aV2
aV1
aV2
aV-
aV0.9
p87
aV77.7
p88
aV0.9
p89
aV1
aV6.98
p90
aa(lp91
V2014/2015
p92
aVTorino
p93
aVUEL
p94
aV10
p95
aV900
p96
aV2
aV3
aV2
aV-
aV0.6
p97
aV78.9
p98
aV0.5
p99
aV1
aV7.23
p100
aa(lp101
V2016
p102
aVItaly
p103
aVUEC
p104
aV1(3)
p105
aV129
p106
aV-
aV-
aV-
aV-
aV-
aV65.3
p107
aV0.5
p108
aV-
aV6.31
p109
aa(lp110
V2013/2014
p111
aVTorino
p112
aVISA
p113
aV37
p114
aV3286
p115
aV-
aV3
aV6
aV-
aV0.3
p116
aV83.2
p117
aV1
aV-
aV6.96
p118
aa(lp119
V2014
p120
aVItaly
p121
aVWC
p122
aV3
aV270
p123
aV-
aV-
aV-
aV-
aV1
aV86
p124
aV1.3
p125
aV-
aV6.62
p126
aa(lp127
V2012/2013
p128
aVTorino
p129
aVISA
p130
aV30
p131
aV2690
p132
aV-
aV2
aV9
aV1
aV0.2
p133
aV81.2
p134
aV1
aV1
aV7.16
p135
aa(lp136
V2010/2011
p137
aVPalermo
p138
aVISA
p139
aV6(5)
p140
aV608
p141
aV-
aV-
aV1
aV1
aV0.3
p142
aV78.3
p143
aV0.5
p144
aV-
aV6.53
p145
aa(lp146
VTotal / Average
p147
aV
aV
aV201
p148
aV15690
p149
aV5
aV9
aV33
p150
aV2
aV0.4
p151
aV80.3
p152
aV0.9
p153
aV6
aV6.94
p154
aasS'url'
p155
S'https://www.whoscored.com/Players/23220/History/'
p156
sS'passing_data'
p157
(lp158
(lp159
a(lp160
V2018/2019
p161
aVManchester Un..
p162
aVEPL
p163
aV4
aV360
p164
aV-
aV-
aV-
aV-
aV0.3
p165
aV81.9
p166
aV0.8
p167
aV-
aV6.92
p168
aa(lp169
V2017/2018
p170
aVManchester Un..
p171
aVUCL
p172
aV2(1)
p173
aV203
p174
aV-
aV-
aV1
aV-
aV0.3
p175
aV83.1
p176
aV1
aV-
aV6.82
p177
aa(lp178
V2017/2018
p179
aVManchester Un..
p180
aVEPL
p181
aV5(3)
p182
aV444
p183
aV-
aV-
aV-
aV-
aV0.3
p184
aV83.6
p185
aV0.8
p186
aV1
aV6.61
p187
aa(lp188
V2016/2017
p189
aVManchester Un..
p190
aVEPL
p191
aV15(3)
p192
aV1334
p193
aV-
aV-
aV3
aV-
aV0.1
p194
aV81.5
p195
aV1.4
p196
aV-
aV6.95
p197
aa(lp198
V2016/2017
p199
aVManchester Un..
p200
aVUEL
p201
aV7
aV630
p202
aV-
aV-
aV-
aV-
aV-
aV77.4
p203
aV1.6
p204
aV-
aV7.17
p205
aa(lp206
V2015/2016
p207
aVManchester Un..
p208
aVUEL
p209
aV0(1)
p210
aV28
p211
aV-
aV-
aV-
aV-
aV1
aV88.9
p212
aV1
aV-
aV6.42
p213
aa(lp214
V2015/2016
p215
aVManchester Un..
p216
aVUCL
p217
aV4
aV308
p218
aV-
aV-
aV1
aV-
aV0.3
p219
aV81.3
p220
aV1.5
p221
aV-
aV6.64
p222
aa(lp223
V2015/2016
p224
aVManchester Un..
p225
aVEPL
p226
aV24(4)
p227
aV1932
p228
aV1
aV-
aV8
aV-
aV0.2
p229
aV79.3
p230
aV0.7
p231
aV2
aV6.91
p232
aa(lp233
V2014/2015
p234
aVTorino
p235
aVISA
p236
aV28(5)
p237
aV2568
p238
aV2
aV1
aV2
aV-
aV0.9
p239
aV77.7
p240
aV0.9
p241
aV1
aV6.98
p242
aa(lp243
V2014/2015
p244
aVTorino
p245
aVUEL
p246
aV10
p247
aV900
p248
aV2
aV3
aV2
aV-
aV0.6
p249
aV78.9
p250
aV0.5
p251
aV1
aV7.23
p252
aa(lp253
V2016
p254
aVItaly
p255
aVUEC
p256
aV1(3)
p257
aV129
p258
aV-
aV-
aV-
aV-
aV-
aV65.3
p259
aV0.5
p260
aV-
aV6.31
p261
aa(lp262
V2013/2014
p263
aVTorino
p264
aVISA
p265
aV37
p266
aV3286
p267
aV-
aV3
aV6
aV-
aV0.3
p268
aV83.2
p269
aV1
aV-
aV6.96
p270
aa(lp271
V2014
p272
aVItaly
p273
aVWC
p274
aV3
aV270
p275
aV-
aV-
aV-
aV-
aV1
aV86
p276
aV1.3
p277
aV-
aV6.62
p278
aa(lp279
V2012/2013
p280
aVTorino
p281
aVISA
p282
aV30
p283
aV2690
p284
aV-
aV2
aV9
aV1
aV0.2
p285
aV81.2
p286
aV1
aV1
aV7.16
p287
aa(lp288
V2010/2011
p289
aVPalermo
p290
aVISA
p291
aV6(5)
p292
aV608
p293
aV-
aV-
aV1
aV1
aV0.3
p294
aV78.3
p295
aV0.5
p296
aV-
aV6.53
p297
aa(lp298
VTotal / Average
p299
aV
aV
aV201
p300
aV15690
p301
aV5
aV9
aV33
p302
aV2
aV0.4
p303
aV80.3
p304
aV0.9
p305
aV6
aV6.94
p306
aasS'defensive_data'
p307
(lp308
(lp309
a(lp310
V2018/2019
p311
aVManchester Un..
p312
aVEPL
p313
aV4
aV360
p314
aV-
aV-
aV-
aV-
aV0.3
p315
aV81.9
p316
aV0.8
p317
aV-
aV6.92
p318
aa(lp319
V2017/2018
p320
aVManchester Un..
p321
aVUCL
p322
aV2(1)
p323
aV203
p324
aV-
aV-
aV1
aV-
aV0.3
p325
aV83.1
p326
aV1
aV-
aV6.82
p327
aa(lp328
V2017/2018
p329
aVManchester Un..
p330
aVEPL
p331
aV5(3)
p332
aV444
p333
aV-
aV-
aV-
aV-
aV0.3
p334
aV83.6
p335
aV0.8
p336
aV1
aV6.61
p337
aa(lp338
V2016/2017
p339
aVManchester Un..
p340
aVEPL
p341
aV15(3)
p342
aV1334
p343
aV-
aV-
aV3
aV-
aV0.1
p344
aV81.5
p345
aV1.4
p346
aV-
aV6.95
p347
aa(lp348
V2016/2017
p349
aVManchester Un..
p350
aVUEL
p351
aV7
aV630
p352
aV-
aV-
aV-
aV-
aV-
aV77.4
p353
aV1.6
p354
aV-
aV7.17
p355
aa(lp356
V2015/2016
p357
aVManchester Un..
p358
aVUEL
p359
aV0(1)
p360
aV28
p361
aV-
aV-
aV-
aV-
aV1
aV88.9
p362
aV1
aV-
aV6.42
p363
aa(lp364
V2015/2016
p365
aVManchester Un..
p366
aVUCL
p367
aV4
aV308
p368
aV-
aV-
aV1
aV-
aV0.3
p369
aV81.3
p370
aV1.5
p371
aV-
aV6.64
p372
aa(lp373
V2015/2016
p374
aVManchester Un..
p375
aVEPL
p376
aV24(4)
p377
aV1932
p378
aV1
aV-
aV8
aV-
aV0.2
p379
aV79.3
p380
aV0.7
p381
aV2
aV6.91
p382
aa(lp383
V2014/2015
p384
aVTorino
p385
aVISA
p386
aV28(5)
p387
aV2568
p388
aV2
aV1
aV2
aV-
aV0.9
p389
aV77.7
p390
aV0.9
p391
aV1
aV6.98
p392
aa(lp393
V2014/2015
p394
aVTorino
p395
aVUEL
p396
aV10
p397
aV900
p398
aV2
aV3
aV2
aV-
aV0.6
p399
aV78.9
p400
aV0.5
p401
aV1
aV7.23
p402
aa(lp403
V2016
p404
aVItaly
p405
aVUEC
p406
aV1(3)
p407
aV129
p408
aV-
aV-
aV-
aV-
aV-
aV65.3
p409
aV0.5
p410
aV-
aV6.31
p411
aa(lp412
V2013/2014
p413
aVTorino
p414
aVISA
p415
aV37
p416
aV3286
p417
aV-
aV3
aV6
aV-
aV0.3
p418
aV83.2
p419
aV1
aV-
aV6.96
p420
aa(lp421
V2014
p422
aVItaly
p423
aVWC
p424
aV3
aV270
p425
aV-
aV-
aV-
aV-
aV1
aV86
p426
aV1.3
p427
aV-
aV6.62
p428
aa(lp429
V2012/2013
p430
aVTorino
p431
aVISA
p432
aV30
p433
aV2690
p434
aV-
aV2
aV9
aV1
aV0.2
p435
aV81.2
p436
aV1
aV1
aV7.16
p437
aa(lp438
V2010/2011
p439
aVPalermo
p440
aVISA
p441
aV6(5)
p442
aV608
p443
aV-
aV-
aV1
aV1
aV0.3
p444
aV78.3
p445
aV0.5
p446
aV-
aV6.53
p447
aa(lp448
VTotal / Average
p449
aV
aV
aV201
p450
aV15690
p451
aV5
aV9
aV33
p452
aV2
aV0.4
p453
aV80.3
p454
aV0.9
p455
aV6
aV6.94
p456
aasS'sumary_data'
p457
(lp458
(lp459
a(lp460
V2018/2019
p461
aVManchester Un..
p462
aVEPL
p463
aV4
aV360
p464
aV-
aV-
aV-
aV-
aV0.3
p465
aV81.9
p466
aV0.8
p467
aV-
aV6.92
p468
aa(lp469
V2017/2018
p470
aVManchester Un..
p471
aVUCL
p472
aV2(1)
p473
aV203
p474
aV-
aV-
aV1
aV-
aV0.3
p475
aV83.1
p476
aV1
aV-
aV6.82
p477
aa(lp478
V2017/2018
p479
aVManchester Un..
p480
aVEPL
p481
aV5(3)
p482
aV444
p483
aV-
aV-
aV-
aV-
aV0.3
p484
aV83.6
p485
aV0.8
p486
aV1
aV6.61
p487
aa(lp488
V2016/2017
p489
aVManchester Un..
p490
aVEPL
p491
aV15(3)
p492
aV1334
p493
aV-
aV-
aV3
aV-
aV0.1
p494
aV81.5
p495
aV1.4
p496
aV-
aV6.95
p497
aa(lp498
V2016/2017
p499
aVManchester Un..
p500
aVUEL
p501
aV7
aV630
p502
aV-
aV-
aV-
aV-
aV-
aV77.4
p503
aV1.6
p504
aV-
aV7.17
p505
aa(lp506
V2015/2016
p507
aVManchester Un..
p508
aVUEL
p509
aV0(1)
p510
aV28
p511
aV-
aV-
aV-
aV-
aV1
aV88.9
p512
aV1
aV-
aV6.42
p513
aa(lp514
V2015/2016
p515
aVManchester Un..
p516
aVUCL
p517
aV4
aV308
p518
aV-
aV-
aV1
aV-
aV0.3
p519
aV81.3
p520
aV1.5
p521
aV-
aV6.64
p522
aa(lp523
V2015/2016
p524
aVManchester Un..
p525
aVEPL
p526
aV24(4)
p527
aV1932
p528
aV1
aV-
aV8
aV-
aV0.2
p529
aV79.3
p530
aV0.7
p531
aV2
aV6.91
p532
aa(lp533
V2014/2015
p534
aVTorino
p535
aVISA
p536
aV28(5)
p537
aV2568
p538
aV2
aV1
aV2
aV-
aV0.9
p539
aV77.7
p540
aV0.9
p541
aV1
aV6.98
p542
aa(lp543
V2014/2015
p544
aVTorino
p545
aVUEL
p546
aV10
p547
aV900
p548
aV2
aV3
aV2
aV-
aV0.6
p549
aV78.9
p550
aV0.5
p551
aV1
aV7.23
p552
aa(lp553
V2016
p554
aVItaly
p555
aVUEC
p556
aV1(3)
p557
aV129
p558
aV-
aV-
aV-
aV-
aV-
aV65.3
p559
aV0.5
p560
aV-
aV6.31
p561
aa(lp562
V2013/2014
p563
aVTorino
p564
aVISA
p565
aV37
p566
aV3286
p567
aV-
aV3
aV6
aV-
aV0.3
p568
aV83.2
p569
aV1
aV-
aV6.96
p570
aa(lp571
V2014
p572
aVItaly
p573
aVWC
p574
aV3
aV270
p575
aV-
aV-
aV-
aV-
aV1
aV86
p576
aV1.3
p577
aV-
aV6.62
p578
aa(lp579
V2012/2013
p580
aVTorino
p581
aVISA
p582
aV30
p583
aV2690
p584
aV-
aV2
aV9
aV1
aV0.2
p585
aV81.2
p586
aV1
aV1
aV7.16
p587
aa(lp588
V2010/2011
p589
aVPalermo
p590
aVISA
p591
aV6(5)
p592
aV608
p593
aV-
aV-
aV1
aV1
aV0.3
p594
aV78.3
p595
aV0.5
p596
aV-
aV6.53
p597
aa(lp598
VTotal / Average
p599
aV
aV
aV201
p600
aV15690
p601
aV5
aV9
aV33
p602
aV2
aV0.4
p603
aV80.3
p604
aV0.9
p605
aV6
aV6.94
p606
aasS'id'
p607
V23220
p608
sb.