(i__main__
Player
p1
(dp2
S'name'
p3
VAndy Carroll 
p4
sS'offensive_data'
p5
(lp6
(lp7
a(lp8
V2018/2019
p9
aVWest Ham
p10
aVEPL
p11
aV0(3)
p12
aV88
p13
aV-
aV-
aV-
aV-
aV0.7
p14
aV60
p15
aV3
aV-
aV6.49
p16
aa(lp17
V2017/2018
p18
aVWest Ham
p19
aVEPL
p20
aV7(9)
p21
aV748
p22
aV3
aV-
aV5
aV1
aV1.8
p23
aV61.3
p24
aV4.6
p25
aV1
aV6.68
p26
aa(lp27
V2016/2017
p28
aVWest Ham
p29
aVEPL
p30
aV15(3)
p31
aV1314
p32
aV7
aV1
aV3
aV-
aV2.2
p33
aV58.2
p34
aV9.1
p35
aV4
aV7.42
p36
aa(lp37
V2015/2016
p38
aVWest Ham
p39
aVEPL
p40
aV13(14)
p41
aV1436
p42
aV9
aV2
aV2
aV-
aV2.1
p43
aV61.6
p44
aV4.1
p45
aV1
aV6.92
p46
aa(lp47
V2014/2015
p48
aVWest Ham
p49
aVEPL
p50
aV12(2)
p51
aV1027
p52
aV5
aV1
aV2
aV-
aV2.6
p53
aV61.1
p54
aV8.6
p55
aV2
aV7.28
p56
aa(lp57
V2013/2014
p58
aVWest Ham
p59
aVEPL
p60
aV12(3)
p61
aV1093
p62
aV2
aV4
aV-
aV1
aV3.4
p63
aV60.3
p64
aV8.9
p65
aV1
aV7.23
p66
aa(lp67
V2012/2013
p68
aVWest Ham
p69
aVEPL
p70
aV22(2)
p71
aV1939
p72
aV7
aV4
aV5
aV-
aV3.3
p73
aV60.9
p74
aV9.3
p75
aV2
aV7.58
p76
aa(lp77
V2012/2013
p78
aVLiverpool
p79
aVEPL
p80
aV0(2)
p81
aV18
p82
aV-
aV-
aV1
aV-
aV1
aV62.5
p83
aV1.5
p84
aV-
aV6.30
p85
aa(lp86
V2012
p87
aVEngland
p88
aVUEC
p89
aV1(2)
p90
aV159
p91
aV1
aV-
aV-
aV-
aV1
aV53.8
p92
aV1.3
p93
aV-
aV6.70
p94
aa(lp95
V2011/2012
p96
aVLiverpool
p97
aVEPL
p98
aV21(14)
p99
aV2065
p100
aV4
aV2
aV5
aV-
aV2.5
p101
aV64
p102
aV4.3
p103
aV3
aV6.89
p104
aa(lp105
V2010/2011
p106
aVNewcastle Uni..
p107
aVEPL
p108
aV18(1)
p109
aV1624
p110
aV11
p111
aV3
aV4
aV-
aV3.9
p112
aV60.9
p113
aV7.1
p114
aV3
aV7.54
p115
aa(lp116
V2010/2011
p117
aVLiverpool
p118
aVEPL
p119
aV5(2)
p120
aV447
p121
aV2
aV-
aV1
aV-
aV2.3
p122
aV61
p123
aV3.3
p124
aV1
aV6.75
p125
aa(lp126
VTotal / Average
p127
aV
aV
aV183
p128
aV11958
p129
aV51
p130
aV17
p131
aV28
p132
aV2
aV2.6
p133
aV61.2
p134
aV6.3
p135
aV18
p136
aV7.12
p137
aasS'url'
p138
S'https://www.whoscored.com/Players/23383/History/'
p139
sS'passing_data'
p140
(lp141
(lp142
a(lp143
V2018/2019
p144
aVWest Ham
p145
aVEPL
p146
aV0(3)
p147
aV88
p148
aV-
aV-
aV-
aV-
aV0.7
p149
aV60
p150
aV3
aV-
aV6.49
p151
aa(lp152
V2017/2018
p153
aVWest Ham
p154
aVEPL
p155
aV7(9)
p156
aV748
p157
aV3
aV-
aV5
aV1
aV1.8
p158
aV61.3
p159
aV4.6
p160
aV1
aV6.68
p161
aa(lp162
V2016/2017
p163
aVWest Ham
p164
aVEPL
p165
aV15(3)
p166
aV1314
p167
aV7
aV1
aV3
aV-
aV2.2
p168
aV58.2
p169
aV9.1
p170
aV4
aV7.42
p171
aa(lp172
V2015/2016
p173
aVWest Ham
p174
aVEPL
p175
aV13(14)
p176
aV1436
p177
aV9
aV2
aV2
aV-
aV2.1
p178
aV61.6
p179
aV4.1
p180
aV1
aV6.92
p181
aa(lp182
V2014/2015
p183
aVWest Ham
p184
aVEPL
p185
aV12(2)
p186
aV1027
p187
aV5
aV1
aV2
aV-
aV2.6
p188
aV61.1
p189
aV8.6
p190
aV2
aV7.28
p191
aa(lp192
V2013/2014
p193
aVWest Ham
p194
aVEPL
p195
aV12(3)
p196
aV1093
p197
aV2
aV4
aV-
aV1
aV3.4
p198
aV60.3
p199
aV8.9
p200
aV1
aV7.23
p201
aa(lp202
V2012/2013
p203
aVWest Ham
p204
aVEPL
p205
aV22(2)
p206
aV1939
p207
aV7
aV4
aV5
aV-
aV3.3
p208
aV60.9
p209
aV9.3
p210
aV2
aV7.58
p211
aa(lp212
V2012/2013
p213
aVLiverpool
p214
aVEPL
p215
aV0(2)
p216
aV18
p217
aV-
aV-
aV1
aV-
aV1
aV62.5
p218
aV1.5
p219
aV-
aV6.30
p220
aa(lp221
V2012
p222
aVEngland
p223
aVUEC
p224
aV1(2)
p225
aV159
p226
aV1
aV-
aV-
aV-
aV1
aV53.8
p227
aV1.3
p228
aV-
aV6.70
p229
aa(lp230
V2011/2012
p231
aVLiverpool
p232
aVEPL
p233
aV21(14)
p234
aV2065
p235
aV4
aV2
aV5
aV-
aV2.5
p236
aV64
p237
aV4.3
p238
aV3
aV6.89
p239
aa(lp240
V2010/2011
p241
aVNewcastle Uni..
p242
aVEPL
p243
aV18(1)
p244
aV1624
p245
aV11
p246
aV3
aV4
aV-
aV3.9
p247
aV60.9
p248
aV7.1
p249
aV3
aV7.54
p250
aa(lp251
V2010/2011
p252
aVLiverpool
p253
aVEPL
p254
aV5(2)
p255
aV447
p256
aV2
aV-
aV1
aV-
aV2.3
p257
aV61
p258
aV3.3
p259
aV1
aV6.75
p260
aa(lp261
VTotal / Average
p262
aV
aV
aV183
p263
aV11958
p264
aV51
p265
aV17
p266
aV28
p267
aV2
aV2.6
p268
aV61.2
p269
aV6.3
p270
aV18
p271
aV7.12
p272
aasS'defensive_data'
p273
(lp274
(lp275
a(lp276
V2018/2019
p277
aVWest Ham
p278
aVEPL
p279
aV0(3)
p280
aV88
p281
aV-
aV-
aV-
aV-
aV0.7
p282
aV60
p283
aV3
aV-
aV6.49
p284
aa(lp285
V2017/2018
p286
aVWest Ham
p287
aVEPL
p288
aV7(9)
p289
aV748
p290
aV3
aV-
aV5
aV1
aV1.8
p291
aV61.3
p292
aV4.6
p293
aV1
aV6.68
p294
aa(lp295
V2016/2017
p296
aVWest Ham
p297
aVEPL
p298
aV15(3)
p299
aV1314
p300
aV7
aV1
aV3
aV-
aV2.2
p301
aV58.2
p302
aV9.1
p303
aV4
aV7.42
p304
aa(lp305
V2015/2016
p306
aVWest Ham
p307
aVEPL
p308
aV13(14)
p309
aV1436
p310
aV9
aV2
aV2
aV-
aV2.1
p311
aV61.6
p312
aV4.1
p313
aV1
aV6.92
p314
aa(lp315
V2014/2015
p316
aVWest Ham
p317
aVEPL
p318
aV12(2)
p319
aV1027
p320
aV5
aV1
aV2
aV-
aV2.6
p321
aV61.1
p322
aV8.6
p323
aV2
aV7.28
p324
aa(lp325
V2013/2014
p326
aVWest Ham
p327
aVEPL
p328
aV12(3)
p329
aV1093
p330
aV2
aV4
aV-
aV1
aV3.4
p331
aV60.3
p332
aV8.9
p333
aV1
aV7.23
p334
aa(lp335
V2012/2013
p336
aVWest Ham
p337
aVEPL
p338
aV22(2)
p339
aV1939
p340
aV7
aV4
aV5
aV-
aV3.3
p341
aV60.9
p342
aV9.3
p343
aV2
aV7.58
p344
aa(lp345
V2012/2013
p346
aVLiverpool
p347
aVEPL
p348
aV0(2)
p349
aV18
p350
aV-
aV-
aV1
aV-
aV1
aV62.5
p351
aV1.5
p352
aV-
aV6.30
p353
aa(lp354
V2012
p355
aVEngland
p356
aVUEC
p357
aV1(2)
p358
aV159
p359
aV1
aV-
aV-
aV-
aV1
aV53.8
p360
aV1.3
p361
aV-
aV6.70
p362
aa(lp363
V2011/2012
p364
aVLiverpool
p365
aVEPL
p366
aV21(14)
p367
aV2065
p368
aV4
aV2
aV5
aV-
aV2.5
p369
aV64
p370
aV4.3
p371
aV3
aV6.89
p372
aa(lp373
V2010/2011
p374
aVNewcastle Uni..
p375
aVEPL
p376
aV18(1)
p377
aV1624
p378
aV11
p379
aV3
aV4
aV-
aV3.9
p380
aV60.9
p381
aV7.1
p382
aV3
aV7.54
p383
aa(lp384
V2010/2011
p385
aVLiverpool
p386
aVEPL
p387
aV5(2)
p388
aV447
p389
aV2
aV-
aV1
aV-
aV2.3
p390
aV61
p391
aV3.3
p392
aV1
aV6.75
p393
aa(lp394
VTotal / Average
p395
aV
aV
aV183
p396
aV11958
p397
aV51
p398
aV17
p399
aV28
p400
aV2
aV2.6
p401
aV61.2
p402
aV6.3
p403
aV18
p404
aV7.12
p405
aasS'sumary_data'
p406
(lp407
(lp408
a(lp409
V2018/2019
p410
aVWest Ham
p411
aVEPL
p412
aV0(3)
p413
aV88
p414
aV-
aV-
aV-
aV-
aV0.7
p415
aV60
p416
aV3
aV-
aV6.49
p417
aa(lp418
V2017/2018
p419
aVWest Ham
p420
aVEPL
p421
aV7(9)
p422
aV748
p423
aV3
aV-
aV5
aV1
aV1.8
p424
aV61.3
p425
aV4.6
p426
aV1
aV6.68
p427
aa(lp428
V2016/2017
p429
aVWest Ham
p430
aVEPL
p431
aV15(3)
p432
aV1314
p433
aV7
aV1
aV3
aV-
aV2.2
p434
aV58.2
p435
aV9.1
p436
aV4
aV7.42
p437
aa(lp438
V2015/2016
p439
aVWest Ham
p440
aVEPL
p441
aV13(14)
p442
aV1436
p443
aV9
aV2
aV2
aV-
aV2.1
p444
aV61.6
p445
aV4.1
p446
aV1
aV6.92
p447
aa(lp448
V2014/2015
p449
aVWest Ham
p450
aVEPL
p451
aV12(2)
p452
aV1027
p453
aV5
aV1
aV2
aV-
aV2.6
p454
aV61.1
p455
aV8.6
p456
aV2
aV7.28
p457
aa(lp458
V2013/2014
p459
aVWest Ham
p460
aVEPL
p461
aV12(3)
p462
aV1093
p463
aV2
aV4
aV-
aV1
aV3.4
p464
aV60.3
p465
aV8.9
p466
aV1
aV7.23
p467
aa(lp468
V2012/2013
p469
aVWest Ham
p470
aVEPL
p471
aV22(2)
p472
aV1939
p473
aV7
aV4
aV5
aV-
aV3.3
p474
aV60.9
p475
aV9.3
p476
aV2
aV7.58
p477
aa(lp478
V2012/2013
p479
aVLiverpool
p480
aVEPL
p481
aV0(2)
p482
aV18
p483
aV-
aV-
aV1
aV-
aV1
aV62.5
p484
aV1.5
p485
aV-
aV6.30
p486
aa(lp487
V2012
p488
aVEngland
p489
aVUEC
p490
aV1(2)
p491
aV159
p492
aV1
aV-
aV-
aV-
aV1
aV53.8
p493
aV1.3
p494
aV-
aV6.70
p495
aa(lp496
V2011/2012
p497
aVLiverpool
p498
aVEPL
p499
aV21(14)
p500
aV2065
p501
aV4
aV2
aV5
aV-
aV2.5
p502
aV64
p503
aV4.3
p504
aV3
aV6.89
p505
aa(lp506
V2010/2011
p507
aVNewcastle Uni..
p508
aVEPL
p509
aV18(1)
p510
aV1624
p511
aV11
p512
aV3
aV4
aV-
aV3.9
p513
aV60.9
p514
aV7.1
p515
aV3
aV7.54
p516
aa(lp517
V2010/2011
p518
aVLiverpool
p519
aVEPL
p520
aV5(2)
p521
aV447
p522
aV2
aV-
aV1
aV-
aV2.3
p523
aV61
p524
aV3.3
p525
aV1
aV6.75
p526
aa(lp527
VTotal / Average
p528
aV
aV
aV183
p529
aV11958
p530
aV51
p531
aV17
p532
aV28
p533
aV2
aV2.6
p534
aV61.2
p535
aV6.3
p536
aV18
p537
aV7.12
p538
aasS'id'
p539
V23383
p540
sb.