(i__main__
Player
p1
(dp2
S'name'
p3
VFabri 
p4
sS'offensive_data'
p5
(lp6
(lp7
a(lp8
V2018/2019
p9
aVFulham
p10
aVEPL
p11
aV2
aV180
p12
aV-
aV-
aV-
aV-
aV-
aV68.1
p13
aV-
aV-
aV6.63
p14
aa(lp15
V2017/2018
p16
aVBesiktas
p17
aVTS
p18
aV34
p19
aV3060
p20
aV-
aV-
aV-
aV-
aV-
aV72.3
p21
aV0.5
p22
aV1
aV6.88
p23
aa(lp24
V2017/2018
p25
aVBesiktas
p26
aVUCL
p27
aV6
aV540
p28
aV-
aV-
aV1
aV-
aV-
aV49
p29
aV0.2
p30
aV-
aV6.85
p31
aa(lp32
V2016/2017
p33
aVBesiktas
p34
aVTS
p35
aV32
p36
aV2834
p37
aV-
aV-
aV1
aV-
aV-
aV68.2
p38
aV0.4
p39
aV1
aV6.67
p40
aa(lp41
V2016/2017
p42
aVBesiktas
p43
aVUCL
p44
aV5
aV450
p45
aV-
aV-
aV-
aV-
aV-
aV61.6
p46
aV0.4
p47
aV-
aV6.72
p48
aa(lp49
V2016/2017
p50
aVBesiktas
p51
aVUEL
p52
aV6
aV570
p53
aV-
aV-
aV-
aV-
aV-
aV50.9
p54
aV0.8
p55
aV-
aV6.93
p56
aa(lp57
V2014/2015
p58
aVDeportivo La ..
p59
aVSLL
p60
aV32
p61
aV2746
p62
aV-
aV-
aV3
aV-
aV-
aV44.1
p63
aV0.5
p64
aV2
aV6.74
p65
aa(lp66
V2012/2013
p67
aVReal Betis
p68
aVSLL
p69
aV2
aV180
p70
aV-
aV-
aV-
aV-
aV-
aV50.8
p71
aV0.5
p72
aV-
aV6.69
p73
aa(lp74
V2011/2012
p75
aVReal Betis
p76
aVSLL
p77
aV15
p78
aV1350
p79
aV-
aV-
aV3
aV-
aV-
aV49
p80
aV0.5
p81
aV1
aV7.04
p82
aa(lp83
V2009/2010
p84
aVReal Valladol..
p85
aVSLL
p86
aV1
aV90
p87
aV-
aV-
aV-
aV-
aV-
aV51.6
p88
aV-
aV-
aV7.02
p89
aa(lp90
VTotal / Average
p91
aV
aV
aV135
p92
aV12000
p93
aV0
aV0
aV8
aV0
aV0
aV59.1
p94
aV0.5
p95
aV5
aV6.81
p96
aasS'url'
p97
S'https://www.whoscored.com/Players/23474/History/'
p98
sS'passing_data'
p99
(lp100
(lp101
a(lp102
V2018/2019
p103
aVFulham
p104
aVEPL
p105
aV2
aV180
p106
aV-
aV-
aV-
aV-
aV-
aV68.1
p107
aV-
aV-
aV6.63
p108
aa(lp109
V2017/2018
p110
aVBesiktas
p111
aVTS
p112
aV34
p113
aV3060
p114
aV-
aV-
aV-
aV-
aV-
aV72.3
p115
aV0.5
p116
aV1
aV6.88
p117
aa(lp118
V2017/2018
p119
aVBesiktas
p120
aVUCL
p121
aV6
aV540
p122
aV-
aV-
aV1
aV-
aV-
aV49
p123
aV0.2
p124
aV-
aV6.85
p125
aa(lp126
V2016/2017
p127
aVBesiktas
p128
aVTS
p129
aV32
p130
aV2834
p131
aV-
aV-
aV1
aV-
aV-
aV68.2
p132
aV0.4
p133
aV1
aV6.67
p134
aa(lp135
V2016/2017
p136
aVBesiktas
p137
aVUCL
p138
aV5
aV450
p139
aV-
aV-
aV-
aV-
aV-
aV61.6
p140
aV0.4
p141
aV-
aV6.72
p142
aa(lp143
V2016/2017
p144
aVBesiktas
p145
aVUEL
p146
aV6
aV570
p147
aV-
aV-
aV-
aV-
aV-
aV50.9
p148
aV0.8
p149
aV-
aV6.93
p150
aa(lp151
V2014/2015
p152
aVDeportivo La ..
p153
aVSLL
p154
aV32
p155
aV2746
p156
aV-
aV-
aV3
aV-
aV-
aV44.1
p157
aV0.5
p158
aV2
aV6.74
p159
aa(lp160
V2012/2013
p161
aVReal Betis
p162
aVSLL
p163
aV2
aV180
p164
aV-
aV-
aV-
aV-
aV-
aV50.8
p165
aV0.5
p166
aV-
aV6.69
p167
aa(lp168
V2011/2012
p169
aVReal Betis
p170
aVSLL
p171
aV15
p172
aV1350
p173
aV-
aV-
aV3
aV-
aV-
aV49
p174
aV0.5
p175
aV1
aV7.04
p176
aa(lp177
V2009/2010
p178
aVReal Valladol..
p179
aVSLL
p180
aV1
aV90
p181
aV-
aV-
aV-
aV-
aV-
aV51.6
p182
aV-
aV-
aV7.02
p183
aa(lp184
VTotal / Average
p185
aV
aV
aV135
p186
aV12000
p187
aV0
aV0
aV8
aV0
aV0
aV59.1
p188
aV0.5
p189
aV5
aV6.81
p190
aasS'defensive_data'
p191
(lp192
(lp193
a(lp194
V2018/2019
p195
aVFulham
p196
aVEPL
p197
aV2
aV180
p198
aV-
aV-
aV-
aV-
aV-
aV68.1
p199
aV-
aV-
aV6.63
p200
aa(lp201
V2017/2018
p202
aVBesiktas
p203
aVTS
p204
aV34
p205
aV3060
p206
aV-
aV-
aV-
aV-
aV-
aV72.3
p207
aV0.5
p208
aV1
aV6.88
p209
aa(lp210
V2017/2018
p211
aVBesiktas
p212
aVUCL
p213
aV6
aV540
p214
aV-
aV-
aV1
aV-
aV-
aV49
p215
aV0.2
p216
aV-
aV6.85
p217
aa(lp218
V2016/2017
p219
aVBesiktas
p220
aVTS
p221
aV32
p222
aV2834
p223
aV-
aV-
aV1
aV-
aV-
aV68.2
p224
aV0.4
p225
aV1
aV6.67
p226
aa(lp227
V2016/2017
p228
aVBesiktas
p229
aVUCL
p230
aV5
aV450
p231
aV-
aV-
aV-
aV-
aV-
aV61.6
p232
aV0.4
p233
aV-
aV6.72
p234
aa(lp235
V2016/2017
p236
aVBesiktas
p237
aVUEL
p238
aV6
aV570
p239
aV-
aV-
aV-
aV-
aV-
aV50.9
p240
aV0.8
p241
aV-
aV6.93
p242
aa(lp243
V2014/2015
p244
aVDeportivo La ..
p245
aVSLL
p246
aV32
p247
aV2746
p248
aV-
aV-
aV3
aV-
aV-
aV44.1
p249
aV0.5
p250
aV2
aV6.74
p251
aa(lp252
V2012/2013
p253
aVReal Betis
p254
aVSLL
p255
aV2
aV180
p256
aV-
aV-
aV-
aV-
aV-
aV50.8
p257
aV0.5
p258
aV-
aV6.69
p259
aa(lp260
V2011/2012
p261
aVReal Betis
p262
aVSLL
p263
aV15
p264
aV1350
p265
aV-
aV-
aV3
aV-
aV-
aV49
p266
aV0.5
p267
aV1
aV7.04
p268
aa(lp269
V2009/2010
p270
aVReal Valladol..
p271
aVSLL
p272
aV1
aV90
p273
aV-
aV-
aV-
aV-
aV-
aV51.6
p274
aV-
aV-
aV7.02
p275
aa(lp276
VTotal / Average
p277
aV
aV
aV135
p278
aV12000
p279
aV0
aV0
aV8
aV0
aV0
aV59.1
p280
aV0.5
p281
aV5
aV6.81
p282
aasS'sumary_data'
p283
(lp284
(lp285
a(lp286
V2018/2019
p287
aVFulham
p288
aVEPL
p289
aV2
aV180
p290
aV-
aV-
aV-
aV-
aV-
aV68.1
p291
aV-
aV-
aV6.63
p292
aa(lp293
V2017/2018
p294
aVBesiktas
p295
aVTS
p296
aV34
p297
aV3060
p298
aV-
aV-
aV-
aV-
aV-
aV72.3
p299
aV0.5
p300
aV1
aV6.88
p301
aa(lp302
V2017/2018
p303
aVBesiktas
p304
aVUCL
p305
aV6
aV540
p306
aV-
aV-
aV1
aV-
aV-
aV49
p307
aV0.2
p308
aV-
aV6.85
p309
aa(lp310
V2016/2017
p311
aVBesiktas
p312
aVTS
p313
aV32
p314
aV2834
p315
aV-
aV-
aV1
aV-
aV-
aV68.2
p316
aV0.4
p317
aV1
aV6.67
p318
aa(lp319
V2016/2017
p320
aVBesiktas
p321
aVUCL
p322
aV5
aV450
p323
aV-
aV-
aV-
aV-
aV-
aV61.6
p324
aV0.4
p325
aV-
aV6.72
p326
aa(lp327
V2016/2017
p328
aVBesiktas
p329
aVUEL
p330
aV6
aV570
p331
aV-
aV-
aV-
aV-
aV-
aV50.9
p332
aV0.8
p333
aV-
aV6.93
p334
aa(lp335
V2014/2015
p336
aVDeportivo La ..
p337
aVSLL
p338
aV32
p339
aV2746
p340
aV-
aV-
aV3
aV-
aV-
aV44.1
p341
aV0.5
p342
aV2
aV6.74
p343
aa(lp344
V2012/2013
p345
aVReal Betis
p346
aVSLL
p347
aV2
aV180
p348
aV-
aV-
aV-
aV-
aV-
aV50.8
p349
aV0.5
p350
aV-
aV6.69
p351
aa(lp352
V2011/2012
p353
aVReal Betis
p354
aVSLL
p355
aV15
p356
aV1350
p357
aV-
aV-
aV3
aV-
aV-
aV49
p358
aV0.5
p359
aV1
aV7.04
p360
aa(lp361
V2009/2010
p362
aVReal Valladol..
p363
aVSLL
p364
aV1
aV90
p365
aV-
aV-
aV-
aV-
aV-
aV51.6
p366
aV-
aV-
aV7.02
p367
aa(lp368
VTotal / Average
p369
aV
aV
aV135
p370
aV12000
p371
aV0
aV0
aV8
aV0
aV0
aV59.1
p372
aV0.5
p373
aV5
aV6.81
p374
aasS'id'
p375
V23474
p376
sb.