(i__main__
Player
p1
(dp2
S'name'
p3
VAngelo Ogbonna 
p4
sS'offensive_data'
p5
(lp6
(lp7
a(lp8
V2018/2019
p9
aVWest Ham
p10
aVEPL
p11
aV3(2)
p12
aV280
p13
aV-
aV-
aV1
aV-
aV0.8
p14
aV87.3
p15
aV2.8
p16
aV-
aV6.39
p17
aa(lp18
V2017/2018
p19
aVWest Ham
p20
aVEPL
p21
aV32
p22
aV2880
p23
aV1
aV-
aV3
aV-
aV0.3
p24
aV79.7
p25
aV2.5
p26
aV-
aV6.76
p27
aa(lp28
V2016/2017
p29
aVWest Ham
p30
aVEPL
p31
aV20
p32
aV1756
p33
aV-
aV-
aV2
aV-
aV0.2
p34
aV81.2
p35
aV2.2
p36
aV-
aV6.70
p37
aa(lp38
V2015/2016
p39
aVWest Ham
p40
aVEPL
p41
aV27(1)
p42
aV2328
p43
aV-
aV-
aV5
aV-
aV0.2
p44
aV79.4
p45
aV2.2
p46
aV-
aV6.86
p47
aa(lp48
V2014/2015
p49
aVJuventus
p50
aVISA
p51
aV18(7)
p52
aV1752
p53
aV-
aV-
aV4
aV-
aV0.4
p54
aV89.4
p55
aV1.8
p56
aV-
aV6.93
p57
aa(lp58
V2014/2015
p59
aVJuventus
p60
aVUCL
p61
aV1
aV77
p62
aV-
aV-
aV-
aV-
aV-
aV74.5
p63
aV2
aV-
aV6.43
p64
aa(lp65
V2016
p66
aVItaly
p67
aVUEC
p68
aV1
aV90
p69
aV-
aV-
aV-
aV-
aV-
aV84.4
p70
aV2
aV-
aV6.65
p71
aa(lp72
V2013/2014
p73
aVJuventus
p74
aVISA
p75
aV14(2)
p76
aV1262
p77
aV-
aV-
aV3
aV1
aV0.4
p78
aV90.5
p79
aV2.4
p80
aV-
aV6.99
p81
aa(lp82
V2013/2014
p83
aVJuventus
p84
aVUCL
p85
aV2(1)
p86
aV166
p87
aV-
aV-
aV-
aV-
aV0.3
p88
aV89.9
p89
aV2.3
p90
aV-
aV6.30
p91
aa(lp92
V2013/2014
p93
aVJuventus
p94
aVUEL
p95
aV3
aV270
p96
aV-
aV-
aV-
aV-
aV-
aV89.4
p97
aV1
aV-
aV7.52
p98
aa(lp99
V2012/2013
p100
aVTorino
p101
aVISA
p102
aV22
p103
aV1964
p104
aV-
aV-
aV2
aV1
aV0.4
p105
aV92.7
p106
aV1.6
p107
aV-
aV6.85
p108
aa(lp109
VTotal / Average
p110
aV
aV
aV156
p111
aV12825
p112
aV1
aV0
aV20
p113
aV2
aV0.3
p114
aV84.9
p115
aV2.1
p116
aV0
aV6.82
p117
aasS'url'
p118
S'https://www.whoscored.com/Players/23547/History/'
p119
sS'passing_data'
p120
(lp121
(lp122
a(lp123
V2018/2019
p124
aVWest Ham
p125
aVEPL
p126
aV3(2)
p127
aV280
p128
aV-
aV-
aV1
aV-
aV0.8
p129
aV87.3
p130
aV2.8
p131
aV-
aV6.39
p132
aa(lp133
V2017/2018
p134
aVWest Ham
p135
aVEPL
p136
aV32
p137
aV2880
p138
aV1
aV-
aV3
aV-
aV0.3
p139
aV79.7
p140
aV2.5
p141
aV-
aV6.76
p142
aa(lp143
V2016/2017
p144
aVWest Ham
p145
aVEPL
p146
aV20
p147
aV1756
p148
aV-
aV-
aV2
aV-
aV0.2
p149
aV81.2
p150
aV2.2
p151
aV-
aV6.70
p152
aa(lp153
V2015/2016
p154
aVWest Ham
p155
aVEPL
p156
aV27(1)
p157
aV2328
p158
aV-
aV-
aV5
aV-
aV0.2
p159
aV79.4
p160
aV2.2
p161
aV-
aV6.86
p162
aa(lp163
V2014/2015
p164
aVJuventus
p165
aVISA
p166
aV18(7)
p167
aV1752
p168
aV-
aV-
aV4
aV-
aV0.4
p169
aV89.4
p170
aV1.8
p171
aV-
aV6.93
p172
aa(lp173
V2014/2015
p174
aVJuventus
p175
aVUCL
p176
aV1
aV77
p177
aV-
aV-
aV-
aV-
aV-
aV74.5
p178
aV2
aV-
aV6.43
p179
aa(lp180
V2016
p181
aVItaly
p182
aVUEC
p183
aV1
aV90
p184
aV-
aV-
aV-
aV-
aV-
aV84.4
p185
aV2
aV-
aV6.65
p186
aa(lp187
V2013/2014
p188
aVJuventus
p189
aVISA
p190
aV14(2)
p191
aV1262
p192
aV-
aV-
aV3
aV1
aV0.4
p193
aV90.5
p194
aV2.4
p195
aV-
aV6.99
p196
aa(lp197
V2013/2014
p198
aVJuventus
p199
aVUCL
p200
aV2(1)
p201
aV166
p202
aV-
aV-
aV-
aV-
aV0.3
p203
aV89.9
p204
aV2.3
p205
aV-
aV6.30
p206
aa(lp207
V2013/2014
p208
aVJuventus
p209
aVUEL
p210
aV3
aV270
p211
aV-
aV-
aV-
aV-
aV-
aV89.4
p212
aV1
aV-
aV7.52
p213
aa(lp214
V2012/2013
p215
aVTorino
p216
aVISA
p217
aV22
p218
aV1964
p219
aV-
aV-
aV2
aV1
aV0.4
p220
aV92.7
p221
aV1.6
p222
aV-
aV6.85
p223
aa(lp224
VTotal / Average
p225
aV
aV
aV156
p226
aV12825
p227
aV1
aV0
aV20
p228
aV2
aV0.3
p229
aV84.9
p230
aV2.1
p231
aV0
aV6.82
p232
aasS'defensive_data'
p233
(lp234
(lp235
a(lp236
V2018/2019
p237
aVWest Ham
p238
aVEPL
p239
aV3(2)
p240
aV280
p241
aV-
aV-
aV1
aV-
aV0.8
p242
aV87.3
p243
aV2.8
p244
aV-
aV6.39
p245
aa(lp246
V2017/2018
p247
aVWest Ham
p248
aVEPL
p249
aV32
p250
aV2880
p251
aV1
aV-
aV3
aV-
aV0.3
p252
aV79.7
p253
aV2.5
p254
aV-
aV6.76
p255
aa(lp256
V2016/2017
p257
aVWest Ham
p258
aVEPL
p259
aV20
p260
aV1756
p261
aV-
aV-
aV2
aV-
aV0.2
p262
aV81.2
p263
aV2.2
p264
aV-
aV6.70
p265
aa(lp266
V2015/2016
p267
aVWest Ham
p268
aVEPL
p269
aV27(1)
p270
aV2328
p271
aV-
aV-
aV5
aV-
aV0.2
p272
aV79.4
p273
aV2.2
p274
aV-
aV6.86
p275
aa(lp276
V2014/2015
p277
aVJuventus
p278
aVISA
p279
aV18(7)
p280
aV1752
p281
aV-
aV-
aV4
aV-
aV0.4
p282
aV89.4
p283
aV1.8
p284
aV-
aV6.93
p285
aa(lp286
V2014/2015
p287
aVJuventus
p288
aVUCL
p289
aV1
aV77
p290
aV-
aV-
aV-
aV-
aV-
aV74.5
p291
aV2
aV-
aV6.43
p292
aa(lp293
V2016
p294
aVItaly
p295
aVUEC
p296
aV1
aV90
p297
aV-
aV-
aV-
aV-
aV-
aV84.4
p298
aV2
aV-
aV6.65
p299
aa(lp300
V2013/2014
p301
aVJuventus
p302
aVISA
p303
aV14(2)
p304
aV1262
p305
aV-
aV-
aV3
aV1
aV0.4
p306
aV90.5
p307
aV2.4
p308
aV-
aV6.99
p309
aa(lp310
V2013/2014
p311
aVJuventus
p312
aVUCL
p313
aV2(1)
p314
aV166
p315
aV-
aV-
aV-
aV-
aV0.3
p316
aV89.9
p317
aV2.3
p318
aV-
aV6.30
p319
aa(lp320
V2013/2014
p321
aVJuventus
p322
aVUEL
p323
aV3
aV270
p324
aV-
aV-
aV-
aV-
aV-
aV89.4
p325
aV1
aV-
aV7.52
p326
aa(lp327
V2012/2013
p328
aVTorino
p329
aVISA
p330
aV22
p331
aV1964
p332
aV-
aV-
aV2
aV1
aV0.4
p333
aV92.7
p334
aV1.6
p335
aV-
aV6.85
p336
aa(lp337
VTotal / Average
p338
aV
aV
aV156
p339
aV12825
p340
aV1
aV0
aV20
p341
aV2
aV0.3
p342
aV84.9
p343
aV2.1
p344
aV0
aV6.82
p345
aasS'sumary_data'
p346
(lp347
(lp348
a(lp349
V2018/2019
p350
aVWest Ham
p351
aVEPL
p352
aV3(2)
p353
aV280
p354
aV-
aV-
aV1
aV-
aV0.8
p355
aV87.3
p356
aV2.8
p357
aV-
aV6.39
p358
aa(lp359
V2017/2018
p360
aVWest Ham
p361
aVEPL
p362
aV32
p363
aV2880
p364
aV1
aV-
aV3
aV-
aV0.3
p365
aV79.7
p366
aV2.5
p367
aV-
aV6.76
p368
aa(lp369
V2016/2017
p370
aVWest Ham
p371
aVEPL
p372
aV20
p373
aV1756
p374
aV-
aV-
aV2
aV-
aV0.2
p375
aV81.2
p376
aV2.2
p377
aV-
aV6.70
p378
aa(lp379
V2015/2016
p380
aVWest Ham
p381
aVEPL
p382
aV27(1)
p383
aV2328
p384
aV-
aV-
aV5
aV-
aV0.2
p385
aV79.4
p386
aV2.2
p387
aV-
aV6.86
p388
aa(lp389
V2014/2015
p390
aVJuventus
p391
aVISA
p392
aV18(7)
p393
aV1752
p394
aV-
aV-
aV4
aV-
aV0.4
p395
aV89.4
p396
aV1.8
p397
aV-
aV6.93
p398
aa(lp399
V2014/2015
p400
aVJuventus
p401
aVUCL
p402
aV1
aV77
p403
aV-
aV-
aV-
aV-
aV-
aV74.5
p404
aV2
aV-
aV6.43
p405
aa(lp406
V2016
p407
aVItaly
p408
aVUEC
p409
aV1
aV90
p410
aV-
aV-
aV-
aV-
aV-
aV84.4
p411
aV2
aV-
aV6.65
p412
aa(lp413
V2013/2014
p414
aVJuventus
p415
aVISA
p416
aV14(2)
p417
aV1262
p418
aV-
aV-
aV3
aV1
aV0.4
p419
aV90.5
p420
aV2.4
p421
aV-
aV6.99
p422
aa(lp423
V2013/2014
p424
aVJuventus
p425
aVUCL
p426
aV2(1)
p427
aV166
p428
aV-
aV-
aV-
aV-
aV0.3
p429
aV89.9
p430
aV2.3
p431
aV-
aV6.30
p432
aa(lp433
V2013/2014
p434
aVJuventus
p435
aVUEL
p436
aV3
aV270
p437
aV-
aV-
aV-
aV-
aV-
aV89.4
p438
aV1
aV-
aV7.52
p439
aa(lp440
V2012/2013
p441
aVTorino
p442
aVISA
p443
aV22
p444
aV1964
p445
aV-
aV-
aV2
aV1
aV0.4
p446
aV92.7
p447
aV1.6
p448
aV-
aV6.85
p449
aa(lp450
VTotal / Average
p451
aV
aV
aV156
p452
aV12825
p453
aV1
aV0
aV20
p454
aV2
aV0.3
p455
aV84.9
p456
aV2.1
p457
aV0
aV6.82
p458
aasS'id'
p459
V23547
p460
sb.