(i__main__
Player
p1
(dp2
S'name'
p3
VDiogo Jota 
p4
sS'offensive_data'
p5
(lp6
(lp7
a(lp8
V2018/2019
p9
aVWolverhampton..
p10
aVEPL
p11
aV12(4)
p12
aV1039
p13
aV2
aV1
aV4
aV-
aV1.3
p14
aV71.1
p15
aV0.9
p16
aV-
aV6.52
p17
aa(lp18
V2017/2018
p19
aVWolverhampton..
p20
aVEC
p21
aV43(1)
p22
aV3632
p23
aV17
p24
aV5
aV9
aV-
aV2.7
p25
aV78
p26
aV0.9
p27
aV2
aV7.32
p28
aa(lp29
V2016/2017
p30
aVFC Porto
p31
aVPLN
p32
aV15(12)
p33
aV1455
p34
aV8
aV5
aV3
aV-
aV2.2
p35
aV78.4
p36
aV0.5
p37
aV1
aV6.98
p38
aa(lp39
V2016/2017
p40
aVFC Porto
p41
aVUCL
p42
aV4(4)
p43
aV385
p44
aV1
aV-
aV1
aV-
aV2
aV80.8
p45
aV0.4
p46
aV-
aV6.45
p47
aa(lp48
VTotal / Average
p49
aV
aV
aV95
p50
aV6511
p51
aV28
p52
aV11
p53
aV17
p54
aV0
aV2.3
p55
aV77.2
p56
aV0.7
p57
aV3
aV7.01
p58
aasS'url'
p59
S'https://www.whoscored.com/Players/235755/History/'
p60
sS'passing_data'
p61
(lp62
(lp63
a(lp64
V2018/2019
p65
aVWolverhampton..
p66
aVEPL
p67
aV12(4)
p68
aV1039
p69
aV2
aV1
aV4
aV-
aV1.3
p70
aV71.1
p71
aV0.9
p72
aV-
aV6.52
p73
aa(lp74
V2017/2018
p75
aVWolverhampton..
p76
aVEC
p77
aV43(1)
p78
aV3632
p79
aV17
p80
aV5
aV9
aV-
aV2.7
p81
aV78
p82
aV0.9
p83
aV2
aV7.32
p84
aa(lp85
V2016/2017
p86
aVFC Porto
p87
aVPLN
p88
aV15(12)
p89
aV1455
p90
aV8
aV5
aV3
aV-
aV2.2
p91
aV78.4
p92
aV0.5
p93
aV1
aV6.98
p94
aa(lp95
V2016/2017
p96
aVFC Porto
p97
aVUCL
p98
aV4(4)
p99
aV385
p100
aV1
aV-
aV1
aV-
aV2
aV80.8
p101
aV0.4
p102
aV-
aV6.45
p103
aa(lp104
VTotal / Average
p105
aV
aV
aV95
p106
aV6511
p107
aV28
p108
aV11
p109
aV17
p110
aV0
aV2.3
p111
aV77.2
p112
aV0.7
p113
aV3
aV7.01
p114
aasS'defensive_data'
p115
(lp116
(lp117
a(lp118
V2018/2019
p119
aVWolverhampton..
p120
aVEPL
p121
aV12(4)
p122
aV1039
p123
aV2
aV1
aV4
aV-
aV1.3
p124
aV71.1
p125
aV0.9
p126
aV-
aV6.52
p127
aa(lp128
V2017/2018
p129
aVWolverhampton..
p130
aVEC
p131
aV43(1)
p132
aV3632
p133
aV17
p134
aV5
aV9
aV-
aV2.7
p135
aV78
p136
aV0.9
p137
aV2
aV7.32
p138
aa(lp139
V2016/2017
p140
aVFC Porto
p141
aVPLN
p142
aV15(12)
p143
aV1455
p144
aV8
aV5
aV3
aV-
aV2.2
p145
aV78.4
p146
aV0.5
p147
aV1
aV6.98
p148
aa(lp149
V2016/2017
p150
aVFC Porto
p151
aVUCL
p152
aV4(4)
p153
aV385
p154
aV1
aV-
aV1
aV-
aV2
aV80.8
p155
aV0.4
p156
aV-
aV6.45
p157
aa(lp158
VTotal / Average
p159
aV
aV
aV95
p160
aV6511
p161
aV28
p162
aV11
p163
aV17
p164
aV0
aV2.3
p165
aV77.2
p166
aV0.7
p167
aV3
aV7.01
p168
aasS'sumary_data'
p169
(lp170
(lp171
a(lp172
V2018/2019
p173
aVWolverhampton..
p174
aVEPL
p175
aV12(4)
p176
aV1039
p177
aV2
aV1
aV4
aV-
aV1.3
p178
aV71.1
p179
aV0.9
p180
aV-
aV6.52
p181
aa(lp182
V2017/2018
p183
aVWolverhampton..
p184
aVEC
p185
aV43(1)
p186
aV3632
p187
aV17
p188
aV5
aV9
aV-
aV2.7
p189
aV78
p190
aV0.9
p191
aV2
aV7.32
p192
aa(lp193
V2016/2017
p194
aVFC Porto
p195
aVPLN
p196
aV15(12)
p197
aV1455
p198
aV8
aV5
aV3
aV-
aV2.2
p199
aV78.4
p200
aV0.5
p201
aV1
aV6.98
p202
aa(lp203
V2016/2017
p204
aVFC Porto
p205
aVUCL
p206
aV4(4)
p207
aV385
p208
aV1
aV-
aV1
aV-
aV2
aV80.8
p209
aV0.4
p210
aV-
aV6.45
p211
aa(lp212
VTotal / Average
p213
aV
aV
aV95
p214
aV6511
p215
aV28
p216
aV11
p217
aV17
p218
aV0
aV2.3
p219
aV77.2
p220
aV0.7
p221
aV3
aV7.01
p222
aasS'id'
p223
V235755
p224
sb.