(i__main__
Player
p1
(dp2
S'name'
p3
VMaxime Le Marchand 
p4
sS'offensive_data'
p5
(lp6
(lp7
a(lp8
V2018/2019
p9
aVFulham
p10
aVEPL
p11
aV12
p12
aV1037
p13
aV-
aV1
aV1
aV-
aV0.2
p14
aV76.2
p15
aV2.3
p16
aV-
aV6.73
p17
aa(lp18
V2017/2018
p19
aVNice
p20
aVUEL
p21
aV5
aV450
p22
aV-
aV-
aV-
aV-
aV-
aV94.4
p23
aV1
aV-
aV6.96
p24
aa(lp25
V2017/2018
p26
aVNice
p27
aVFL1
p28
aV29
p29
aV2536
p30
aV-
aV3
aV4
aV-
aV0.4
p31
aV88.6
p32
aV1.8
p33
aV1
aV6.85
p34
aa(lp35
V2016/2017
p36
aVNice
p37
aVFL1
p38
aV8(2)
p39
aV705
p40
aV-
aV-
aV1
aV-
aV-
aV92.6
p41
aV1.6
p42
aV-
aV6.73
p43
aa(lp44
V2016/2017
p45
aVNice
p46
aVUEL
p47
aV1
aV90
p48
aV1
aV-
aV-
aV-
aV1
aV90.9
p49
aV1
aV-
aV7.58
p50
aa(lp51
V2015/2016
p52
aVNice
p53
aVFL1
p54
aV26
p55
aV2197
p56
aV1
aV-
aV5
aV1
aV0.2
p57
aV85.6
p58
aV2.6
p59
aV1
aV6.99
p60
aa(lp61
VTotal / Average
p62
aV
aV
aV83
p63
aV7015
p64
aV2
aV4
aV11
p65
aV1
aV0.3
p66
aV86.7
p67
aV2
aV2
aV6.88
p68
aasS'url'
p69
S'https://www.whoscored.com/Players/236523/History/'
p70
sS'passing_data'
p71
(lp72
(lp73
a(lp74
V2018/2019
p75
aVFulham
p76
aVEPL
p77
aV12
p78
aV1037
p79
aV-
aV1
aV1
aV-
aV0.2
p80
aV76.2
p81
aV2.3
p82
aV-
aV6.73
p83
aa(lp84
V2017/2018
p85
aVNice
p86
aVUEL
p87
aV5
aV450
p88
aV-
aV-
aV-
aV-
aV-
aV94.4
p89
aV1
aV-
aV6.96
p90
aa(lp91
V2017/2018
p92
aVNice
p93
aVFL1
p94
aV29
p95
aV2536
p96
aV-
aV3
aV4
aV-
aV0.4
p97
aV88.6
p98
aV1.8
p99
aV1
aV6.85
p100
aa(lp101
V2016/2017
p102
aVNice
p103
aVFL1
p104
aV8(2)
p105
aV705
p106
aV-
aV-
aV1
aV-
aV-
aV92.6
p107
aV1.6
p108
aV-
aV6.73
p109
aa(lp110
V2016/2017
p111
aVNice
p112
aVUEL
p113
aV1
aV90
p114
aV1
aV-
aV-
aV-
aV1
aV90.9
p115
aV1
aV-
aV7.58
p116
aa(lp117
V2015/2016
p118
aVNice
p119
aVFL1
p120
aV26
p121
aV2197
p122
aV1
aV-
aV5
aV1
aV0.2
p123
aV85.6
p124
aV2.6
p125
aV1
aV6.99
p126
aa(lp127
VTotal / Average
p128
aV
aV
aV83
p129
aV7015
p130
aV2
aV4
aV11
p131
aV1
aV0.3
p132
aV86.7
p133
aV2
aV2
aV6.88
p134
aasS'defensive_data'
p135
(lp136
(lp137
a(lp138
V2018/2019
p139
aVFulham
p140
aVEPL
p141
aV12
p142
aV1037
p143
aV-
aV1
aV1
aV-
aV0.2
p144
aV76.2
p145
aV2.3
p146
aV-
aV6.73
p147
aa(lp148
V2017/2018
p149
aVNice
p150
aVUEL
p151
aV5
aV450
p152
aV-
aV-
aV-
aV-
aV-
aV94.4
p153
aV1
aV-
aV6.96
p154
aa(lp155
V2017/2018
p156
aVNice
p157
aVFL1
p158
aV29
p159
aV2536
p160
aV-
aV3
aV4
aV-
aV0.4
p161
aV88.6
p162
aV1.8
p163
aV1
aV6.85
p164
aa(lp165
V2016/2017
p166
aVNice
p167
aVFL1
p168
aV8(2)
p169
aV705
p170
aV-
aV-
aV1
aV-
aV-
aV92.6
p171
aV1.6
p172
aV-
aV6.73
p173
aa(lp174
V2016/2017
p175
aVNice
p176
aVUEL
p177
aV1
aV90
p178
aV1
aV-
aV-
aV-
aV1
aV90.9
p179
aV1
aV-
aV7.58
p180
aa(lp181
V2015/2016
p182
aVNice
p183
aVFL1
p184
aV26
p185
aV2197
p186
aV1
aV-
aV5
aV1
aV0.2
p187
aV85.6
p188
aV2.6
p189
aV1
aV6.99
p190
aa(lp191
VTotal / Average
p192
aV
aV
aV83
p193
aV7015
p194
aV2
aV4
aV11
p195
aV1
aV0.3
p196
aV86.7
p197
aV2
aV2
aV6.88
p198
aasS'sumary_data'
p199
(lp200
(lp201
a(lp202
V2018/2019
p203
aVFulham
p204
aVEPL
p205
aV12
p206
aV1037
p207
aV-
aV1
aV1
aV-
aV0.2
p208
aV76.2
p209
aV2.3
p210
aV-
aV6.73
p211
aa(lp212
V2017/2018
p213
aVNice
p214
aVUEL
p215
aV5
aV450
p216
aV-
aV-
aV-
aV-
aV-
aV94.4
p217
aV1
aV-
aV6.96
p218
aa(lp219
V2017/2018
p220
aVNice
p221
aVFL1
p222
aV29
p223
aV2536
p224
aV-
aV3
aV4
aV-
aV0.4
p225
aV88.6
p226
aV1.8
p227
aV1
aV6.85
p228
aa(lp229
V2016/2017
p230
aVNice
p231
aVFL1
p232
aV8(2)
p233
aV705
p234
aV-
aV-
aV1
aV-
aV-
aV92.6
p235
aV1.6
p236
aV-
aV6.73
p237
aa(lp238
V2016/2017
p239
aVNice
p240
aVUEL
p241
aV1
aV90
p242
aV1
aV-
aV-
aV-
aV1
aV90.9
p243
aV1
aV-
aV7.58
p244
aa(lp245
V2015/2016
p246
aVNice
p247
aVFL1
p248
aV26
p249
aV2197
p250
aV1
aV-
aV5
aV1
aV0.2
p251
aV85.6
p252
aV2.6
p253
aV1
aV6.99
p254
aa(lp255
VTotal / Average
p256
aV
aV
aV83
p257
aV7015
p258
aV2
aV4
aV11
p259
aV1
aV0.3
p260
aV86.7
p261
aV2
aV2
aV6.88
p262
aasS'id'
p263
V236523
p264
sb.