(i__main__
Player
p1
(dp2
S'name'
p3
VDanny Simpson 
p4
sS'offensive_data'
p5
(lp6
(lp7
a(lp8
V2018/2019
p9
aVLeicester
p10
aVEPL
p11
aV1(1)
p12
aV92
p13
aV-
aV-
aV-
aV-
aV-
aV64.7
p14
aV1.5
p15
aV-
aV6.62
p16
aa(lp17
V2017/2018
p18
aVLeicester
p19
aVEPL
p20
aV27(1)
p21
aV2313
p22
aV-
aV-
aV4
aV-
aV0.1
p23
aV74.4
p24
aV1.4
p25
aV-
aV6.58
p26
aa(lp27
V2016/2017
p28
aVLeicester
p29
aVUCL
p30
aV6
aV540
p31
aV-
aV-
aV-
aV-
aV0.3
p32
aV65.6
p33
aV1.2
p34
aV-
aV6.80
p35
aa(lp36
V2016/2017
p37
aVLeicester
p38
aVEPL
p39
aV34(1)
p40
aV2990
p41
aV-
aV2
aV12
p42
aV-
aV0.1
p43
aV69
p44
aV1.5
p45
aV-
aV6.72
p46
aa(lp47
V2015/2016
p48
aVLeicester
p49
aVEPL
p50
aV30
p51
aV2613
p52
aV-
aV-
aV3
aV1
aV0.2
p53
aV71.6
p54
aV2
aV1
aV7.13
p55
aa(lp56
V2014/2015
p57
aVQueens Park R..
p58
aVEPL
p59
aV1
aV68
p60
aV-
aV-
aV-
aV-
aV-
aV64.3
p61
aV-
aV-
aV6.05
p62
aa(lp63
V2014/2015
p64
aVLeicester
p65
aVEPL
p66
aV13(1)
p67
aV1185
p68
aV-
aV-
aV4
aV-
aV0.1
p69
aV67.5
p70
aV1.4
p71
aV-
aV6.70
p72
aa(lp73
V2013/2014
p74
aVQueens Park R..
p75
aVEC
p76
aV35(1)
p77
aV3213
p78
aV-
aV2
aV4
aV-
aV0.2
p79
aV77.1
p80
aV1.6
p81
aV-
aV7.11
p82
aa(lp83
V2012/2013
p84
aVNewcastle Uni..
p85
aVUEL
p86
aV6
aV533
p87
aV-
aV-
aV-
aV-
aV0.2
p88
aV82.1
p89
aV1.3
p90
aV-
aV6.94
p91
aa(lp92
V2012/2013
p93
aVNewcastle Uni..
p94
aVEPL
p95
aV18(1)
p96
aV1525
p97
aV-
aV-
aV3
aV-
aV0.3
p98
aV82.9
p99
aV0.3
p100
aV-
aV6.55
p101
aa(lp102
V2011/2012
p103
aVNewcastle Uni..
p104
aVEPL
p105
aV35
p106
aV3120
p107
aV-
aV-
aV7
aV-
aV0.1
p108
aV76.3
p109
aV0.7
p110
aV1
aV6.78
p111
aa(lp112
V2010/2011
p113
aVNewcastle Uni..
p114
aVEPL
p115
aV30
p116
aV2686
p117
aV-
aV-
aV4
aV-
aV0.2
p118
aV74.6
p119
aV0.4
p120
aV-
aV6.59
p121
aa(lp122
VTotal / Average
p123
aV
aV
aV242
p124
aV20878
p125
aV0
aV4
aV41
p126
aV1
aV0.2
p127
aV74.1
p128
aV1.2
p129
aV2
aV6.79
p130
aasS'url'
p131
S'https://www.whoscored.com/Players/23683/History/'
p132
sS'passing_data'
p133
(lp134
(lp135
a(lp136
V2018/2019
p137
aVLeicester
p138
aVEPL
p139
aV1(1)
p140
aV92
p141
aV-
aV-
aV-
aV-
aV-
aV64.7
p142
aV1.5
p143
aV-
aV6.62
p144
aa(lp145
V2017/2018
p146
aVLeicester
p147
aVEPL
p148
aV27(1)
p149
aV2313
p150
aV-
aV-
aV4
aV-
aV0.1
p151
aV74.4
p152
aV1.4
p153
aV-
aV6.58
p154
aa(lp155
V2016/2017
p156
aVLeicester
p157
aVUCL
p158
aV6
aV540
p159
aV-
aV-
aV-
aV-
aV0.3
p160
aV65.6
p161
aV1.2
p162
aV-
aV6.80
p163
aa(lp164
V2016/2017
p165
aVLeicester
p166
aVEPL
p167
aV34(1)
p168
aV2990
p169
aV-
aV2
aV12
p170
aV-
aV0.1
p171
aV69
p172
aV1.5
p173
aV-
aV6.72
p174
aa(lp175
V2015/2016
p176
aVLeicester
p177
aVEPL
p178
aV30
p179
aV2613
p180
aV-
aV-
aV3
aV1
aV0.2
p181
aV71.6
p182
aV2
aV1
aV7.13
p183
aa(lp184
V2014/2015
p185
aVQueens Park R..
p186
aVEPL
p187
aV1
aV68
p188
aV-
aV-
aV-
aV-
aV-
aV64.3
p189
aV-
aV-
aV6.05
p190
aa(lp191
V2014/2015
p192
aVLeicester
p193
aVEPL
p194
aV13(1)
p195
aV1185
p196
aV-
aV-
aV4
aV-
aV0.1
p197
aV67.5
p198
aV1.4
p199
aV-
aV6.70
p200
aa(lp201
V2013/2014
p202
aVQueens Park R..
p203
aVEC
p204
aV35(1)
p205
aV3213
p206
aV-
aV2
aV4
aV-
aV0.2
p207
aV77.1
p208
aV1.6
p209
aV-
aV7.11
p210
aa(lp211
V2012/2013
p212
aVNewcastle Uni..
p213
aVUEL
p214
aV6
aV533
p215
aV-
aV-
aV-
aV-
aV0.2
p216
aV82.1
p217
aV1.3
p218
aV-
aV6.94
p219
aa(lp220
V2012/2013
p221
aVNewcastle Uni..
p222
aVEPL
p223
aV18(1)
p224
aV1525
p225
aV-
aV-
aV3
aV-
aV0.3
p226
aV82.9
p227
aV0.3
p228
aV-
aV6.55
p229
aa(lp230
V2011/2012
p231
aVNewcastle Uni..
p232
aVEPL
p233
aV35
p234
aV3120
p235
aV-
aV-
aV7
aV-
aV0.1
p236
aV76.3
p237
aV0.7
p238
aV1
aV6.78
p239
aa(lp240
V2010/2011
p241
aVNewcastle Uni..
p242
aVEPL
p243
aV30
p244
aV2686
p245
aV-
aV-
aV4
aV-
aV0.2
p246
aV74.6
p247
aV0.4
p248
aV-
aV6.59
p249
aa(lp250
VTotal / Average
p251
aV
aV
aV242
p252
aV20878
p253
aV0
aV4
aV41
p254
aV1
aV0.2
p255
aV74.1
p256
aV1.2
p257
aV2
aV6.79
p258
aasS'defensive_data'
p259
(lp260
(lp261
a(lp262
V2018/2019
p263
aVLeicester
p264
aVEPL
p265
aV1(1)
p266
aV92
p267
aV-
aV-
aV-
aV-
aV-
aV64.7
p268
aV1.5
p269
aV-
aV6.62
p270
aa(lp271
V2017/2018
p272
aVLeicester
p273
aVEPL
p274
aV27(1)
p275
aV2313
p276
aV-
aV-
aV4
aV-
aV0.1
p277
aV74.4
p278
aV1.4
p279
aV-
aV6.58
p280
aa(lp281
V2016/2017
p282
aVLeicester
p283
aVUCL
p284
aV6
aV540
p285
aV-
aV-
aV-
aV-
aV0.3
p286
aV65.6
p287
aV1.2
p288
aV-
aV6.80
p289
aa(lp290
V2016/2017
p291
aVLeicester
p292
aVEPL
p293
aV34(1)
p294
aV2990
p295
aV-
aV2
aV12
p296
aV-
aV0.1
p297
aV69
p298
aV1.5
p299
aV-
aV6.72
p300
aa(lp301
V2015/2016
p302
aVLeicester
p303
aVEPL
p304
aV30
p305
aV2613
p306
aV-
aV-
aV3
aV1
aV0.2
p307
aV71.6
p308
aV2
aV1
aV7.13
p309
aa(lp310
V2014/2015
p311
aVQueens Park R..
p312
aVEPL
p313
aV1
aV68
p314
aV-
aV-
aV-
aV-
aV-
aV64.3
p315
aV-
aV-
aV6.05
p316
aa(lp317
V2014/2015
p318
aVLeicester
p319
aVEPL
p320
aV13(1)
p321
aV1185
p322
aV-
aV-
aV4
aV-
aV0.1
p323
aV67.5
p324
aV1.4
p325
aV-
aV6.70
p326
aa(lp327
V2013/2014
p328
aVQueens Park R..
p329
aVEC
p330
aV35(1)
p331
aV3213
p332
aV-
aV2
aV4
aV-
aV0.2
p333
aV77.1
p334
aV1.6
p335
aV-
aV7.11
p336
aa(lp337
V2012/2013
p338
aVNewcastle Uni..
p339
aVUEL
p340
aV6
aV533
p341
aV-
aV-
aV-
aV-
aV0.2
p342
aV82.1
p343
aV1.3
p344
aV-
aV6.94
p345
aa(lp346
V2012/2013
p347
aVNewcastle Uni..
p348
aVEPL
p349
aV18(1)
p350
aV1525
p351
aV-
aV-
aV3
aV-
aV0.3
p352
aV82.9
p353
aV0.3
p354
aV-
aV6.55
p355
aa(lp356
V2011/2012
p357
aVNewcastle Uni..
p358
aVEPL
p359
aV35
p360
aV3120
p361
aV-
aV-
aV7
aV-
aV0.1
p362
aV76.3
p363
aV0.7
p364
aV1
aV6.78
p365
aa(lp366
V2010/2011
p367
aVNewcastle Uni..
p368
aVEPL
p369
aV30
p370
aV2686
p371
aV-
aV-
aV4
aV-
aV0.2
p372
aV74.6
p373
aV0.4
p374
aV-
aV6.59
p375
aa(lp376
VTotal / Average
p377
aV
aV
aV242
p378
aV20878
p379
aV0
aV4
aV41
p380
aV1
aV0.2
p381
aV74.1
p382
aV1.2
p383
aV2
aV6.79
p384
aasS'sumary_data'
p385
(lp386
(lp387
a(lp388
V2018/2019
p389
aVLeicester
p390
aVEPL
p391
aV1(1)
p392
aV92
p393
aV-
aV-
aV-
aV-
aV-
aV64.7
p394
aV1.5
p395
aV-
aV6.62
p396
aa(lp397
V2017/2018
p398
aVLeicester
p399
aVEPL
p400
aV27(1)
p401
aV2313
p402
aV-
aV-
aV4
aV-
aV0.1
p403
aV74.4
p404
aV1.4
p405
aV-
aV6.58
p406
aa(lp407
V2016/2017
p408
aVLeicester
p409
aVUCL
p410
aV6
aV540
p411
aV-
aV-
aV-
aV-
aV0.3
p412
aV65.6
p413
aV1.2
p414
aV-
aV6.80
p415
aa(lp416
V2016/2017
p417
aVLeicester
p418
aVEPL
p419
aV34(1)
p420
aV2990
p421
aV-
aV2
aV12
p422
aV-
aV0.1
p423
aV69
p424
aV1.5
p425
aV-
aV6.72
p426
aa(lp427
V2015/2016
p428
aVLeicester
p429
aVEPL
p430
aV30
p431
aV2613
p432
aV-
aV-
aV3
aV1
aV0.2
p433
aV71.6
p434
aV2
aV1
aV7.13
p435
aa(lp436
V2014/2015
p437
aVQueens Park R..
p438
aVEPL
p439
aV1
aV68
p440
aV-
aV-
aV-
aV-
aV-
aV64.3
p441
aV-
aV-
aV6.05
p442
aa(lp443
V2014/2015
p444
aVLeicester
p445
aVEPL
p446
aV13(1)
p447
aV1185
p448
aV-
aV-
aV4
aV-
aV0.1
p449
aV67.5
p450
aV1.4
p451
aV-
aV6.70
p452
aa(lp453
V2013/2014
p454
aVQueens Park R..
p455
aVEC
p456
aV35(1)
p457
aV3213
p458
aV-
aV2
aV4
aV-
aV0.2
p459
aV77.1
p460
aV1.6
p461
aV-
aV7.11
p462
aa(lp463
V2012/2013
p464
aVNewcastle Uni..
p465
aVUEL
p466
aV6
aV533
p467
aV-
aV-
aV-
aV-
aV0.2
p468
aV82.1
p469
aV1.3
p470
aV-
aV6.94
p471
aa(lp472
V2012/2013
p473
aVNewcastle Uni..
p474
aVEPL
p475
aV18(1)
p476
aV1525
p477
aV-
aV-
aV3
aV-
aV0.3
p478
aV82.9
p479
aV0.3
p480
aV-
aV6.55
p481
aa(lp482
V2011/2012
p483
aVNewcastle Uni..
p484
aVEPL
p485
aV35
p486
aV3120
p487
aV-
aV-
aV7
aV-
aV0.1
p488
aV76.3
p489
aV0.7
p490
aV1
aV6.78
p491
aa(lp492
V2010/2011
p493
aVNewcastle Uni..
p494
aVEPL
p495
aV30
p496
aV2686
p497
aV-
aV-
aV4
aV-
aV0.2
p498
aV74.6
p499
aV0.4
p500
aV-
aV6.59
p501
aa(lp502
VTotal / Average
p503
aV
aV
aV242
p504
aV20878
p505
aV0
aV4
aV41
p506
aV1
aV0.2
p507
aV74.1
p508
aV1.2
p509
aV2
aV6.79
p510
aasS'id'
p511
V23683
p512
sb.