(i__main__
Player
p1
(dp2
S'name'
p3
VDaniel Sturridge 
p4
sS'offensive_data'
p5
(lp6
(lp7
a(lp8
V2018/2019
p9
aVLiverpool
p10
aVEPL
p11
aV2(7)
p12
aV239
p13
aV2
aV-
aV1
aV-
aV1.1
p14
aV76.5
p15
aV0.2
p16
aV-
aV6.47
p17
aa(lp18
V2018/2019
p19
aVLiverpool
p20
aVUCL
p21
aV2(3)
p22
aV155
p23
aV1
aV1
aV1
aV-
aV1.8
p24
aV78.6
p25
aV-
aV1
aV6.55
p26
aa(lp27
V2017/2018
p28
aVLiverpool
p29
aVUCL
p30
aV0(5)
p31
aV83
p32
aV1
aV2
aV-
aV-
aV0.8
p33
aV83.3
p34
aV-
aV-
aV6.58
p35
aa(lp36
V2017/2018
p37
aVLiverpool
p38
aVEPL
p39
aV5(4)
p40
aV431
p41
aV2
aV1
aV-
aV-
aV2.3
p42
aV80.3
p43
aV0.2
p44
aV-
aV6.76
p45
aa(lp46
V2017/2018
p47
aVWest Bromwich..
p48
aVEPL
p49
aV2(4)
p50
aV116
p51
aV-
aV-
aV-
aV-
aV0.5
p52
aV74.2
p53
aV0.2
p54
aV-
aV6.10
p55
aa(lp56
V2016/2017
p57
aVLiverpool
p58
aVEPL
p59
aV7(13)
p60
aV769
p61
aV3
aV1
aV1
aV-
aV2
aV74.4
p62
aV0.2
p63
aV-
aV6.67
p64
aa(lp65
V2015/2016
p66
aVLiverpool
p67
aVUEL
p68
aV6(2)
p69
aV480
p70
aV3
aV1
aV-
aV-
aV3.6
p71
aV76.1
p72
aV0.3
p73
aV1
aV6.97
p74
aa(lp75
V2015/2016
p76
aVLiverpool
p77
aVEPL
p78
aV11(3)
p79
aV980
p80
aV8
aV1
aV-
aV-
aV3.4
p81
aV78.2
p82
aV0.4
p83
aV1
aV7.12
p84
aa(lp85
V2014/2015
p86
aVLiverpool
p87
aVUEL
p88
aV2
aV196
p89
aV-
aV-
aV-
aV-
aV2
aV74
p90
aV0.5
p91
aV-
aV6.79
p92
aa(lp93
V2014/2015
p94
aVLiverpool
p95
aVEPL
p96
aV7(5)
p97
aV750
p98
aV4
aV1
aV-
aV-
aV3.3
p99
aV79.2
p100
aV0.4
p101
aV-
aV7.01
p102
aa(lp103
V2016
p104
aVEngland
p105
aVUEC
p106
aV2(1)
p107
aV211
p108
aV1
aV-
aV1
aV-
aV2.7
p109
aV82.6
p110
aV-
aV-
aV7.12
p111
aa(lp112
V2013/2014
p113
aVLiverpool
p114
aVEPL
p115
aV26(3)
p116
aV2277
p117
aV21
p118
aV7
aV2
aV-
aV3.4
p119
aV79.3
p120
aV0.3
p121
aV2
aV7.45
p122
aa(lp123
V2014
p124
aVEngland
p125
aVWC
p126
aV3
aV260
p127
aV1
aV-
aV-
aV-
aV4
aV74.2
p128
aV0.7
p129
aV1
aV6.85
p130
aa(lp131
V2012/2013
p132
aVChelsea
p133
aVUCL
p134
aV0(2)
p135
aV21
p136
aV-
aV-
aV-
aV-
aV0.5
p137
aV50
p138
aV-
aV-
aV6.11
p139
aa(lp140
V2012/2013
p141
aVChelsea
p142
aVEPL
p143
aV1(6)
p144
aV161
p145
aV1
aV-
aV-
aV-
aV1.3
p146
aV85.9
p147
aV-
aV-
aV6.39
p148
aa(lp149
V2012/2013
p150
aVLiverpool
p151
aVEPL
p152
aV11(3)
p153
aV1093
p154
aV10
p155
aV3
aV2
aV-
aV4.4
p156
aV85
p157
aV0.1
p158
aV2
aV7.64
p159
aa(lp160
V2011/2012
p161
aVChelsea
p162
aVUCL
p163
aV5(2)
p164
aV429
p165
aV-
aV1
aV-
aV-
aV2
aV77
p166
aV0.3
p167
aV-
aV6.77
p168
aa(lp169
V2011/2012
p170
aVChelsea
p171
aVEPL
p172
aV28(2)
p173
aV2269
p174
aV11
p175
aV3
aV3
aV-
aV3.1
p176
aV81.6
p177
aV-
aV2
aV6.88
p178
aa(lp179
V2010/2011
p180
aVChelsea
p181
aVUCL
p182
aV2(3)
p183
aV196
p184
aV2
aV-
aV-
aV-
aV2.8
p185
aV76.2
p186
aV-
aV-
aV6.83
p187
aa(lp188
V2010/2011
p189
aVChelsea
p190
aVEPL
p191
aV0(13)
p192
aV147
p193
aV-
aV-
aV-
aV-
aV1
aV80
p194
aV-
aV-
aV6.11
p195
aa(lp196
V2010/2011
p197
aVBolton
p198
aVEPL
p199
aV11(1)
p200
aV973
p201
aV8
aV-
aV-
aV1
aV4.8
p202
aV73.5
p203
aV0.2
p204
aV1
aV7.12
p205
aa(lp206
V2009/2010
p207
aVChelsea
p208
aVUCL
p209
aV0(2)
p210
aV24
p211
aV-
aV-
aV-
aV-
aV-
aV78.6
p212
aV-
aV-
aV6.06
p213
aa(lp214
V2009/2010
p215
aVChelsea
p216
aVEPL
p217
aV2(11)
p218
aV289
p219
aV1
aV-
aV-
aV-
aV1.2
p220
aV77.9
p221
aV0.1
p222
aV-
aV6.37
p223
aa(lp224
VTotal / Average
p225
aV
aV
aV230
p226
aV12549
p227
aV80
p228
aV22
p229
aV11
p230
aV1
aV2.6
p231
aV78.6
p232
aV0.2
p233
aV11
p234
aV6.86
p235
aasS'url'
p236
S'https://www.whoscored.com/Players/23736/History/'
p237
sS'passing_data'
p238
(lp239
(lp240
a(lp241
V2018/2019
p242
aVLiverpool
p243
aVEPL
p244
aV2(7)
p245
aV239
p246
aV2
aV-
aV1
aV-
aV1.1
p247
aV76.5
p248
aV0.2
p249
aV-
aV6.47
p250
aa(lp251
V2018/2019
p252
aVLiverpool
p253
aVUCL
p254
aV2(3)
p255
aV155
p256
aV1
aV1
aV1
aV-
aV1.8
p257
aV78.6
p258
aV-
aV1
aV6.55
p259
aa(lp260
V2017/2018
p261
aVLiverpool
p262
aVUCL
p263
aV0(5)
p264
aV83
p265
aV1
aV2
aV-
aV-
aV0.8
p266
aV83.3
p267
aV-
aV-
aV6.58
p268
aa(lp269
V2017/2018
p270
aVLiverpool
p271
aVEPL
p272
aV5(4)
p273
aV431
p274
aV2
aV1
aV-
aV-
aV2.3
p275
aV80.3
p276
aV0.2
p277
aV-
aV6.76
p278
aa(lp279
V2017/2018
p280
aVWest Bromwich..
p281
aVEPL
p282
aV2(4)
p283
aV116
p284
aV-
aV-
aV-
aV-
aV0.5
p285
aV74.2
p286
aV0.2
p287
aV-
aV6.10
p288
aa(lp289
V2016/2017
p290
aVLiverpool
p291
aVEPL
p292
aV7(13)
p293
aV769
p294
aV3
aV1
aV1
aV-
aV2
aV74.4
p295
aV0.2
p296
aV-
aV6.67
p297
aa(lp298
V2015/2016
p299
aVLiverpool
p300
aVUEL
p301
aV6(2)
p302
aV480
p303
aV3
aV1
aV-
aV-
aV3.6
p304
aV76.1
p305
aV0.3
p306
aV1
aV6.97
p307
aa(lp308
V2015/2016
p309
aVLiverpool
p310
aVEPL
p311
aV11(3)
p312
aV980
p313
aV8
aV1
aV-
aV-
aV3.4
p314
aV78.2
p315
aV0.4
p316
aV1
aV7.12
p317
aa(lp318
V2014/2015
p319
aVLiverpool
p320
aVUEL
p321
aV2
aV196
p322
aV-
aV-
aV-
aV-
aV2
aV74
p323
aV0.5
p324
aV-
aV6.79
p325
aa(lp326
V2014/2015
p327
aVLiverpool
p328
aVEPL
p329
aV7(5)
p330
aV750
p331
aV4
aV1
aV-
aV-
aV3.3
p332
aV79.2
p333
aV0.4
p334
aV-
aV7.01
p335
aa(lp336
V2016
p337
aVEngland
p338
aVUEC
p339
aV2(1)
p340
aV211
p341
aV1
aV-
aV1
aV-
aV2.7
p342
aV82.6
p343
aV-
aV-
aV7.12
p344
aa(lp345
V2013/2014
p346
aVLiverpool
p347
aVEPL
p348
aV26(3)
p349
aV2277
p350
aV21
p351
aV7
aV2
aV-
aV3.4
p352
aV79.3
p353
aV0.3
p354
aV2
aV7.45
p355
aa(lp356
V2014
p357
aVEngland
p358
aVWC
p359
aV3
aV260
p360
aV1
aV-
aV-
aV-
aV4
aV74.2
p361
aV0.7
p362
aV1
aV6.85
p363
aa(lp364
V2012/2013
p365
aVChelsea
p366
aVUCL
p367
aV0(2)
p368
aV21
p369
aV-
aV-
aV-
aV-
aV0.5
p370
aV50
p371
aV-
aV-
aV6.11
p372
aa(lp373
V2012/2013
p374
aVChelsea
p375
aVEPL
p376
aV1(6)
p377
aV161
p378
aV1
aV-
aV-
aV-
aV1.3
p379
aV85.9
p380
aV-
aV-
aV6.39
p381
aa(lp382
V2012/2013
p383
aVLiverpool
p384
aVEPL
p385
aV11(3)
p386
aV1093
p387
aV10
p388
aV3
aV2
aV-
aV4.4
p389
aV85
p390
aV0.1
p391
aV2
aV7.64
p392
aa(lp393
V2011/2012
p394
aVChelsea
p395
aVUCL
p396
aV5(2)
p397
aV429
p398
aV-
aV1
aV-
aV-
aV2
aV77
p399
aV0.3
p400
aV-
aV6.77
p401
aa(lp402
V2011/2012
p403
aVChelsea
p404
aVEPL
p405
aV28(2)
p406
aV2269
p407
aV11
p408
aV3
aV3
aV-
aV3.1
p409
aV81.6
p410
aV-
aV2
aV6.88
p411
aa(lp412
V2010/2011
p413
aVChelsea
p414
aVUCL
p415
aV2(3)
p416
aV196
p417
aV2
aV-
aV-
aV-
aV2.8
p418
aV76.2
p419
aV-
aV-
aV6.83
p420
aa(lp421
V2010/2011
p422
aVChelsea
p423
aVEPL
p424
aV0(13)
p425
aV147
p426
aV-
aV-
aV-
aV-
aV1
aV80
p427
aV-
aV-
aV6.11
p428
aa(lp429
V2010/2011
p430
aVBolton
p431
aVEPL
p432
aV11(1)
p433
aV973
p434
aV8
aV-
aV-
aV1
aV4.8
p435
aV73.5
p436
aV0.2
p437
aV1
aV7.12
p438
aa(lp439
V2009/2010
p440
aVChelsea
p441
aVUCL
p442
aV0(2)
p443
aV24
p444
aV-
aV-
aV-
aV-
aV-
aV78.6
p445
aV-
aV-
aV6.06
p446
aa(lp447
V2009/2010
p448
aVChelsea
p449
aVEPL
p450
aV2(11)
p451
aV289
p452
aV1
aV-
aV-
aV-
aV1.2
p453
aV77.9
p454
aV0.1
p455
aV-
aV6.37
p456
aa(lp457
VTotal / Average
p458
aV
aV
aV230
p459
aV12549
p460
aV80
p461
aV22
p462
aV11
p463
aV1
aV2.6
p464
aV78.6
p465
aV0.2
p466
aV11
p467
aV6.86
p468
aasS'defensive_data'
p469
(lp470
(lp471
a(lp472
V2018/2019
p473
aVLiverpool
p474
aVEPL
p475
aV2(7)
p476
aV239
p477
aV2
aV-
aV1
aV-
aV1.1
p478
aV76.5
p479
aV0.2
p480
aV-
aV6.47
p481
aa(lp482
V2018/2019
p483
aVLiverpool
p484
aVUCL
p485
aV2(3)
p486
aV155
p487
aV1
aV1
aV1
aV-
aV1.8
p488
aV78.6
p489
aV-
aV1
aV6.55
p490
aa(lp491
V2017/2018
p492
aVLiverpool
p493
aVUCL
p494
aV0(5)
p495
aV83
p496
aV1
aV2
aV-
aV-
aV0.8
p497
aV83.3
p498
aV-
aV-
aV6.58
p499
aa(lp500
V2017/2018
p501
aVLiverpool
p502
aVEPL
p503
aV5(4)
p504
aV431
p505
aV2
aV1
aV-
aV-
aV2.3
p506
aV80.3
p507
aV0.2
p508
aV-
aV6.76
p509
aa(lp510
V2017/2018
p511
aVWest Bromwich..
p512
aVEPL
p513
aV2(4)
p514
aV116
p515
aV-
aV-
aV-
aV-
aV0.5
p516
aV74.2
p517
aV0.2
p518
aV-
aV6.10
p519
aa(lp520
V2016/2017
p521
aVLiverpool
p522
aVEPL
p523
aV7(13)
p524
aV769
p525
aV3
aV1
aV1
aV-
aV2
aV74.4
p526
aV0.2
p527
aV-
aV6.67
p528
aa(lp529
V2015/2016
p530
aVLiverpool
p531
aVUEL
p532
aV6(2)
p533
aV480
p534
aV3
aV1
aV-
aV-
aV3.6
p535
aV76.1
p536
aV0.3
p537
aV1
aV6.97
p538
aa(lp539
V2015/2016
p540
aVLiverpool
p541
aVEPL
p542
aV11(3)
p543
aV980
p544
aV8
aV1
aV-
aV-
aV3.4
p545
aV78.2
p546
aV0.4
p547
aV1
aV7.12
p548
aa(lp549
V2014/2015
p550
aVLiverpool
p551
aVUEL
p552
aV2
aV196
p553
aV-
aV-
aV-
aV-
aV2
aV74
p554
aV0.5
p555
aV-
aV6.79
p556
aa(lp557
V2014/2015
p558
aVLiverpool
p559
aVEPL
p560
aV7(5)
p561
aV750
p562
aV4
aV1
aV-
aV-
aV3.3
p563
aV79.2
p564
aV0.4
p565
aV-
aV7.01
p566
aa(lp567
V2016
p568
aVEngland
p569
aVUEC
p570
aV2(1)
p571
aV211
p572
aV1
aV-
aV1
aV-
aV2.7
p573
aV82.6
p574
aV-
aV-
aV7.12
p575
aa(lp576
V2013/2014
p577
aVLiverpool
p578
aVEPL
p579
aV26(3)
p580
aV2277
p581
aV21
p582
aV7
aV2
aV-
aV3.4
p583
aV79.3
p584
aV0.3
p585
aV2
aV7.45
p586
aa(lp587
V2014
p588
aVEngland
p589
aVWC
p590
aV3
aV260
p591
aV1
aV-
aV-
aV-
aV4
aV74.2
p592
aV0.7
p593
aV1
aV6.85
p594
aa(lp595
V2012/2013
p596
aVChelsea
p597
aVUCL
p598
aV0(2)
p599
aV21
p600
aV-
aV-
aV-
aV-
aV0.5
p601
aV50
p602
aV-
aV-
aV6.11
p603
aa(lp604
V2012/2013
p605
aVChelsea
p606
aVEPL
p607
aV1(6)
p608
aV161
p609
aV1
aV-
aV-
aV-
aV1.3
p610
aV85.9
p611
aV-
aV-
aV6.39
p612
aa(lp613
V2012/2013
p614
aVLiverpool
p615
aVEPL
p616
aV11(3)
p617
aV1093
p618
aV10
p619
aV3
aV2
aV-
aV4.4
p620
aV85
p621
aV0.1
p622
aV2
aV7.64
p623
aa(lp624
V2011/2012
p625
aVChelsea
p626
aVUCL
p627
aV5(2)
p628
aV429
p629
aV-
aV1
aV-
aV-
aV2
aV77
p630
aV0.3
p631
aV-
aV6.77
p632
aa(lp633
V2011/2012
p634
aVChelsea
p635
aVEPL
p636
aV28(2)
p637
aV2269
p638
aV11
p639
aV3
aV3
aV-
aV3.1
p640
aV81.6
p641
aV-
aV2
aV6.88
p642
aa(lp643
V2010/2011
p644
aVChelsea
p645
aVUCL
p646
aV2(3)
p647
aV196
p648
aV2
aV-
aV-
aV-
aV2.8
p649
aV76.2
p650
aV-
aV-
aV6.83
p651
aa(lp652
V2010/2011
p653
aVChelsea
p654
aVEPL
p655
aV0(13)
p656
aV147
p657
aV-
aV-
aV-
aV-
aV1
aV80
p658
aV-
aV-
aV6.11
p659
aa(lp660
V2010/2011
p661
aVBolton
p662
aVEPL
p663
aV11(1)
p664
aV973
p665
aV8
aV-
aV-
aV1
aV4.8
p666
aV73.5
p667
aV0.2
p668
aV1
aV7.12
p669
aa(lp670
V2009/2010
p671
aVChelsea
p672
aVUCL
p673
aV0(2)
p674
aV24
p675
aV-
aV-
aV-
aV-
aV-
aV78.6
p676
aV-
aV-
aV6.06
p677
aa(lp678
V2009/2010
p679
aVChelsea
p680
aVEPL
p681
aV2(11)
p682
aV289
p683
aV1
aV-
aV-
aV-
aV1.2
p684
aV77.9
p685
aV0.1
p686
aV-
aV6.37
p687
aa(lp688
VTotal / Average
p689
aV
aV
aV230
p690
aV12549
p691
aV80
p692
aV22
p693
aV11
p694
aV1
aV2.6
p695
aV78.6
p696
aV0.2
p697
aV11
p698
aV6.86
p699
aasS'sumary_data'
p700
(lp701
(lp702
a(lp703
V2018/2019
p704
aVLiverpool
p705
aVEPL
p706
aV2(7)
p707
aV239
p708
aV2
aV-
aV1
aV-
aV1.1
p709
aV76.5
p710
aV0.2
p711
aV-
aV6.47
p712
aa(lp713
V2018/2019
p714
aVLiverpool
p715
aVUCL
p716
aV2(3)
p717
aV155
p718
aV1
aV1
aV1
aV-
aV1.8
p719
aV78.6
p720
aV-
aV1
aV6.55
p721
aa(lp722
V2017/2018
p723
aVLiverpool
p724
aVUCL
p725
aV0(5)
p726
aV83
p727
aV1
aV2
aV-
aV-
aV0.8
p728
aV83.3
p729
aV-
aV-
aV6.58
p730
aa(lp731
V2017/2018
p732
aVLiverpool
p733
aVEPL
p734
aV5(4)
p735
aV431
p736
aV2
aV1
aV-
aV-
aV2.3
p737
aV80.3
p738
aV0.2
p739
aV-
aV6.76
p740
aa(lp741
V2017/2018
p742
aVWest Bromwich..
p743
aVEPL
p744
aV2(4)
p745
aV116
p746
aV-
aV-
aV-
aV-
aV0.5
p747
aV74.2
p748
aV0.2
p749
aV-
aV6.10
p750
aa(lp751
V2016/2017
p752
aVLiverpool
p753
aVEPL
p754
aV7(13)
p755
aV769
p756
aV3
aV1
aV1
aV-
aV2
aV74.4
p757
aV0.2
p758
aV-
aV6.67
p759
aa(lp760
V2015/2016
p761
aVLiverpool
p762
aVUEL
p763
aV6(2)
p764
aV480
p765
aV3
aV1
aV-
aV-
aV3.6
p766
aV76.1
p767
aV0.3
p768
aV1
aV6.97
p769
aa(lp770
V2015/2016
p771
aVLiverpool
p772
aVEPL
p773
aV11(3)
p774
aV980
p775
aV8
aV1
aV-
aV-
aV3.4
p776
aV78.2
p777
aV0.4
p778
aV1
aV7.12
p779
aa(lp780
V2014/2015
p781
aVLiverpool
p782
aVUEL
p783
aV2
aV196
p784
aV-
aV-
aV-
aV-
aV2
aV74
p785
aV0.5
p786
aV-
aV6.79
p787
aa(lp788
V2014/2015
p789
aVLiverpool
p790
aVEPL
p791
aV7(5)
p792
aV750
p793
aV4
aV1
aV-
aV-
aV3.3
p794
aV79.2
p795
aV0.4
p796
aV-
aV7.01
p797
aa(lp798
V2016
p799
aVEngland
p800
aVUEC
p801
aV2(1)
p802
aV211
p803
aV1
aV-
aV1
aV-
aV2.7
p804
aV82.6
p805
aV-
aV-
aV7.12
p806
aa(lp807
V2013/2014
p808
aVLiverpool
p809
aVEPL
p810
aV26(3)
p811
aV2277
p812
aV21
p813
aV7
aV2
aV-
aV3.4
p814
aV79.3
p815
aV0.3
p816
aV2
aV7.45
p817
aa(lp818
V2014
p819
aVEngland
p820
aVWC
p821
aV3
aV260
p822
aV1
aV-
aV-
aV-
aV4
aV74.2
p823
aV0.7
p824
aV1
aV6.85
p825
aa(lp826
V2012/2013
p827
aVChelsea
p828
aVUCL
p829
aV0(2)
p830
aV21
p831
aV-
aV-
aV-
aV-
aV0.5
p832
aV50
p833
aV-
aV-
aV6.11
p834
aa(lp835
V2012/2013
p836
aVChelsea
p837
aVEPL
p838
aV1(6)
p839
aV161
p840
aV1
aV-
aV-
aV-
aV1.3
p841
aV85.9
p842
aV-
aV-
aV6.39
p843
aa(lp844
V2012/2013
p845
aVLiverpool
p846
aVEPL
p847
aV11(3)
p848
aV1093
p849
aV10
p850
aV3
aV2
aV-
aV4.4
p851
aV85
p852
aV0.1
p853
aV2
aV7.64
p854
aa(lp855
V2011/2012
p856
aVChelsea
p857
aVUCL
p858
aV5(2)
p859
aV429
p860
aV-
aV1
aV-
aV-
aV2
aV77
p861
aV0.3
p862
aV-
aV6.77
p863
aa(lp864
V2011/2012
p865
aVChelsea
p866
aVEPL
p867
aV28(2)
p868
aV2269
p869
aV11
p870
aV3
aV3
aV-
aV3.1
p871
aV81.6
p872
aV-
aV2
aV6.88
p873
aa(lp874
V2010/2011
p875
aVChelsea
p876
aVUCL
p877
aV2(3)
p878
aV196
p879
aV2
aV-
aV-
aV-
aV2.8
p880
aV76.2
p881
aV-
aV-
aV6.83
p882
aa(lp883
V2010/2011
p884
aVChelsea
p885
aVEPL
p886
aV0(13)
p887
aV147
p888
aV-
aV-
aV-
aV-
aV1
aV80
p889
aV-
aV-
aV6.11
p890
aa(lp891
V2010/2011
p892
aVBolton
p893
aVEPL
p894
aV11(1)
p895
aV973
p896
aV8
aV-
aV-
aV1
aV4.8
p897
aV73.5
p898
aV0.2
p899
aV1
aV7.12
p900
aa(lp901
V2009/2010
p902
aVChelsea
p903
aVUCL
p904
aV0(2)
p905
aV24
p906
aV-
aV-
aV-
aV-
aV-
aV78.6
p907
aV-
aV-
aV6.06
p908
aa(lp909
V2009/2010
p910
aVChelsea
p911
aVEPL
p912
aV2(11)
p913
aV289
p914
aV1
aV-
aV-
aV-
aV1.2
p915
aV77.9
p916
aV0.1
p917
aV-
aV6.37
p918
aa(lp919
VTotal / Average
p920
aV
aV
aV230
p921
aV12549
p922
aV80
p923
aV22
p924
aV11
p925
aV1
aV2.6
p926
aV78.6
p927
aV0.2
p928
aV11
p929
aV6.86
p930
aasS'id'
p931
V23736
p932
sb.