(i__main__
Player
p1
(dp2
S'name'
p3
VBruno 
p4
sS'offensive_data'
p5
(lp6
(lp7
a(lp8
V2018/2019
p9
aVBrighton
p10
aVEPL
p11
aV8
aV622
p12
aV-
aV1
aV2
aV-
aV0.3
p13
aV80.4
p14
aV0.5
p15
aV-
aV6.54
p16
aa(lp17
V2017/2018
p18
aVBrighton
p19
aVEPL
p20
aV23(2)
p21
aV2018
p22
aV-
aV-
aV3
aV-
aV0.1
p23
aV82
p24
aV1.1
p25
aV-
aV6.70
p26
aa(lp27
V2016/2017
p28
aVBrighton
p29
aVEC
p30
aV42
p31
aV3719
p32
aV-
aV4
aV7
aV-
aV0.3
p33
aV83
p34
aV1.7
p35
aV-
aV7.02
p36
aa(lp37
V2015/2016
p38
aVBrighton
p39
aVEC
p40
aV48
p41
aV4237
p42
aV1
aV3
aV7
aV-
aV0.2
p43
aV79.4
p44
aV1.7
p45
aV2
aV7.03
p46
aa(lp47
V2014/2015
p48
aVBrighton
p49
aVEC
p50
aV33(2)
p51
aV2900
p52
aV3
aV1
aV7
aV1
aV0.5
p53
aV77.9
p54
aV1.8
p55
aV-
aV6.85
p56
aa(lp57
V2013/2014
p58
aVBrighton
p59
aVEC
p60
aV31(2)
p61
aV2724
p62
aV1
aV2
aV10
p63
aV-
aV0.2
p64
aV81.3
p65
aV1.5
p66
aV3
aV7.12
p67
aa(lp68
V2011/2012
p69
aVValencia
p70
aVSLL
p71
aV11(3)
p72
aV897
p73
aV-
aV1
aV5
aV-
aV0.1
p74
aV80
p75
aV0.7
p76
aV2
aV6.77
p77
aa(lp78
V2010/2011
p79
aVValencia
p80
aVSLL
p81
aV17(2)
p82
aV1538
p83
aV-
aV2
aV6
aV-
aV0.1
p84
aV81.2
p85
aV1
aV1
aV6.89
p86
aa(lp87
V2010/2011
p88
aVValencia
p89
aVUCL
p90
aV4
aV360
p91
aV-
aV-
aV-
aV-
aV0.3
p92
aV87.3
p93
aV0.5
p94
aV-
aV7.31
p95
aa(lp96
V2009/2010
p97
aVValencia
p98
aVSLL
p99
aV25(1)
p100
aV2147
p101
aV-
aV1
aV11
p102
aV-
aV0.2
p103
aV77
p104
aV1.4
p105
aV-
aV6.87
p106
aa(lp107
VTotal / Average
p108
aV
aV
aV254
p109
aV21162
p110
aV5
aV15
p111
aV58
p112
aV1
aV0.2
p113
aV80.4
p114
aV1.4
p115
aV8
aV6.93
p116
aasS'url'
p117
S'https://www.whoscored.com/Players/23957/History/'
p118
sS'passing_data'
p119
(lp120
(lp121
a(lp122
V2018/2019
p123
aVBrighton
p124
aVEPL
p125
aV8
aV622
p126
aV-
aV1
aV2
aV-
aV0.3
p127
aV80.4
p128
aV0.5
p129
aV-
aV6.54
p130
aa(lp131
V2017/2018
p132
aVBrighton
p133
aVEPL
p134
aV23(2)
p135
aV2018
p136
aV-
aV-
aV3
aV-
aV0.1
p137
aV82
p138
aV1.1
p139
aV-
aV6.70
p140
aa(lp141
V2016/2017
p142
aVBrighton
p143
aVEC
p144
aV42
p145
aV3719
p146
aV-
aV4
aV7
aV-
aV0.3
p147
aV83
p148
aV1.7
p149
aV-
aV7.02
p150
aa(lp151
V2015/2016
p152
aVBrighton
p153
aVEC
p154
aV48
p155
aV4237
p156
aV1
aV3
aV7
aV-
aV0.2
p157
aV79.4
p158
aV1.7
p159
aV2
aV7.03
p160
aa(lp161
V2014/2015
p162
aVBrighton
p163
aVEC
p164
aV33(2)
p165
aV2900
p166
aV3
aV1
aV7
aV1
aV0.5
p167
aV77.9
p168
aV1.8
p169
aV-
aV6.85
p170
aa(lp171
V2013/2014
p172
aVBrighton
p173
aVEC
p174
aV31(2)
p175
aV2724
p176
aV1
aV2
aV10
p177
aV-
aV0.2
p178
aV81.3
p179
aV1.5
p180
aV3
aV7.12
p181
aa(lp182
V2011/2012
p183
aVValencia
p184
aVSLL
p185
aV11(3)
p186
aV897
p187
aV-
aV1
aV5
aV-
aV0.1
p188
aV80
p189
aV0.7
p190
aV2
aV6.77
p191
aa(lp192
V2010/2011
p193
aVValencia
p194
aVSLL
p195
aV17(2)
p196
aV1538
p197
aV-
aV2
aV6
aV-
aV0.1
p198
aV81.2
p199
aV1
aV1
aV6.89
p200
aa(lp201
V2010/2011
p202
aVValencia
p203
aVUCL
p204
aV4
aV360
p205
aV-
aV-
aV-
aV-
aV0.3
p206
aV87.3
p207
aV0.5
p208
aV-
aV7.31
p209
aa(lp210
V2009/2010
p211
aVValencia
p212
aVSLL
p213
aV25(1)
p214
aV2147
p215
aV-
aV1
aV11
p216
aV-
aV0.2
p217
aV77
p218
aV1.4
p219
aV-
aV6.87
p220
aa(lp221
VTotal / Average
p222
aV
aV
aV254
p223
aV21162
p224
aV5
aV15
p225
aV58
p226
aV1
aV0.2
p227
aV80.4
p228
aV1.4
p229
aV8
aV6.93
p230
aasS'defensive_data'
p231
(lp232
(lp233
a(lp234
V2018/2019
p235
aVBrighton
p236
aVEPL
p237
aV8
aV622
p238
aV-
aV1
aV2
aV-
aV0.3
p239
aV80.4
p240
aV0.5
p241
aV-
aV6.54
p242
aa(lp243
V2017/2018
p244
aVBrighton
p245
aVEPL
p246
aV23(2)
p247
aV2018
p248
aV-
aV-
aV3
aV-
aV0.1
p249
aV82
p250
aV1.1
p251
aV-
aV6.70
p252
aa(lp253
V2016/2017
p254
aVBrighton
p255
aVEC
p256
aV42
p257
aV3719
p258
aV-
aV4
aV7
aV-
aV0.3
p259
aV83
p260
aV1.7
p261
aV-
aV7.02
p262
aa(lp263
V2015/2016
p264
aVBrighton
p265
aVEC
p266
aV48
p267
aV4237
p268
aV1
aV3
aV7
aV-
aV0.2
p269
aV79.4
p270
aV1.7
p271
aV2
aV7.03
p272
aa(lp273
V2014/2015
p274
aVBrighton
p275
aVEC
p276
aV33(2)
p277
aV2900
p278
aV3
aV1
aV7
aV1
aV0.5
p279
aV77.9
p280
aV1.8
p281
aV-
aV6.85
p282
aa(lp283
V2013/2014
p284
aVBrighton
p285
aVEC
p286
aV31(2)
p287
aV2724
p288
aV1
aV2
aV10
p289
aV-
aV0.2
p290
aV81.3
p291
aV1.5
p292
aV3
aV7.12
p293
aa(lp294
V2011/2012
p295
aVValencia
p296
aVSLL
p297
aV11(3)
p298
aV897
p299
aV-
aV1
aV5
aV-
aV0.1
p300
aV80
p301
aV0.7
p302
aV2
aV6.77
p303
aa(lp304
V2010/2011
p305
aVValencia
p306
aVSLL
p307
aV17(2)
p308
aV1538
p309
aV-
aV2
aV6
aV-
aV0.1
p310
aV81.2
p311
aV1
aV1
aV6.89
p312
aa(lp313
V2010/2011
p314
aVValencia
p315
aVUCL
p316
aV4
aV360
p317
aV-
aV-
aV-
aV-
aV0.3
p318
aV87.3
p319
aV0.5
p320
aV-
aV7.31
p321
aa(lp322
V2009/2010
p323
aVValencia
p324
aVSLL
p325
aV25(1)
p326
aV2147
p327
aV-
aV1
aV11
p328
aV-
aV0.2
p329
aV77
p330
aV1.4
p331
aV-
aV6.87
p332
aa(lp333
VTotal / Average
p334
aV
aV
aV254
p335
aV21162
p336
aV5
aV15
p337
aV58
p338
aV1
aV0.2
p339
aV80.4
p340
aV1.4
p341
aV8
aV6.93
p342
aasS'sumary_data'
p343
(lp344
(lp345
a(lp346
V2018/2019
p347
aVBrighton
p348
aVEPL
p349
aV8
aV622
p350
aV-
aV1
aV2
aV-
aV0.3
p351
aV80.4
p352
aV0.5
p353
aV-
aV6.54
p354
aa(lp355
V2017/2018
p356
aVBrighton
p357
aVEPL
p358
aV23(2)
p359
aV2018
p360
aV-
aV-
aV3
aV-
aV0.1
p361
aV82
p362
aV1.1
p363
aV-
aV6.70
p364
aa(lp365
V2016/2017
p366
aVBrighton
p367
aVEC
p368
aV42
p369
aV3719
p370
aV-
aV4
aV7
aV-
aV0.3
p371
aV83
p372
aV1.7
p373
aV-
aV7.02
p374
aa(lp375
V2015/2016
p376
aVBrighton
p377
aVEC
p378
aV48
p379
aV4237
p380
aV1
aV3
aV7
aV-
aV0.2
p381
aV79.4
p382
aV1.7
p383
aV2
aV7.03
p384
aa(lp385
V2014/2015
p386
aVBrighton
p387
aVEC
p388
aV33(2)
p389
aV2900
p390
aV3
aV1
aV7
aV1
aV0.5
p391
aV77.9
p392
aV1.8
p393
aV-
aV6.85
p394
aa(lp395
V2013/2014
p396
aVBrighton
p397
aVEC
p398
aV31(2)
p399
aV2724
p400
aV1
aV2
aV10
p401
aV-
aV0.2
p402
aV81.3
p403
aV1.5
p404
aV3
aV7.12
p405
aa(lp406
V2011/2012
p407
aVValencia
p408
aVSLL
p409
aV11(3)
p410
aV897
p411
aV-
aV1
aV5
aV-
aV0.1
p412
aV80
p413
aV0.7
p414
aV2
aV6.77
p415
aa(lp416
V2010/2011
p417
aVValencia
p418
aVSLL
p419
aV17(2)
p420
aV1538
p421
aV-
aV2
aV6
aV-
aV0.1
p422
aV81.2
p423
aV1
aV1
aV6.89
p424
aa(lp425
V2010/2011
p426
aVValencia
p427
aVUCL
p428
aV4
aV360
p429
aV-
aV-
aV-
aV-
aV0.3
p430
aV87.3
p431
aV0.5
p432
aV-
aV7.31
p433
aa(lp434
V2009/2010
p435
aVValencia
p436
aVSLL
p437
aV25(1)
p438
aV2147
p439
aV-
aV1
aV11
p440
aV-
aV0.2
p441
aV77
p442
aV1.4
p443
aV-
aV6.87
p444
aa(lp445
VTotal / Average
p446
aV
aV
aV254
p447
aV21162
p448
aV5
aV15
p449
aV58
p450
aV1
aV0.2
p451
aV80.4
p452
aV1.4
p453
aV8
aV6.93
p454
aasS'id'
p455
V23957
p456
sb.