(i__main__
Player
p1
(dp2
S'name'
p3
VDale Stephens 
p4
sS'offensive_data'
p5
(lp6
(lp7
a(lp8
V2018/2019
p9
aVBrighton
p10
aVEPL
p11
aV11(1)
p12
aV876
p13
aV-
aV-
aV3
aV1
aV0.2
p14
aV80.4
p15
aV1
aV-
aV6.46
p16
aa(lp17
V2017/2018
p18
aVBrighton
p19
aVEPL
p20
aV36
p21
aV3240
p22
aV-
aV3
aV6
aV-
aV0.5
p23
aV83.9
p24
aV0.8
p25
aV-
aV6.79
p26
aa(lp27
V2016/2017
p28
aVBrighton
p29
aVEC
p30
aV33(6)
p31
aV3037
p32
aV2
aV2
aV6
aV1
aV0.6
p33
aV87.5
p34
aV1.6
p35
aV1
aV6.99
p36
aa(lp37
V2015/2016
p38
aVBrighton
p39
aVEC
p40
aV45
p41
aV3971
p42
aV7
aV5
aV10
p43
aV1
aV1.2
p44
aV84.2
p45
aV1.2
p46
aV5
aV7.26
p47
aa(lp48
V2014/2015
p49
aVBrighton
p50
aVEC
p51
aV10(6)
p52
aV1009
p53
aV2
aV-
aV2
aV-
aV1
aV83.6
p54
aV1
aV-
aV6.99
p55
aa(lp56
V2013/2014
p57
aVBrighton
p58
aVEC
p59
aV12(2)
p60
aV1112
p61
aV2
aV3
aV2
aV-
aV1.6
p62
aV82
p63
aV1.4
p64
aV2
aV7.37
p65
aa(lp66
V2013/2014
p67
aVCharlton
p68
aVEC
p69
aV24(2)
p70
aV2129
p71
aV3
aV2
aV5
aV-
aV1.8
p72
aV77.3
p73
aV1.1
p74
aV1
aV6.89
p75
aa(lp76
VTotal / Average
p77
aV
aV
aV188
p78
aV15374
p79
aV16
p80
aV15
p81
aV34
p82
aV3
aV1
aV83.4
p83
aV1.2
p84
aV9
aV7.00
p85
aasS'url'
p86
S'https://www.whoscored.com/Players/24238/History/'
p87
sS'passing_data'
p88
(lp89
(lp90
a(lp91
V2018/2019
p92
aVBrighton
p93
aVEPL
p94
aV11(1)
p95
aV876
p96
aV-
aV-
aV3
aV1
aV0.2
p97
aV80.4
p98
aV1
aV-
aV6.46
p99
aa(lp100
V2017/2018
p101
aVBrighton
p102
aVEPL
p103
aV36
p104
aV3240
p105
aV-
aV3
aV6
aV-
aV0.5
p106
aV83.9
p107
aV0.8
p108
aV-
aV6.79
p109
aa(lp110
V2016/2017
p111
aVBrighton
p112
aVEC
p113
aV33(6)
p114
aV3037
p115
aV2
aV2
aV6
aV1
aV0.6
p116
aV87.5
p117
aV1.6
p118
aV1
aV6.99
p119
aa(lp120
V2015/2016
p121
aVBrighton
p122
aVEC
p123
aV45
p124
aV3971
p125
aV7
aV5
aV10
p126
aV1
aV1.2
p127
aV84.2
p128
aV1.2
p129
aV5
aV7.26
p130
aa(lp131
V2014/2015
p132
aVBrighton
p133
aVEC
p134
aV10(6)
p135
aV1009
p136
aV2
aV-
aV2
aV-
aV1
aV83.6
p137
aV1
aV-
aV6.99
p138
aa(lp139
V2013/2014
p140
aVBrighton
p141
aVEC
p142
aV12(2)
p143
aV1112
p144
aV2
aV3
aV2
aV-
aV1.6
p145
aV82
p146
aV1.4
p147
aV2
aV7.37
p148
aa(lp149
V2013/2014
p150
aVCharlton
p151
aVEC
p152
aV24(2)
p153
aV2129
p154
aV3
aV2
aV5
aV-
aV1.8
p155
aV77.3
p156
aV1.1
p157
aV1
aV6.89
p158
aa(lp159
VTotal / Average
p160
aV
aV
aV188
p161
aV15374
p162
aV16
p163
aV15
p164
aV34
p165
aV3
aV1
aV83.4
p166
aV1.2
p167
aV9
aV7.00
p168
aasS'defensive_data'
p169
(lp170
(lp171
a(lp172
V2018/2019
p173
aVBrighton
p174
aVEPL
p175
aV11(1)
p176
aV876
p177
aV-
aV-
aV3
aV1
aV0.2
p178
aV80.4
p179
aV1
aV-
aV6.46
p180
aa(lp181
V2017/2018
p182
aVBrighton
p183
aVEPL
p184
aV36
p185
aV3240
p186
aV-
aV3
aV6
aV-
aV0.5
p187
aV83.9
p188
aV0.8
p189
aV-
aV6.79
p190
aa(lp191
V2016/2017
p192
aVBrighton
p193
aVEC
p194
aV33(6)
p195
aV3037
p196
aV2
aV2
aV6
aV1
aV0.6
p197
aV87.5
p198
aV1.6
p199
aV1
aV6.99
p200
aa(lp201
V2015/2016
p202
aVBrighton
p203
aVEC
p204
aV45
p205
aV3971
p206
aV7
aV5
aV10
p207
aV1
aV1.2
p208
aV84.2
p209
aV1.2
p210
aV5
aV7.26
p211
aa(lp212
V2014/2015
p213
aVBrighton
p214
aVEC
p215
aV10(6)
p216
aV1009
p217
aV2
aV-
aV2
aV-
aV1
aV83.6
p218
aV1
aV-
aV6.99
p219
aa(lp220
V2013/2014
p221
aVBrighton
p222
aVEC
p223
aV12(2)
p224
aV1112
p225
aV2
aV3
aV2
aV-
aV1.6
p226
aV82
p227
aV1.4
p228
aV2
aV7.37
p229
aa(lp230
V2013/2014
p231
aVCharlton
p232
aVEC
p233
aV24(2)
p234
aV2129
p235
aV3
aV2
aV5
aV-
aV1.8
p236
aV77.3
p237
aV1.1
p238
aV1
aV6.89
p239
aa(lp240
VTotal / Average
p241
aV
aV
aV188
p242
aV15374
p243
aV16
p244
aV15
p245
aV34
p246
aV3
aV1
aV83.4
p247
aV1.2
p248
aV9
aV7.00
p249
aasS'sumary_data'
p250
(lp251
(lp252
a(lp253
V2018/2019
p254
aVBrighton
p255
aVEPL
p256
aV11(1)
p257
aV876
p258
aV-
aV-
aV3
aV1
aV0.2
p259
aV80.4
p260
aV1
aV-
aV6.46
p261
aa(lp262
V2017/2018
p263
aVBrighton
p264
aVEPL
p265
aV36
p266
aV3240
p267
aV-
aV3
aV6
aV-
aV0.5
p268
aV83.9
p269
aV0.8
p270
aV-
aV6.79
p271
aa(lp272
V2016/2017
p273
aVBrighton
p274
aVEC
p275
aV33(6)
p276
aV3037
p277
aV2
aV2
aV6
aV1
aV0.6
p278
aV87.5
p279
aV1.6
p280
aV1
aV6.99
p281
aa(lp282
V2015/2016
p283
aVBrighton
p284
aVEC
p285
aV45
p286
aV3971
p287
aV7
aV5
aV10
p288
aV1
aV1.2
p289
aV84.2
p290
aV1.2
p291
aV5
aV7.26
p292
aa(lp293
V2014/2015
p294
aVBrighton
p295
aVEC
p296
aV10(6)
p297
aV1009
p298
aV2
aV-
aV2
aV-
aV1
aV83.6
p299
aV1
aV-
aV6.99
p300
aa(lp301
V2013/2014
p302
aVBrighton
p303
aVEC
p304
aV12(2)
p305
aV1112
p306
aV2
aV3
aV2
aV-
aV1.6
p307
aV82
p308
aV1.4
p309
aV2
aV7.37
p310
aa(lp311
V2013/2014
p312
aVCharlton
p313
aVEC
p314
aV24(2)
p315
aV2129
p316
aV3
aV2
aV5
aV-
aV1.8
p317
aV77.3
p318
aV1.1
p319
aV1
aV6.89
p320
aa(lp321
VTotal / Average
p322
aV
aV
aV188
p323
aV15374
p324
aV16
p325
aV15
p326
aV34
p327
aV3
aV1
aV83.4
p328
aV1.2
p329
aV9
aV7.00
p330
aasS'id'
p331
V24238
p332
sb.