(i__main__
Player
p1
(dp2
S'name'
p3
VAboubakar Kamara 
p4
sS'offensive_data'
p5
(lp6
(lp7
a(lp8
V2018/2019
p9
aVFulham
p10
aVEPL
p11
aV4(5)
p12
aV529
p13
aV2
aV-
aV1
aV-
aV2
aV74.6
p14
aV0.8
p15
aV-
aV6.35
p16
aa(lp17
V2017/2018
p18
aVFulham
p19
aVEC
p20
aV10(22)
p21
aV1362
p22
aV7
aV1
aV7
aV1
aV1.5
p23
aV78
p24
aV0.6
p25
aV1
aV6.46
p26
aa(lp27
V2014/2015
p28
aVMonaco
p29
aVFL1
p30
aV0(2)
p31
aV12
p32
aV-
aV-
aV-
aV-
aV0.5
p33
aV66.7
p34
aV0.5
p35
aV-
aV6.02
p36
aa(lp37
VTotal / Average
p38
aV
aV
aV43
p39
aV1903
p40
aV9
aV1
aV8
aV1
aV1.5
p41
aV76.8
p42
aV0.7
p43
aV1
aV6.42
p44
aasS'url'
p45
S'https://www.whoscored.com/Players/243076/History/'
p46
sS'passing_data'
p47
(lp48
(lp49
a(lp50
V2018/2019
p51
aVFulham
p52
aVEPL
p53
aV4(5)
p54
aV529
p55
aV2
aV-
aV1
aV-
aV2
aV74.6
p56
aV0.8
p57
aV-
aV6.35
p58
aa(lp59
V2017/2018
p60
aVFulham
p61
aVEC
p62
aV10(22)
p63
aV1362
p64
aV7
aV1
aV7
aV1
aV1.5
p65
aV78
p66
aV0.6
p67
aV1
aV6.46
p68
aa(lp69
V2014/2015
p70
aVMonaco
p71
aVFL1
p72
aV0(2)
p73
aV12
p74
aV-
aV-
aV-
aV-
aV0.5
p75
aV66.7
p76
aV0.5
p77
aV-
aV6.02
p78
aa(lp79
VTotal / Average
p80
aV
aV
aV43
p81
aV1903
p82
aV9
aV1
aV8
aV1
aV1.5
p83
aV76.8
p84
aV0.7
p85
aV1
aV6.42
p86
aasS'defensive_data'
p87
(lp88
(lp89
a(lp90
V2018/2019
p91
aVFulham
p92
aVEPL
p93
aV4(5)
p94
aV529
p95
aV2
aV-
aV1
aV-
aV2
aV74.6
p96
aV0.8
p97
aV-
aV6.35
p98
aa(lp99
V2017/2018
p100
aVFulham
p101
aVEC
p102
aV10(22)
p103
aV1362
p104
aV7
aV1
aV7
aV1
aV1.5
p105
aV78
p106
aV0.6
p107
aV1
aV6.46
p108
aa(lp109
V2014/2015
p110
aVMonaco
p111
aVFL1
p112
aV0(2)
p113
aV12
p114
aV-
aV-
aV-
aV-
aV0.5
p115
aV66.7
p116
aV0.5
p117
aV-
aV6.02
p118
aa(lp119
VTotal / Average
p120
aV
aV
aV43
p121
aV1903
p122
aV9
aV1
aV8
aV1
aV1.5
p123
aV76.8
p124
aV0.7
p125
aV1
aV6.42
p126
aasS'sumary_data'
p127
(lp128
(lp129
a(lp130
V2018/2019
p131
aVFulham
p132
aVEPL
p133
aV4(5)
p134
aV529
p135
aV2
aV-
aV1
aV-
aV2
aV74.6
p136
aV0.8
p137
aV-
aV6.35
p138
aa(lp139
V2017/2018
p140
aVFulham
p141
aVEC
p142
aV10(22)
p143
aV1362
p144
aV7
aV1
aV7
aV1
aV1.5
p145
aV78
p146
aV0.6
p147
aV1
aV6.46
p148
aa(lp149
V2014/2015
p150
aVMonaco
p151
aVFL1
p152
aV0(2)
p153
aV12
p154
aV-
aV-
aV-
aV-
aV0.5
p155
aV66.7
p156
aV0.5
p157
aV-
aV6.02
p158
aa(lp159
VTotal / Average
p160
aV
aV
aV43
p161
aV1903
p162
aV9
aV1
aV8
aV1
aV1.5
p163
aV76.8
p164
aV0.7
p165
aV1
aV6.42
p166
aasS'id'
p167
V243076
p168
sb.