(i__main__
Player
p1
(dp2
S'name'
p3
VAndreas Pereira 
p4
sS'offensive_data'
p5
(lp6
(lp7
a(lp8
V2018/2019
p9
aVManchester Un..
p10
aVEPL
p11
aV2(2)
p12
aV158
p13
aV-
aV-
aV2
aV-
aV0.5
p14
aV90.4
p15
aV0.3
p16
aV-
aV6.37
p17
aa(lp18
V2018/2019
p19
aVManchester Un..
p20
aVUCL
p21
aV1(1)
p22
aV106
p23
aV-
aV-
aV-
aV-
aV1
aV84
p24
aV0.5
p25
aV-
aV6.41
p26
aa(lp27
V2017/2018
p28
aVValencia
p29
aVSLL
p30
aV12(11)
p31
aV1078
p32
aV1
aV3
aV5
aV-
aV0.6
p33
aV71.6
p34
aV0.6
p35
aV1
aV6.54
p36
aa(lp37
V2016/2017
p38
aVGranada
p39
aVSLL
p40
aV34(1)
p41
aV2830
p42
aV5
aV3
aV10
p43
aV1
aV2.1
p44
aV76.1
p45
aV0.7
p46
aV2
aV6.81
p47
aa(lp48
V2015/2016
p49
aVManchester Un..
p50
aVUEL
p51
aV0(2)
p52
aV16
p53
aV-
aV-
aV-
aV-
aV0.5
p54
aV90
p55
aV-
aV-
aV6.25
p56
aa(lp57
V2015/2016
p58
aVManchester Un..
p59
aVUCL
p60
aV0(1)
p61
aV28
p62
aV-
aV-
aV-
aV-
aV1
aV55.6
p63
aV-
aV-
aV5.95
p64
aa(lp65
V2015/2016
p66
aVManchester Un..
p67
aVEPL
p68
aV0(4)
p69
aV80
p70
aV-
aV-
aV2
aV-
aV-
aV85.7
p71
aV-
aV-
aV6.22
p72
aa(lp73
V2014/2015
p74
aVManchester Un..
p75
aVEPL
p76
aV0(1)
p77
aV13
p78
aV-
aV-
aV-
aV-
aV-
aV50
p79
aV-
aV-
aV6.32
p80
aa(lp81
VTotal / Average
p82
aV
aV
aV72
p83
aV4309
p84
aV6
aV6
aV19
p85
aV1
aV1.3
p86
aV76
p87
aV0.5
p88
aV3
aV6.62
p89
aasS'url'
p90
S'https://www.whoscored.com/Players/243254/History/'
p91
sS'passing_data'
p92
(lp93
(lp94
a(lp95
V2018/2019
p96
aVManchester Un..
p97
aVEPL
p98
aV2(2)
p99
aV158
p100
aV-
aV-
aV2
aV-
aV0.5
p101
aV90.4
p102
aV0.3
p103
aV-
aV6.37
p104
aa(lp105
V2018/2019
p106
aVManchester Un..
p107
aVUCL
p108
aV1(1)
p109
aV106
p110
aV-
aV-
aV-
aV-
aV1
aV84
p111
aV0.5
p112
aV-
aV6.41
p113
aa(lp114
V2017/2018
p115
aVValencia
p116
aVSLL
p117
aV12(11)
p118
aV1078
p119
aV1
aV3
aV5
aV-
aV0.6
p120
aV71.6
p121
aV0.6
p122
aV1
aV6.54
p123
aa(lp124
V2016/2017
p125
aVGranada
p126
aVSLL
p127
aV34(1)
p128
aV2830
p129
aV5
aV3
aV10
p130
aV1
aV2.1
p131
aV76.1
p132
aV0.7
p133
aV2
aV6.81
p134
aa(lp135
V2015/2016
p136
aVManchester Un..
p137
aVUEL
p138
aV0(2)
p139
aV16
p140
aV-
aV-
aV-
aV-
aV0.5
p141
aV90
p142
aV-
aV-
aV6.25
p143
aa(lp144
V2015/2016
p145
aVManchester Un..
p146
aVUCL
p147
aV0(1)
p148
aV28
p149
aV-
aV-
aV-
aV-
aV1
aV55.6
p150
aV-
aV-
aV5.95
p151
aa(lp152
V2015/2016
p153
aVManchester Un..
p154
aVEPL
p155
aV0(4)
p156
aV80
p157
aV-
aV-
aV2
aV-
aV-
aV85.7
p158
aV-
aV-
aV6.22
p159
aa(lp160
V2014/2015
p161
aVManchester Un..
p162
aVEPL
p163
aV0(1)
p164
aV13
p165
aV-
aV-
aV-
aV-
aV-
aV50
p166
aV-
aV-
aV6.32
p167
aa(lp168
VTotal / Average
p169
aV
aV
aV72
p170
aV4309
p171
aV6
aV6
aV19
p172
aV1
aV1.3
p173
aV76
p174
aV0.5
p175
aV3
aV6.62
p176
aasS'defensive_data'
p177
(lp178
(lp179
a(lp180
V2018/2019
p181
aVManchester Un..
p182
aVEPL
p183
aV2(2)
p184
aV158
p185
aV-
aV-
aV2
aV-
aV0.5
p186
aV90.4
p187
aV0.3
p188
aV-
aV6.37
p189
aa(lp190
V2018/2019
p191
aVManchester Un..
p192
aVUCL
p193
aV1(1)
p194
aV106
p195
aV-
aV-
aV-
aV-
aV1
aV84
p196
aV0.5
p197
aV-
aV6.41
p198
aa(lp199
V2017/2018
p200
aVValencia
p201
aVSLL
p202
aV12(11)
p203
aV1078
p204
aV1
aV3
aV5
aV-
aV0.6
p205
aV71.6
p206
aV0.6
p207
aV1
aV6.54
p208
aa(lp209
V2016/2017
p210
aVGranada
p211
aVSLL
p212
aV34(1)
p213
aV2830
p214
aV5
aV3
aV10
p215
aV1
aV2.1
p216
aV76.1
p217
aV0.7
p218
aV2
aV6.81
p219
aa(lp220
V2015/2016
p221
aVManchester Un..
p222
aVUEL
p223
aV0(2)
p224
aV16
p225
aV-
aV-
aV-
aV-
aV0.5
p226
aV90
p227
aV-
aV-
aV6.25
p228
aa(lp229
V2015/2016
p230
aVManchester Un..
p231
aVUCL
p232
aV0(1)
p233
aV28
p234
aV-
aV-
aV-
aV-
aV1
aV55.6
p235
aV-
aV-
aV5.95
p236
aa(lp237
V2015/2016
p238
aVManchester Un..
p239
aVEPL
p240
aV0(4)
p241
aV80
p242
aV-
aV-
aV2
aV-
aV-
aV85.7
p243
aV-
aV-
aV6.22
p244
aa(lp245
V2014/2015
p246
aVManchester Un..
p247
aVEPL
p248
aV0(1)
p249
aV13
p250
aV-
aV-
aV-
aV-
aV-
aV50
p251
aV-
aV-
aV6.32
p252
aa(lp253
VTotal / Average
p254
aV
aV
aV72
p255
aV4309
p256
aV6
aV6
aV19
p257
aV1
aV1.3
p258
aV76
p259
aV0.5
p260
aV3
aV6.62
p261
aasS'sumary_data'
p262
(lp263
(lp264
a(lp265
V2018/2019
p266
aVManchester Un..
p267
aVEPL
p268
aV2(2)
p269
aV158
p270
aV-
aV-
aV2
aV-
aV0.5
p271
aV90.4
p272
aV0.3
p273
aV-
aV6.37
p274
aa(lp275
V2018/2019
p276
aVManchester Un..
p277
aVUCL
p278
aV1(1)
p279
aV106
p280
aV-
aV-
aV-
aV-
aV1
aV84
p281
aV0.5
p282
aV-
aV6.41
p283
aa(lp284
V2017/2018
p285
aVValencia
p286
aVSLL
p287
aV12(11)
p288
aV1078
p289
aV1
aV3
aV5
aV-
aV0.6
p290
aV71.6
p291
aV0.6
p292
aV1
aV6.54
p293
aa(lp294
V2016/2017
p295
aVGranada
p296
aVSLL
p297
aV34(1)
p298
aV2830
p299
aV5
aV3
aV10
p300
aV1
aV2.1
p301
aV76.1
p302
aV0.7
p303
aV2
aV6.81
p304
aa(lp305
V2015/2016
p306
aVManchester Un..
p307
aVUEL
p308
aV0(2)
p309
aV16
p310
aV-
aV-
aV-
aV-
aV0.5
p311
aV90
p312
aV-
aV-
aV6.25
p313
aa(lp314
V2015/2016
p315
aVManchester Un..
p316
aVUCL
p317
aV0(1)
p318
aV28
p319
aV-
aV-
aV-
aV-
aV1
aV55.6
p320
aV-
aV-
aV5.95
p321
aa(lp322
V2015/2016
p323
aVManchester Un..
p324
aVEPL
p325
aV0(4)
p326
aV80
p327
aV-
aV-
aV2
aV-
aV-
aV85.7
p328
aV-
aV-
aV6.22
p329
aa(lp330
V2014/2015
p331
aVManchester Un..
p332
aVEPL
p333
aV0(1)
p334
aV13
p335
aV-
aV-
aV-
aV-
aV-
aV50
p336
aV-
aV-
aV6.32
p337
aa(lp338
VTotal / Average
p339
aV
aV
aV72
p340
aV4309
p341
aV6
aV6
aV19
p342
aV1
aV1.3
p343
aV76
p344
aV0.5
p345
aV3
aV6.62
p346
aasS'id'
p347
V243254
p348
sb.