(i__main__
Player
p1
(dp2
S'name'
p3
VNaby Keita 
p4
sS'offensive_data'
p5
(lp6
(lp7
a(lp8
V2018/2019
p9
aVLiverpool
p10
aVEPL
p11
aV7(6)
p12
aV684
p13
aV-
aV-
aV-
aV-
aV1.3
p14
aV87.2
p15
aV0.5
p16
aV-
aV6.65
p17
aa(lp18
V2018/2019
p19
aVLiverpool
p20
aVUCL
p21
aV1(2)
p22
aV54
p23
aV-
aV-
aV1
aV-
aV-
aV73.9
p24
aV0.3
p25
aV-
aV6.22
p26
aa(lp27
V2017/2018
p28
aVRasenBallspor..
p29
aVGB
p30
aV23(4)
p31
aV1962
p32
aV6
aV5
aV7
aV2
aV1.6
p33
aV81.4
p34
aV0.6
p35
aV4
aV7.24
p36
aa(lp37
V2017/2018
p38
aVRasenBallspor..
p39
aVUEL
p40
aV5
aV446
p41
aV-
aV2
aV1
aV-
aV2
aV85.1
p42
aV0.6
p43
aV1
aV7.49
p44
aa(lp45
V2017/2018
p46
aVRasenBallspor..
p47
aVUCL
p48
aV5
aV419
p49
aV2
aV-
aV1
aV-
aV2.6
p50
aV81
p51
aV0.8
p52
aV3
aV7.95
p53
aa(lp54
V2016/2017
p55
aVRasenBallspor..
p56
aVGB
p57
aV29(2)
p58
aV2416
p59
aV8
aV7
aV8
aV-
aV1.4
p60
aV81.8
p61
aV0.6
p62
aV3
aV7.60
p63
aa(lp64
V2015
p65
aVGuinea
p66
aVACoN
p67
aV2(2)
p68
aV238
p69
aV-
aV-
aV-
aV-
aV0.8
p70
aV80.9
p71
aV-
aV-
aV6.33
p72
aa(lp73
V2014/2015
p74
aVSalzburg
p75
aVUEL
p76
aV3(3)
p77
aV311
p78
aV1
aV1
aV-
aV-
aV1
aV77.9
p79
aV0.5
p80
aV-
aV7.14
p81
aa(lp82
VTotal / Average
p83
aV
aV
aV94
p84
aV6530
p85
aV17
p86
aV15
p87
aV18
p88
aV2
aV1.4
p89
aV82
p90
aV0.6
p91
aV11
p92
aV7.25
p93
aasS'url'
p94
S'https://www.whoscored.com/Players/243510/History/'
p95
sS'passing_data'
p96
(lp97
(lp98
a(lp99
V2018/2019
p100
aVLiverpool
p101
aVEPL
p102
aV7(6)
p103
aV684
p104
aV-
aV-
aV-
aV-
aV1.3
p105
aV87.2
p106
aV0.5
p107
aV-
aV6.65
p108
aa(lp109
V2018/2019
p110
aVLiverpool
p111
aVUCL
p112
aV1(2)
p113
aV54
p114
aV-
aV-
aV1
aV-
aV-
aV73.9
p115
aV0.3
p116
aV-
aV6.22
p117
aa(lp118
V2017/2018
p119
aVRasenBallspor..
p120
aVGB
p121
aV23(4)
p122
aV1962
p123
aV6
aV5
aV7
aV2
aV1.6
p124
aV81.4
p125
aV0.6
p126
aV4
aV7.24
p127
aa(lp128
V2017/2018
p129
aVRasenBallspor..
p130
aVUEL
p131
aV5
aV446
p132
aV-
aV2
aV1
aV-
aV2
aV85.1
p133
aV0.6
p134
aV1
aV7.49
p135
aa(lp136
V2017/2018
p137
aVRasenBallspor..
p138
aVUCL
p139
aV5
aV419
p140
aV2
aV-
aV1
aV-
aV2.6
p141
aV81
p142
aV0.8
p143
aV3
aV7.95
p144
aa(lp145
V2016/2017
p146
aVRasenBallspor..
p147
aVGB
p148
aV29(2)
p149
aV2416
p150
aV8
aV7
aV8
aV-
aV1.4
p151
aV81.8
p152
aV0.6
p153
aV3
aV7.60
p154
aa(lp155
V2015
p156
aVGuinea
p157
aVACoN
p158
aV2(2)
p159
aV238
p160
aV-
aV-
aV-
aV-
aV0.8
p161
aV80.9
p162
aV-
aV-
aV6.33
p163
aa(lp164
V2014/2015
p165
aVSalzburg
p166
aVUEL
p167
aV3(3)
p168
aV311
p169
aV1
aV1
aV-
aV-
aV1
aV77.9
p170
aV0.5
p171
aV-
aV7.14
p172
aa(lp173
VTotal / Average
p174
aV
aV
aV94
p175
aV6530
p176
aV17
p177
aV15
p178
aV18
p179
aV2
aV1.4
p180
aV82
p181
aV0.6
p182
aV11
p183
aV7.25
p184
aasS'defensive_data'
p185
(lp186
(lp187
a(lp188
V2018/2019
p189
aVLiverpool
p190
aVEPL
p191
aV7(6)
p192
aV684
p193
aV-
aV-
aV-
aV-
aV1.3
p194
aV87.2
p195
aV0.5
p196
aV-
aV6.65
p197
aa(lp198
V2018/2019
p199
aVLiverpool
p200
aVUCL
p201
aV1(2)
p202
aV54
p203
aV-
aV-
aV1
aV-
aV-
aV73.9
p204
aV0.3
p205
aV-
aV6.22
p206
aa(lp207
V2017/2018
p208
aVRasenBallspor..
p209
aVGB
p210
aV23(4)
p211
aV1962
p212
aV6
aV5
aV7
aV2
aV1.6
p213
aV81.4
p214
aV0.6
p215
aV4
aV7.24
p216
aa(lp217
V2017/2018
p218
aVRasenBallspor..
p219
aVUEL
p220
aV5
aV446
p221
aV-
aV2
aV1
aV-
aV2
aV85.1
p222
aV0.6
p223
aV1
aV7.49
p224
aa(lp225
V2017/2018
p226
aVRasenBallspor..
p227
aVUCL
p228
aV5
aV419
p229
aV2
aV-
aV1
aV-
aV2.6
p230
aV81
p231
aV0.8
p232
aV3
aV7.95
p233
aa(lp234
V2016/2017
p235
aVRasenBallspor..
p236
aVGB
p237
aV29(2)
p238
aV2416
p239
aV8
aV7
aV8
aV-
aV1.4
p240
aV81.8
p241
aV0.6
p242
aV3
aV7.60
p243
aa(lp244
V2015
p245
aVGuinea
p246
aVACoN
p247
aV2(2)
p248
aV238
p249
aV-
aV-
aV-
aV-
aV0.8
p250
aV80.9
p251
aV-
aV-
aV6.33
p252
aa(lp253
V2014/2015
p254
aVSalzburg
p255
aVUEL
p256
aV3(3)
p257
aV311
p258
aV1
aV1
aV-
aV-
aV1
aV77.9
p259
aV0.5
p260
aV-
aV7.14
p261
aa(lp262
VTotal / Average
p263
aV
aV
aV94
p264
aV6530
p265
aV17
p266
aV15
p267
aV18
p268
aV2
aV1.4
p269
aV82
p270
aV0.6
p271
aV11
p272
aV7.25
p273
aasS'sumary_data'
p274
(lp275
(lp276
a(lp277
V2018/2019
p278
aVLiverpool
p279
aVEPL
p280
aV7(6)
p281
aV684
p282
aV-
aV-
aV-
aV-
aV1.3
p283
aV87.2
p284
aV0.5
p285
aV-
aV6.65
p286
aa(lp287
V2018/2019
p288
aVLiverpool
p289
aVUCL
p290
aV1(2)
p291
aV54
p292
aV-
aV-
aV1
aV-
aV-
aV73.9
p293
aV0.3
p294
aV-
aV6.22
p295
aa(lp296
V2017/2018
p297
aVRasenBallspor..
p298
aVGB
p299
aV23(4)
p300
aV1962
p301
aV6
aV5
aV7
aV2
aV1.6
p302
aV81.4
p303
aV0.6
p304
aV4
aV7.24
p305
aa(lp306
V2017/2018
p307
aVRasenBallspor..
p308
aVUEL
p309
aV5
aV446
p310
aV-
aV2
aV1
aV-
aV2
aV85.1
p311
aV0.6
p312
aV1
aV7.49
p313
aa(lp314
V2017/2018
p315
aVRasenBallspor..
p316
aVUCL
p317
aV5
aV419
p318
aV2
aV-
aV1
aV-
aV2.6
p319
aV81
p320
aV0.8
p321
aV3
aV7.95
p322
aa(lp323
V2016/2017
p324
aVRasenBallspor..
p325
aVGB
p326
aV29(2)
p327
aV2416
p328
aV8
aV7
aV8
aV-
aV1.4
p329
aV81.8
p330
aV0.6
p331
aV3
aV7.60
p332
aa(lp333
V2015
p334
aVGuinea
p335
aVACoN
p336
aV2(2)
p337
aV238
p338
aV-
aV-
aV-
aV-
aV0.8
p339
aV80.9
p340
aV-
aV-
aV6.33
p341
aa(lp342
V2014/2015
p343
aVSalzburg
p344
aVUEL
p345
aV3(3)
p346
aV311
p347
aV1
aV1
aV-
aV-
aV1
aV77.9
p348
aV0.5
p349
aV-
aV7.14
p350
aa(lp351
VTotal / Average
p352
aV
aV
aV94
p353
aV6530
p354
aV17
p355
aV15
p356
aV18
p357
aV2
aV1.4
p358
aV82
p359
aV0.6
p360
aV11
p361
aV7.25
p362
aasS'id'
p363
V243510
p364
sb.