(i__main__
Player
p1
(dp2
S'name'
p3
VDaniel Amartey 
p4
sS'offensive_data'
p5
(lp6
(lp7
a(lp8
V2018/2019
p9
aVLeicester
p10
aVEPL
p11
aV7(2)
p12
aV641
p13
aV-
aV-
aV2
aV-
aV0.4
p14
aV85.2
p15
aV1.6
p16
aV-
aV6.69
p17
aa(lp18
V2017/2018
p19
aVLeicester
p20
aVEPL
p21
aV6(2)
p22
aV488
p23
aV-
aV-
aV-
aV1
aV-
aV79.6
p24
aV1.3
p25
aV-
aV6.39
p26
aa(lp27
V2016/2017
p28
aVLeicester
p29
aVUCL
p30
aV3(5)
p31
aV292
p32
aV-
aV-
aV-
aV-
aV0.4
p33
aV86.4
p34
aV0.9
p35
aV-
aV6.50
p36
aa(lp37
V2016/2017
p38
aVLeicester
p39
aVEPL
p40
aV17(7)
p41
aV1666
p42
aV1
aV1
aV3
aV-
aV0.6
p43
aV80.9
p44
aV1.4
p45
aV-
aV6.51
p46
aa(lp47
V2015/2016
p48
aVLeicester
p49
aVEPL
p50
aV1(4)
p51
aV102
p52
aV-
aV-
aV-
aV-
aV0.2
p53
aV81.8
p54
aV0.4
p55
aV-
aV6.22
p56
aa(lp57
V2015
p58
aVGhana
p59
aVACoN
p60
aV3
aV216
p61
aV-
aV-
aV-
aV-
aV0.7
p62
aV77.2
p63
aV2.3
p64
aV-
aV6.61
p65
aa(lp66
V2014/2015
p67
aVFC Copenhagen
p68
aVUEL
p69
aV6
aV496
p70
aV2
aV-
aV2
aV-
aV0.5
p71
aV91
p72
aV0.3
p73
aV1
aV6.69
p74
aa(lp75
VTotal / Average
p76
aV
aV
aV63
p77
aV3901
p78
aV3
aV1
aV7
aV1
aV0.4
p79
aV82.9
p80
aV1.2
p81
aV1
aV6.52
p82
aasS'url'
p83
S'https://www.whoscored.com/Players/243552/History/'
p84
sS'passing_data'
p85
(lp86
(lp87
a(lp88
V2018/2019
p89
aVLeicester
p90
aVEPL
p91
aV7(2)
p92
aV641
p93
aV-
aV-
aV2
aV-
aV0.4
p94
aV85.2
p95
aV1.6
p96
aV-
aV6.69
p97
aa(lp98
V2017/2018
p99
aVLeicester
p100
aVEPL
p101
aV6(2)
p102
aV488
p103
aV-
aV-
aV-
aV1
aV-
aV79.6
p104
aV1.3
p105
aV-
aV6.39
p106
aa(lp107
V2016/2017
p108
aVLeicester
p109
aVUCL
p110
aV3(5)
p111
aV292
p112
aV-
aV-
aV-
aV-
aV0.4
p113
aV86.4
p114
aV0.9
p115
aV-
aV6.50
p116
aa(lp117
V2016/2017
p118
aVLeicester
p119
aVEPL
p120
aV17(7)
p121
aV1666
p122
aV1
aV1
aV3
aV-
aV0.6
p123
aV80.9
p124
aV1.4
p125
aV-
aV6.51
p126
aa(lp127
V2015/2016
p128
aVLeicester
p129
aVEPL
p130
aV1(4)
p131
aV102
p132
aV-
aV-
aV-
aV-
aV0.2
p133
aV81.8
p134
aV0.4
p135
aV-
aV6.22
p136
aa(lp137
V2015
p138
aVGhana
p139
aVACoN
p140
aV3
aV216
p141
aV-
aV-
aV-
aV-
aV0.7
p142
aV77.2
p143
aV2.3
p144
aV-
aV6.61
p145
aa(lp146
V2014/2015
p147
aVFC Copenhagen
p148
aVUEL
p149
aV6
aV496
p150
aV2
aV-
aV2
aV-
aV0.5
p151
aV91
p152
aV0.3
p153
aV1
aV6.69
p154
aa(lp155
VTotal / Average
p156
aV
aV
aV63
p157
aV3901
p158
aV3
aV1
aV7
aV1
aV0.4
p159
aV82.9
p160
aV1.2
p161
aV1
aV6.52
p162
aasS'defensive_data'
p163
(lp164
(lp165
a(lp166
V2018/2019
p167
aVLeicester
p168
aVEPL
p169
aV7(2)
p170
aV641
p171
aV-
aV-
aV2
aV-
aV0.4
p172
aV85.2
p173
aV1.6
p174
aV-
aV6.69
p175
aa(lp176
V2017/2018
p177
aVLeicester
p178
aVEPL
p179
aV6(2)
p180
aV488
p181
aV-
aV-
aV-
aV1
aV-
aV79.6
p182
aV1.3
p183
aV-
aV6.39
p184
aa(lp185
V2016/2017
p186
aVLeicester
p187
aVUCL
p188
aV3(5)
p189
aV292
p190
aV-
aV-
aV-
aV-
aV0.4
p191
aV86.4
p192
aV0.9
p193
aV-
aV6.50
p194
aa(lp195
V2016/2017
p196
aVLeicester
p197
aVEPL
p198
aV17(7)
p199
aV1666
p200
aV1
aV1
aV3
aV-
aV0.6
p201
aV80.9
p202
aV1.4
p203
aV-
aV6.51
p204
aa(lp205
V2015/2016
p206
aVLeicester
p207
aVEPL
p208
aV1(4)
p209
aV102
p210
aV-
aV-
aV-
aV-
aV0.2
p211
aV81.8
p212
aV0.4
p213
aV-
aV6.22
p214
aa(lp215
V2015
p216
aVGhana
p217
aVACoN
p218
aV3
aV216
p219
aV-
aV-
aV-
aV-
aV0.7
p220
aV77.2
p221
aV2.3
p222
aV-
aV6.61
p223
aa(lp224
V2014/2015
p225
aVFC Copenhagen
p226
aVUEL
p227
aV6
aV496
p228
aV2
aV-
aV2
aV-
aV0.5
p229
aV91
p230
aV0.3
p231
aV1
aV6.69
p232
aa(lp233
VTotal / Average
p234
aV
aV
aV63
p235
aV3901
p236
aV3
aV1
aV7
aV1
aV0.4
p237
aV82.9
p238
aV1.2
p239
aV1
aV6.52
p240
aasS'sumary_data'
p241
(lp242
(lp243
a(lp244
V2018/2019
p245
aVLeicester
p246
aVEPL
p247
aV7(2)
p248
aV641
p249
aV-
aV-
aV2
aV-
aV0.4
p250
aV85.2
p251
aV1.6
p252
aV-
aV6.69
p253
aa(lp254
V2017/2018
p255
aVLeicester
p256
aVEPL
p257
aV6(2)
p258
aV488
p259
aV-
aV-
aV-
aV1
aV-
aV79.6
p260
aV1.3
p261
aV-
aV6.39
p262
aa(lp263
V2016/2017
p264
aVLeicester
p265
aVUCL
p266
aV3(5)
p267
aV292
p268
aV-
aV-
aV-
aV-
aV0.4
p269
aV86.4
p270
aV0.9
p271
aV-
aV6.50
p272
aa(lp273
V2016/2017
p274
aVLeicester
p275
aVEPL
p276
aV17(7)
p277
aV1666
p278
aV1
aV1
aV3
aV-
aV0.6
p279
aV80.9
p280
aV1.4
p281
aV-
aV6.51
p282
aa(lp283
V2015/2016
p284
aVLeicester
p285
aVEPL
p286
aV1(4)
p287
aV102
p288
aV-
aV-
aV-
aV-
aV0.2
p289
aV81.8
p290
aV0.4
p291
aV-
aV6.22
p292
aa(lp293
V2015
p294
aVGhana
p295
aVACoN
p296
aV3
aV216
p297
aV-
aV-
aV-
aV-
aV0.7
p298
aV77.2
p299
aV2.3
p300
aV-
aV6.61
p301
aa(lp302
V2014/2015
p303
aVFC Copenhagen
p304
aVUEL
p305
aV6
aV496
p306
aV2
aV-
aV2
aV-
aV0.5
p307
aV91
p308
aV0.3
p309
aV1
aV6.69
p310
aa(lp311
VTotal / Average
p312
aV
aV
aV63
p313
aV3901
p314
aV3
aV1
aV7
aV1
aV0.4
p315
aV82.9
p316
aV1.2
p317
aV1
aV6.52
p318
aasS'id'
p319
V243552
p320
sb.