(i__main__
Player
p1
(dp2
S'name'
p3
VEric Bailly 
p4
sS'offensive_data'
p5
(lp6
(lp7
a(lp8
V2018/2019
p9
aVManchester Un..
p10
aVEPL
p11
aV5(2)
p12
aV381
p13
aV-
aV-
aV-
aV-
aV-
aV85.8
p14
aV1.3
p15
aV-
aV6.34
p16
aa(lp17
V2018/2019
p18
aVManchester Un..
p19
aVUCL
p20
aV2
aV180
p21
aV-
aV-
aV1
aV-
aV1
aV92.3
p22
aV1.5
p23
aV-
aV7.03
p24
aa(lp25
V2017/2018
p26
aVManchester Un..
p27
aVUCL
p28
aV3
aV270
p29
aV-
aV-
aV1
aV-
aV-
aV82.9
p30
aV-
aV-
aV6.60
p31
aa(lp32
V2017/2018
p33
aVManchester Un..
p34
aVEPL
p35
aV11(2)
p36
aV1000
p37
aV1
aV-
aV2
aV-
aV0.2
p38
aV86.2
p39
aV1.3
p40
aV-
aV7.03
p41
aa(lp42
V2016/2017
p43
aVManchester Un..
p44
aVEPL
p45
aV24(1)
p46
aV2060
p47
aV-
aV-
aV4
aV-
aV0.2
p48
aV85.5
p49
aV1.5
p50
aV-
aV7.23
p51
aa(lp52
V2016/2017
p53
aVManchester Un..
p54
aVUEL
p55
aV11
p56
aV990
p57
aV-
aV-
aV2
aV2
aV0.2
p58
aV91.7
p59
aV1.5
p60
aV-
aV6.89
p61
aa(lp62
V2015/2016
p63
aVVillarreal
p64
aVSLL
p65
aV25
p66
aV2026
p67
aV-
aV-
aV9
aV1
aV0.2
p68
aV76.9
p69
aV1.6
p70
aV2
aV6.92
p71
aa(lp72
V2015/2016
p73
aVVillarreal
p74
aVUEL
p75
aV7
aV616
p76
aV1
aV-
aV1
aV-
aV0.1
p77
aV83.7
p78
aV2.1
p79
aV1
aV7.13
p80
aa(lp81
V2015
p82
aVIvory Coast
p83
aVACoN
p84
aV6
aV509
p85
aV-
aV-
aV2
aV-
aV-
aV81.2
p86
aV2.2
p87
aV1
aV7.09
p88
aa(lp89
V2014/2015
p90
aVVillarreal
p91
aVSLL
p92
aV10
p93
aV829
p94
aV-
aV-
aV5
aV-
aV0.2
p95
aV83.9
p96
aV2
aV2
aV7.10
p97
aa(lp98
V2014/2015
p99
aVEspanyol
p100
aVSLL
p101
aV4(1)
p102
aV354
p103
aV-
aV-
aV1
aV-
aV0.4
p104
aV70.4
p105
aV1.6
p106
aV1
aV7.10
p107
aa(lp108
V2014/2015
p109
aVVillarreal
p110
aVUEL
p111
aV2
aV167
p112
aV-
aV-
aV-
aV1
aV0.5
p113
aV88.6
p114
aV1
aV-
aV6.65
p115
aa(lp116
VTotal / Average
p117
aV
aV
aV116
p118
aV9382
p119
aV2
aV0
aV28
p120
aV4
aV0.2
p121
aV83.3
p122
aV1.6
p123
aV7
aV6.99
p124
aasS'url'
p125
S'https://www.whoscored.com/Players/243814/History/'
p126
sS'passing_data'
p127
(lp128
(lp129
a(lp130
V2018/2019
p131
aVManchester Un..
p132
aVEPL
p133
aV5(2)
p134
aV381
p135
aV-
aV-
aV-
aV-
aV-
aV85.8
p136
aV1.3
p137
aV-
aV6.34
p138
aa(lp139
V2018/2019
p140
aVManchester Un..
p141
aVUCL
p142
aV2
aV180
p143
aV-
aV-
aV1
aV-
aV1
aV92.3
p144
aV1.5
p145
aV-
aV7.03
p146
aa(lp147
V2017/2018
p148
aVManchester Un..
p149
aVUCL
p150
aV3
aV270
p151
aV-
aV-
aV1
aV-
aV-
aV82.9
p152
aV-
aV-
aV6.60
p153
aa(lp154
V2017/2018
p155
aVManchester Un..
p156
aVEPL
p157
aV11(2)
p158
aV1000
p159
aV1
aV-
aV2
aV-
aV0.2
p160
aV86.2
p161
aV1.3
p162
aV-
aV7.03
p163
aa(lp164
V2016/2017
p165
aVManchester Un..
p166
aVEPL
p167
aV24(1)
p168
aV2060
p169
aV-
aV-
aV4
aV-
aV0.2
p170
aV85.5
p171
aV1.5
p172
aV-
aV7.23
p173
aa(lp174
V2016/2017
p175
aVManchester Un..
p176
aVUEL
p177
aV11
p178
aV990
p179
aV-
aV-
aV2
aV2
aV0.2
p180
aV91.7
p181
aV1.5
p182
aV-
aV6.89
p183
aa(lp184
V2015/2016
p185
aVVillarreal
p186
aVSLL
p187
aV25
p188
aV2026
p189
aV-
aV-
aV9
aV1
aV0.2
p190
aV76.9
p191
aV1.6
p192
aV2
aV6.92
p193
aa(lp194
V2015/2016
p195
aVVillarreal
p196
aVUEL
p197
aV7
aV616
p198
aV1
aV-
aV1
aV-
aV0.1
p199
aV83.7
p200
aV2.1
p201
aV1
aV7.13
p202
aa(lp203
V2015
p204
aVIvory Coast
p205
aVACoN
p206
aV6
aV509
p207
aV-
aV-
aV2
aV-
aV-
aV81.2
p208
aV2.2
p209
aV1
aV7.09
p210
aa(lp211
V2014/2015
p212
aVVillarreal
p213
aVSLL
p214
aV10
p215
aV829
p216
aV-
aV-
aV5
aV-
aV0.2
p217
aV83.9
p218
aV2
aV2
aV7.10
p219
aa(lp220
V2014/2015
p221
aVEspanyol
p222
aVSLL
p223
aV4(1)
p224
aV354
p225
aV-
aV-
aV1
aV-
aV0.4
p226
aV70.4
p227
aV1.6
p228
aV1
aV7.10
p229
aa(lp230
V2014/2015
p231
aVVillarreal
p232
aVUEL
p233
aV2
aV167
p234
aV-
aV-
aV-
aV1
aV0.5
p235
aV88.6
p236
aV1
aV-
aV6.65
p237
aa(lp238
VTotal / Average
p239
aV
aV
aV116
p240
aV9382
p241
aV2
aV0
aV28
p242
aV4
aV0.2
p243
aV83.3
p244
aV1.6
p245
aV7
aV6.99
p246
aasS'defensive_data'
p247
(lp248
(lp249
a(lp250
V2018/2019
p251
aVManchester Un..
p252
aVEPL
p253
aV5(2)
p254
aV381
p255
aV-
aV-
aV-
aV-
aV-
aV85.8
p256
aV1.3
p257
aV-
aV6.34
p258
aa(lp259
V2018/2019
p260
aVManchester Un..
p261
aVUCL
p262
aV2
aV180
p263
aV-
aV-
aV1
aV-
aV1
aV92.3
p264
aV1.5
p265
aV-
aV7.03
p266
aa(lp267
V2017/2018
p268
aVManchester Un..
p269
aVUCL
p270
aV3
aV270
p271
aV-
aV-
aV1
aV-
aV-
aV82.9
p272
aV-
aV-
aV6.60
p273
aa(lp274
V2017/2018
p275
aVManchester Un..
p276
aVEPL
p277
aV11(2)
p278
aV1000
p279
aV1
aV-
aV2
aV-
aV0.2
p280
aV86.2
p281
aV1.3
p282
aV-
aV7.03
p283
aa(lp284
V2016/2017
p285
aVManchester Un..
p286
aVEPL
p287
aV24(1)
p288
aV2060
p289
aV-
aV-
aV4
aV-
aV0.2
p290
aV85.5
p291
aV1.5
p292
aV-
aV7.23
p293
aa(lp294
V2016/2017
p295
aVManchester Un..
p296
aVUEL
p297
aV11
p298
aV990
p299
aV-
aV-
aV2
aV2
aV0.2
p300
aV91.7
p301
aV1.5
p302
aV-
aV6.89
p303
aa(lp304
V2015/2016
p305
aVVillarreal
p306
aVSLL
p307
aV25
p308
aV2026
p309
aV-
aV-
aV9
aV1
aV0.2
p310
aV76.9
p311
aV1.6
p312
aV2
aV6.92
p313
aa(lp314
V2015/2016
p315
aVVillarreal
p316
aVUEL
p317
aV7
aV616
p318
aV1
aV-
aV1
aV-
aV0.1
p319
aV83.7
p320
aV2.1
p321
aV1
aV7.13
p322
aa(lp323
V2015
p324
aVIvory Coast
p325
aVACoN
p326
aV6
aV509
p327
aV-
aV-
aV2
aV-
aV-
aV81.2
p328
aV2.2
p329
aV1
aV7.09
p330
aa(lp331
V2014/2015
p332
aVVillarreal
p333
aVSLL
p334
aV10
p335
aV829
p336
aV-
aV-
aV5
aV-
aV0.2
p337
aV83.9
p338
aV2
aV2
aV7.10
p339
aa(lp340
V2014/2015
p341
aVEspanyol
p342
aVSLL
p343
aV4(1)
p344
aV354
p345
aV-
aV-
aV1
aV-
aV0.4
p346
aV70.4
p347
aV1.6
p348
aV1
aV7.10
p349
aa(lp350
V2014/2015
p351
aVVillarreal
p352
aVUEL
p353
aV2
aV167
p354
aV-
aV-
aV-
aV1
aV0.5
p355
aV88.6
p356
aV1
aV-
aV6.65
p357
aa(lp358
VTotal / Average
p359
aV
aV
aV116
p360
aV9382
p361
aV2
aV0
aV28
p362
aV4
aV0.2
p363
aV83.3
p364
aV1.6
p365
aV7
aV6.99
p366
aasS'sumary_data'
p367
(lp368
(lp369
a(lp370
V2018/2019
p371
aVManchester Un..
p372
aVEPL
p373
aV5(2)
p374
aV381
p375
aV-
aV-
aV-
aV-
aV-
aV85.8
p376
aV1.3
p377
aV-
aV6.34
p378
aa(lp379
V2018/2019
p380
aVManchester Un..
p381
aVUCL
p382
aV2
aV180
p383
aV-
aV-
aV1
aV-
aV1
aV92.3
p384
aV1.5
p385
aV-
aV7.03
p386
aa(lp387
V2017/2018
p388
aVManchester Un..
p389
aVUCL
p390
aV3
aV270
p391
aV-
aV-
aV1
aV-
aV-
aV82.9
p392
aV-
aV-
aV6.60
p393
aa(lp394
V2017/2018
p395
aVManchester Un..
p396
aVEPL
p397
aV11(2)
p398
aV1000
p399
aV1
aV-
aV2
aV-
aV0.2
p400
aV86.2
p401
aV1.3
p402
aV-
aV7.03
p403
aa(lp404
V2016/2017
p405
aVManchester Un..
p406
aVEPL
p407
aV24(1)
p408
aV2060
p409
aV-
aV-
aV4
aV-
aV0.2
p410
aV85.5
p411
aV1.5
p412
aV-
aV7.23
p413
aa(lp414
V2016/2017
p415
aVManchester Un..
p416
aVUEL
p417
aV11
p418
aV990
p419
aV-
aV-
aV2
aV2
aV0.2
p420
aV91.7
p421
aV1.5
p422
aV-
aV6.89
p423
aa(lp424
V2015/2016
p425
aVVillarreal
p426
aVSLL
p427
aV25
p428
aV2026
p429
aV-
aV-
aV9
aV1
aV0.2
p430
aV76.9
p431
aV1.6
p432
aV2
aV6.92
p433
aa(lp434
V2015/2016
p435
aVVillarreal
p436
aVUEL
p437
aV7
aV616
p438
aV1
aV-
aV1
aV-
aV0.1
p439
aV83.7
p440
aV2.1
p441
aV1
aV7.13
p442
aa(lp443
V2015
p444
aVIvory Coast
p445
aVACoN
p446
aV6
aV509
p447
aV-
aV-
aV2
aV-
aV-
aV81.2
p448
aV2.2
p449
aV1
aV7.09
p450
aa(lp451
V2014/2015
p452
aVVillarreal
p453
aVSLL
p454
aV10
p455
aV829
p456
aV-
aV-
aV5
aV-
aV0.2
p457
aV83.9
p458
aV2
aV2
aV7.10
p459
aa(lp460
V2014/2015
p461
aVEspanyol
p462
aVSLL
p463
aV4(1)
p464
aV354
p465
aV-
aV-
aV1
aV-
aV0.4
p466
aV70.4
p467
aV1.6
p468
aV1
aV7.10
p469
aa(lp470
V2014/2015
p471
aVVillarreal
p472
aVUEL
p473
aV2
aV167
p474
aV-
aV-
aV-
aV1
aV0.5
p475
aV88.6
p476
aV1
aV-
aV6.65
p477
aa(lp478
VTotal / Average
p479
aV
aV
aV116
p480
aV9382
p481
aV2
aV0
aV28
p482
aV4
aV0.2
p483
aV83.3
p484
aV1.6
p485
aV7
aV6.99
p486
aasS'id'
p487
V243814
p488
sb.