(i__main__
Player
p1
(dp2
S'name'
p3
VOlivier Giroud 
p4
sS'offensive_data'
p5
(lp6
(lp7
a(lp8
V2018/2019
p9
aVChelsea
p10
aVEPL
p11
aV5(9)
p12
aV502
p13
aV1
aV4
aV1
aV-
aV1.6
p14
aV70.4
p15
aV1.6
p16
aV-
aV6.63
p17
aa(lp18
V2018/2019
p19
aVChelsea
p20
aVUEL
p21
aV3(2)
p22
aV309
p23
aV4
aV-
aV-
aV-
aV3.4
p24
aV73.7
p25
aV1.4
p26
aV1
aV7.28
p27
aa(lp28
V2018/2019
p29
aVFrance
p30
aVUNL
p31
aV4
aV310
p32
aV1
aV-
aV-
aV-
aV1.5
p33
aV69
p34
aV3
aV-
aV6.66
p35
aa(lp36
V2017/2018
p37
aVArsenal
p38
aVUEL
p39
aV6
aV540
p40
aV3
aV-
aV-
aV-
aV4.2
p41
aV64.7
p42
aV2.3
p43
aV-
aV7.21
p44
aa(lp45
V2017/2018
p46
aVChelsea
p47
aVUCL
p48
aV1
aV67
p49
aV-
aV-
aV1
aV-
aV1
aV70
p50
aV1
aV-
aV5.63
p51
aa(lp52
V2017/2018
p53
aVChelsea
p54
aVEPL
p55
aV6(7)
p56
aV610
p57
aV3
aV1
aV-
aV-
aV2.3
p58
aV64.4
p59
aV3.5
p60
aV1
aV6.78
p61
aa(lp62
V2017/2018
p63
aVArsenal
p64
aVEPL
p65
aV1(15)
p66
aV375
p67
aV4
aV-
aV-
aV-
aV1.1
p68
aV69.9
p69
aV1.4
p70
aV-
aV6.46
p71
aa(lp72
V2016/2017
p73
aVArsenal
p74
aVUCL
p75
aV3(3)
p76
aV312
p77
aV2
aV1
aV-
aV1
aV1.5
p78
aV62.2
p79
aV1.8
p80
aV-
aV6.35
p81
aa(lp82
V2016/2017
p83
aVArsenal
p84
aVEPL
p85
aV11(18)
p86
aV1198
p87
aV12
p88
aV3
aV2
aV-
aV1.3
p89
aV71.5
p90
aV1.7
p91
aV1
aV6.81
p92
aa(lp93
V2018
p94
aVFrance
p95
aVWC
p96
aV6(1)
p97
aV546
p98
aV-
aV1
aV1
aV-
aV1.9
p99
aV65.4
p100
aV3.3
p101
aV-
aV6.81
p102
aa(lp103
V2015/2016
p104
aVArsenal
p105
aVUCL
p106
aV5(2)
p107
aV388
p108
aV5
aV-
aV3
aV1
aV2.6
p109
aV67.7
p110
aV1.7
p111
aV1
aV7.00
p112
aa(lp113
V2015/2016
p114
aVArsenal
p115
aVEPL
p116
aV26(12)
p117
aV2431
p118
aV16
p119
aV6
aV2
aV-
aV2.7
p120
aV68.1
p121
aV2.7
p122
aV1
aV7.07
p123
aa(lp124
V2014/2015
p125
aVArsenal
p126
aVUCL
p127
aV2
aV150
p128
aV1
aV-
aV-
aV-
aV6.5
p129
aV55.8
p130
aV5.5
p131
aV-
aV6.74
p132
aa(lp133
V2014/2015
p134
aVArsenal
p135
aVEPL
p136
aV21(6)
p137
aV1867
p138
aV14
p139
aV3
aV5
aV1
aV2.6
p140
aV67.7
p141
aV3.7
p142
aV2
aV7.23
p143
aa(lp144
V2016
p145
aVFrance
p146
aVUEC
p147
aV6
aV456
p148
aV3
aV2
aV1
aV-
aV2.7
p149
aV60.9
p150
aV4.2
p151
aV1
aV7.42
p152
aa(lp153
V2013/2014
p154
aVArsenal
p155
aVUCL
p156
aV7
aV630
p157
aV2
aV1
aV1
aV-
aV1.7
p158
aV68.2
p159
aV3
aV-
aV6.74
p160
aa(lp161
V2013/2014
p162
aVArsenal
p163
aVEPL
p164
aV36
p165
aV3083
p166
aV16
p167
aV8
aV4
aV-
aV3.1
p168
aV68.9
p169
aV4
aV3
aV7.36
p170
aa(lp171
V2014
p172
aVFrance
p173
aVWC
p174
aV2(3)
p175
aV165
p176
aV1
aV1
aV-
aV-
aV1.4
p177
aV63.5
p178
aV1.6
p179
aV-
aV6.70
p180
aa(lp181
V2012/2013
p182
aVArsenal
p183
aVUCL
p184
aV4(3)
p185
aV384
p186
aV2
aV4
aV2
aV-
aV2
aV62.8
p187
aV2.9
p188
aV-
aV6.92
p189
aa(lp190
V2012/2013
p191
aVArsenal
p192
aVEPL
p193
aV24(10)
p194
aV2325
p195
aV11
p196
aV3
aV3
aV1
aV3.1
p197
aV64
p198
aV3.9
p199
aV3
aV7.08
p200
aa(lp201
V2012
p202
aVFrance
p203
aVUEC
p204
aV0(3)
p205
aV32
p206
aV-
aV-
aV-
aV-
aV0.7
p207
aV72.7
p208
aV-
aV-
aV5.92
p209
aa(lp210
V2011/2012
p211
aVMontpellier
p212
aVFL1
p213
aV36
p214
aV3202
p215
aV21
p216
aV9
aV6
aV-
aV4.5
p217
aV69.1
p218
aV3.6
p219
aV8
aV7.59
p220
aa(lp221
V2010/2011
p222
aVMontpellier
p223
aVFL1
p224
aV33(4)
p225
aV2912
p226
aV12
p227
aV4
aV5
aV-
aV2.4
p228
aV66.7
p229
aV2.4
p230
aV3
aV6.84
p231
aa(lp232
VTotal / Average
p233
aV
aV
aV346
p234
aV22794
p235
aV134
p236
aV51
p237
aV37
p238
aV4
aV2.6
p239
aV67.6
p240
aV2.9
p241
aV25
p242
aV7.02
p243
aasS'url'
p244
S'https://www.whoscored.com/Players/24444/History/'
p245
sS'passing_data'
p246
(lp247
(lp248
a(lp249
V2018/2019
p250
aVChelsea
p251
aVEPL
p252
aV5(9)
p253
aV502
p254
aV1
aV4
aV1
aV-
aV1.6
p255
aV70.4
p256
aV1.6
p257
aV-
aV6.63
p258
aa(lp259
V2018/2019
p260
aVChelsea
p261
aVUEL
p262
aV3(2)
p263
aV309
p264
aV4
aV-
aV-
aV-
aV3.4
p265
aV73.7
p266
aV1.4
p267
aV1
aV7.28
p268
aa(lp269
V2018/2019
p270
aVFrance
p271
aVUNL
p272
aV4
aV310
p273
aV1
aV-
aV-
aV-
aV1.5
p274
aV69
p275
aV3
aV-
aV6.66
p276
aa(lp277
V2017/2018
p278
aVArsenal
p279
aVUEL
p280
aV6
aV540
p281
aV3
aV-
aV-
aV-
aV4.2
p282
aV64.7
p283
aV2.3
p284
aV-
aV7.21
p285
aa(lp286
V2017/2018
p287
aVChelsea
p288
aVUCL
p289
aV1
aV67
p290
aV-
aV-
aV1
aV-
aV1
aV70
p291
aV1
aV-
aV5.63
p292
aa(lp293
V2017/2018
p294
aVChelsea
p295
aVEPL
p296
aV6(7)
p297
aV610
p298
aV3
aV1
aV-
aV-
aV2.3
p299
aV64.4
p300
aV3.5
p301
aV1
aV6.78
p302
aa(lp303
V2017/2018
p304
aVArsenal
p305
aVEPL
p306
aV1(15)
p307
aV375
p308
aV4
aV-
aV-
aV-
aV1.1
p309
aV69.9
p310
aV1.4
p311
aV-
aV6.46
p312
aa(lp313
V2016/2017
p314
aVArsenal
p315
aVUCL
p316
aV3(3)
p317
aV312
p318
aV2
aV1
aV-
aV1
aV1.5
p319
aV62.2
p320
aV1.8
p321
aV-
aV6.35
p322
aa(lp323
V2016/2017
p324
aVArsenal
p325
aVEPL
p326
aV11(18)
p327
aV1198
p328
aV12
p329
aV3
aV2
aV-
aV1.3
p330
aV71.5
p331
aV1.7
p332
aV1
aV6.81
p333
aa(lp334
V2018
p335
aVFrance
p336
aVWC
p337
aV6(1)
p338
aV546
p339
aV-
aV1
aV1
aV-
aV1.9
p340
aV65.4
p341
aV3.3
p342
aV-
aV6.81
p343
aa(lp344
V2015/2016
p345
aVArsenal
p346
aVUCL
p347
aV5(2)
p348
aV388
p349
aV5
aV-
aV3
aV1
aV2.6
p350
aV67.7
p351
aV1.7
p352
aV1
aV7.00
p353
aa(lp354
V2015/2016
p355
aVArsenal
p356
aVEPL
p357
aV26(12)
p358
aV2431
p359
aV16
p360
aV6
aV2
aV-
aV2.7
p361
aV68.1
p362
aV2.7
p363
aV1
aV7.07
p364
aa(lp365
V2014/2015
p366
aVArsenal
p367
aVUCL
p368
aV2
aV150
p369
aV1
aV-
aV-
aV-
aV6.5
p370
aV55.8
p371
aV5.5
p372
aV-
aV6.74
p373
aa(lp374
V2014/2015
p375
aVArsenal
p376
aVEPL
p377
aV21(6)
p378
aV1867
p379
aV14
p380
aV3
aV5
aV1
aV2.6
p381
aV67.7
p382
aV3.7
p383
aV2
aV7.23
p384
aa(lp385
V2016
p386
aVFrance
p387
aVUEC
p388
aV6
aV456
p389
aV3
aV2
aV1
aV-
aV2.7
p390
aV60.9
p391
aV4.2
p392
aV1
aV7.42
p393
aa(lp394
V2013/2014
p395
aVArsenal
p396
aVUCL
p397
aV7
aV630
p398
aV2
aV1
aV1
aV-
aV1.7
p399
aV68.2
p400
aV3
aV-
aV6.74
p401
aa(lp402
V2013/2014
p403
aVArsenal
p404
aVEPL
p405
aV36
p406
aV3083
p407
aV16
p408
aV8
aV4
aV-
aV3.1
p409
aV68.9
p410
aV4
aV3
aV7.36
p411
aa(lp412
V2014
p413
aVFrance
p414
aVWC
p415
aV2(3)
p416
aV165
p417
aV1
aV1
aV-
aV-
aV1.4
p418
aV63.5
p419
aV1.6
p420
aV-
aV6.70
p421
aa(lp422
V2012/2013
p423
aVArsenal
p424
aVUCL
p425
aV4(3)
p426
aV384
p427
aV2
aV4
aV2
aV-
aV2
aV62.8
p428
aV2.9
p429
aV-
aV6.92
p430
aa(lp431
V2012/2013
p432
aVArsenal
p433
aVEPL
p434
aV24(10)
p435
aV2325
p436
aV11
p437
aV3
aV3
aV1
aV3.1
p438
aV64
p439
aV3.9
p440
aV3
aV7.08
p441
aa(lp442
V2012
p443
aVFrance
p444
aVUEC
p445
aV0(3)
p446
aV32
p447
aV-
aV-
aV-
aV-
aV0.7
p448
aV72.7
p449
aV-
aV-
aV5.92
p450
aa(lp451
V2011/2012
p452
aVMontpellier
p453
aVFL1
p454
aV36
p455
aV3202
p456
aV21
p457
aV9
aV6
aV-
aV4.5
p458
aV69.1
p459
aV3.6
p460
aV8
aV7.59
p461
aa(lp462
V2010/2011
p463
aVMontpellier
p464
aVFL1
p465
aV33(4)
p466
aV2912
p467
aV12
p468
aV4
aV5
aV-
aV2.4
p469
aV66.7
p470
aV2.4
p471
aV3
aV6.84
p472
aa(lp473
VTotal / Average
p474
aV
aV
aV346
p475
aV22794
p476
aV134
p477
aV51
p478
aV37
p479
aV4
aV2.6
p480
aV67.6
p481
aV2.9
p482
aV25
p483
aV7.02
p484
aasS'defensive_data'
p485
(lp486
(lp487
a(lp488
V2018/2019
p489
aVChelsea
p490
aVEPL
p491
aV5(9)
p492
aV502
p493
aV1
aV4
aV1
aV-
aV1.6
p494
aV70.4
p495
aV1.6
p496
aV-
aV6.63
p497
aa(lp498
V2018/2019
p499
aVChelsea
p500
aVUEL
p501
aV3(2)
p502
aV309
p503
aV4
aV-
aV-
aV-
aV3.4
p504
aV73.7
p505
aV1.4
p506
aV1
aV7.28
p507
aa(lp508
V2018/2019
p509
aVFrance
p510
aVUNL
p511
aV4
aV310
p512
aV1
aV-
aV-
aV-
aV1.5
p513
aV69
p514
aV3
aV-
aV6.66
p515
aa(lp516
V2017/2018
p517
aVArsenal
p518
aVUEL
p519
aV6
aV540
p520
aV3
aV-
aV-
aV-
aV4.2
p521
aV64.7
p522
aV2.3
p523
aV-
aV7.21
p524
aa(lp525
V2017/2018
p526
aVChelsea
p527
aVUCL
p528
aV1
aV67
p529
aV-
aV-
aV1
aV-
aV1
aV70
p530
aV1
aV-
aV5.63
p531
aa(lp532
V2017/2018
p533
aVChelsea
p534
aVEPL
p535
aV6(7)
p536
aV610
p537
aV3
aV1
aV-
aV-
aV2.3
p538
aV64.4
p539
aV3.5
p540
aV1
aV6.78
p541
aa(lp542
V2017/2018
p543
aVArsenal
p544
aVEPL
p545
aV1(15)
p546
aV375
p547
aV4
aV-
aV-
aV-
aV1.1
p548
aV69.9
p549
aV1.4
p550
aV-
aV6.46
p551
aa(lp552
V2016/2017
p553
aVArsenal
p554
aVUCL
p555
aV3(3)
p556
aV312
p557
aV2
aV1
aV-
aV1
aV1.5
p558
aV62.2
p559
aV1.8
p560
aV-
aV6.35
p561
aa(lp562
V2016/2017
p563
aVArsenal
p564
aVEPL
p565
aV11(18)
p566
aV1198
p567
aV12
p568
aV3
aV2
aV-
aV1.3
p569
aV71.5
p570
aV1.7
p571
aV1
aV6.81
p572
aa(lp573
V2018
p574
aVFrance
p575
aVWC
p576
aV6(1)
p577
aV546
p578
aV-
aV1
aV1
aV-
aV1.9
p579
aV65.4
p580
aV3.3
p581
aV-
aV6.81
p582
aa(lp583
V2015/2016
p584
aVArsenal
p585
aVUCL
p586
aV5(2)
p587
aV388
p588
aV5
aV-
aV3
aV1
aV2.6
p589
aV67.7
p590
aV1.7
p591
aV1
aV7.00
p592
aa(lp593
V2015/2016
p594
aVArsenal
p595
aVEPL
p596
aV26(12)
p597
aV2431
p598
aV16
p599
aV6
aV2
aV-
aV2.7
p600
aV68.1
p601
aV2.7
p602
aV1
aV7.07
p603
aa(lp604
V2014/2015
p605
aVArsenal
p606
aVUCL
p607
aV2
aV150
p608
aV1
aV-
aV-
aV-
aV6.5
p609
aV55.8
p610
aV5.5
p611
aV-
aV6.74
p612
aa(lp613
V2014/2015
p614
aVArsenal
p615
aVEPL
p616
aV21(6)
p617
aV1867
p618
aV14
p619
aV3
aV5
aV1
aV2.6
p620
aV67.7
p621
aV3.7
p622
aV2
aV7.23
p623
aa(lp624
V2016
p625
aVFrance
p626
aVUEC
p627
aV6
aV456
p628
aV3
aV2
aV1
aV-
aV2.7
p629
aV60.9
p630
aV4.2
p631
aV1
aV7.42
p632
aa(lp633
V2013/2014
p634
aVArsenal
p635
aVUCL
p636
aV7
aV630
p637
aV2
aV1
aV1
aV-
aV1.7
p638
aV68.2
p639
aV3
aV-
aV6.74
p640
aa(lp641
V2013/2014
p642
aVArsenal
p643
aVEPL
p644
aV36
p645
aV3083
p646
aV16
p647
aV8
aV4
aV-
aV3.1
p648
aV68.9
p649
aV4
aV3
aV7.36
p650
aa(lp651
V2014
p652
aVFrance
p653
aVWC
p654
aV2(3)
p655
aV165
p656
aV1
aV1
aV-
aV-
aV1.4
p657
aV63.5
p658
aV1.6
p659
aV-
aV6.70
p660
aa(lp661
V2012/2013
p662
aVArsenal
p663
aVUCL
p664
aV4(3)
p665
aV384
p666
aV2
aV4
aV2
aV-
aV2
aV62.8
p667
aV2.9
p668
aV-
aV6.92
p669
aa(lp670
V2012/2013
p671
aVArsenal
p672
aVEPL
p673
aV24(10)
p674
aV2325
p675
aV11
p676
aV3
aV3
aV1
aV3.1
p677
aV64
p678
aV3.9
p679
aV3
aV7.08
p680
aa(lp681
V2012
p682
aVFrance
p683
aVUEC
p684
aV0(3)
p685
aV32
p686
aV-
aV-
aV-
aV-
aV0.7
p687
aV72.7
p688
aV-
aV-
aV5.92
p689
aa(lp690
V2011/2012
p691
aVMontpellier
p692
aVFL1
p693
aV36
p694
aV3202
p695
aV21
p696
aV9
aV6
aV-
aV4.5
p697
aV69.1
p698
aV3.6
p699
aV8
aV7.59
p700
aa(lp701
V2010/2011
p702
aVMontpellier
p703
aVFL1
p704
aV33(4)
p705
aV2912
p706
aV12
p707
aV4
aV5
aV-
aV2.4
p708
aV66.7
p709
aV2.4
p710
aV3
aV6.84
p711
aa(lp712
VTotal / Average
p713
aV
aV
aV346
p714
aV22794
p715
aV134
p716
aV51
p717
aV37
p718
aV4
aV2.6
p719
aV67.6
p720
aV2.9
p721
aV25
p722
aV7.02
p723
aasS'sumary_data'
p724
(lp725
(lp726
a(lp727
V2018/2019
p728
aVChelsea
p729
aVEPL
p730
aV5(9)
p731
aV502
p732
aV1
aV4
aV1
aV-
aV1.6
p733
aV70.4
p734
aV1.6
p735
aV-
aV6.63
p736
aa(lp737
V2018/2019
p738
aVChelsea
p739
aVUEL
p740
aV3(2)
p741
aV309
p742
aV4
aV-
aV-
aV-
aV3.4
p743
aV73.7
p744
aV1.4
p745
aV1
aV7.28
p746
aa(lp747
V2018/2019
p748
aVFrance
p749
aVUNL
p750
aV4
aV310
p751
aV1
aV-
aV-
aV-
aV1.5
p752
aV69
p753
aV3
aV-
aV6.66
p754
aa(lp755
V2017/2018
p756
aVArsenal
p757
aVUEL
p758
aV6
aV540
p759
aV3
aV-
aV-
aV-
aV4.2
p760
aV64.7
p761
aV2.3
p762
aV-
aV7.21
p763
aa(lp764
V2017/2018
p765
aVChelsea
p766
aVUCL
p767
aV1
aV67
p768
aV-
aV-
aV1
aV-
aV1
aV70
p769
aV1
aV-
aV5.63
p770
aa(lp771
V2017/2018
p772
aVChelsea
p773
aVEPL
p774
aV6(7)
p775
aV610
p776
aV3
aV1
aV-
aV-
aV2.3
p777
aV64.4
p778
aV3.5
p779
aV1
aV6.78
p780
aa(lp781
V2017/2018
p782
aVArsenal
p783
aVEPL
p784
aV1(15)
p785
aV375
p786
aV4
aV-
aV-
aV-
aV1.1
p787
aV69.9
p788
aV1.4
p789
aV-
aV6.46
p790
aa(lp791
V2016/2017
p792
aVArsenal
p793
aVUCL
p794
aV3(3)
p795
aV312
p796
aV2
aV1
aV-
aV1
aV1.5
p797
aV62.2
p798
aV1.8
p799
aV-
aV6.35
p800
aa(lp801
V2016/2017
p802
aVArsenal
p803
aVEPL
p804
aV11(18)
p805
aV1198
p806
aV12
p807
aV3
aV2
aV-
aV1.3
p808
aV71.5
p809
aV1.7
p810
aV1
aV6.81
p811
aa(lp812
V2018
p813
aVFrance
p814
aVWC
p815
aV6(1)
p816
aV546
p817
aV-
aV1
aV1
aV-
aV1.9
p818
aV65.4
p819
aV3.3
p820
aV-
aV6.81
p821
aa(lp822
V2015/2016
p823
aVArsenal
p824
aVUCL
p825
aV5(2)
p826
aV388
p827
aV5
aV-
aV3
aV1
aV2.6
p828
aV67.7
p829
aV1.7
p830
aV1
aV7.00
p831
aa(lp832
V2015/2016
p833
aVArsenal
p834
aVEPL
p835
aV26(12)
p836
aV2431
p837
aV16
p838
aV6
aV2
aV-
aV2.7
p839
aV68.1
p840
aV2.7
p841
aV1
aV7.07
p842
aa(lp843
V2014/2015
p844
aVArsenal
p845
aVUCL
p846
aV2
aV150
p847
aV1
aV-
aV-
aV-
aV6.5
p848
aV55.8
p849
aV5.5
p850
aV-
aV6.74
p851
aa(lp852
V2014/2015
p853
aVArsenal
p854
aVEPL
p855
aV21(6)
p856
aV1867
p857
aV14
p858
aV3
aV5
aV1
aV2.6
p859
aV67.7
p860
aV3.7
p861
aV2
aV7.23
p862
aa(lp863
V2016
p864
aVFrance
p865
aVUEC
p866
aV6
aV456
p867
aV3
aV2
aV1
aV-
aV2.7
p868
aV60.9
p869
aV4.2
p870
aV1
aV7.42
p871
aa(lp872
V2013/2014
p873
aVArsenal
p874
aVUCL
p875
aV7
aV630
p876
aV2
aV1
aV1
aV-
aV1.7
p877
aV68.2
p878
aV3
aV-
aV6.74
p879
aa(lp880
V2013/2014
p881
aVArsenal
p882
aVEPL
p883
aV36
p884
aV3083
p885
aV16
p886
aV8
aV4
aV-
aV3.1
p887
aV68.9
p888
aV4
aV3
aV7.36
p889
aa(lp890
V2014
p891
aVFrance
p892
aVWC
p893
aV2(3)
p894
aV165
p895
aV1
aV1
aV-
aV-
aV1.4
p896
aV63.5
p897
aV1.6
p898
aV-
aV6.70
p899
aa(lp900
V2012/2013
p901
aVArsenal
p902
aVUCL
p903
aV4(3)
p904
aV384
p905
aV2
aV4
aV2
aV-
aV2
aV62.8
p906
aV2.9
p907
aV-
aV6.92
p908
aa(lp909
V2012/2013
p910
aVArsenal
p911
aVEPL
p912
aV24(10)
p913
aV2325
p914
aV11
p915
aV3
aV3
aV1
aV3.1
p916
aV64
p917
aV3.9
p918
aV3
aV7.08
p919
aa(lp920
V2012
p921
aVFrance
p922
aVUEC
p923
aV0(3)
p924
aV32
p925
aV-
aV-
aV-
aV-
aV0.7
p926
aV72.7
p927
aV-
aV-
aV5.92
p928
aa(lp929
V2011/2012
p930
aVMontpellier
p931
aVFL1
p932
aV36
p933
aV3202
p934
aV21
p935
aV9
aV6
aV-
aV4.5
p936
aV69.1
p937
aV3.6
p938
aV8
aV7.59
p939
aa(lp940
V2010/2011
p941
aVMontpellier
p942
aVFL1
p943
aV33(4)
p944
aV2912
p945
aV12
p946
aV4
aV5
aV-
aV2.4
p947
aV66.7
p948
aV2.4
p949
aV3
aV6.84
p950
aa(lp951
VTotal / Average
p952
aV
aV
aV346
p953
aV22794
p954
aV134
p955
aV51
p956
aV37
p957
aV4
aV2.6
p958
aV67.6
p959
aV2.9
p960
aV25
p961
aV7.02
p962
aasS'id'
p963
V24444
p964
sb.