(i__main__
Player
p1
(dp2
S'name'
p3
VDanny Rose 
p4
sS'offensive_data'
p5
(lp6
(lp7
a(lp8
V2018/2019
p9
aVTottenham
p10
aVEPL
p11
aV7(2)
p12
aV629
p13
aV-
aV1
aV2
aV-
aV0.3
p14
aV70.7
p15
aV0.6
p16
aV-
aV6.70
p17
aa(lp18
V2018/2019
p19
aVTottenham
p20
aVUCL
p21
aV1(1)
p22
aV91
p23
aV-
aV-
aV-
aV-
aV0.5
p24
aV76.7
p25
aV1.5
p26
aV-
aV6.62
p27
aa(lp28
V2018/2019
p29
aVEngland
p30
aVUNL
p31
aV0(1)
p32
aV37
p33
aV-
aV-
aV1
aV-
aV-
aV63.6
p34
aV-
aV-
aV6.00
p35
aa(lp36
V2017/2018
p37
aVTottenham
p38
aVUCL
p39
aV2(1)
p40
aV170
p41
aV-
aV-
aV1
aV-
aV-
aV76.7
p42
aV-
aV-
aV7.12
p43
aa(lp44
V2017/2018
p45
aVTottenham
p46
aVEPL
p47
aV9(1)
p48
aV802
p49
aV-
aV1
aV4
aV-
aV0.7
p50
aV81.5
p51
aV0.8
p52
aV-
aV6.74
p53
aa(lp54
V2016/2017
p55
aVTottenham
p56
aVUCL
p57
aV3
aV270
p58
aV-
aV1
aV-
aV-
aV0.3
p59
aV84.5
p60
aV1
aV-
aV7.29
p61
aa(lp62
V2016/2017
p63
aVTottenham
p64
aVEPL
p65
aV18
p66
aV1533
p67
aV2
aV2
aV8
aV-
aV1.3
p68
aV77.3
p69
aV1.5
p70
aV1
aV7.42
p71
aa(lp72
V2018
p73
aVEngland
p74
aVWC
p75
aV2(3)
p76
aV204
p77
aV-
aV-
aV-
aV-
aV0.2
p78
aV89.5
p79
aV-
aV-
aV6.24
p80
aa(lp81
V2015/2016
p82
aVTottenham
p83
aVUEL
p84
aV2(1)
p85
aV257
p86
aV-
aV-
aV-
aV-
aV0.7
p87
aV81.3
p88
aV0.3
p89
aV-
aV6.79
p90
aa(lp91
V2015/2016
p92
aVTottenham
p93
aVEPL
p94
aV24
p95
aV2132
p96
aV1
aV3
aV7
aV-
aV1.1
p97
aV79.4
p98
aV1
aV-
aV7.25
p99
aa(lp100
V2014/2015
p101
aVTottenham
p102
aVUEL
p103
aV1
aV90
p104
aV-
aV-
aV-
aV-
aV2
aV83.6
p105
aV-
aV-
aV6.93
p106
aa(lp107
V2014/2015
p108
aVTottenham
p109
aVEPL
p110
aV27(1)
p111
aV2372
p112
aV3
aV4
aV7
aV-
aV0.9
p113
aV78.5
p114
aV1.1
p115
aV2
aV7.23
p116
aa(lp117
V2016
p118
aVEngland
p119
aVUEC
p120
aV3
aV270
p121
aV-
aV-
aV-
aV-
aV0.3
p122
aV87.1
p123
aV0.3
p124
aV-
aV6.98
p125
aa(lp126
V2013/2014
p127
aVTottenham
p128
aVUEL
p129
aV4(1)
p130
aV280
p131
aV-
aV-
aV-
aV-
aV0.4
p132
aV81.6
p133
aV0.8
p134
aV-
aV6.75
p135
aa(lp136
V2013/2014
p137
aVTottenham
p138
aVEPL
p139
aV22
p140
aV1902
p141
aV1
aV1
aV4
aV1
aV0.7
p142
aV78.9
p143
aV1.3
p144
aV2
aV7.06
p145
aa(lp146
V2013
p147
aVEngland U21
p148
aVIEU
p149
aV2
aV180
p150
aV-
aV-
aV-
aV-
aV1.5
p151
aV83.7
p152
aV2
aV-
aV6.45
p153
aa(lp154
V2012/2013
p155
aVSunderland
p156
aVEPL
p157
aV25(2)
p158
aV2222
p159
aV1
aV1
aV6
aV-
aV0.6
p160
aV76.9
p161
aV1
aV-
aV7.00
p162
aa(lp163
V2011/2012
p164
aVTottenham
p165
aVEPL
p166
aV3(8)
p167
aV311
p168
aV-
aV-
aV1
aV1
aV0.1
p169
aV84.9
p170
aV0.1
p171
aV-
aV6.28
p172
aa(lp173
V2010/2011
p174
aVTottenham
p175
aVEPL
p176
aV4
aV352
p177
aV-
aV1
aV-
aV-
aV0.5
p178
aV80.3
p179
aV1.5
p180
aV-
aV7.53
p181
aa(lp182
V2009/2010
p183
aVTottenham
p184
aVEPL
p185
aV1
aV46
p186
aV1
aV-
aV-
aV-
aV1
aV85.7
p187
aV1
aV-
aV7.42
p188
aa(lp189
VTotal / Average
p190
aV
aV
aV182
p191
aV14150
p192
aV9
aV15
p193
aV41
p194
aV2
aV0.7
p195
aV79.2
p196
aV1
aV5
aV7.02
p197
aasS'url'
p198
S'https://www.whoscored.com/Players/24711/History/'
p199
sS'passing_data'
p200
(lp201
(lp202
a(lp203
V2018/2019
p204
aVTottenham
p205
aVEPL
p206
aV7(2)
p207
aV629
p208
aV-
aV1
aV2
aV-
aV0.3
p209
aV70.7
p210
aV0.6
p211
aV-
aV6.70
p212
aa(lp213
V2018/2019
p214
aVTottenham
p215
aVUCL
p216
aV1(1)
p217
aV91
p218
aV-
aV-
aV-
aV-
aV0.5
p219
aV76.7
p220
aV1.5
p221
aV-
aV6.62
p222
aa(lp223
V2018/2019
p224
aVEngland
p225
aVUNL
p226
aV0(1)
p227
aV37
p228
aV-
aV-
aV1
aV-
aV-
aV63.6
p229
aV-
aV-
aV6.00
p230
aa(lp231
V2017/2018
p232
aVTottenham
p233
aVUCL
p234
aV2(1)
p235
aV170
p236
aV-
aV-
aV1
aV-
aV-
aV76.7
p237
aV-
aV-
aV7.12
p238
aa(lp239
V2017/2018
p240
aVTottenham
p241
aVEPL
p242
aV9(1)
p243
aV802
p244
aV-
aV1
aV4
aV-
aV0.7
p245
aV81.5
p246
aV0.8
p247
aV-
aV6.74
p248
aa(lp249
V2016/2017
p250
aVTottenham
p251
aVUCL
p252
aV3
aV270
p253
aV-
aV1
aV-
aV-
aV0.3
p254
aV84.5
p255
aV1
aV-
aV7.29
p256
aa(lp257
V2016/2017
p258
aVTottenham
p259
aVEPL
p260
aV18
p261
aV1533
p262
aV2
aV2
aV8
aV-
aV1.3
p263
aV77.3
p264
aV1.5
p265
aV1
aV7.42
p266
aa(lp267
V2018
p268
aVEngland
p269
aVWC
p270
aV2(3)
p271
aV204
p272
aV-
aV-
aV-
aV-
aV0.2
p273
aV89.5
p274
aV-
aV-
aV6.24
p275
aa(lp276
V2015/2016
p277
aVTottenham
p278
aVUEL
p279
aV2(1)
p280
aV257
p281
aV-
aV-
aV-
aV-
aV0.7
p282
aV81.3
p283
aV0.3
p284
aV-
aV6.79
p285
aa(lp286
V2015/2016
p287
aVTottenham
p288
aVEPL
p289
aV24
p290
aV2132
p291
aV1
aV3
aV7
aV-
aV1.1
p292
aV79.4
p293
aV1
aV-
aV7.25
p294
aa(lp295
V2014/2015
p296
aVTottenham
p297
aVUEL
p298
aV1
aV90
p299
aV-
aV-
aV-
aV-
aV2
aV83.6
p300
aV-
aV-
aV6.93
p301
aa(lp302
V2014/2015
p303
aVTottenham
p304
aVEPL
p305
aV27(1)
p306
aV2372
p307
aV3
aV4
aV7
aV-
aV0.9
p308
aV78.5
p309
aV1.1
p310
aV2
aV7.23
p311
aa(lp312
V2016
p313
aVEngland
p314
aVUEC
p315
aV3
aV270
p316
aV-
aV-
aV-
aV-
aV0.3
p317
aV87.1
p318
aV0.3
p319
aV-
aV6.98
p320
aa(lp321
V2013/2014
p322
aVTottenham
p323
aVUEL
p324
aV4(1)
p325
aV280
p326
aV-
aV-
aV-
aV-
aV0.4
p327
aV81.6
p328
aV0.8
p329
aV-
aV6.75
p330
aa(lp331
V2013/2014
p332
aVTottenham
p333
aVEPL
p334
aV22
p335
aV1902
p336
aV1
aV1
aV4
aV1
aV0.7
p337
aV78.9
p338
aV1.3
p339
aV2
aV7.06
p340
aa(lp341
V2013
p342
aVEngland U21
p343
aVIEU
p344
aV2
aV180
p345
aV-
aV-
aV-
aV-
aV1.5
p346
aV83.7
p347
aV2
aV-
aV6.45
p348
aa(lp349
V2012/2013
p350
aVSunderland
p351
aVEPL
p352
aV25(2)
p353
aV2222
p354
aV1
aV1
aV6
aV-
aV0.6
p355
aV76.9
p356
aV1
aV-
aV7.00
p357
aa(lp358
V2011/2012
p359
aVTottenham
p360
aVEPL
p361
aV3(8)
p362
aV311
p363
aV-
aV-
aV1
aV1
aV0.1
p364
aV84.9
p365
aV0.1
p366
aV-
aV6.28
p367
aa(lp368
V2010/2011
p369
aVTottenham
p370
aVEPL
p371
aV4
aV352
p372
aV-
aV1
aV-
aV-
aV0.5
p373
aV80.3
p374
aV1.5
p375
aV-
aV7.53
p376
aa(lp377
V2009/2010
p378
aVTottenham
p379
aVEPL
p380
aV1
aV46
p381
aV1
aV-
aV-
aV-
aV1
aV85.7
p382
aV1
aV-
aV7.42
p383
aa(lp384
VTotal / Average
p385
aV
aV
aV182
p386
aV14150
p387
aV9
aV15
p388
aV41
p389
aV2
aV0.7
p390
aV79.2
p391
aV1
aV5
aV7.02
p392
aasS'defensive_data'
p393
(lp394
(lp395
a(lp396
V2018/2019
p397
aVTottenham
p398
aVEPL
p399
aV7(2)
p400
aV629
p401
aV-
aV1
aV2
aV-
aV0.3
p402
aV70.7
p403
aV0.6
p404
aV-
aV6.70
p405
aa(lp406
V2018/2019
p407
aVTottenham
p408
aVUCL
p409
aV1(1)
p410
aV91
p411
aV-
aV-
aV-
aV-
aV0.5
p412
aV76.7
p413
aV1.5
p414
aV-
aV6.62
p415
aa(lp416
V2018/2019
p417
aVEngland
p418
aVUNL
p419
aV0(1)
p420
aV37
p421
aV-
aV-
aV1
aV-
aV-
aV63.6
p422
aV-
aV-
aV6.00
p423
aa(lp424
V2017/2018
p425
aVTottenham
p426
aVUCL
p427
aV2(1)
p428
aV170
p429
aV-
aV-
aV1
aV-
aV-
aV76.7
p430
aV-
aV-
aV7.12
p431
aa(lp432
V2017/2018
p433
aVTottenham
p434
aVEPL
p435
aV9(1)
p436
aV802
p437
aV-
aV1
aV4
aV-
aV0.7
p438
aV81.5
p439
aV0.8
p440
aV-
aV6.74
p441
aa(lp442
V2016/2017
p443
aVTottenham
p444
aVUCL
p445
aV3
aV270
p446
aV-
aV1
aV-
aV-
aV0.3
p447
aV84.5
p448
aV1
aV-
aV7.29
p449
aa(lp450
V2016/2017
p451
aVTottenham
p452
aVEPL
p453
aV18
p454
aV1533
p455
aV2
aV2
aV8
aV-
aV1.3
p456
aV77.3
p457
aV1.5
p458
aV1
aV7.42
p459
aa(lp460
V2018
p461
aVEngland
p462
aVWC
p463
aV2(3)
p464
aV204
p465
aV-
aV-
aV-
aV-
aV0.2
p466
aV89.5
p467
aV-
aV-
aV6.24
p468
aa(lp469
V2015/2016
p470
aVTottenham
p471
aVUEL
p472
aV2(1)
p473
aV257
p474
aV-
aV-
aV-
aV-
aV0.7
p475
aV81.3
p476
aV0.3
p477
aV-
aV6.79
p478
aa(lp479
V2015/2016
p480
aVTottenham
p481
aVEPL
p482
aV24
p483
aV2132
p484
aV1
aV3
aV7
aV-
aV1.1
p485
aV79.4
p486
aV1
aV-
aV7.25
p487
aa(lp488
V2014/2015
p489
aVTottenham
p490
aVUEL
p491
aV1
aV90
p492
aV-
aV-
aV-
aV-
aV2
aV83.6
p493
aV-
aV-
aV6.93
p494
aa(lp495
V2014/2015
p496
aVTottenham
p497
aVEPL
p498
aV27(1)
p499
aV2372
p500
aV3
aV4
aV7
aV-
aV0.9
p501
aV78.5
p502
aV1.1
p503
aV2
aV7.23
p504
aa(lp505
V2016
p506
aVEngland
p507
aVUEC
p508
aV3
aV270
p509
aV-
aV-
aV-
aV-
aV0.3
p510
aV87.1
p511
aV0.3
p512
aV-
aV6.98
p513
aa(lp514
V2013/2014
p515
aVTottenham
p516
aVUEL
p517
aV4(1)
p518
aV280
p519
aV-
aV-
aV-
aV-
aV0.4
p520
aV81.6
p521
aV0.8
p522
aV-
aV6.75
p523
aa(lp524
V2013/2014
p525
aVTottenham
p526
aVEPL
p527
aV22
p528
aV1902
p529
aV1
aV1
aV4
aV1
aV0.7
p530
aV78.9
p531
aV1.3
p532
aV2
aV7.06
p533
aa(lp534
V2013
p535
aVEngland U21
p536
aVIEU
p537
aV2
aV180
p538
aV-
aV-
aV-
aV-
aV1.5
p539
aV83.7
p540
aV2
aV-
aV6.45
p541
aa(lp542
V2012/2013
p543
aVSunderland
p544
aVEPL
p545
aV25(2)
p546
aV2222
p547
aV1
aV1
aV6
aV-
aV0.6
p548
aV76.9
p549
aV1
aV-
aV7.00
p550
aa(lp551
V2011/2012
p552
aVTottenham
p553
aVEPL
p554
aV3(8)
p555
aV311
p556
aV-
aV-
aV1
aV1
aV0.1
p557
aV84.9
p558
aV0.1
p559
aV-
aV6.28
p560
aa(lp561
V2010/2011
p562
aVTottenham
p563
aVEPL
p564
aV4
aV352
p565
aV-
aV1
aV-
aV-
aV0.5
p566
aV80.3
p567
aV1.5
p568
aV-
aV7.53
p569
aa(lp570
V2009/2010
p571
aVTottenham
p572
aVEPL
p573
aV1
aV46
p574
aV1
aV-
aV-
aV-
aV1
aV85.7
p575
aV1
aV-
aV7.42
p576
aa(lp577
VTotal / Average
p578
aV
aV
aV182
p579
aV14150
p580
aV9
aV15
p581
aV41
p582
aV2
aV0.7
p583
aV79.2
p584
aV1
aV5
aV7.02
p585
aasS'sumary_data'
p586
(lp587
(lp588
a(lp589
V2018/2019
p590
aVTottenham
p591
aVEPL
p592
aV7(2)
p593
aV629
p594
aV-
aV1
aV2
aV-
aV0.3
p595
aV70.7
p596
aV0.6
p597
aV-
aV6.70
p598
aa(lp599
V2018/2019
p600
aVTottenham
p601
aVUCL
p602
aV1(1)
p603
aV91
p604
aV-
aV-
aV-
aV-
aV0.5
p605
aV76.7
p606
aV1.5
p607
aV-
aV6.62
p608
aa(lp609
V2018/2019
p610
aVEngland
p611
aVUNL
p612
aV0(1)
p613
aV37
p614
aV-
aV-
aV1
aV-
aV-
aV63.6
p615
aV-
aV-
aV6.00
p616
aa(lp617
V2017/2018
p618
aVTottenham
p619
aVUCL
p620
aV2(1)
p621
aV170
p622
aV-
aV-
aV1
aV-
aV-
aV76.7
p623
aV-
aV-
aV7.12
p624
aa(lp625
V2017/2018
p626
aVTottenham
p627
aVEPL
p628
aV9(1)
p629
aV802
p630
aV-
aV1
aV4
aV-
aV0.7
p631
aV81.5
p632
aV0.8
p633
aV-
aV6.74
p634
aa(lp635
V2016/2017
p636
aVTottenham
p637
aVUCL
p638
aV3
aV270
p639
aV-
aV1
aV-
aV-
aV0.3
p640
aV84.5
p641
aV1
aV-
aV7.29
p642
aa(lp643
V2016/2017
p644
aVTottenham
p645
aVEPL
p646
aV18
p647
aV1533
p648
aV2
aV2
aV8
aV-
aV1.3
p649
aV77.3
p650
aV1.5
p651
aV1
aV7.42
p652
aa(lp653
V2018
p654
aVEngland
p655
aVWC
p656
aV2(3)
p657
aV204
p658
aV-
aV-
aV-
aV-
aV0.2
p659
aV89.5
p660
aV-
aV-
aV6.24
p661
aa(lp662
V2015/2016
p663
aVTottenham
p664
aVUEL
p665
aV2(1)
p666
aV257
p667
aV-
aV-
aV-
aV-
aV0.7
p668
aV81.3
p669
aV0.3
p670
aV-
aV6.79
p671
aa(lp672
V2015/2016
p673
aVTottenham
p674
aVEPL
p675
aV24
p676
aV2132
p677
aV1
aV3
aV7
aV-
aV1.1
p678
aV79.4
p679
aV1
aV-
aV7.25
p680
aa(lp681
V2014/2015
p682
aVTottenham
p683
aVUEL
p684
aV1
aV90
p685
aV-
aV-
aV-
aV-
aV2
aV83.6
p686
aV-
aV-
aV6.93
p687
aa(lp688
V2014/2015
p689
aVTottenham
p690
aVEPL
p691
aV27(1)
p692
aV2372
p693
aV3
aV4
aV7
aV-
aV0.9
p694
aV78.5
p695
aV1.1
p696
aV2
aV7.23
p697
aa(lp698
V2016
p699
aVEngland
p700
aVUEC
p701
aV3
aV270
p702
aV-
aV-
aV-
aV-
aV0.3
p703
aV87.1
p704
aV0.3
p705
aV-
aV6.98
p706
aa(lp707
V2013/2014
p708
aVTottenham
p709
aVUEL
p710
aV4(1)
p711
aV280
p712
aV-
aV-
aV-
aV-
aV0.4
p713
aV81.6
p714
aV0.8
p715
aV-
aV6.75
p716
aa(lp717
V2013/2014
p718
aVTottenham
p719
aVEPL
p720
aV22
p721
aV1902
p722
aV1
aV1
aV4
aV1
aV0.7
p723
aV78.9
p724
aV1.3
p725
aV2
aV7.06
p726
aa(lp727
V2013
p728
aVEngland U21
p729
aVIEU
p730
aV2
aV180
p731
aV-
aV-
aV-
aV-
aV1.5
p732
aV83.7
p733
aV2
aV-
aV6.45
p734
aa(lp735
V2012/2013
p736
aVSunderland
p737
aVEPL
p738
aV25(2)
p739
aV2222
p740
aV1
aV1
aV6
aV-
aV0.6
p741
aV76.9
p742
aV1
aV-
aV7.00
p743
aa(lp744
V2011/2012
p745
aVTottenham
p746
aVEPL
p747
aV3(8)
p748
aV311
p749
aV-
aV-
aV1
aV1
aV0.1
p750
aV84.9
p751
aV0.1
p752
aV-
aV6.28
p753
aa(lp754
V2010/2011
p755
aVTottenham
p756
aVEPL
p757
aV4
aV352
p758
aV-
aV1
aV-
aV-
aV0.5
p759
aV80.3
p760
aV1.5
p761
aV-
aV7.53
p762
aa(lp763
V2009/2010
p764
aVTottenham
p765
aVEPL
p766
aV1
aV46
p767
aV1
aV-
aV-
aV-
aV1
aV85.7
p768
aV1
aV-
aV7.42
p769
aa(lp770
VTotal / Average
p771
aV
aV
aV182
p772
aV14150
p773
aV9
aV15
p774
aV41
p775
aV2
aV0.7
p776
aV79.2
p777
aV1
aV5
aV7.02
p778
aasS'id'
p779
V24711
p780
sb.