(i__main__
Player
p1
(dp2
S'name'
p3
VLucas Torreira 
p4
sS'offensive_data'
p5
(lp6
(lp7
a(lp8
V2018/2019
p9
aVArsenal
p10
aVEPL
p11
aV12(5)
p12
aV1233
p13
aV2
aV2
aV4
aV-
aV0.9
p14
aV89.1
p15
aV0.6
p16
aV-
aV6.98
p17
aa(lp18
V2018/2019
p19
aVArsenal
p20
aVUEL
p21
aV1(2)
p22
aV134
p23
aV-
aV-
aV-
aV-
aV0.7
p24
aV88.7
p25
aV-
aV-
aV6.54
p26
aa(lp27
V2017/2018
p28
aVSampdoria
p29
aVISA
p30
aV36
p31
aV3185
p32
aV4
aV1
aV6
aV-
aV0.9
p33
aV87.2
p34
aV0.6
p35
aV3
aV7.17
p36
aa(lp37
V2016/2017
p38
aVSampdoria
p39
aVISA
p40
aV35
p41
aV3049
p42
aV-
aV-
aV7
aV-
aV0.5
p43
aV86.6
p44
aV0.4
p45
aV1
aV6.98
p46
aa(lp47
V2018
p48
aVUruguay
p49
aVWC
p50
aV3(2)
p51
aV304
p52
aV-
aV-
aV-
aV-
aV0.4
p53
aV85.1
p54
aV1.2
p55
aV-
aV6.86
p56
aa(lp57
VTotal / Average
p58
aV
aV
aV96
p59
aV7905
p60
aV6
aV3
aV17
p61
aV0
aV0.8
p62
aV87.2
p63
aV0.5
p64
aV4
aV7.03
p65
aasS'url'
p66
S'https://www.whoscored.com/Players/248109/History/'
p67
sS'passing_data'
p68
(lp69
(lp70
a(lp71
V2018/2019
p72
aVArsenal
p73
aVEPL
p74
aV12(5)
p75
aV1233
p76
aV2
aV2
aV4
aV-
aV0.9
p77
aV89.1
p78
aV0.6
p79
aV-
aV6.98
p80
aa(lp81
V2018/2019
p82
aVArsenal
p83
aVUEL
p84
aV1(2)
p85
aV134
p86
aV-
aV-
aV-
aV-
aV0.7
p87
aV88.7
p88
aV-
aV-
aV6.54
p89
aa(lp90
V2017/2018
p91
aVSampdoria
p92
aVISA
p93
aV36
p94
aV3185
p95
aV4
aV1
aV6
aV-
aV0.9
p96
aV87.2
p97
aV0.6
p98
aV3
aV7.17
p99
aa(lp100
V2016/2017
p101
aVSampdoria
p102
aVISA
p103
aV35
p104
aV3049
p105
aV-
aV-
aV7
aV-
aV0.5
p106
aV86.6
p107
aV0.4
p108
aV1
aV6.98
p109
aa(lp110
V2018
p111
aVUruguay
p112
aVWC
p113
aV3(2)
p114
aV304
p115
aV-
aV-
aV-
aV-
aV0.4
p116
aV85.1
p117
aV1.2
p118
aV-
aV6.86
p119
aa(lp120
VTotal / Average
p121
aV
aV
aV96
p122
aV7905
p123
aV6
aV3
aV17
p124
aV0
aV0.8
p125
aV87.2
p126
aV0.5
p127
aV4
aV7.03
p128
aasS'defensive_data'
p129
(lp130
(lp131
a(lp132
V2018/2019
p133
aVArsenal
p134
aVEPL
p135
aV12(5)
p136
aV1233
p137
aV2
aV2
aV4
aV-
aV0.9
p138
aV89.1
p139
aV0.6
p140
aV-
aV6.98
p141
aa(lp142
V2018/2019
p143
aVArsenal
p144
aVUEL
p145
aV1(2)
p146
aV134
p147
aV-
aV-
aV-
aV-
aV0.7
p148
aV88.7
p149
aV-
aV-
aV6.54
p150
aa(lp151
V2017/2018
p152
aVSampdoria
p153
aVISA
p154
aV36
p155
aV3185
p156
aV4
aV1
aV6
aV-
aV0.9
p157
aV87.2
p158
aV0.6
p159
aV3
aV7.17
p160
aa(lp161
V2016/2017
p162
aVSampdoria
p163
aVISA
p164
aV35
p165
aV3049
p166
aV-
aV-
aV7
aV-
aV0.5
p167
aV86.6
p168
aV0.4
p169
aV1
aV6.98
p170
aa(lp171
V2018
p172
aVUruguay
p173
aVWC
p174
aV3(2)
p175
aV304
p176
aV-
aV-
aV-
aV-
aV0.4
p177
aV85.1
p178
aV1.2
p179
aV-
aV6.86
p180
aa(lp181
VTotal / Average
p182
aV
aV
aV96
p183
aV7905
p184
aV6
aV3
aV17
p185
aV0
aV0.8
p186
aV87.2
p187
aV0.5
p188
aV4
aV7.03
p189
aasS'sumary_data'
p190
(lp191
(lp192
a(lp193
V2018/2019
p194
aVArsenal
p195
aVEPL
p196
aV12(5)
p197
aV1233
p198
aV2
aV2
aV4
aV-
aV0.9
p199
aV89.1
p200
aV0.6
p201
aV-
aV6.98
p202
aa(lp203
V2018/2019
p204
aVArsenal
p205
aVUEL
p206
aV1(2)
p207
aV134
p208
aV-
aV-
aV-
aV-
aV0.7
p209
aV88.7
p210
aV-
aV-
aV6.54
p211
aa(lp212
V2017/2018
p213
aVSampdoria
p214
aVISA
p215
aV36
p216
aV3185
p217
aV4
aV1
aV6
aV-
aV0.9
p218
aV87.2
p219
aV0.6
p220
aV3
aV7.17
p221
aa(lp222
V2016/2017
p223
aVSampdoria
p224
aVISA
p225
aV35
p226
aV3049
p227
aV-
aV-
aV7
aV-
aV0.5
p228
aV86.6
p229
aV0.4
p230
aV1
aV6.98
p231
aa(lp232
V2018
p233
aVUruguay
p234
aVWC
p235
aV3(2)
p236
aV304
p237
aV-
aV-
aV-
aV-
aV0.4
p238
aV85.1
p239
aV1.2
p240
aV-
aV6.86
p241
aa(lp242
VTotal / Average
p243
aV
aV
aV96
p244
aV7905
p245
aV6
aV3
aV17
p246
aV0
aV0.8
p247
aV87.2
p248
aV0.5
p249
aV4
aV7.03
p250
aasS'id'
p251
V248109
p252
sb.