(i__main__
Player
p1
(dp2
S'name'
p3
VCharlie Daniels 
p4
sS'offensive_data'
p5
(lp6
(lp7
a(lp8
V2018/2019
p9
aVBournemouth
p10
aVEPL
p11
aV9(1)
p12
aV864
p13
aV-
aV-
aV2
aV-
aV0.4
p14
aV79.2
p15
aV1.9
p16
aV-
aV6.74
p17
aa(lp18
V2017/2018
p19
aVBournemouth
p20
aVEPL
p21
aV34(1)
p22
aV3005
p23
aV1
aV3
aV-
aV-
aV0.6
p24
aV78.7
p25
aV1.3
p26
aV-
aV6.64
p27
aa(lp28
V2016/2017
p29
aVBournemouth
p30
aVEPL
p31
aV34
p32
aV3060
p33
aV4
aV3
aV1
aV-
aV0.6
p34
aV81.7
p35
aV1
aV1
aV6.93
p36
aa(lp37
V2015/2016
p38
aVBournemouth
p39
aVEPL
p40
aV37
p41
aV3286
p42
aV3
aV5
aV2
aV-
aV0.5
p43
aV80.4
p44
aV0.7
p45
aV1
aV6.90
p46
aa(lp47
V2014/2015
p48
aVBournemouth
p49
aVEC
p50
aV41(1)
p51
aV3678
p52
aV1
aV4
aV4
aV-
aV0.3
p53
aV80.7
p54
aV1.1
p55
aV-
aV7.04
p56
aa(lp57
V2013/2014
p58
aVBournemouth
p59
aVEC
p60
aV22(1)
p61
aV1828
p62
aV-
aV4
aV2
aV-
aV0.4
p63
aV75.8
p64
aV0.9
p65
aV-
aV6.68
p66
aa(lp67
VTotal / Average
p68
aV
aV
aV181
p69
aV15721
p70
aV9
aV19
p71
aV11
p72
aV0
aV0.5
p73
aV79.8
p74
aV1.1
p75
aV2
aV6.85
p76
aasS'url'
p77
S'https://www.whoscored.com/Players/24827/History/'
p78
sS'passing_data'
p79
(lp80
(lp81
a(lp82
V2018/2019
p83
aVBournemouth
p84
aVEPL
p85
aV9(1)
p86
aV864
p87
aV-
aV-
aV2
aV-
aV0.4
p88
aV79.2
p89
aV1.9
p90
aV-
aV6.74
p91
aa(lp92
V2017/2018
p93
aVBournemouth
p94
aVEPL
p95
aV34(1)
p96
aV3005
p97
aV1
aV3
aV-
aV-
aV0.6
p98
aV78.7
p99
aV1.3
p100
aV-
aV6.64
p101
aa(lp102
V2016/2017
p103
aVBournemouth
p104
aVEPL
p105
aV34
p106
aV3060
p107
aV4
aV3
aV1
aV-
aV0.6
p108
aV81.7
p109
aV1
aV1
aV6.93
p110
aa(lp111
V2015/2016
p112
aVBournemouth
p113
aVEPL
p114
aV37
p115
aV3286
p116
aV3
aV5
aV2
aV-
aV0.5
p117
aV80.4
p118
aV0.7
p119
aV1
aV6.90
p120
aa(lp121
V2014/2015
p122
aVBournemouth
p123
aVEC
p124
aV41(1)
p125
aV3678
p126
aV1
aV4
aV4
aV-
aV0.3
p127
aV80.7
p128
aV1.1
p129
aV-
aV7.04
p130
aa(lp131
V2013/2014
p132
aVBournemouth
p133
aVEC
p134
aV22(1)
p135
aV1828
p136
aV-
aV4
aV2
aV-
aV0.4
p137
aV75.8
p138
aV0.9
p139
aV-
aV6.68
p140
aa(lp141
VTotal / Average
p142
aV
aV
aV181
p143
aV15721
p144
aV9
aV19
p145
aV11
p146
aV0
aV0.5
p147
aV79.8
p148
aV1.1
p149
aV2
aV6.85
p150
aasS'defensive_data'
p151
(lp152
(lp153
a(lp154
V2018/2019
p155
aVBournemouth
p156
aVEPL
p157
aV9(1)
p158
aV864
p159
aV-
aV-
aV2
aV-
aV0.4
p160
aV79.2
p161
aV1.9
p162
aV-
aV6.74
p163
aa(lp164
V2017/2018
p165
aVBournemouth
p166
aVEPL
p167
aV34(1)
p168
aV3005
p169
aV1
aV3
aV-
aV-
aV0.6
p170
aV78.7
p171
aV1.3
p172
aV-
aV6.64
p173
aa(lp174
V2016/2017
p175
aVBournemouth
p176
aVEPL
p177
aV34
p178
aV3060
p179
aV4
aV3
aV1
aV-
aV0.6
p180
aV81.7
p181
aV1
aV1
aV6.93
p182
aa(lp183
V2015/2016
p184
aVBournemouth
p185
aVEPL
p186
aV37
p187
aV3286
p188
aV3
aV5
aV2
aV-
aV0.5
p189
aV80.4
p190
aV0.7
p191
aV1
aV6.90
p192
aa(lp193
V2014/2015
p194
aVBournemouth
p195
aVEC
p196
aV41(1)
p197
aV3678
p198
aV1
aV4
aV4
aV-
aV0.3
p199
aV80.7
p200
aV1.1
p201
aV-
aV7.04
p202
aa(lp203
V2013/2014
p204
aVBournemouth
p205
aVEC
p206
aV22(1)
p207
aV1828
p208
aV-
aV4
aV2
aV-
aV0.4
p209
aV75.8
p210
aV0.9
p211
aV-
aV6.68
p212
aa(lp213
VTotal / Average
p214
aV
aV
aV181
p215
aV15721
p216
aV9
aV19
p217
aV11
p218
aV0
aV0.5
p219
aV79.8
p220
aV1.1
p221
aV2
aV6.85
p222
aasS'sumary_data'
p223
(lp224
(lp225
a(lp226
V2018/2019
p227
aVBournemouth
p228
aVEPL
p229
aV9(1)
p230
aV864
p231
aV-
aV-
aV2
aV-
aV0.4
p232
aV79.2
p233
aV1.9
p234
aV-
aV6.74
p235
aa(lp236
V2017/2018
p237
aVBournemouth
p238
aVEPL
p239
aV34(1)
p240
aV3005
p241
aV1
aV3
aV-
aV-
aV0.6
p242
aV78.7
p243
aV1.3
p244
aV-
aV6.64
p245
aa(lp246
V2016/2017
p247
aVBournemouth
p248
aVEPL
p249
aV34
p250
aV3060
p251
aV4
aV3
aV1
aV-
aV0.6
p252
aV81.7
p253
aV1
aV1
aV6.93
p254
aa(lp255
V2015/2016
p256
aVBournemouth
p257
aVEPL
p258
aV37
p259
aV3286
p260
aV3
aV5
aV2
aV-
aV0.5
p261
aV80.4
p262
aV0.7
p263
aV1
aV6.90
p264
aa(lp265
V2014/2015
p266
aVBournemouth
p267
aVEC
p268
aV41(1)
p269
aV3678
p270
aV1
aV4
aV4
aV-
aV0.3
p271
aV80.7
p272
aV1.1
p273
aV-
aV7.04
p274
aa(lp275
V2013/2014
p276
aVBournemouth
p277
aVEC
p278
aV22(1)
p279
aV1828
p280
aV-
aV4
aV2
aV-
aV0.4
p281
aV75.8
p282
aV0.9
p283
aV-
aV6.68
p284
aa(lp285
VTotal / Average
p286
aV
aV
aV181
p287
aV15721
p288
aV9
aV19
p289
aV11
p290
aV0
aV0.5
p291
aV79.8
p292
aV1.1
p293
aV2
aV6.85
p294
aasS'id'
p295
V24827
p296
sb.