(i__main__
Player
p1
(dp2
S'name'
p3
VCraig Cathcart 
p4
sS'offensive_data'
p5
(lp6
(lp7
a(lp8
V2018/2019
p9
aVWatford
p10
aVEPL
p11
aV17
p12
aV1523
p13
aV1
aV-
aV1
aV-
aV0.4
p14
aV78.3
p15
aV2.3
p16
aV1
aV6.67
p17
aa(lp18
V2018/2019
p19
aVN.Ireland
p20
aVUNL
p21
aV3
aV270
p22
aV-
aV-
aV-
aV-
aV0.3
p23
aV83.4
p24
aV3
aV-
aV6.21
p25
aa(lp26
V2017/2018
p27
aVWatford
p28
aVEPL
p29
aV5(2)
p30
aV495
p31
aV-
aV-
aV1
aV-
aV0.3
p32
aV77.3
p33
aV1.4
p34
aV-
aV6.61
p35
aa(lp36
V2016/2017
p37
aVWatford
p38
aVEPL
p39
aV13(2)
p40
aV1162
p41
aV-
aV1
aV3
aV-
aV0.2
p42
aV75.5
p43
aV1.5
p44
aV-
aV6.62
p45
aa(lp46
V2015/2016
p47
aVWatford
p48
aVEPL
p49
aV34(1)
p50
aV3034
p51
aV1
aV-
aV3
aV-
aV0.1
p52
aV70.1
p53
aV1.9
p54
aV1
aV6.70
p55
aa(lp56
V2014/2015
p57
aVWatford
p58
aVEC
p59
aV28(1)
p60
aV2529
p61
aV3
aV2
aV7
aV-
aV0.3
p62
aV78.4
p63
aV2.2
p64
aV-
aV7.11
p65
aa(lp66
V2016
p67
aVN.Ireland
p68
aVUEC
p69
aV4
aV360
p70
aV-
aV-
aV1
aV-
aV0.3
p71
aV67.1
p72
aV1
aV-
aV6.45
p73
aa(lp74
V2013/2014
p75
aVBlackpool
p76
aVEC
p77
aV29(1)
p78
aV2621
p79
aV1
aV1
aV2
aV-
aV0.6
p80
aV75.3
p81
aV2.8
p82
aV-
aV7.01
p83
aa(lp84
V2010/2011
p85
aVBlackpool
p86
aVEPL
p87
aV28(2)
p88
aV2390
p89
aV1
aV-
aV1
aV-
aV0.3
p90
aV83.6
p91
aV1.5
p92
aV-
aV6.74
p93
aa(lp94
VTotal / Average
p95
aV
aV
aV170
p96
aV14384
p97
aV7
aV4
aV19
p98
aV0
aV0.3
p99
aV76.6
p100
aV2
aV2
aV6.80
p101
aasS'url'
p102
S'https://www.whoscored.com/Players/25241/History/'
p103
sS'passing_data'
p104
(lp105
(lp106
a(lp107
V2018/2019
p108
aVWatford
p109
aVEPL
p110
aV17
p111
aV1523
p112
aV1
aV-
aV1
aV-
aV0.4
p113
aV78.3
p114
aV2.3
p115
aV1
aV6.67
p116
aa(lp117
V2018/2019
p118
aVN.Ireland
p119
aVUNL
p120
aV3
aV270
p121
aV-
aV-
aV-
aV-
aV0.3
p122
aV83.4
p123
aV3
aV-
aV6.21
p124
aa(lp125
V2017/2018
p126
aVWatford
p127
aVEPL
p128
aV5(2)
p129
aV495
p130
aV-
aV-
aV1
aV-
aV0.3
p131
aV77.3
p132
aV1.4
p133
aV-
aV6.61
p134
aa(lp135
V2016/2017
p136
aVWatford
p137
aVEPL
p138
aV13(2)
p139
aV1162
p140
aV-
aV1
aV3
aV-
aV0.2
p141
aV75.5
p142
aV1.5
p143
aV-
aV6.62
p144
aa(lp145
V2015/2016
p146
aVWatford
p147
aVEPL
p148
aV34(1)
p149
aV3034
p150
aV1
aV-
aV3
aV-
aV0.1
p151
aV70.1
p152
aV1.9
p153
aV1
aV6.70
p154
aa(lp155
V2014/2015
p156
aVWatford
p157
aVEC
p158
aV28(1)
p159
aV2529
p160
aV3
aV2
aV7
aV-
aV0.3
p161
aV78.4
p162
aV2.2
p163
aV-
aV7.11
p164
aa(lp165
V2016
p166
aVN.Ireland
p167
aVUEC
p168
aV4
aV360
p169
aV-
aV-
aV1
aV-
aV0.3
p170
aV67.1
p171
aV1
aV-
aV6.45
p172
aa(lp173
V2013/2014
p174
aVBlackpool
p175
aVEC
p176
aV29(1)
p177
aV2621
p178
aV1
aV1
aV2
aV-
aV0.6
p179
aV75.3
p180
aV2.8
p181
aV-
aV7.01
p182
aa(lp183
V2010/2011
p184
aVBlackpool
p185
aVEPL
p186
aV28(2)
p187
aV2390
p188
aV1
aV-
aV1
aV-
aV0.3
p189
aV83.6
p190
aV1.5
p191
aV-
aV6.74
p192
aa(lp193
VTotal / Average
p194
aV
aV
aV170
p195
aV14384
p196
aV7
aV4
aV19
p197
aV0
aV0.3
p198
aV76.6
p199
aV2
aV2
aV6.80
p200
aasS'defensive_data'
p201
(lp202
(lp203
a(lp204
V2018/2019
p205
aVWatford
p206
aVEPL
p207
aV17
p208
aV1523
p209
aV1
aV-
aV1
aV-
aV0.4
p210
aV78.3
p211
aV2.3
p212
aV1
aV6.67
p213
aa(lp214
V2018/2019
p215
aVN.Ireland
p216
aVUNL
p217
aV3
aV270
p218
aV-
aV-
aV-
aV-
aV0.3
p219
aV83.4
p220
aV3
aV-
aV6.21
p221
aa(lp222
V2017/2018
p223
aVWatford
p224
aVEPL
p225
aV5(2)
p226
aV495
p227
aV-
aV-
aV1
aV-
aV0.3
p228
aV77.3
p229
aV1.4
p230
aV-
aV6.61
p231
aa(lp232
V2016/2017
p233
aVWatford
p234
aVEPL
p235
aV13(2)
p236
aV1162
p237
aV-
aV1
aV3
aV-
aV0.2
p238
aV75.5
p239
aV1.5
p240
aV-
aV6.62
p241
aa(lp242
V2015/2016
p243
aVWatford
p244
aVEPL
p245
aV34(1)
p246
aV3034
p247
aV1
aV-
aV3
aV-
aV0.1
p248
aV70.1
p249
aV1.9
p250
aV1
aV6.70
p251
aa(lp252
V2014/2015
p253
aVWatford
p254
aVEC
p255
aV28(1)
p256
aV2529
p257
aV3
aV2
aV7
aV-
aV0.3
p258
aV78.4
p259
aV2.2
p260
aV-
aV7.11
p261
aa(lp262
V2016
p263
aVN.Ireland
p264
aVUEC
p265
aV4
aV360
p266
aV-
aV-
aV1
aV-
aV0.3
p267
aV67.1
p268
aV1
aV-
aV6.45
p269
aa(lp270
V2013/2014
p271
aVBlackpool
p272
aVEC
p273
aV29(1)
p274
aV2621
p275
aV1
aV1
aV2
aV-
aV0.6
p276
aV75.3
p277
aV2.8
p278
aV-
aV7.01
p279
aa(lp280
V2010/2011
p281
aVBlackpool
p282
aVEPL
p283
aV28(2)
p284
aV2390
p285
aV1
aV-
aV1
aV-
aV0.3
p286
aV83.6
p287
aV1.5
p288
aV-
aV6.74
p289
aa(lp290
VTotal / Average
p291
aV
aV
aV170
p292
aV14384
p293
aV7
aV4
aV19
p294
aV0
aV0.3
p295
aV76.6
p296
aV2
aV2
aV6.80
p297
aasS'sumary_data'
p298
(lp299
(lp300
a(lp301
V2018/2019
p302
aVWatford
p303
aVEPL
p304
aV17
p305
aV1523
p306
aV1
aV-
aV1
aV-
aV0.4
p307
aV78.3
p308
aV2.3
p309
aV1
aV6.67
p310
aa(lp311
V2018/2019
p312
aVN.Ireland
p313
aVUNL
p314
aV3
aV270
p315
aV-
aV-
aV-
aV-
aV0.3
p316
aV83.4
p317
aV3
aV-
aV6.21
p318
aa(lp319
V2017/2018
p320
aVWatford
p321
aVEPL
p322
aV5(2)
p323
aV495
p324
aV-
aV-
aV1
aV-
aV0.3
p325
aV77.3
p326
aV1.4
p327
aV-
aV6.61
p328
aa(lp329
V2016/2017
p330
aVWatford
p331
aVEPL
p332
aV13(2)
p333
aV1162
p334
aV-
aV1
aV3
aV-
aV0.2
p335
aV75.5
p336
aV1.5
p337
aV-
aV6.62
p338
aa(lp339
V2015/2016
p340
aVWatford
p341
aVEPL
p342
aV34(1)
p343
aV3034
p344
aV1
aV-
aV3
aV-
aV0.1
p345
aV70.1
p346
aV1.9
p347
aV1
aV6.70
p348
aa(lp349
V2014/2015
p350
aVWatford
p351
aVEC
p352
aV28(1)
p353
aV2529
p354
aV3
aV2
aV7
aV-
aV0.3
p355
aV78.4
p356
aV2.2
p357
aV-
aV7.11
p358
aa(lp359
V2016
p360
aVN.Ireland
p361
aVUEC
p362
aV4
aV360
p363
aV-
aV-
aV1
aV-
aV0.3
p364
aV67.1
p365
aV1
aV-
aV6.45
p366
aa(lp367
V2013/2014
p368
aVBlackpool
p369
aVEC
p370
aV29(1)
p371
aV2621
p372
aV1
aV1
aV2
aV-
aV0.6
p373
aV75.3
p374
aV2.8
p375
aV-
aV7.01
p376
aa(lp377
V2010/2011
p378
aVBlackpool
p379
aVEPL
p380
aV28(2)
p381
aV2390
p382
aV1
aV-
aV1
aV-
aV0.3
p383
aV83.6
p384
aV1.5
p385
aV-
aV6.74
p386
aa(lp387
VTotal / Average
p388
aV
aV
aV170
p389
aV14384
p390
aV7
aV4
aV19
p391
aV0
aV0.3
p392
aV76.6
p393
aV2
aV2
aV6.80
p394
aasS'id'
p395
V25241
p396
sb.