(i__main__
Player
p1
(dp2
S'name'
p3
VJuan Mata 
p4
sS'offensive_data'
p5
(lp6
(lp7
a(lp8
V2018/2019
p9
aVManchester Un..
p10
aVEPL
p11
aV7(5)
p12
aV641
p13
aV2
aV2
aV1
aV-
aV0.9
p14
aV87.3
p15
aV0.1
p16
aV-
aV6.67
p17
aa(lp18
V2018/2019
p19
aVManchester Un..
p20
aVUCL
p21
aV2(3)
p22
aV230
p23
aV1
aV-
aV-
aV-
aV1.4
p24
aV90.7
p25
aV-
aV-
aV6.39
p26
aa(lp27
V2017/2018
p28
aVManchester Un..
p29
aVUCL
p30
aV5(1)
p31
aV411
p32
aV-
aV1
aV-
aV-
aV0.5
p33
aV88.3
p34
aV-
aV-
aV6.68
p35
aa(lp36
V2017/2018
p37
aVManchester Un..
p38
aVEPL
p39
aV23(5)
p40
aV1933
p41
aV3
aV5
aV1
aV-
aV1
aV86.7
p42
aV0.1
p43
aV1
aV6.87
p44
aa(lp45
V2016/2017
p46
aVManchester Un..
p47
aVEPL
p48
aV19(6)
p49
aV1628
p50
aV6
aV3
aV3
aV-
aV1.6
p51
aV89.7
p52
aV0.2
p53
aV1
aV6.98
p54
aa(lp55
V2016/2017
p56
aVManchester Un..
p57
aVUEL
p58
aV9(1)
p59
aV721
p60
aV2
aV1
aV2
aV-
aV1
aV85.4
p61
aV-
aV-
aV6.93
p62
aa(lp63
V2015/2016
p64
aVManchester Un..
p65
aVUEL
p66
aV4
aV337
p67
aV-
aV1
aV-
aV-
aV1
aV84.6
p68
aV-
aV-
aV6.54
p69
aa(lp70
V2015/2016
p71
aVManchester Un..
p72
aVUCL
p73
aV4(1)
p74
aV328
p75
aV1
aV2
aV-
aV-
aV1.4
p76
aV89.9
p77
aV-
aV-
aV6.88
p78
aa(lp79
V2015/2016
p80
aVManchester Un..
p81
aVEPL
p82
aV34(4)
p83
aV2902
p84
aV6
aV5
aV4
aV1
aV1.5
p85
aV89.2
p86
aV0.1
p87
aV2
aV6.80
p88
aa(lp89
V2014/2015
p90
aVManchester Un..
p91
aVEPL
p92
aV27(6)
p93
aV2309
p94
aV9
aV4
aV2
aV-
aV1
aV89.5
p95
aV0.1
p96
aV2
aV6.89
p97
aa(lp98
V2013/2014
p99
aVChelsea
p100
aVUCL
p101
aV1(1)
p102
aV104
p103
aV-
aV-
aV-
aV-
aV1
aV86.9
p104
aV0.5
p105
aV-
aV6.84
p106
aa(lp107
V2013/2014
p108
aVChelsea
p109
aVEPL
p110
aV11(2)
p111
aV834
p112
aV-
aV2
aV-
aV-
aV0.8
p113
aV88.1
p114
aV0.2
p115
aV-
aV6.89
p116
aa(lp117
V2013/2014
p118
aVManchester Un..
p119
aVEPL
p120
aV14(1)
p121
aV1231
p122
aV6
aV4
aV-
aV-
aV1.9
p123
aV89
p124
aV0.1
p125
aV2
aV7.31
p126
aa(lp127
V2014
p128
aVSpain
p129
aVWC
p130
aV0(1)
p131
aV33
p132
aV1
aV-
aV-
aV-
aV2
aV94.1
p133
aV-
aV-
aV7.12
p134
aa(lp135
V2013
p136
aVSpain
p137
aVICC
p138
aV2(2)
p139
aV173
p140
aV2
aV2
aV-
aV-
aV1.3
p141
aV88.5
p142
aV-
aV-
aV7.17
p143
aa(lp144
V2012/2013
p145
aVChelsea
p146
aVUEL
p147
aV5(3)
p148
aV491
p149
aV1
aV5
aV-
aV-
aV1.3
p150
aV84.1
p151
aV-
aV2
aV7.25
p152
aa(lp153
V2012/2013
p154
aVChelsea
p155
aVUCL
p156
aV5(1)
p157
aV443
p158
aV3
aV3
aV-
aV-
aV1.8
p159
aV87.1
p160
aV-
aV1
aV7.38
p161
aa(lp162
V2012/2013
p163
aVChelsea
p164
aVEPL
p165
aV31(4)
p166
aV2749
p167
aV12
p168
aV12
p169
aV3
aV-
aV2
aV85.2
p170
aV0.1
p171
aV5
aV7.28
p172
aa(lp173
V2012
p174
aVSpain
p175
aVUEC
p176
aV0(1)
p177
aV3
aV1
aV-
aV-
aV-
aV1
aV87.5
p178
aV-
aV-
aV6.85
p179
aa(lp180
V2011/2012
p181
aVChelsea
p182
aVUCL
p183
aV11(1)
p184
aV952
p185
aV2
aV3
aV1
aV-
aV1.5
p186
aV85.9
p187
aV-
aV-
aV7.07
p188
aa(lp189
V2011/2012
p190
aVChelsea
p191
aVEPL
p192
aV29(5)
p193
aV2533
p194
aV6
aV13
p195
aV2
aV-
aV1.9
p196
aV87
p197
aV-
aV2
aV7.31
p198
aa(lp199
V2010/2011
p200
aVValencia
p201
aVSLL
p202
aV31(2)
p203
aV2592
p204
aV8
aV12
p205
aV3
aV-
aV2.1
p206
aV86
p207
aV0.1
p208
aV1
aV7.19
p209
aa(lp210
V2010/2011
p211
aVValencia
p212
aVUCL
p213
aV5(2)
p214
aV480
p215
aV1
aV3
aV1
aV-
aV1.6
p216
aV86.2
p217
aV0.1
p218
aV2
aV7.14
p219
aa(lp220
V2009/2010
p221
aVValencia
p222
aVSLL
p223
aV30(5)
p224
aV2587
p225
aV9
aV4
aV1
aV-
aV1.6
p226
aV82.8
p227
aV0.1
p228
aV3
aV7.06
p229
aa(lp230
VTotal / Average
p231
aV
aV
aV372
p232
aV26645
p233
aV82
p234
aV87
p235
aV24
p236
aV1
aV1.5
p237
aV87.1
p238
aV0.1
p239
aV24
p240
aV7.03
p241
aasS'url'
p242
S'https://www.whoscored.com/Players/25363/History/'
p243
sS'passing_data'
p244
(lp245
(lp246
a(lp247
V2018/2019
p248
aVManchester Un..
p249
aVEPL
p250
aV7(5)
p251
aV641
p252
aV2
aV2
aV1
aV-
aV0.9
p253
aV87.3
p254
aV0.1
p255
aV-
aV6.67
p256
aa(lp257
V2018/2019
p258
aVManchester Un..
p259
aVUCL
p260
aV2(3)
p261
aV230
p262
aV1
aV-
aV-
aV-
aV1.4
p263
aV90.7
p264
aV-
aV-
aV6.39
p265
aa(lp266
V2017/2018
p267
aVManchester Un..
p268
aVUCL
p269
aV5(1)
p270
aV411
p271
aV-
aV1
aV-
aV-
aV0.5
p272
aV88.3
p273
aV-
aV-
aV6.68
p274
aa(lp275
V2017/2018
p276
aVManchester Un..
p277
aVEPL
p278
aV23(5)
p279
aV1933
p280
aV3
aV5
aV1
aV-
aV1
aV86.7
p281
aV0.1
p282
aV1
aV6.87
p283
aa(lp284
V2016/2017
p285
aVManchester Un..
p286
aVEPL
p287
aV19(6)
p288
aV1628
p289
aV6
aV3
aV3
aV-
aV1.6
p290
aV89.7
p291
aV0.2
p292
aV1
aV6.98
p293
aa(lp294
V2016/2017
p295
aVManchester Un..
p296
aVUEL
p297
aV9(1)
p298
aV721
p299
aV2
aV1
aV2
aV-
aV1
aV85.4
p300
aV-
aV-
aV6.93
p301
aa(lp302
V2015/2016
p303
aVManchester Un..
p304
aVUEL
p305
aV4
aV337
p306
aV-
aV1
aV-
aV-
aV1
aV84.6
p307
aV-
aV-
aV6.54
p308
aa(lp309
V2015/2016
p310
aVManchester Un..
p311
aVUCL
p312
aV4(1)
p313
aV328
p314
aV1
aV2
aV-
aV-
aV1.4
p315
aV89.9
p316
aV-
aV-
aV6.88
p317
aa(lp318
V2015/2016
p319
aVManchester Un..
p320
aVEPL
p321
aV34(4)
p322
aV2902
p323
aV6
aV5
aV4
aV1
aV1.5
p324
aV89.2
p325
aV0.1
p326
aV2
aV6.80
p327
aa(lp328
V2014/2015
p329
aVManchester Un..
p330
aVEPL
p331
aV27(6)
p332
aV2309
p333
aV9
aV4
aV2
aV-
aV1
aV89.5
p334
aV0.1
p335
aV2
aV6.89
p336
aa(lp337
V2013/2014
p338
aVChelsea
p339
aVUCL
p340
aV1(1)
p341
aV104
p342
aV-
aV-
aV-
aV-
aV1
aV86.9
p343
aV0.5
p344
aV-
aV6.84
p345
aa(lp346
V2013/2014
p347
aVChelsea
p348
aVEPL
p349
aV11(2)
p350
aV834
p351
aV-
aV2
aV-
aV-
aV0.8
p352
aV88.1
p353
aV0.2
p354
aV-
aV6.89
p355
aa(lp356
V2013/2014
p357
aVManchester Un..
p358
aVEPL
p359
aV14(1)
p360
aV1231
p361
aV6
aV4
aV-
aV-
aV1.9
p362
aV89
p363
aV0.1
p364
aV2
aV7.31
p365
aa(lp366
V2014
p367
aVSpain
p368
aVWC
p369
aV0(1)
p370
aV33
p371
aV1
aV-
aV-
aV-
aV2
aV94.1
p372
aV-
aV-
aV7.12
p373
aa(lp374
V2013
p375
aVSpain
p376
aVICC
p377
aV2(2)
p378
aV173
p379
aV2
aV2
aV-
aV-
aV1.3
p380
aV88.5
p381
aV-
aV-
aV7.17
p382
aa(lp383
V2012/2013
p384
aVChelsea
p385
aVUEL
p386
aV5(3)
p387
aV491
p388
aV1
aV5
aV-
aV-
aV1.3
p389
aV84.1
p390
aV-
aV2
aV7.25
p391
aa(lp392
V2012/2013
p393
aVChelsea
p394
aVUCL
p395
aV5(1)
p396
aV443
p397
aV3
aV3
aV-
aV-
aV1.8
p398
aV87.1
p399
aV-
aV1
aV7.38
p400
aa(lp401
V2012/2013
p402
aVChelsea
p403
aVEPL
p404
aV31(4)
p405
aV2749
p406
aV12
p407
aV12
p408
aV3
aV-
aV2
aV85.2
p409
aV0.1
p410
aV5
aV7.28
p411
aa(lp412
V2012
p413
aVSpain
p414
aVUEC
p415
aV0(1)
p416
aV3
aV1
aV-
aV-
aV-
aV1
aV87.5
p417
aV-
aV-
aV6.85
p418
aa(lp419
V2011/2012
p420
aVChelsea
p421
aVUCL
p422
aV11(1)
p423
aV952
p424
aV2
aV3
aV1
aV-
aV1.5
p425
aV85.9
p426
aV-
aV-
aV7.07
p427
aa(lp428
V2011/2012
p429
aVChelsea
p430
aVEPL
p431
aV29(5)
p432
aV2533
p433
aV6
aV13
p434
aV2
aV-
aV1.9
p435
aV87
p436
aV-
aV2
aV7.31
p437
aa(lp438
V2010/2011
p439
aVValencia
p440
aVSLL
p441
aV31(2)
p442
aV2592
p443
aV8
aV12
p444
aV3
aV-
aV2.1
p445
aV86
p446
aV0.1
p447
aV1
aV7.19
p448
aa(lp449
V2010/2011
p450
aVValencia
p451
aVUCL
p452
aV5(2)
p453
aV480
p454
aV1
aV3
aV1
aV-
aV1.6
p455
aV86.2
p456
aV0.1
p457
aV2
aV7.14
p458
aa(lp459
V2009/2010
p460
aVValencia
p461
aVSLL
p462
aV30(5)
p463
aV2587
p464
aV9
aV4
aV1
aV-
aV1.6
p465
aV82.8
p466
aV0.1
p467
aV3
aV7.06
p468
aa(lp469
VTotal / Average
p470
aV
aV
aV372
p471
aV26645
p472
aV82
p473
aV87
p474
aV24
p475
aV1
aV1.5
p476
aV87.1
p477
aV0.1
p478
aV24
p479
aV7.03
p480
aasS'defensive_data'
p481
(lp482
(lp483
a(lp484
V2018/2019
p485
aVManchester Un..
p486
aVEPL
p487
aV7(5)
p488
aV641
p489
aV2
aV2
aV1
aV-
aV0.9
p490
aV87.3
p491
aV0.1
p492
aV-
aV6.67
p493
aa(lp494
V2018/2019
p495
aVManchester Un..
p496
aVUCL
p497
aV2(3)
p498
aV230
p499
aV1
aV-
aV-
aV-
aV1.4
p500
aV90.7
p501
aV-
aV-
aV6.39
p502
aa(lp503
V2017/2018
p504
aVManchester Un..
p505
aVUCL
p506
aV5(1)
p507
aV411
p508
aV-
aV1
aV-
aV-
aV0.5
p509
aV88.3
p510
aV-
aV-
aV6.68
p511
aa(lp512
V2017/2018
p513
aVManchester Un..
p514
aVEPL
p515
aV23(5)
p516
aV1933
p517
aV3
aV5
aV1
aV-
aV1
aV86.7
p518
aV0.1
p519
aV1
aV6.87
p520
aa(lp521
V2016/2017
p522
aVManchester Un..
p523
aVEPL
p524
aV19(6)
p525
aV1628
p526
aV6
aV3
aV3
aV-
aV1.6
p527
aV89.7
p528
aV0.2
p529
aV1
aV6.98
p530
aa(lp531
V2016/2017
p532
aVManchester Un..
p533
aVUEL
p534
aV9(1)
p535
aV721
p536
aV2
aV1
aV2
aV-
aV1
aV85.4
p537
aV-
aV-
aV6.93
p538
aa(lp539
V2015/2016
p540
aVManchester Un..
p541
aVUEL
p542
aV4
aV337
p543
aV-
aV1
aV-
aV-
aV1
aV84.6
p544
aV-
aV-
aV6.54
p545
aa(lp546
V2015/2016
p547
aVManchester Un..
p548
aVUCL
p549
aV4(1)
p550
aV328
p551
aV1
aV2
aV-
aV-
aV1.4
p552
aV89.9
p553
aV-
aV-
aV6.88
p554
aa(lp555
V2015/2016
p556
aVManchester Un..
p557
aVEPL
p558
aV34(4)
p559
aV2902
p560
aV6
aV5
aV4
aV1
aV1.5
p561
aV89.2
p562
aV0.1
p563
aV2
aV6.80
p564
aa(lp565
V2014/2015
p566
aVManchester Un..
p567
aVEPL
p568
aV27(6)
p569
aV2309
p570
aV9
aV4
aV2
aV-
aV1
aV89.5
p571
aV0.1
p572
aV2
aV6.89
p573
aa(lp574
V2013/2014
p575
aVChelsea
p576
aVUCL
p577
aV1(1)
p578
aV104
p579
aV-
aV-
aV-
aV-
aV1
aV86.9
p580
aV0.5
p581
aV-
aV6.84
p582
aa(lp583
V2013/2014
p584
aVChelsea
p585
aVEPL
p586
aV11(2)
p587
aV834
p588
aV-
aV2
aV-
aV-
aV0.8
p589
aV88.1
p590
aV0.2
p591
aV-
aV6.89
p592
aa(lp593
V2013/2014
p594
aVManchester Un..
p595
aVEPL
p596
aV14(1)
p597
aV1231
p598
aV6
aV4
aV-
aV-
aV1.9
p599
aV89
p600
aV0.1
p601
aV2
aV7.31
p602
aa(lp603
V2014
p604
aVSpain
p605
aVWC
p606
aV0(1)
p607
aV33
p608
aV1
aV-
aV-
aV-
aV2
aV94.1
p609
aV-
aV-
aV7.12
p610
aa(lp611
V2013
p612
aVSpain
p613
aVICC
p614
aV2(2)
p615
aV173
p616
aV2
aV2
aV-
aV-
aV1.3
p617
aV88.5
p618
aV-
aV-
aV7.17
p619
aa(lp620
V2012/2013
p621
aVChelsea
p622
aVUEL
p623
aV5(3)
p624
aV491
p625
aV1
aV5
aV-
aV-
aV1.3
p626
aV84.1
p627
aV-
aV2
aV7.25
p628
aa(lp629
V2012/2013
p630
aVChelsea
p631
aVUCL
p632
aV5(1)
p633
aV443
p634
aV3
aV3
aV-
aV-
aV1.8
p635
aV87.1
p636
aV-
aV1
aV7.38
p637
aa(lp638
V2012/2013
p639
aVChelsea
p640
aVEPL
p641
aV31(4)
p642
aV2749
p643
aV12
p644
aV12
p645
aV3
aV-
aV2
aV85.2
p646
aV0.1
p647
aV5
aV7.28
p648
aa(lp649
V2012
p650
aVSpain
p651
aVUEC
p652
aV0(1)
p653
aV3
aV1
aV-
aV-
aV-
aV1
aV87.5
p654
aV-
aV-
aV6.85
p655
aa(lp656
V2011/2012
p657
aVChelsea
p658
aVUCL
p659
aV11(1)
p660
aV952
p661
aV2
aV3
aV1
aV-
aV1.5
p662
aV85.9
p663
aV-
aV-
aV7.07
p664
aa(lp665
V2011/2012
p666
aVChelsea
p667
aVEPL
p668
aV29(5)
p669
aV2533
p670
aV6
aV13
p671
aV2
aV-
aV1.9
p672
aV87
p673
aV-
aV2
aV7.31
p674
aa(lp675
V2010/2011
p676
aVValencia
p677
aVSLL
p678
aV31(2)
p679
aV2592
p680
aV8
aV12
p681
aV3
aV-
aV2.1
p682
aV86
p683
aV0.1
p684
aV1
aV7.19
p685
aa(lp686
V2010/2011
p687
aVValencia
p688
aVUCL
p689
aV5(2)
p690
aV480
p691
aV1
aV3
aV1
aV-
aV1.6
p692
aV86.2
p693
aV0.1
p694
aV2
aV7.14
p695
aa(lp696
V2009/2010
p697
aVValencia
p698
aVSLL
p699
aV30(5)
p700
aV2587
p701
aV9
aV4
aV1
aV-
aV1.6
p702
aV82.8
p703
aV0.1
p704
aV3
aV7.06
p705
aa(lp706
VTotal / Average
p707
aV
aV
aV372
p708
aV26645
p709
aV82
p710
aV87
p711
aV24
p712
aV1
aV1.5
p713
aV87.1
p714
aV0.1
p715
aV24
p716
aV7.03
p717
aasS'sumary_data'
p718
(lp719
(lp720
a(lp721
V2018/2019
p722
aVManchester Un..
p723
aVEPL
p724
aV7(5)
p725
aV641
p726
aV2
aV2
aV1
aV-
aV0.9
p727
aV87.3
p728
aV0.1
p729
aV-
aV6.67
p730
aa(lp731
V2018/2019
p732
aVManchester Un..
p733
aVUCL
p734
aV2(3)
p735
aV230
p736
aV1
aV-
aV-
aV-
aV1.4
p737
aV90.7
p738
aV-
aV-
aV6.39
p739
aa(lp740
V2017/2018
p741
aVManchester Un..
p742
aVUCL
p743
aV5(1)
p744
aV411
p745
aV-
aV1
aV-
aV-
aV0.5
p746
aV88.3
p747
aV-
aV-
aV6.68
p748
aa(lp749
V2017/2018
p750
aVManchester Un..
p751
aVEPL
p752
aV23(5)
p753
aV1933
p754
aV3
aV5
aV1
aV-
aV1
aV86.7
p755
aV0.1
p756
aV1
aV6.87
p757
aa(lp758
V2016/2017
p759
aVManchester Un..
p760
aVEPL
p761
aV19(6)
p762
aV1628
p763
aV6
aV3
aV3
aV-
aV1.6
p764
aV89.7
p765
aV0.2
p766
aV1
aV6.98
p767
aa(lp768
V2016/2017
p769
aVManchester Un..
p770
aVUEL
p771
aV9(1)
p772
aV721
p773
aV2
aV1
aV2
aV-
aV1
aV85.4
p774
aV-
aV-
aV6.93
p775
aa(lp776
V2015/2016
p777
aVManchester Un..
p778
aVUEL
p779
aV4
aV337
p780
aV-
aV1
aV-
aV-
aV1
aV84.6
p781
aV-
aV-
aV6.54
p782
aa(lp783
V2015/2016
p784
aVManchester Un..
p785
aVUCL
p786
aV4(1)
p787
aV328
p788
aV1
aV2
aV-
aV-
aV1.4
p789
aV89.9
p790
aV-
aV-
aV6.88
p791
aa(lp792
V2015/2016
p793
aVManchester Un..
p794
aVEPL
p795
aV34(4)
p796
aV2902
p797
aV6
aV5
aV4
aV1
aV1.5
p798
aV89.2
p799
aV0.1
p800
aV2
aV6.80
p801
aa(lp802
V2014/2015
p803
aVManchester Un..
p804
aVEPL
p805
aV27(6)
p806
aV2309
p807
aV9
aV4
aV2
aV-
aV1
aV89.5
p808
aV0.1
p809
aV2
aV6.89
p810
aa(lp811
V2013/2014
p812
aVChelsea
p813
aVUCL
p814
aV1(1)
p815
aV104
p816
aV-
aV-
aV-
aV-
aV1
aV86.9
p817
aV0.5
p818
aV-
aV6.84
p819
aa(lp820
V2013/2014
p821
aVChelsea
p822
aVEPL
p823
aV11(2)
p824
aV834
p825
aV-
aV2
aV-
aV-
aV0.8
p826
aV88.1
p827
aV0.2
p828
aV-
aV6.89
p829
aa(lp830
V2013/2014
p831
aVManchester Un..
p832
aVEPL
p833
aV14(1)
p834
aV1231
p835
aV6
aV4
aV-
aV-
aV1.9
p836
aV89
p837
aV0.1
p838
aV2
aV7.31
p839
aa(lp840
V2014
p841
aVSpain
p842
aVWC
p843
aV0(1)
p844
aV33
p845
aV1
aV-
aV-
aV-
aV2
aV94.1
p846
aV-
aV-
aV7.12
p847
aa(lp848
V2013
p849
aVSpain
p850
aVICC
p851
aV2(2)
p852
aV173
p853
aV2
aV2
aV-
aV-
aV1.3
p854
aV88.5
p855
aV-
aV-
aV7.17
p856
aa(lp857
V2012/2013
p858
aVChelsea
p859
aVUEL
p860
aV5(3)
p861
aV491
p862
aV1
aV5
aV-
aV-
aV1.3
p863
aV84.1
p864
aV-
aV2
aV7.25
p865
aa(lp866
V2012/2013
p867
aVChelsea
p868
aVUCL
p869
aV5(1)
p870
aV443
p871
aV3
aV3
aV-
aV-
aV1.8
p872
aV87.1
p873
aV-
aV1
aV7.38
p874
aa(lp875
V2012/2013
p876
aVChelsea
p877
aVEPL
p878
aV31(4)
p879
aV2749
p880
aV12
p881
aV12
p882
aV3
aV-
aV2
aV85.2
p883
aV0.1
p884
aV5
aV7.28
p885
aa(lp886
V2012
p887
aVSpain
p888
aVUEC
p889
aV0(1)
p890
aV3
aV1
aV-
aV-
aV-
aV1
aV87.5
p891
aV-
aV-
aV6.85
p892
aa(lp893
V2011/2012
p894
aVChelsea
p895
aVUCL
p896
aV11(1)
p897
aV952
p898
aV2
aV3
aV1
aV-
aV1.5
p899
aV85.9
p900
aV-
aV-
aV7.07
p901
aa(lp902
V2011/2012
p903
aVChelsea
p904
aVEPL
p905
aV29(5)
p906
aV2533
p907
aV6
aV13
p908
aV2
aV-
aV1.9
p909
aV87
p910
aV-
aV2
aV7.31
p911
aa(lp912
V2010/2011
p913
aVValencia
p914
aVSLL
p915
aV31(2)
p916
aV2592
p917
aV8
aV12
p918
aV3
aV-
aV2.1
p919
aV86
p920
aV0.1
p921
aV1
aV7.19
p922
aa(lp923
V2010/2011
p924
aVValencia
p925
aVUCL
p926
aV5(2)
p927
aV480
p928
aV1
aV3
aV1
aV-
aV1.6
p929
aV86.2
p930
aV0.1
p931
aV2
aV7.14
p932
aa(lp933
V2009/2010
p934
aVValencia
p935
aVSLL
p936
aV30(5)
p937
aV2587
p938
aV9
aV4
aV1
aV-
aV1.6
p939
aV82.8
p940
aV0.1
p941
aV3
aV7.06
p942
aa(lp943
VTotal / Average
p944
aV
aV
aV372
p945
aV26645
p946
aV82
p947
aV87
p948
aV24
p949
aV1
aV1.5
p950
aV87.1
p951
aV0.1
p952
aV24
p953
aV7.03
p954
aasS'id'
p955
V25363
p956
sb.