(i__main__
Player
p1
(dp2
S'name'
p3
VCallum Paterson 
p4
sS'offensive_data'
p5
(lp6
(lp7
a(lp8
V2018/2019
p9
aVCardiff
p10
aVEPL
p11
aV12(3)
p12
aV1129
p13
aV4
aV-
aV2
aV-
aV1.9
p14
aV48
p15
aV7.9
p16
aV1
aV7.05
p17
aa(lp18
V2018/2019
p19
aVScotland
p20
aVUNL
p21
aV2
aV180
p22
aV-
aV-
aV1
aV-
aV0.5
p23
aV63.8
p24
aV3.5
p25
aV-
aV7.07
p26
aa(lp27
V2017/2018
p28
aVCardiff
p29
aVEC
p30
aV23(9)
p31
aV2165
p32
aV10
p33
aV4
aV4
aV-
aV1.6
p34
aV48.9
p35
aV6.2
p36
aV3
aV7.13
p37
aa(lp38
VTotal / Average
p39
aV
aV
aV49
p40
aV3474
p41
aV14
p42
aV4
aV7
aV0
aV1.6
p43
aV49.2
p44
aV6.6
p45
aV4
aV7.10
p46
aasS'url'
p47
S'https://www.whoscored.com/Players/253843/History/'
p48
sS'passing_data'
p49
(lp50
(lp51
a(lp52
V2018/2019
p53
aVCardiff
p54
aVEPL
p55
aV12(3)
p56
aV1129
p57
aV4
aV-
aV2
aV-
aV1.9
p58
aV48
p59
aV7.9
p60
aV1
aV7.05
p61
aa(lp62
V2018/2019
p63
aVScotland
p64
aVUNL
p65
aV2
aV180
p66
aV-
aV-
aV1
aV-
aV0.5
p67
aV63.8
p68
aV3.5
p69
aV-
aV7.07
p70
aa(lp71
V2017/2018
p72
aVCardiff
p73
aVEC
p74
aV23(9)
p75
aV2165
p76
aV10
p77
aV4
aV4
aV-
aV1.6
p78
aV48.9
p79
aV6.2
p80
aV3
aV7.13
p81
aa(lp82
VTotal / Average
p83
aV
aV
aV49
p84
aV3474
p85
aV14
p86
aV4
aV7
aV0
aV1.6
p87
aV49.2
p88
aV6.6
p89
aV4
aV7.10
p90
aasS'defensive_data'
p91
(lp92
(lp93
a(lp94
V2018/2019
p95
aVCardiff
p96
aVEPL
p97
aV12(3)
p98
aV1129
p99
aV4
aV-
aV2
aV-
aV1.9
p100
aV48
p101
aV7.9
p102
aV1
aV7.05
p103
aa(lp104
V2018/2019
p105
aVScotland
p106
aVUNL
p107
aV2
aV180
p108
aV-
aV-
aV1
aV-
aV0.5
p109
aV63.8
p110
aV3.5
p111
aV-
aV7.07
p112
aa(lp113
V2017/2018
p114
aVCardiff
p115
aVEC
p116
aV23(9)
p117
aV2165
p118
aV10
p119
aV4
aV4
aV-
aV1.6
p120
aV48.9
p121
aV6.2
p122
aV3
aV7.13
p123
aa(lp124
VTotal / Average
p125
aV
aV
aV49
p126
aV3474
p127
aV14
p128
aV4
aV7
aV0
aV1.6
p129
aV49.2
p130
aV6.6
p131
aV4
aV7.10
p132
aasS'sumary_data'
p133
(lp134
(lp135
a(lp136
V2018/2019
p137
aVCardiff
p138
aVEPL
p139
aV12(3)
p140
aV1129
p141
aV4
aV-
aV2
aV-
aV1.9
p142
aV48
p143
aV7.9
p144
aV1
aV7.05
p145
aa(lp146
V2018/2019
p147
aVScotland
p148
aVUNL
p149
aV2
aV180
p150
aV-
aV-
aV1
aV-
aV0.5
p151
aV63.8
p152
aV3.5
p153
aV-
aV7.07
p154
aa(lp155
V2017/2018
p156
aVCardiff
p157
aVEC
p158
aV23(9)
p159
aV2165
p160
aV10
p161
aV4
aV4
aV-
aV1.6
p162
aV48.9
p163
aV6.2
p164
aV3
aV7.13
p165
aa(lp166
VTotal / Average
p167
aV
aV
aV49
p168
aV3474
p169
aV14
p170
aV4
aV7
aV0
aV1.6
p171
aV49.2
p172
aV6.6
p173
aV4
aV7.10
p174
aasS'id'
p175
V253843
p176
sb.