(i__main__
Player
p1
(dp2
S'name'
p3
VJon Gorenc Stankovic 
p4
sS'offensive_data'
p5
(lp6
(lp7
a(lp8
V2018/2019
p9
aVHuddersfield
p10
aVEPL
p11
aV1(1)
p12
aV91
p13
aV1
aV-
aV-
aV-
aV1
aV64.3
p14
aV0.5
p15
aV-
aV6.36
p16
aa(lp17
V2016/2017
p18
aVHuddersfield
p19
aVEC
p20
aV4(3)
p21
aV403
p22
aV-
aV-
aV2
aV-
aV0.4
p23
aV83.1
p24
aV2.6
p25
aV-
aV6.50
p26
aa(lp27
VTotal / Average
p28
aV
aV
aV9
aV494
p29
aV1
aV0
aV2
aV0
aV0.6
p30
aV78.9
p31
aV2.1
p32
aV0
aV6.47
p33
aasS'url'
p34
S'https://www.whoscored.com/Players/254128/History/'
p35
sS'passing_data'
p36
(lp37
(lp38
a(lp39
V2018/2019
p40
aVHuddersfield
p41
aVEPL
p42
aV1(1)
p43
aV91
p44
aV1
aV-
aV-
aV-
aV1
aV64.3
p45
aV0.5
p46
aV-
aV6.36
p47
aa(lp48
V2016/2017
p49
aVHuddersfield
p50
aVEC
p51
aV4(3)
p52
aV403
p53
aV-
aV-
aV2
aV-
aV0.4
p54
aV83.1
p55
aV2.6
p56
aV-
aV6.50
p57
aa(lp58
VTotal / Average
p59
aV
aV
aV9
aV494
p60
aV1
aV0
aV2
aV0
aV0.6
p61
aV78.9
p62
aV2.1
p63
aV0
aV6.47
p64
aasS'defensive_data'
p65
(lp66
(lp67
a(lp68
V2018/2019
p69
aVHuddersfield
p70
aVEPL
p71
aV1(1)
p72
aV91
p73
aV1
aV-
aV-
aV-
aV1
aV64.3
p74
aV0.5
p75
aV-
aV6.36
p76
aa(lp77
V2016/2017
p78
aVHuddersfield
p79
aVEC
p80
aV4(3)
p81
aV403
p82
aV-
aV-
aV2
aV-
aV0.4
p83
aV83.1
p84
aV2.6
p85
aV-
aV6.50
p86
aa(lp87
VTotal / Average
p88
aV
aV
aV9
aV494
p89
aV1
aV0
aV2
aV0
aV0.6
p90
aV78.9
p91
aV2.1
p92
aV0
aV6.47
p93
aasS'sumary_data'
p94
(lp95
(lp96
a(lp97
V2018/2019
p98
aVHuddersfield
p99
aVEPL
p100
aV1(1)
p101
aV91
p102
aV1
aV-
aV-
aV-
aV1
aV64.3
p103
aV0.5
p104
aV-
aV6.36
p105
aa(lp106
V2016/2017
p107
aVHuddersfield
p108
aVEC
p109
aV4(3)
p110
aV403
p111
aV-
aV-
aV2
aV-
aV0.4
p112
aV83.1
p113
aV2.6
p114
aV-
aV6.50
p115
aa(lp116
VTotal / Average
p117
aV
aV
aV9
aV494
p118
aV1
aV0
aV2
aV0
aV0.6
p119
aV78.9
p120
aV2.1
p121
aV0
aV6.47
p122
aasS'id'
p123
V254128
p124
sb.