(i__main__
Player
p1
(dp2
S'name'
p3
VAinsley Maitland-Niles 
p4
sS'offensive_data'
p5
(lp6
(lp7
a(lp8
V2018/2019
p9
aVArsenal
p10
aVEPL
p11
aV1(1)
p12
aV51
p13
aV-
aV-
aV-
aV-
aV-
aV81
p14
aV-
aV-
aV6.37
p15
aa(lp16
V2018/2019
p17
aVArsenal
p18
aVUEL
p19
aV2(1)
p20
aV196
p21
aV-
aV-
aV-
aV-
aV0.7
p22
aV87
p23
aV1
aV-
aV6.98
p24
aa(lp25
V2017/2018
p26
aVArsenal
p27
aVUEL
p28
aV8(1)
p29
aV704
p30
aV-
aV-
aV1
aV-
aV0.2
p31
aV88.7
p32
aV0.4
p33
aV-
aV7.18
p34
aa(lp35
V2017/2018
p36
aVArsenal
p37
aVEPL
p38
aV8(7)
p39
aV909
p40
aV-
aV-
aV1
aV-
aV0.3
p41
aV85.3
p42
aV0.4
p43
aV-
aV6.65
p44
aa(lp45
V2016/2017
p46
aVArsenal
p47
aVEPL
p48
aV0(1)
p49
aV1
aV-
aV-
aV-
aV-
aV-
aV75
p50
aV-
aV-
aV6.14
p51
aa(lp52
V2015/2016
p53
aVIpswich
p54
aVEC
p55
aV21(9)
p56
aV1682
p57
aV1
aV2
aV3
aV-
aV0.7
p58
aV70.3
p59
aV0.9
p60
aV1
aV6.72
p61
aa(lp62
V2014/2015
p63
aVArsenal
p64
aVUCL
p65
aV0(1)
p66
aV45
p67
aV-
aV-
aV-
aV-
aV-
aV93.1
p68
aV-
aV-
aV6.62
p69
aa(lp70
V2014/2015
p71
aVArsenal
p72
aVEPL
p73
aV0(1)
p74
aV1
aV-
aV-
aV-
aV-
aV-
aV-
aV-
aV-
aV6.00
p75
aa(lp76
VTotal / Average
p77
aV
aV
aV62
p78
aV3589
p79
aV1
aV2
aV5
aV0
aV0.5
p80
aV77.1
p81
aV0.6
p82
aV1
aV6.75
p83
aasS'url'
p84
S'https://www.whoscored.com/Players/255169/History/'
p85
sS'passing_data'
p86
(lp87
(lp88
a(lp89
V2018/2019
p90
aVArsenal
p91
aVEPL
p92
aV1(1)
p93
aV51
p94
aV-
aV-
aV-
aV-
aV-
aV81
p95
aV-
aV-
aV6.37
p96
aa(lp97
V2018/2019
p98
aVArsenal
p99
aVUEL
p100
aV2(1)
p101
aV196
p102
aV-
aV-
aV-
aV-
aV0.7
p103
aV87
p104
aV1
aV-
aV6.98
p105
aa(lp106
V2017/2018
p107
aVArsenal
p108
aVUEL
p109
aV8(1)
p110
aV704
p111
aV-
aV-
aV1
aV-
aV0.2
p112
aV88.7
p113
aV0.4
p114
aV-
aV7.18
p115
aa(lp116
V2017/2018
p117
aVArsenal
p118
aVEPL
p119
aV8(7)
p120
aV909
p121
aV-
aV-
aV1
aV-
aV0.3
p122
aV85.3
p123
aV0.4
p124
aV-
aV6.65
p125
aa(lp126
V2016/2017
p127
aVArsenal
p128
aVEPL
p129
aV0(1)
p130
aV1
aV-
aV-
aV-
aV-
aV-
aV75
p131
aV-
aV-
aV6.14
p132
aa(lp133
V2015/2016
p134
aVIpswich
p135
aVEC
p136
aV21(9)
p137
aV1682
p138
aV1
aV2
aV3
aV-
aV0.7
p139
aV70.3
p140
aV0.9
p141
aV1
aV6.72
p142
aa(lp143
V2014/2015
p144
aVArsenal
p145
aVUCL
p146
aV0(1)
p147
aV45
p148
aV-
aV-
aV-
aV-
aV-
aV93.1
p149
aV-
aV-
aV6.62
p150
aa(lp151
V2014/2015
p152
aVArsenal
p153
aVEPL
p154
aV0(1)
p155
aV1
aV-
aV-
aV-
aV-
aV-
aV-
aV-
aV-
aV6.00
p156
aa(lp157
VTotal / Average
p158
aV
aV
aV62
p159
aV3589
p160
aV1
aV2
aV5
aV0
aV0.5
p161
aV77.1
p162
aV0.6
p163
aV1
aV6.75
p164
aasS'defensive_data'
p165
(lp166
(lp167
a(lp168
V2018/2019
p169
aVArsenal
p170
aVEPL
p171
aV1(1)
p172
aV51
p173
aV-
aV-
aV-
aV-
aV-
aV81
p174
aV-
aV-
aV6.37
p175
aa(lp176
V2018/2019
p177
aVArsenal
p178
aVUEL
p179
aV2(1)
p180
aV196
p181
aV-
aV-
aV-
aV-
aV0.7
p182
aV87
p183
aV1
aV-
aV6.98
p184
aa(lp185
V2017/2018
p186
aVArsenal
p187
aVUEL
p188
aV8(1)
p189
aV704
p190
aV-
aV-
aV1
aV-
aV0.2
p191
aV88.7
p192
aV0.4
p193
aV-
aV7.18
p194
aa(lp195
V2017/2018
p196
aVArsenal
p197
aVEPL
p198
aV8(7)
p199
aV909
p200
aV-
aV-
aV1
aV-
aV0.3
p201
aV85.3
p202
aV0.4
p203
aV-
aV6.65
p204
aa(lp205
V2016/2017
p206
aVArsenal
p207
aVEPL
p208
aV0(1)
p209
aV1
aV-
aV-
aV-
aV-
aV-
aV75
p210
aV-
aV-
aV6.14
p211
aa(lp212
V2015/2016
p213
aVIpswich
p214
aVEC
p215
aV21(9)
p216
aV1682
p217
aV1
aV2
aV3
aV-
aV0.7
p218
aV70.3
p219
aV0.9
p220
aV1
aV6.72
p221
aa(lp222
V2014/2015
p223
aVArsenal
p224
aVUCL
p225
aV0(1)
p226
aV45
p227
aV-
aV-
aV-
aV-
aV-
aV93.1
p228
aV-
aV-
aV6.62
p229
aa(lp230
V2014/2015
p231
aVArsenal
p232
aVEPL
p233
aV0(1)
p234
aV1
aV-
aV-
aV-
aV-
aV-
aV-
aV-
aV-
aV6.00
p235
aa(lp236
VTotal / Average
p237
aV
aV
aV62
p238
aV3589
p239
aV1
aV2
aV5
aV0
aV0.5
p240
aV77.1
p241
aV0.6
p242
aV1
aV6.75
p243
aasS'sumary_data'
p244
(lp245
(lp246
a(lp247
V2018/2019
p248
aVArsenal
p249
aVEPL
p250
aV1(1)
p251
aV51
p252
aV-
aV-
aV-
aV-
aV-
aV81
p253
aV-
aV-
aV6.37
p254
aa(lp255
V2018/2019
p256
aVArsenal
p257
aVUEL
p258
aV2(1)
p259
aV196
p260
aV-
aV-
aV-
aV-
aV0.7
p261
aV87
p262
aV1
aV-
aV6.98
p263
aa(lp264
V2017/2018
p265
aVArsenal
p266
aVUEL
p267
aV8(1)
p268
aV704
p269
aV-
aV-
aV1
aV-
aV0.2
p270
aV88.7
p271
aV0.4
p272
aV-
aV7.18
p273
aa(lp274
V2017/2018
p275
aVArsenal
p276
aVEPL
p277
aV8(7)
p278
aV909
p279
aV-
aV-
aV1
aV-
aV0.3
p280
aV85.3
p281
aV0.4
p282
aV-
aV6.65
p283
aa(lp284
V2016/2017
p285
aVArsenal
p286
aVEPL
p287
aV0(1)
p288
aV1
aV-
aV-
aV-
aV-
aV-
aV75
p289
aV-
aV-
aV6.14
p290
aa(lp291
V2015/2016
p292
aVIpswich
p293
aVEC
p294
aV21(9)
p295
aV1682
p296
aV1
aV2
aV3
aV-
aV0.7
p297
aV70.3
p298
aV0.9
p299
aV1
aV6.72
p300
aa(lp301
V2014/2015
p302
aVArsenal
p303
aVUCL
p304
aV0(1)
p305
aV45
p306
aV-
aV-
aV-
aV-
aV-
aV93.1
p307
aV-
aV-
aV6.62
p308
aa(lp309
V2014/2015
p310
aVArsenal
p311
aVEPL
p312
aV0(1)
p313
aV1
aV-
aV-
aV-
aV-
aV-
aV-
aV-
aV-
aV6.00
p314
aa(lp315
VTotal / Average
p316
aV
aV
aV62
p317
aV3589
p318
aV1
aV2
aV5
aV0
aV0.5
p319
aV77.1
p320
aV0.6
p321
aV1
aV6.75
p322
aasS'id'
p323
V255169
p324
sb.