(i__main__
Player
p1
(dp2
S'name'
p3
VFlorin Andone 
p4
sS'offensive_data'
p5
(lp6
(lp7
a(lp8
V2018/2019
p9
aVBrighton
p10
aVEPL
p11
aV2(5)
p12
aV275
p13
aV2
aV-
aV1
aV-
aV0.6
p14
aV67.4
p15
aV1.6
p16
aV-
aV6.36
p17
aa(lp18
V2017/2018
p19
aVDeportivo La ..
p20
aVSLL
p21
aV16(13)
p22
aV1632
p23
aV7
aV3
aV6
aV-
aV1.9
p24
aV64.1
p25
aV1.1
p26
aV-
aV6.35
p27
aa(lp28
V2016/2017
p29
aVDeportivo La ..
p30
aVSLL
p31
aV32(5)
p32
aV2901
p33
aV12
p34
aV2
aV6
aV-
aV2.7
p35
aV67.3
p36
aV1.5
p37
aV2
aV6.76
p38
aa(lp39
V2014/2015
p40
aVCordoba
p41
aVSLL
p42
aV17(3)
p43
aV1530
p44
aV5
aV-
aV5
aV-
aV1.9
p45
aV73.6
p46
aV2.5
p47
aV-
aV6.41
p48
aa(lp49
V2016
p50
aVRomania
p51
aVUEC
p52
aV1(2)
p53
aV89
p54
aV-
aV-
aV-
aV-
aV1
aV60
p55
aV-
aV-
aV6.12
p56
aa(lp57
VTotal / Average
p58
aV
aV
aV96
p59
aV6427
p60
aV26
p61
aV5
aV18
p62
aV0
aV2.1
p63
aV67.4
p64
aV1.6
p65
aV2
aV6.51
p66
aasS'url'
p67
S'https://www.whoscored.com/Players/255183/History/'
p68
sS'passing_data'
p69
(lp70
(lp71
a(lp72
V2018/2019
p73
aVBrighton
p74
aVEPL
p75
aV2(5)
p76
aV275
p77
aV2
aV-
aV1
aV-
aV0.6
p78
aV67.4
p79
aV1.6
p80
aV-
aV6.36
p81
aa(lp82
V2017/2018
p83
aVDeportivo La ..
p84
aVSLL
p85
aV16(13)
p86
aV1632
p87
aV7
aV3
aV6
aV-
aV1.9
p88
aV64.1
p89
aV1.1
p90
aV-
aV6.35
p91
aa(lp92
V2016/2017
p93
aVDeportivo La ..
p94
aVSLL
p95
aV32(5)
p96
aV2901
p97
aV12
p98
aV2
aV6
aV-
aV2.7
p99
aV67.3
p100
aV1.5
p101
aV2
aV6.76
p102
aa(lp103
V2014/2015
p104
aVCordoba
p105
aVSLL
p106
aV17(3)
p107
aV1530
p108
aV5
aV-
aV5
aV-
aV1.9
p109
aV73.6
p110
aV2.5
p111
aV-
aV6.41
p112
aa(lp113
V2016
p114
aVRomania
p115
aVUEC
p116
aV1(2)
p117
aV89
p118
aV-
aV-
aV-
aV-
aV1
aV60
p119
aV-
aV-
aV6.12
p120
aa(lp121
VTotal / Average
p122
aV
aV
aV96
p123
aV6427
p124
aV26
p125
aV5
aV18
p126
aV0
aV2.1
p127
aV67.4
p128
aV1.6
p129
aV2
aV6.51
p130
aasS'defensive_data'
p131
(lp132
(lp133
a(lp134
V2018/2019
p135
aVBrighton
p136
aVEPL
p137
aV2(5)
p138
aV275
p139
aV2
aV-
aV1
aV-
aV0.6
p140
aV67.4
p141
aV1.6
p142
aV-
aV6.36
p143
aa(lp144
V2017/2018
p145
aVDeportivo La ..
p146
aVSLL
p147
aV16(13)
p148
aV1632
p149
aV7
aV3
aV6
aV-
aV1.9
p150
aV64.1
p151
aV1.1
p152
aV-
aV6.35
p153
aa(lp154
V2016/2017
p155
aVDeportivo La ..
p156
aVSLL
p157
aV32(5)
p158
aV2901
p159
aV12
p160
aV2
aV6
aV-
aV2.7
p161
aV67.3
p162
aV1.5
p163
aV2
aV6.76
p164
aa(lp165
V2014/2015
p166
aVCordoba
p167
aVSLL
p168
aV17(3)
p169
aV1530
p170
aV5
aV-
aV5
aV-
aV1.9
p171
aV73.6
p172
aV2.5
p173
aV-
aV6.41
p174
aa(lp175
V2016
p176
aVRomania
p177
aVUEC
p178
aV1(2)
p179
aV89
p180
aV-
aV-
aV-
aV-
aV1
aV60
p181
aV-
aV-
aV6.12
p182
aa(lp183
VTotal / Average
p184
aV
aV
aV96
p185
aV6427
p186
aV26
p187
aV5
aV18
p188
aV0
aV2.1
p189
aV67.4
p190
aV1.6
p191
aV2
aV6.51
p192
aasS'sumary_data'
p193
(lp194
(lp195
a(lp196
V2018/2019
p197
aVBrighton
p198
aVEPL
p199
aV2(5)
p200
aV275
p201
aV2
aV-
aV1
aV-
aV0.6
p202
aV67.4
p203
aV1.6
p204
aV-
aV6.36
p205
aa(lp206
V2017/2018
p207
aVDeportivo La ..
p208
aVSLL
p209
aV16(13)
p210
aV1632
p211
aV7
aV3
aV6
aV-
aV1.9
p212
aV64.1
p213
aV1.1
p214
aV-
aV6.35
p215
aa(lp216
V2016/2017
p217
aVDeportivo La ..
p218
aVSLL
p219
aV32(5)
p220
aV2901
p221
aV12
p222
aV2
aV6
aV-
aV2.7
p223
aV67.3
p224
aV1.5
p225
aV2
aV6.76
p226
aa(lp227
V2014/2015
p228
aVCordoba
p229
aVSLL
p230
aV17(3)
p231
aV1530
p232
aV5
aV-
aV5
aV-
aV1.9
p233
aV73.6
p234
aV2.5
p235
aV-
aV6.41
p236
aa(lp237
V2016
p238
aVRomania
p239
aVUEC
p240
aV1(2)
p241
aV89
p242
aV-
aV-
aV-
aV-
aV1
aV60
p243
aV-
aV-
aV6.12
p244
aa(lp245
VTotal / Average
p246
aV
aV
aV96
p247
aV6427
p248
aV26
p249
aV5
aV18
p250
aV0
aV2.1
p251
aV67.4
p252
aV1.6
p253
aV2
aV6.51
p254
aasS'id'
p255
V255183
p256
sb.