(i__main__
Player
p1
(dp2
S'name'
p3
VRuben Loftus-Cheek 
p4
sS'offensive_data'
p5
(lp6
(lp7
a(lp8
V2018/2019
p9
aVChelsea
p10
aVEPL
p11
aV1(6)
p12
aV247
p13
aV3
aV-
aV-
aV-
aV1.1
p14
aV89
p15
aV1
aV1
aV7.02
p16
aa(lp17
V2018/2019
p18
aVChelsea
p19
aVUEL
p20
aV5
aV400
p21
aV3
aV-
aV1
aV-
aV1.8
p22
aV92.5
p23
aV0.6
p24
aV1
aV7.65
p25
aa(lp26
V2017/2018
p27
aVCrystal Palac..
p28
aVEPL
p29
aV21(3)
p30
aV1875
p31
aV2
aV3
aV1
aV-
aV1.3
p32
aV82.4
p33
aV1.3
p34
aV1
aV7.08
p35
aa(lp36
V2016/2017
p37
aVChelsea
p38
aVEPL
p39
aV0(6)
p40
aV31
p41
aV-
aV-
aV-
aV-
aV0.2
p42
aV84
p43
aV0.2
p44
aV-
aV6.09
p45
aa(lp46
V2018
p47
aVEngland
p48
aVWC
p49
aV3(1)
p50
aV274
p51
aV-
aV1
aV1
aV-
aV0.8
p52
aV83.2
p53
aV1.5
p54
aV-
aV6.89
p55
aa(lp56
V2015/2016
p57
aVChelsea
p58
aVUCL
p59
aV1
aV77
p60
aV-
aV-
aV1
aV-
aV-
aV93.3
p61
aV1
aV-
aV8.16
p62
aa(lp63
V2015/2016
p64
aVChelsea
p65
aVEPL
p66
aV4(9)
p67
aV408
p68
aV1
aV-
aV-
aV-
aV0.9
p69
aV87.7
p70
aV0.5
p71
aV-
aV6.49
p72
aa(lp73
V2015
p74
aVEngland U21
p75
aVIEU
p76
aV0(2)
p77
aV44
p78
aV-
aV1
aV1
aV-
aV-
aV96
p79
aV-
aV-
aV6.55
p80
aa(lp81
V2014/2015
p82
aVChelsea
p83
aVUCL
p84
aV0(1)
p85
aV7
aV-
aV-
aV-
aV-
aV-
aV100
p86
aV-
aV-
aV6.52
p87
aa(lp88
V2014/2015
p89
aVChelsea
p90
aVEPL
p91
aV2(1)
p92
aV134
p93
aV-
aV-
aV-
aV-
aV0.3
p94
aV94.2
p95
aV0.3
p96
aV-
aV6.33
p97
aa(lp98
VTotal / Average
p99
aV
aV
aV66
p100
aV3497
p101
aV9
aV5
aV5
aV0
aV1
aV86.5
p102
aV0.9
p103
aV3
aV6.86
p104
aasS'url'
p105
S'https://www.whoscored.com/Players/255777/History/'
p106
sS'passing_data'
p107
(lp108
(lp109
a(lp110
V2018/2019
p111
aVChelsea
p112
aVEPL
p113
aV1(6)
p114
aV247
p115
aV3
aV-
aV-
aV-
aV1.1
p116
aV89
p117
aV1
aV1
aV7.02
p118
aa(lp119
V2018/2019
p120
aVChelsea
p121
aVUEL
p122
aV5
aV400
p123
aV3
aV-
aV1
aV-
aV1.8
p124
aV92.5
p125
aV0.6
p126
aV1
aV7.65
p127
aa(lp128
V2017/2018
p129
aVCrystal Palac..
p130
aVEPL
p131
aV21(3)
p132
aV1875
p133
aV2
aV3
aV1
aV-
aV1.3
p134
aV82.4
p135
aV1.3
p136
aV1
aV7.08
p137
aa(lp138
V2016/2017
p139
aVChelsea
p140
aVEPL
p141
aV0(6)
p142
aV31
p143
aV-
aV-
aV-
aV-
aV0.2
p144
aV84
p145
aV0.2
p146
aV-
aV6.09
p147
aa(lp148
V2018
p149
aVEngland
p150
aVWC
p151
aV3(1)
p152
aV274
p153
aV-
aV1
aV1
aV-
aV0.8
p154
aV83.2
p155
aV1.5
p156
aV-
aV6.89
p157
aa(lp158
V2015/2016
p159
aVChelsea
p160
aVUCL
p161
aV1
aV77
p162
aV-
aV-
aV1
aV-
aV-
aV93.3
p163
aV1
aV-
aV8.16
p164
aa(lp165
V2015/2016
p166
aVChelsea
p167
aVEPL
p168
aV4(9)
p169
aV408
p170
aV1
aV-
aV-
aV-
aV0.9
p171
aV87.7
p172
aV0.5
p173
aV-
aV6.49
p174
aa(lp175
V2015
p176
aVEngland U21
p177
aVIEU
p178
aV0(2)
p179
aV44
p180
aV-
aV1
aV1
aV-
aV-
aV96
p181
aV-
aV-
aV6.55
p182
aa(lp183
V2014/2015
p184
aVChelsea
p185
aVUCL
p186
aV0(1)
p187
aV7
aV-
aV-
aV-
aV-
aV-
aV100
p188
aV-
aV-
aV6.52
p189
aa(lp190
V2014/2015
p191
aVChelsea
p192
aVEPL
p193
aV2(1)
p194
aV134
p195
aV-
aV-
aV-
aV-
aV0.3
p196
aV94.2
p197
aV0.3
p198
aV-
aV6.33
p199
aa(lp200
VTotal / Average
p201
aV
aV
aV66
p202
aV3497
p203
aV9
aV5
aV5
aV0
aV1
aV86.5
p204
aV0.9
p205
aV3
aV6.86
p206
aasS'defensive_data'
p207
(lp208
(lp209
a(lp210
V2018/2019
p211
aVChelsea
p212
aVEPL
p213
aV1(6)
p214
aV247
p215
aV3
aV-
aV-
aV-
aV1.1
p216
aV89
p217
aV1
aV1
aV7.02
p218
aa(lp219
V2018/2019
p220
aVChelsea
p221
aVUEL
p222
aV5
aV400
p223
aV3
aV-
aV1
aV-
aV1.8
p224
aV92.5
p225
aV0.6
p226
aV1
aV7.65
p227
aa(lp228
V2017/2018
p229
aVCrystal Palac..
p230
aVEPL
p231
aV21(3)
p232
aV1875
p233
aV2
aV3
aV1
aV-
aV1.3
p234
aV82.4
p235
aV1.3
p236
aV1
aV7.08
p237
aa(lp238
V2016/2017
p239
aVChelsea
p240
aVEPL
p241
aV0(6)
p242
aV31
p243
aV-
aV-
aV-
aV-
aV0.2
p244
aV84
p245
aV0.2
p246
aV-
aV6.09
p247
aa(lp248
V2018
p249
aVEngland
p250
aVWC
p251
aV3(1)
p252
aV274
p253
aV-
aV1
aV1
aV-
aV0.8
p254
aV83.2
p255
aV1.5
p256
aV-
aV6.89
p257
aa(lp258
V2015/2016
p259
aVChelsea
p260
aVUCL
p261
aV1
aV77
p262
aV-
aV-
aV1
aV-
aV-
aV93.3
p263
aV1
aV-
aV8.16
p264
aa(lp265
V2015/2016
p266
aVChelsea
p267
aVEPL
p268
aV4(9)
p269
aV408
p270
aV1
aV-
aV-
aV-
aV0.9
p271
aV87.7
p272
aV0.5
p273
aV-
aV6.49
p274
aa(lp275
V2015
p276
aVEngland U21
p277
aVIEU
p278
aV0(2)
p279
aV44
p280
aV-
aV1
aV1
aV-
aV-
aV96
p281
aV-
aV-
aV6.55
p282
aa(lp283
V2014/2015
p284
aVChelsea
p285
aVUCL
p286
aV0(1)
p287
aV7
aV-
aV-
aV-
aV-
aV-
aV100
p288
aV-
aV-
aV6.52
p289
aa(lp290
V2014/2015
p291
aVChelsea
p292
aVEPL
p293
aV2(1)
p294
aV134
p295
aV-
aV-
aV-
aV-
aV0.3
p296
aV94.2
p297
aV0.3
p298
aV-
aV6.33
p299
aa(lp300
VTotal / Average
p301
aV
aV
aV66
p302
aV3497
p303
aV9
aV5
aV5
aV0
aV1
aV86.5
p304
aV0.9
p305
aV3
aV6.86
p306
aasS'sumary_data'
p307
(lp308
(lp309
a(lp310
V2018/2019
p311
aVChelsea
p312
aVEPL
p313
aV1(6)
p314
aV247
p315
aV3
aV-
aV-
aV-
aV1.1
p316
aV89
p317
aV1
aV1
aV7.02
p318
aa(lp319
V2018/2019
p320
aVChelsea
p321
aVUEL
p322
aV5
aV400
p323
aV3
aV-
aV1
aV-
aV1.8
p324
aV92.5
p325
aV0.6
p326
aV1
aV7.65
p327
aa(lp328
V2017/2018
p329
aVCrystal Palac..
p330
aVEPL
p331
aV21(3)
p332
aV1875
p333
aV2
aV3
aV1
aV-
aV1.3
p334
aV82.4
p335
aV1.3
p336
aV1
aV7.08
p337
aa(lp338
V2016/2017
p339
aVChelsea
p340
aVEPL
p341
aV0(6)
p342
aV31
p343
aV-
aV-
aV-
aV-
aV0.2
p344
aV84
p345
aV0.2
p346
aV-
aV6.09
p347
aa(lp348
V2018
p349
aVEngland
p350
aVWC
p351
aV3(1)
p352
aV274
p353
aV-
aV1
aV1
aV-
aV0.8
p354
aV83.2
p355
aV1.5
p356
aV-
aV6.89
p357
aa(lp358
V2015/2016
p359
aVChelsea
p360
aVUCL
p361
aV1
aV77
p362
aV-
aV-
aV1
aV-
aV-
aV93.3
p363
aV1
aV-
aV8.16
p364
aa(lp365
V2015/2016
p366
aVChelsea
p367
aVEPL
p368
aV4(9)
p369
aV408
p370
aV1
aV-
aV-
aV-
aV0.9
p371
aV87.7
p372
aV0.5
p373
aV-
aV6.49
p374
aa(lp375
V2015
p376
aVEngland U21
p377
aVIEU
p378
aV0(2)
p379
aV44
p380
aV-
aV1
aV1
aV-
aV-
aV96
p381
aV-
aV-
aV6.55
p382
aa(lp383
V2014/2015
p384
aVChelsea
p385
aVUCL
p386
aV0(1)
p387
aV7
aV-
aV-
aV-
aV-
aV-
aV100
p388
aV-
aV-
aV6.52
p389
aa(lp390
V2014/2015
p391
aVChelsea
p392
aVEPL
p393
aV2(1)
p394
aV134
p395
aV-
aV-
aV-
aV-
aV0.3
p396
aV94.2
p397
aV0.3
p398
aV-
aV6.33
p399
aa(lp400
VTotal / Average
p401
aV
aV
aV66
p402
aV3497
p403
aV9
aV5
aV5
aV0
aV1
aV86.5
p404
aV0.9
p405
aV3
aV6.86
p406
aasS'id'
p407
V255777
p408
sb.