(i__main__
Player
p1
(dp2
S'name'
p3
VJonjoe Kenny 
p4
sS'offensive_data'
p5
(lp6
(lp7
a(lp8
V2018/2019
p9
aVEverton
p10
aVEPL
p11
aV4
aV360
p12
aV-
aV1
aV-
aV-
aV0.3
p13
aV71
p14
aV2.5
p15
aV-
aV6.81
p16
aa(lp17
V2017/2018
p18
aVEverton
p19
aVUEL
p20
aV3
aV249
p21
aV-
aV-
aV-
aV-
aV0.3
p22
aV80.5
p23
aV1.7
p24
aV-
aV6.73
p25
aa(lp26
V2017/2018
p27
aVEverton
p28
aVEPL
p29
aV17(2)
p30
aV1589
p31
aV-
aV1
aV2
aV-
aV0.2
p32
aV68.5
p33
aV2
aV-
aV6.87
p34
aa(lp35
V2016/2017
p36
aVEverton
p37
aVEPL
p38
aV0(1)
p39
aV12
p40
aV-
aV-
aV-
aV-
aV-
aV66.7
p41
aV1
aV-
aV6.03
p42
aa(lp43
V2015/2016
p44
aVEverton
p45
aVEPL
p46
aV0(1)
p47
aV61
p48
aV-
aV-
aV-
aV-
aV1
aV68.2
p49
aV-
aV-
aV6.77
p50
aa(lp51
VTotal / Average
p52
aV
aV
aV28
p53
aV2271
p54
aV0
aV2
aV2
aV0
aV0.2
p55
aV70.1
p56
aV1.9
p57
aV0
aV6.81
p58
aasS'url'
p59
S'https://www.whoscored.com/Players/255961/History/'
p60
sS'passing_data'
p61
(lp62
(lp63
a(lp64
V2018/2019
p65
aVEverton
p66
aVEPL
p67
aV4
aV360
p68
aV-
aV1
aV-
aV-
aV0.3
p69
aV71
p70
aV2.5
p71
aV-
aV6.81
p72
aa(lp73
V2017/2018
p74
aVEverton
p75
aVUEL
p76
aV3
aV249
p77
aV-
aV-
aV-
aV-
aV0.3
p78
aV80.5
p79
aV1.7
p80
aV-
aV6.73
p81
aa(lp82
V2017/2018
p83
aVEverton
p84
aVEPL
p85
aV17(2)
p86
aV1589
p87
aV-
aV1
aV2
aV-
aV0.2
p88
aV68.5
p89
aV2
aV-
aV6.87
p90
aa(lp91
V2016/2017
p92
aVEverton
p93
aVEPL
p94
aV0(1)
p95
aV12
p96
aV-
aV-
aV-
aV-
aV-
aV66.7
p97
aV1
aV-
aV6.03
p98
aa(lp99
V2015/2016
p100
aVEverton
p101
aVEPL
p102
aV0(1)
p103
aV61
p104
aV-
aV-
aV-
aV-
aV1
aV68.2
p105
aV-
aV-
aV6.77
p106
aa(lp107
VTotal / Average
p108
aV
aV
aV28
p109
aV2271
p110
aV0
aV2
aV2
aV0
aV0.2
p111
aV70.1
p112
aV1.9
p113
aV0
aV6.81
p114
aasS'defensive_data'
p115
(lp116
(lp117
a(lp118
V2018/2019
p119
aVEverton
p120
aVEPL
p121
aV4
aV360
p122
aV-
aV1
aV-
aV-
aV0.3
p123
aV71
p124
aV2.5
p125
aV-
aV6.81
p126
aa(lp127
V2017/2018
p128
aVEverton
p129
aVUEL
p130
aV3
aV249
p131
aV-
aV-
aV-
aV-
aV0.3
p132
aV80.5
p133
aV1.7
p134
aV-
aV6.73
p135
aa(lp136
V2017/2018
p137
aVEverton
p138
aVEPL
p139
aV17(2)
p140
aV1589
p141
aV-
aV1
aV2
aV-
aV0.2
p142
aV68.5
p143
aV2
aV-
aV6.87
p144
aa(lp145
V2016/2017
p146
aVEverton
p147
aVEPL
p148
aV0(1)
p149
aV12
p150
aV-
aV-
aV-
aV-
aV-
aV66.7
p151
aV1
aV-
aV6.03
p152
aa(lp153
V2015/2016
p154
aVEverton
p155
aVEPL
p156
aV0(1)
p157
aV61
p158
aV-
aV-
aV-
aV-
aV1
aV68.2
p159
aV-
aV-
aV6.77
p160
aa(lp161
VTotal / Average
p162
aV
aV
aV28
p163
aV2271
p164
aV0
aV2
aV2
aV0
aV0.2
p165
aV70.1
p166
aV1.9
p167
aV0
aV6.81
p168
aasS'sumary_data'
p169
(lp170
(lp171
a(lp172
V2018/2019
p173
aVEverton
p174
aVEPL
p175
aV4
aV360
p176
aV-
aV1
aV-
aV-
aV0.3
p177
aV71
p178
aV2.5
p179
aV-
aV6.81
p180
aa(lp181
V2017/2018
p182
aVEverton
p183
aVUEL
p184
aV3
aV249
p185
aV-
aV-
aV-
aV-
aV0.3
p186
aV80.5
p187
aV1.7
p188
aV-
aV6.73
p189
aa(lp190
V2017/2018
p191
aVEverton
p192
aVEPL
p193
aV17(2)
p194
aV1589
p195
aV-
aV1
aV2
aV-
aV0.2
p196
aV68.5
p197
aV2
aV-
aV6.87
p198
aa(lp199
V2016/2017
p200
aVEverton
p201
aVEPL
p202
aV0(1)
p203
aV12
p204
aV-
aV-
aV-
aV-
aV-
aV66.7
p205
aV1
aV-
aV6.03
p206
aa(lp207
V2015/2016
p208
aVEverton
p209
aVEPL
p210
aV0(1)
p211
aV61
p212
aV-
aV-
aV-
aV-
aV1
aV68.2
p213
aV-
aV-
aV6.77
p214
aa(lp215
VTotal / Average
p216
aV
aV
aV28
p217
aV2271
p218
aV0
aV2
aV2
aV0
aV0.2
p219
aV70.1
p220
aV1.9
p221
aV0
aV6.81
p222
aasS'id'
p223
V255961
p224
sb.