(i__main__
Player
p1
(dp2
S'name'
p3
VHugo Lloris 
p4
sS'offensive_data'
p5
(lp6
(lp7
a(lp8
V2018/2019
p9
aVTottenham
p10
aVEPL
p11
aV13
p12
aV1170
p13
aV-
aV-
aV-
aV-
aV-
aV70
p14
aV0.4
p15
aV1
aV7.08
p16
aa(lp17
V2018/2019
p18
aVTottenham
p19
aVUCL
p20
aV4
aV349
p21
aV-
aV-
aV-
aV1
aV-
aV82.4
p22
aV-
aV-
aV5.71
p23
aa(lp24
V2018/2019
p25
aVFrance
p26
aVUNL
p27
aV2
aV180
p28
aV-
aV-
aV-
aV-
aV-
aV73.3
p29
aV0.5
p30
aV-
aV7.42
p31
aa(lp32
V2017/2018
p33
aVTottenham
p34
aVUCL
p35
aV7
aV630
p36
aV-
aV-
aV-
aV-
aV-
aV60.2
p37
aV0.4
p38
aV-
aV7.07
p39
aa(lp40
V2017/2018
p41
aVTottenham
p42
aVEPL
p43
aV36
p44
aV3240
p45
aV-
aV-
aV1
aV-
aV-
aV75.2
p46
aV0.3
p47
aV1
aV6.74
p48
aa(lp49
V2016/2017
p50
aVTottenham
p51
aVUCL
p52
aV6
aV540
p53
aV-
aV-
aV-
aV-
aV-
aV74.5
p54
aV0.2
p55
aV-
aV7.11
p56
aa(lp57
V2016/2017
p58
aVTottenham
p59
aVEPL
p60
aV34
p61
aV3005
p62
aV-
aV-
aV-
aV-
aV-
aV72.3
p63
aV0.2
p64
aV1
aV6.77
p65
aa(lp66
V2016/2017
p67
aVTottenham
p68
aVUEL
p69
aV2
aV180
p70
aV-
aV-
aV-
aV-
aV-
aV77.2
p71
aV-
aV-
aV6.04
p72
aa(lp73
V2018
p74
aVFrance
p75
aVWC
p76
aV6
aV540
p77
aV-
aV-
aV-
aV-
aV-
aV58.2
p78
aV0.2
p79
aV-
aV6.60
p80
aa(lp81
V2015/2016
p82
aVTottenham
p83
aVUEL
p84
aV9
aV810
p85
aV-
aV-
aV-
aV-
aV-
aV74.8
p86
aV0.1
p87
aV-
aV6.81
p88
aa(lp89
V2015/2016
p90
aVTottenham
p91
aVEPL
p92
aV37
p93
aV3330
p94
aV-
aV-
aV-
aV-
aV-
aV63.8
p95
aV0.1
p96
aV-
aV6.75
p97
aa(lp98
V2014/2015
p99
aVTottenham
p100
aVUEL
p101
aV6
aV537
p102
aV-
aV-
aV-
aV1
aV-
aV74.9
p103
aV0.3
p104
aV-
aV6.79
p105
aa(lp106
V2014/2015
p107
aVTottenham
p108
aVEPL
p109
aV35
p110
aV3064
p111
aV-
aV-
aV-
aV-
aV-
aV60.6
p112
aV0.1
p113
aV-
aV6.89
p114
aa(lp115
V2016
p116
aVFrance
p117
aVUEC
p118
aV7
aV660
p119
aV-
aV-
aV-
aV-
aV-
aV71.5
p120
aV0.3
p121
aV-
aV6.73
p122
aa(lp123
V2013/2014
p124
aVTottenham
p125
aVUEL
p126
aV5
aV450
p127
aV-
aV-
aV-
aV-
aV-
aV65.8
p128
aV-
aV-
aV6.69
p129
aa(lp130
V2013/2014
p131
aVTottenham
p132
aVEPL
p133
aV37
p134
aV3330
p135
aV-
aV-
aV2
aV-
aV-
aV45.3
p136
aV0.2
p137
aV1
aV6.72
p138
aa(lp139
V2014
p140
aVFrance
p141
aVWC
p142
aV5
aV450
p143
aV-
aV-
aV-
aV-
aV-
aV66.4
p144
aV-
aV-
aV6.83
p145
aa(lp146
V2012/2013
p147
aVTottenham
p148
aVUEL
p149
aV5
aV450
p150
aV-
aV-
aV-
aV-
aV-
aV58.7
p151
aV-
aV1
aV6.56
p152
aa(lp153
V2012/2013
p154
aVTottenham
p155
aVEPL
p156
aV27
p157
aV2430
p158
aV-
aV-
aV-
aV-
aV-
aV50.4
p159
aV0.3
p160
aV-
aV6.64
p161
aa(lp162
V2012/2013
p163
aVLyon
p164
aVFL1
p165
aV2
aV180
p166
aV-
aV-
aV-
aV-
aV-
aV72.4
p167
aV-
aV-
aV7.18
p168
aa(lp169
V2012
p170
aVFrance
p171
aVUEC
p172
aV4
aV360
p173
aV-
aV-
aV-
aV-
aV-
aV76.9
p174
aV-
aV-
aV6.39
p175
aa(lp176
V2011/2012
p177
aVLyon
p178
aVUCL
p179
aV8
aV751
p180
aV-
aV-
aV-
aV-
aV-
aV55.9
p181
aV0.1
p182
aV-
aV7.30
p183
aa(lp184
V2011/2012
p185
aVLyon
p186
aVFL1
p187
aV36
p188
aV3195
p189
aV-
aV-
aV-
aV1
aV-
aV55
p190
aV0.1
p191
aV2
aV6.90
p192
aa(lp193
V2010/2011
p194
aVLyon
p195
aVUCL
p196
aV8
aV720
p197
aV-
aV-
aV-
aV-
aV-
aV50.2
p198
aV0.1
p199
aV-
aV6.69
p200
aa(lp201
V2010/2011
p202
aVLyon
p203
aVFL1
p204
aV37
p205
aV3330
p206
aV-
aV-
aV-
aV-
aV-
aV46.7
p207
aV0.3
p208
aV2
aV6.92
p209
aa(lp210
V2009/2010
p211
aVLyon
p212
aVUCL
p213
aV12
p214
aV1080
p215
aV-
aV-
aV-
aV-
aV-
aV32.4
p216
aV0.1
p217
aV-
aV7.04
p218
aa(lp219
V2009/2010
p220
aVLyon
p221
aVFL1
p222
aV36
p223
aV3240
p224
aV-
aV1
aV1
aV-
aV-
aV48.8
p225
aV0.1
p226
aV1
aV7.06
p227
aa(lp228
VTotal / Average
p229
aV
aV
aV426
p230
aV38201
p231
aV0
aV1
aV4
aV3
aV0
aV59.1
p232
aV0.2
p233
aV10
p234
aV6.83
p235
aasS'url'
p236
S'https://www.whoscored.com/Players/25604/History/'
p237
sS'passing_data'
p238
(lp239
(lp240
a(lp241
V2018/2019
p242
aVTottenham
p243
aVEPL
p244
aV13
p245
aV1170
p246
aV-
aV-
aV-
aV-
aV-
aV70
p247
aV0.4
p248
aV1
aV7.08
p249
aa(lp250
V2018/2019
p251
aVTottenham
p252
aVUCL
p253
aV4
aV349
p254
aV-
aV-
aV-
aV1
aV-
aV82.4
p255
aV-
aV-
aV5.71
p256
aa(lp257
V2018/2019
p258
aVFrance
p259
aVUNL
p260
aV2
aV180
p261
aV-
aV-
aV-
aV-
aV-
aV73.3
p262
aV0.5
p263
aV-
aV7.42
p264
aa(lp265
V2017/2018
p266
aVTottenham
p267
aVUCL
p268
aV7
aV630
p269
aV-
aV-
aV-
aV-
aV-
aV60.2
p270
aV0.4
p271
aV-
aV7.07
p272
aa(lp273
V2017/2018
p274
aVTottenham
p275
aVEPL
p276
aV36
p277
aV3240
p278
aV-
aV-
aV1
aV-
aV-
aV75.2
p279
aV0.3
p280
aV1
aV6.74
p281
aa(lp282
V2016/2017
p283
aVTottenham
p284
aVUCL
p285
aV6
aV540
p286
aV-
aV-
aV-
aV-
aV-
aV74.5
p287
aV0.2
p288
aV-
aV7.11
p289
aa(lp290
V2016/2017
p291
aVTottenham
p292
aVEPL
p293
aV34
p294
aV3005
p295
aV-
aV-
aV-
aV-
aV-
aV72.3
p296
aV0.2
p297
aV1
aV6.77
p298
aa(lp299
V2016/2017
p300
aVTottenham
p301
aVUEL
p302
aV2
aV180
p303
aV-
aV-
aV-
aV-
aV-
aV77.2
p304
aV-
aV-
aV6.04
p305
aa(lp306
V2018
p307
aVFrance
p308
aVWC
p309
aV6
aV540
p310
aV-
aV-
aV-
aV-
aV-
aV58.2
p311
aV0.2
p312
aV-
aV6.60
p313
aa(lp314
V2015/2016
p315
aVTottenham
p316
aVUEL
p317
aV9
aV810
p318
aV-
aV-
aV-
aV-
aV-
aV74.8
p319
aV0.1
p320
aV-
aV6.81
p321
aa(lp322
V2015/2016
p323
aVTottenham
p324
aVEPL
p325
aV37
p326
aV3330
p327
aV-
aV-
aV-
aV-
aV-
aV63.8
p328
aV0.1
p329
aV-
aV6.75
p330
aa(lp331
V2014/2015
p332
aVTottenham
p333
aVUEL
p334
aV6
aV537
p335
aV-
aV-
aV-
aV1
aV-
aV74.9
p336
aV0.3
p337
aV-
aV6.79
p338
aa(lp339
V2014/2015
p340
aVTottenham
p341
aVEPL
p342
aV35
p343
aV3064
p344
aV-
aV-
aV-
aV-
aV-
aV60.6
p345
aV0.1
p346
aV-
aV6.89
p347
aa(lp348
V2016
p349
aVFrance
p350
aVUEC
p351
aV7
aV660
p352
aV-
aV-
aV-
aV-
aV-
aV71.5
p353
aV0.3
p354
aV-
aV6.73
p355
aa(lp356
V2013/2014
p357
aVTottenham
p358
aVUEL
p359
aV5
aV450
p360
aV-
aV-
aV-
aV-
aV-
aV65.8
p361
aV-
aV-
aV6.69
p362
aa(lp363
V2013/2014
p364
aVTottenham
p365
aVEPL
p366
aV37
p367
aV3330
p368
aV-
aV-
aV2
aV-
aV-
aV45.3
p369
aV0.2
p370
aV1
aV6.72
p371
aa(lp372
V2014
p373
aVFrance
p374
aVWC
p375
aV5
aV450
p376
aV-
aV-
aV-
aV-
aV-
aV66.4
p377
aV-
aV-
aV6.83
p378
aa(lp379
V2012/2013
p380
aVTottenham
p381
aVUEL
p382
aV5
aV450
p383
aV-
aV-
aV-
aV-
aV-
aV58.7
p384
aV-
aV1
aV6.56
p385
aa(lp386
V2012/2013
p387
aVTottenham
p388
aVEPL
p389
aV27
p390
aV2430
p391
aV-
aV-
aV-
aV-
aV-
aV50.4
p392
aV0.3
p393
aV-
aV6.64
p394
aa(lp395
V2012/2013
p396
aVLyon
p397
aVFL1
p398
aV2
aV180
p399
aV-
aV-
aV-
aV-
aV-
aV72.4
p400
aV-
aV-
aV7.18
p401
aa(lp402
V2012
p403
aVFrance
p404
aVUEC
p405
aV4
aV360
p406
aV-
aV-
aV-
aV-
aV-
aV76.9
p407
aV-
aV-
aV6.39
p408
aa(lp409
V2011/2012
p410
aVLyon
p411
aVUCL
p412
aV8
aV751
p413
aV-
aV-
aV-
aV-
aV-
aV55.9
p414
aV0.1
p415
aV-
aV7.30
p416
aa(lp417
V2011/2012
p418
aVLyon
p419
aVFL1
p420
aV36
p421
aV3195
p422
aV-
aV-
aV-
aV1
aV-
aV55
p423
aV0.1
p424
aV2
aV6.90
p425
aa(lp426
V2010/2011
p427
aVLyon
p428
aVUCL
p429
aV8
aV720
p430
aV-
aV-
aV-
aV-
aV-
aV50.2
p431
aV0.1
p432
aV-
aV6.69
p433
aa(lp434
V2010/2011
p435
aVLyon
p436
aVFL1
p437
aV37
p438
aV3330
p439
aV-
aV-
aV-
aV-
aV-
aV46.7
p440
aV0.3
p441
aV2
aV6.92
p442
aa(lp443
V2009/2010
p444
aVLyon
p445
aVUCL
p446
aV12
p447
aV1080
p448
aV-
aV-
aV-
aV-
aV-
aV32.4
p449
aV0.1
p450
aV-
aV7.04
p451
aa(lp452
V2009/2010
p453
aVLyon
p454
aVFL1
p455
aV36
p456
aV3240
p457
aV-
aV1
aV1
aV-
aV-
aV48.8
p458
aV0.1
p459
aV1
aV7.06
p460
aa(lp461
VTotal / Average
p462
aV
aV
aV426
p463
aV38201
p464
aV0
aV1
aV4
aV3
aV0
aV59.1
p465
aV0.2
p466
aV10
p467
aV6.83
p468
aasS'defensive_data'
p469
(lp470
(lp471
a(lp472
V2018/2019
p473
aVTottenham
p474
aVEPL
p475
aV13
p476
aV1170
p477
aV-
aV-
aV-
aV-
aV-
aV70
p478
aV0.4
p479
aV1
aV7.08
p480
aa(lp481
V2018/2019
p482
aVTottenham
p483
aVUCL
p484
aV4
aV349
p485
aV-
aV-
aV-
aV1
aV-
aV82.4
p486
aV-
aV-
aV5.71
p487
aa(lp488
V2018/2019
p489
aVFrance
p490
aVUNL
p491
aV2
aV180
p492
aV-
aV-
aV-
aV-
aV-
aV73.3
p493
aV0.5
p494
aV-
aV7.42
p495
aa(lp496
V2017/2018
p497
aVTottenham
p498
aVUCL
p499
aV7
aV630
p500
aV-
aV-
aV-
aV-
aV-
aV60.2
p501
aV0.4
p502
aV-
aV7.07
p503
aa(lp504
V2017/2018
p505
aVTottenham
p506
aVEPL
p507
aV36
p508
aV3240
p509
aV-
aV-
aV1
aV-
aV-
aV75.2
p510
aV0.3
p511
aV1
aV6.74
p512
aa(lp513
V2016/2017
p514
aVTottenham
p515
aVUCL
p516
aV6
aV540
p517
aV-
aV-
aV-
aV-
aV-
aV74.5
p518
aV0.2
p519
aV-
aV7.11
p520
aa(lp521
V2016/2017
p522
aVTottenham
p523
aVEPL
p524
aV34
p525
aV3005
p526
aV-
aV-
aV-
aV-
aV-
aV72.3
p527
aV0.2
p528
aV1
aV6.77
p529
aa(lp530
V2016/2017
p531
aVTottenham
p532
aVUEL
p533
aV2
aV180
p534
aV-
aV-
aV-
aV-
aV-
aV77.2
p535
aV-
aV-
aV6.04
p536
aa(lp537
V2018
p538
aVFrance
p539
aVWC
p540
aV6
aV540
p541
aV-
aV-
aV-
aV-
aV-
aV58.2
p542
aV0.2
p543
aV-
aV6.60
p544
aa(lp545
V2015/2016
p546
aVTottenham
p547
aVUEL
p548
aV9
aV810
p549
aV-
aV-
aV-
aV-
aV-
aV74.8
p550
aV0.1
p551
aV-
aV6.81
p552
aa(lp553
V2015/2016
p554
aVTottenham
p555
aVEPL
p556
aV37
p557
aV3330
p558
aV-
aV-
aV-
aV-
aV-
aV63.8
p559
aV0.1
p560
aV-
aV6.75
p561
aa(lp562
V2014/2015
p563
aVTottenham
p564
aVUEL
p565
aV6
aV537
p566
aV-
aV-
aV-
aV1
aV-
aV74.9
p567
aV0.3
p568
aV-
aV6.79
p569
aa(lp570
V2014/2015
p571
aVTottenham
p572
aVEPL
p573
aV35
p574
aV3064
p575
aV-
aV-
aV-
aV-
aV-
aV60.6
p576
aV0.1
p577
aV-
aV6.89
p578
aa(lp579
V2016
p580
aVFrance
p581
aVUEC
p582
aV7
aV660
p583
aV-
aV-
aV-
aV-
aV-
aV71.5
p584
aV0.3
p585
aV-
aV6.73
p586
aa(lp587
V2013/2014
p588
aVTottenham
p589
aVUEL
p590
aV5
aV450
p591
aV-
aV-
aV-
aV-
aV-
aV65.8
p592
aV-
aV-
aV6.69
p593
aa(lp594
V2013/2014
p595
aVTottenham
p596
aVEPL
p597
aV37
p598
aV3330
p599
aV-
aV-
aV2
aV-
aV-
aV45.3
p600
aV0.2
p601
aV1
aV6.72
p602
aa(lp603
V2014
p604
aVFrance
p605
aVWC
p606
aV5
aV450
p607
aV-
aV-
aV-
aV-
aV-
aV66.4
p608
aV-
aV-
aV6.83
p609
aa(lp610
V2012/2013
p611
aVTottenham
p612
aVUEL
p613
aV5
aV450
p614
aV-
aV-
aV-
aV-
aV-
aV58.7
p615
aV-
aV1
aV6.56
p616
aa(lp617
V2012/2013
p618
aVTottenham
p619
aVEPL
p620
aV27
p621
aV2430
p622
aV-
aV-
aV-
aV-
aV-
aV50.4
p623
aV0.3
p624
aV-
aV6.64
p625
aa(lp626
V2012/2013
p627
aVLyon
p628
aVFL1
p629
aV2
aV180
p630
aV-
aV-
aV-
aV-
aV-
aV72.4
p631
aV-
aV-
aV7.18
p632
aa(lp633
V2012
p634
aVFrance
p635
aVUEC
p636
aV4
aV360
p637
aV-
aV-
aV-
aV-
aV-
aV76.9
p638
aV-
aV-
aV6.39
p639
aa(lp640
V2011/2012
p641
aVLyon
p642
aVUCL
p643
aV8
aV751
p644
aV-
aV-
aV-
aV-
aV-
aV55.9
p645
aV0.1
p646
aV-
aV7.30
p647
aa(lp648
V2011/2012
p649
aVLyon
p650
aVFL1
p651
aV36
p652
aV3195
p653
aV-
aV-
aV-
aV1
aV-
aV55
p654
aV0.1
p655
aV2
aV6.90
p656
aa(lp657
V2010/2011
p658
aVLyon
p659
aVUCL
p660
aV8
aV720
p661
aV-
aV-
aV-
aV-
aV-
aV50.2
p662
aV0.1
p663
aV-
aV6.69
p664
aa(lp665
V2010/2011
p666
aVLyon
p667
aVFL1
p668
aV37
p669
aV3330
p670
aV-
aV-
aV-
aV-
aV-
aV46.7
p671
aV0.3
p672
aV2
aV6.92
p673
aa(lp674
V2009/2010
p675
aVLyon
p676
aVUCL
p677
aV12
p678
aV1080
p679
aV-
aV-
aV-
aV-
aV-
aV32.4
p680
aV0.1
p681
aV-
aV7.04
p682
aa(lp683
V2009/2010
p684
aVLyon
p685
aVFL1
p686
aV36
p687
aV3240
p688
aV-
aV1
aV1
aV-
aV-
aV48.8
p689
aV0.1
p690
aV1
aV7.06
p691
aa(lp692
VTotal / Average
p693
aV
aV
aV426
p694
aV38201
p695
aV0
aV1
aV4
aV3
aV0
aV59.1
p696
aV0.2
p697
aV10
p698
aV6.83
p699
aasS'sumary_data'
p700
(lp701
(lp702
a(lp703
V2018/2019
p704
aVTottenham
p705
aVEPL
p706
aV13
p707
aV1170
p708
aV-
aV-
aV-
aV-
aV-
aV70
p709
aV0.4
p710
aV1
aV7.08
p711
aa(lp712
V2018/2019
p713
aVTottenham
p714
aVUCL
p715
aV4
aV349
p716
aV-
aV-
aV-
aV1
aV-
aV82.4
p717
aV-
aV-
aV5.71
p718
aa(lp719
V2018/2019
p720
aVFrance
p721
aVUNL
p722
aV2
aV180
p723
aV-
aV-
aV-
aV-
aV-
aV73.3
p724
aV0.5
p725
aV-
aV7.42
p726
aa(lp727
V2017/2018
p728
aVTottenham
p729
aVUCL
p730
aV7
aV630
p731
aV-
aV-
aV-
aV-
aV-
aV60.2
p732
aV0.4
p733
aV-
aV7.07
p734
aa(lp735
V2017/2018
p736
aVTottenham
p737
aVEPL
p738
aV36
p739
aV3240
p740
aV-
aV-
aV1
aV-
aV-
aV75.2
p741
aV0.3
p742
aV1
aV6.74
p743
aa(lp744
V2016/2017
p745
aVTottenham
p746
aVUCL
p747
aV6
aV540
p748
aV-
aV-
aV-
aV-
aV-
aV74.5
p749
aV0.2
p750
aV-
aV7.11
p751
aa(lp752
V2016/2017
p753
aVTottenham
p754
aVEPL
p755
aV34
p756
aV3005
p757
aV-
aV-
aV-
aV-
aV-
aV72.3
p758
aV0.2
p759
aV1
aV6.77
p760
aa(lp761
V2016/2017
p762
aVTottenham
p763
aVUEL
p764
aV2
aV180
p765
aV-
aV-
aV-
aV-
aV-
aV77.2
p766
aV-
aV-
aV6.04
p767
aa(lp768
V2018
p769
aVFrance
p770
aVWC
p771
aV6
aV540
p772
aV-
aV-
aV-
aV-
aV-
aV58.2
p773
aV0.2
p774
aV-
aV6.60
p775
aa(lp776
V2015/2016
p777
aVTottenham
p778
aVUEL
p779
aV9
aV810
p780
aV-
aV-
aV-
aV-
aV-
aV74.8
p781
aV0.1
p782
aV-
aV6.81
p783
aa(lp784
V2015/2016
p785
aVTottenham
p786
aVEPL
p787
aV37
p788
aV3330
p789
aV-
aV-
aV-
aV-
aV-
aV63.8
p790
aV0.1
p791
aV-
aV6.75
p792
aa(lp793
V2014/2015
p794
aVTottenham
p795
aVUEL
p796
aV6
aV537
p797
aV-
aV-
aV-
aV1
aV-
aV74.9
p798
aV0.3
p799
aV-
aV6.79
p800
aa(lp801
V2014/2015
p802
aVTottenham
p803
aVEPL
p804
aV35
p805
aV3064
p806
aV-
aV-
aV-
aV-
aV-
aV60.6
p807
aV0.1
p808
aV-
aV6.89
p809
aa(lp810
V2016
p811
aVFrance
p812
aVUEC
p813
aV7
aV660
p814
aV-
aV-
aV-
aV-
aV-
aV71.5
p815
aV0.3
p816
aV-
aV6.73
p817
aa(lp818
V2013/2014
p819
aVTottenham
p820
aVUEL
p821
aV5
aV450
p822
aV-
aV-
aV-
aV-
aV-
aV65.8
p823
aV-
aV-
aV6.69
p824
aa(lp825
V2013/2014
p826
aVTottenham
p827
aVEPL
p828
aV37
p829
aV3330
p830
aV-
aV-
aV2
aV-
aV-
aV45.3
p831
aV0.2
p832
aV1
aV6.72
p833
aa(lp834
V2014
p835
aVFrance
p836
aVWC
p837
aV5
aV450
p838
aV-
aV-
aV-
aV-
aV-
aV66.4
p839
aV-
aV-
aV6.83
p840
aa(lp841
V2012/2013
p842
aVTottenham
p843
aVUEL
p844
aV5
aV450
p845
aV-
aV-
aV-
aV-
aV-
aV58.7
p846
aV-
aV1
aV6.56
p847
aa(lp848
V2012/2013
p849
aVTottenham
p850
aVEPL
p851
aV27
p852
aV2430
p853
aV-
aV-
aV-
aV-
aV-
aV50.4
p854
aV0.3
p855
aV-
aV6.64
p856
aa(lp857
V2012/2013
p858
aVLyon
p859
aVFL1
p860
aV2
aV180
p861
aV-
aV-
aV-
aV-
aV-
aV72.4
p862
aV-
aV-
aV7.18
p863
aa(lp864
V2012
p865
aVFrance
p866
aVUEC
p867
aV4
aV360
p868
aV-
aV-
aV-
aV-
aV-
aV76.9
p869
aV-
aV-
aV6.39
p870
aa(lp871
V2011/2012
p872
aVLyon
p873
aVUCL
p874
aV8
aV751
p875
aV-
aV-
aV-
aV-
aV-
aV55.9
p876
aV0.1
p877
aV-
aV7.30
p878
aa(lp879
V2011/2012
p880
aVLyon
p881
aVFL1
p882
aV36
p883
aV3195
p884
aV-
aV-
aV-
aV1
aV-
aV55
p885
aV0.1
p886
aV2
aV6.90
p887
aa(lp888
V2010/2011
p889
aVLyon
p890
aVUCL
p891
aV8
aV720
p892
aV-
aV-
aV-
aV-
aV-
aV50.2
p893
aV0.1
p894
aV-
aV6.69
p895
aa(lp896
V2010/2011
p897
aVLyon
p898
aVFL1
p899
aV37
p900
aV3330
p901
aV-
aV-
aV-
aV-
aV-
aV46.7
p902
aV0.3
p903
aV2
aV6.92
p904
aa(lp905
V2009/2010
p906
aVLyon
p907
aVUCL
p908
aV12
p909
aV1080
p910
aV-
aV-
aV-
aV-
aV-
aV32.4
p911
aV0.1
p912
aV-
aV7.04
p913
aa(lp914
V2009/2010
p915
aVLyon
p916
aVFL1
p917
aV36
p918
aV3240
p919
aV-
aV1
aV1
aV-
aV-
aV48.8
p920
aV0.1
p921
aV1
aV7.06
p922
aa(lp923
VTotal / Average
p924
aV
aV
aV426
p925
aV38201
p926
aV0
aV1
aV4
aV3
aV0
aV59.1
p927
aV0.2
p928
aV10
p929
aV6.83
p930
aasS'id'
p931
V25604
p932
sb.