(i__main__
Player
p1
(dp2
S'name'
p3
VRyan Bennett 
p4
sS'offensive_data'
p5
(lp6
(lp7
a(lp8
V2018/2019
p9
aVWolverhampton..
p10
aVEPL
p11
aV16
p12
aV1440
p13
aV-
aV-
aV4
aV-
aV0.5
p14
aV78.7
p15
aV4.1
p16
aV-
aV6.90
p17
aa(lp18
V2017/2018
p19
aVWolverhampton..
p20
aVEC
p21
aV27(2)
p22
aV2508
p23
aV1
aV1
aV7
aV-
aV0.3
p24
aV84
p25
aV3.8
p26
aV-
aV7.00
p27
aa(lp28
V2016/2017
p29
aVNorwich
p30
aVEC
p31
aV24(9)
p32
aV2409
p33
aV-
aV-
aV1
aV-
aV0.3
p34
aV76.3
p35
aV3.2
p36
aV1
aV6.74
p37
aa(lp38
V2015/2016
p39
aVNorwich
p40
aVEPL
p41
aV20(2)
p42
aV1838
p43
aV-
aV-
aV7
aV-
aV0.4
p44
aV74.3
p45
aV2.5
p46
aV1
aV6.76
p47
aa(lp48
V2014/2015
p49
aVNorwich
p50
aVEC
p51
aV3(4)
p52
aV263
p53
aV-
aV-
aV2
aV-
aV0.3
p54
aV71
p55
aV2.6
p56
aV1
aV6.68
p57
aa(lp58
V2013/2014
p59
aVNorwich
p60
aVEPL
p61
aV14(2)
p62
aV1348
p63
aV1
aV-
aV6
aV-
aV0.4
p64
aV75.9
p65
aV3.8
p66
aV1
aV6.89
p67
aa(lp68
V2012/2013
p69
aVNorwich
p70
aVEPL
p71
aV10(5)
p72
aV1065
p73
aV1
aV-
aV2
aV-
aV0.3
p74
aV73.2
p75
aV3.5
p76
aV-
aV6.75
p77
aa(lp78
V2011/2012
p79
aVNorwich
p80
aVEPL
p81
aV8
aV720
p82
aV-
aV-
aV2
aV-
aV0.9
p83
aV82.2
p84
aV2.3
p85
aV-
aV6.78
p86
aa(lp87
VTotal / Average
p88
aV
aV
aV146
p89
aV11591
p90
aV3
aV1
aV31
p91
aV0
aV0.4
p92
aV77.5
p93
aV3.3
p94
aV4
aV6.83
p95
aasS'url'
p96
S'https://www.whoscored.com/Players/25834/History/'
p97
sS'passing_data'
p98
(lp99
(lp100
a(lp101
V2018/2019
p102
aVWolverhampton..
p103
aVEPL
p104
aV16
p105
aV1440
p106
aV-
aV-
aV4
aV-
aV0.5
p107
aV78.7
p108
aV4.1
p109
aV-
aV6.90
p110
aa(lp111
V2017/2018
p112
aVWolverhampton..
p113
aVEC
p114
aV27(2)
p115
aV2508
p116
aV1
aV1
aV7
aV-
aV0.3
p117
aV84
p118
aV3.8
p119
aV-
aV7.00
p120
aa(lp121
V2016/2017
p122
aVNorwich
p123
aVEC
p124
aV24(9)
p125
aV2409
p126
aV-
aV-
aV1
aV-
aV0.3
p127
aV76.3
p128
aV3.2
p129
aV1
aV6.74
p130
aa(lp131
V2015/2016
p132
aVNorwich
p133
aVEPL
p134
aV20(2)
p135
aV1838
p136
aV-
aV-
aV7
aV-
aV0.4
p137
aV74.3
p138
aV2.5
p139
aV1
aV6.76
p140
aa(lp141
V2014/2015
p142
aVNorwich
p143
aVEC
p144
aV3(4)
p145
aV263
p146
aV-
aV-
aV2
aV-
aV0.3
p147
aV71
p148
aV2.6
p149
aV1
aV6.68
p150
aa(lp151
V2013/2014
p152
aVNorwich
p153
aVEPL
p154
aV14(2)
p155
aV1348
p156
aV1
aV-
aV6
aV-
aV0.4
p157
aV75.9
p158
aV3.8
p159
aV1
aV6.89
p160
aa(lp161
V2012/2013
p162
aVNorwich
p163
aVEPL
p164
aV10(5)
p165
aV1065
p166
aV1
aV-
aV2
aV-
aV0.3
p167
aV73.2
p168
aV3.5
p169
aV-
aV6.75
p170
aa(lp171
V2011/2012
p172
aVNorwich
p173
aVEPL
p174
aV8
aV720
p175
aV-
aV-
aV2
aV-
aV0.9
p176
aV82.2
p177
aV2.3
p178
aV-
aV6.78
p179
aa(lp180
VTotal / Average
p181
aV
aV
aV146
p182
aV11591
p183
aV3
aV1
aV31
p184
aV0
aV0.4
p185
aV77.5
p186
aV3.3
p187
aV4
aV6.83
p188
aasS'defensive_data'
p189
(lp190
(lp191
a(lp192
V2018/2019
p193
aVWolverhampton..
p194
aVEPL
p195
aV16
p196
aV1440
p197
aV-
aV-
aV4
aV-
aV0.5
p198
aV78.7
p199
aV4.1
p200
aV-
aV6.90
p201
aa(lp202
V2017/2018
p203
aVWolverhampton..
p204
aVEC
p205
aV27(2)
p206
aV2508
p207
aV1
aV1
aV7
aV-
aV0.3
p208
aV84
p209
aV3.8
p210
aV-
aV7.00
p211
aa(lp212
V2016/2017
p213
aVNorwich
p214
aVEC
p215
aV24(9)
p216
aV2409
p217
aV-
aV-
aV1
aV-
aV0.3
p218
aV76.3
p219
aV3.2
p220
aV1
aV6.74
p221
aa(lp222
V2015/2016
p223
aVNorwich
p224
aVEPL
p225
aV20(2)
p226
aV1838
p227
aV-
aV-
aV7
aV-
aV0.4
p228
aV74.3
p229
aV2.5
p230
aV1
aV6.76
p231
aa(lp232
V2014/2015
p233
aVNorwich
p234
aVEC
p235
aV3(4)
p236
aV263
p237
aV-
aV-
aV2
aV-
aV0.3
p238
aV71
p239
aV2.6
p240
aV1
aV6.68
p241
aa(lp242
V2013/2014
p243
aVNorwich
p244
aVEPL
p245
aV14(2)
p246
aV1348
p247
aV1
aV-
aV6
aV-
aV0.4
p248
aV75.9
p249
aV3.8
p250
aV1
aV6.89
p251
aa(lp252
V2012/2013
p253
aVNorwich
p254
aVEPL
p255
aV10(5)
p256
aV1065
p257
aV1
aV-
aV2
aV-
aV0.3
p258
aV73.2
p259
aV3.5
p260
aV-
aV6.75
p261
aa(lp262
V2011/2012
p263
aVNorwich
p264
aVEPL
p265
aV8
aV720
p266
aV-
aV-
aV2
aV-
aV0.9
p267
aV82.2
p268
aV2.3
p269
aV-
aV6.78
p270
aa(lp271
VTotal / Average
p272
aV
aV
aV146
p273
aV11591
p274
aV3
aV1
aV31
p275
aV0
aV0.4
p276
aV77.5
p277
aV3.3
p278
aV4
aV6.83
p279
aasS'sumary_data'
p280
(lp281
(lp282
a(lp283
V2018/2019
p284
aVWolverhampton..
p285
aVEPL
p286
aV16
p287
aV1440
p288
aV-
aV-
aV4
aV-
aV0.5
p289
aV78.7
p290
aV4.1
p291
aV-
aV6.90
p292
aa(lp293
V2017/2018
p294
aVWolverhampton..
p295
aVEC
p296
aV27(2)
p297
aV2508
p298
aV1
aV1
aV7
aV-
aV0.3
p299
aV84
p300
aV3.8
p301
aV-
aV7.00
p302
aa(lp303
V2016/2017
p304
aVNorwich
p305
aVEC
p306
aV24(9)
p307
aV2409
p308
aV-
aV-
aV1
aV-
aV0.3
p309
aV76.3
p310
aV3.2
p311
aV1
aV6.74
p312
aa(lp313
V2015/2016
p314
aVNorwich
p315
aVEPL
p316
aV20(2)
p317
aV1838
p318
aV-
aV-
aV7
aV-
aV0.4
p319
aV74.3
p320
aV2.5
p321
aV1
aV6.76
p322
aa(lp323
V2014/2015
p324
aVNorwich
p325
aVEC
p326
aV3(4)
p327
aV263
p328
aV-
aV-
aV2
aV-
aV0.3
p329
aV71
p330
aV2.6
p331
aV1
aV6.68
p332
aa(lp333
V2013/2014
p334
aVNorwich
p335
aVEPL
p336
aV14(2)
p337
aV1348
p338
aV1
aV-
aV6
aV-
aV0.4
p339
aV75.9
p340
aV3.8
p341
aV1
aV6.89
p342
aa(lp343
V2012/2013
p344
aVNorwich
p345
aVEPL
p346
aV10(5)
p347
aV1065
p348
aV1
aV-
aV2
aV-
aV0.3
p349
aV73.2
p350
aV3.5
p351
aV-
aV6.75
p352
aa(lp353
V2011/2012
p354
aVNorwich
p355
aVEPL
p356
aV8
aV720
p357
aV-
aV-
aV2
aV-
aV0.9
p358
aV82.2
p359
aV2.3
p360
aV-
aV6.78
p361
aa(lp362
VTotal / Average
p363
aV
aV
aV146
p364
aV11591
p365
aV3
aV1
aV31
p366
aV0
aV0.4
p367
aV77.5
p368
aV3.3
p369
aV4
aV6.83
p370
aasS'id'
p371
V25834
p372
sb.