(i__main__
Player
p1
(dp2
S'name'
p3
VTroy Deeney 
p4
sS'offensive_data'
p5
(lp6
(lp7
a(lp8
V2018/2019
p9
aVWatford
p10
aVEPL
p11
aV12(2)
p12
aV1155
p13
aV2
aV1
aV1
aV-
aV1.9
p14
aV59.8
p15
aV5.9
p16
aV1
aV6.97
p17
aa(lp18
V2017/2018
p19
aVWatford
p20
aVEPL
p21
aV20(9)
p22
aV1842
p23
aV5
aV2
aV1
aV1
aV1.2
p24
aV56.6
p25
aV4.7
p26
aV1
aV6.61
p27
aa(lp28
V2016/2017
p29
aVWatford
p30
aVEPL
p31
aV31(6)
p32
aV2942
p33
aV10
p34
aV4
aV7
aV-
aV1.1
p35
aV58.5
p36
aV5.2
p37
aV2
aV6.84
p38
aa(lp39
V2015/2016
p40
aVWatford
p41
aVEPL
p42
aV36(2)
p43
aV3293
p44
aV13
p45
aV7
aV6
aV-
aV2.5
p46
aV60.9
p47
aV6.2
p48
aV3
aV7.28
p49
aa(lp50
V2014/2015
p51
aVWatford
p52
aVEC
p53
aV37(5)
p54
aV3423
p55
aV21
p56
aV9
aV7
aV-
aV2.9
p57
aV61.7
p58
aV4.2
p59
aV3
aV7.48
p60
aa(lp61
V2013/2014
p62
aVWatford
p63
aVEC
p64
aV44
p65
aV3960
p66
aV23
p67
aV5
aV2
aV-
aV2.5
p68
aV65.2
p69
aV3.5
p70
aV4
aV7.19
p71
aa(lp72
VTotal / Average
p73
aV
aV
aV204
p74
aV16615
p75
aV74
p76
aV28
p77
aV24
p78
aV1
aV2.1
p79
aV60.9
p80
aV4.8
p81
aV14
p82
aV7.11
p83
aasS'url'
p84
S'https://www.whoscored.com/Players/25832/History/'
p85
sS'passing_data'
p86
(lp87
(lp88
a(lp89
V2018/2019
p90
aVWatford
p91
aVEPL
p92
aV12(2)
p93
aV1155
p94
aV2
aV1
aV1
aV-
aV1.9
p95
aV59.8
p96
aV5.9
p97
aV1
aV6.97
p98
aa(lp99
V2017/2018
p100
aVWatford
p101
aVEPL
p102
aV20(9)
p103
aV1842
p104
aV5
aV2
aV1
aV1
aV1.2
p105
aV56.6
p106
aV4.7
p107
aV1
aV6.61
p108
aa(lp109
V2016/2017
p110
aVWatford
p111
aVEPL
p112
aV31(6)
p113
aV2942
p114
aV10
p115
aV4
aV7
aV-
aV1.1
p116
aV58.5
p117
aV5.2
p118
aV2
aV6.84
p119
aa(lp120
V2015/2016
p121
aVWatford
p122
aVEPL
p123
aV36(2)
p124
aV3293
p125
aV13
p126
aV7
aV6
aV-
aV2.5
p127
aV60.9
p128
aV6.2
p129
aV3
aV7.28
p130
aa(lp131
V2014/2015
p132
aVWatford
p133
aVEC
p134
aV37(5)
p135
aV3423
p136
aV21
p137
aV9
aV7
aV-
aV2.9
p138
aV61.7
p139
aV4.2
p140
aV3
aV7.48
p141
aa(lp142
V2013/2014
p143
aVWatford
p144
aVEC
p145
aV44
p146
aV3960
p147
aV23
p148
aV5
aV2
aV-
aV2.5
p149
aV65.2
p150
aV3.5
p151
aV4
aV7.19
p152
aa(lp153
VTotal / Average
p154
aV
aV
aV204
p155
aV16615
p156
aV74
p157
aV28
p158
aV24
p159
aV1
aV2.1
p160
aV60.9
p161
aV4.8
p162
aV14
p163
aV7.11
p164
aasS'defensive_data'
p165
(lp166
(lp167
a(lp168
V2018/2019
p169
aVWatford
p170
aVEPL
p171
aV12(2)
p172
aV1155
p173
aV2
aV1
aV1
aV-
aV1.9
p174
aV59.8
p175
aV5.9
p176
aV1
aV6.97
p177
aa(lp178
V2017/2018
p179
aVWatford
p180
aVEPL
p181
aV20(9)
p182
aV1842
p183
aV5
aV2
aV1
aV1
aV1.2
p184
aV56.6
p185
aV4.7
p186
aV1
aV6.61
p187
aa(lp188
V2016/2017
p189
aVWatford
p190
aVEPL
p191
aV31(6)
p192
aV2942
p193
aV10
p194
aV4
aV7
aV-
aV1.1
p195
aV58.5
p196
aV5.2
p197
aV2
aV6.84
p198
aa(lp199
V2015/2016
p200
aVWatford
p201
aVEPL
p202
aV36(2)
p203
aV3293
p204
aV13
p205
aV7
aV6
aV-
aV2.5
p206
aV60.9
p207
aV6.2
p208
aV3
aV7.28
p209
aa(lp210
V2014/2015
p211
aVWatford
p212
aVEC
p213
aV37(5)
p214
aV3423
p215
aV21
p216
aV9
aV7
aV-
aV2.9
p217
aV61.7
p218
aV4.2
p219
aV3
aV7.48
p220
aa(lp221
V2013/2014
p222
aVWatford
p223
aVEC
p224
aV44
p225
aV3960
p226
aV23
p227
aV5
aV2
aV-
aV2.5
p228
aV65.2
p229
aV3.5
p230
aV4
aV7.19
p231
aa(lp232
VTotal / Average
p233
aV
aV
aV204
p234
aV16615
p235
aV74
p236
aV28
p237
aV24
p238
aV1
aV2.1
p239
aV60.9
p240
aV4.8
p241
aV14
p242
aV7.11
p243
aasS'sumary_data'
p244
(lp245
(lp246
a(lp247
V2018/2019
p248
aVWatford
p249
aVEPL
p250
aV12(2)
p251
aV1155
p252
aV2
aV1
aV1
aV-
aV1.9
p253
aV59.8
p254
aV5.9
p255
aV1
aV6.97
p256
aa(lp257
V2017/2018
p258
aVWatford
p259
aVEPL
p260
aV20(9)
p261
aV1842
p262
aV5
aV2
aV1
aV1
aV1.2
p263
aV56.6
p264
aV4.7
p265
aV1
aV6.61
p266
aa(lp267
V2016/2017
p268
aVWatford
p269
aVEPL
p270
aV31(6)
p271
aV2942
p272
aV10
p273
aV4
aV7
aV-
aV1.1
p274
aV58.5
p275
aV5.2
p276
aV2
aV6.84
p277
aa(lp278
V2015/2016
p279
aVWatford
p280
aVEPL
p281
aV36(2)
p282
aV3293
p283
aV13
p284
aV7
aV6
aV-
aV2.5
p285
aV60.9
p286
aV6.2
p287
aV3
aV7.28
p288
aa(lp289
V2014/2015
p290
aVWatford
p291
aVEC
p292
aV37(5)
p293
aV3423
p294
aV21
p295
aV9
aV7
aV-
aV2.9
p296
aV61.7
p297
aV4.2
p298
aV3
aV7.48
p299
aa(lp300
V2013/2014
p301
aVWatford
p302
aVEC
p303
aV44
p304
aV3960
p305
aV23
p306
aV5
aV2
aV-
aV2.5
p307
aV65.2
p308
aV3.5
p309
aV4
aV7.19
p310
aa(lp311
VTotal / Average
p312
aV
aV
aV204
p313
aV16615
p314
aV74
p315
aV28
p316
aV24
p317
aV1
aV2.1
p318
aV60.9
p319
aV4.8
p320
aV14
p321
aV7.11
p322
aasS'id'
p323
V25832
p324
sb.