(i__main__
Player
p1
(dp2
S'name'
p3
VRamadan Sobhi 
p4
sS'offensive_data'
p5
(lp6
(lp7
a(lp8
V2018/2019
p9
aVHuddersfield
p10
aVEPL
p11
aV0(4)
p12
aV76
p13
aV-
aV-
aV-
aV-
aV-
aV86
p14
aV0.8
p15
aV-
aV6.17
p16
aa(lp17
V2017/2018
p18
aVStoke
p19
aVEPL
p20
aV12(12)
p21
aV1234
p22
aV2
aV-
aV2
aV-
aV0.5
p23
aV77
p24
aV0.5
p25
aV-
aV6.46
p26
aa(lp27
V2016/2017
p28
aVStoke
p29
aVEPL
p30
aV8(9)
p31
aV849
p32
aV-
aV1
aV2
aV-
aV0.2
p33
aV78.9
p34
aV0.2
p35
aV-
aV6.48
p36
aa(lp37
V2018
p38
aVEgypt
p39
aVWC
p40
aV0(3)
p41
aV56
p42
aV-
aV-
aV-
aV-
aV-
aV76
p43
aV-
aV-
aV6.02
p44
aa(lp45
VTotal / Average
p46
aV
aV
aV48
p47
aV2215
p48
aV2
aV1
aV4
aV0
aV0.4
p49
aV78.4
p50
aV0.4
p51
aV0
aV6.41
p52
aasS'url'
p53
S'https://www.whoscored.com/Players/260289/History/'
p54
sS'passing_data'
p55
(lp56
(lp57
a(lp58
V2018/2019
p59
aVHuddersfield
p60
aVEPL
p61
aV0(4)
p62
aV76
p63
aV-
aV-
aV-
aV-
aV-
aV86
p64
aV0.8
p65
aV-
aV6.17
p66
aa(lp67
V2017/2018
p68
aVStoke
p69
aVEPL
p70
aV12(12)
p71
aV1234
p72
aV2
aV-
aV2
aV-
aV0.5
p73
aV77
p74
aV0.5
p75
aV-
aV6.46
p76
aa(lp77
V2016/2017
p78
aVStoke
p79
aVEPL
p80
aV8(9)
p81
aV849
p82
aV-
aV1
aV2
aV-
aV0.2
p83
aV78.9
p84
aV0.2
p85
aV-
aV6.48
p86
aa(lp87
V2018
p88
aVEgypt
p89
aVWC
p90
aV0(3)
p91
aV56
p92
aV-
aV-
aV-
aV-
aV-
aV76
p93
aV-
aV-
aV6.02
p94
aa(lp95
VTotal / Average
p96
aV
aV
aV48
p97
aV2215
p98
aV2
aV1
aV4
aV0
aV0.4
p99
aV78.4
p100
aV0.4
p101
aV0
aV6.41
p102
aasS'defensive_data'
p103
(lp104
(lp105
a(lp106
V2018/2019
p107
aVHuddersfield
p108
aVEPL
p109
aV0(4)
p110
aV76
p111
aV-
aV-
aV-
aV-
aV-
aV86
p112
aV0.8
p113
aV-
aV6.17
p114
aa(lp115
V2017/2018
p116
aVStoke
p117
aVEPL
p118
aV12(12)
p119
aV1234
p120
aV2
aV-
aV2
aV-
aV0.5
p121
aV77
p122
aV0.5
p123
aV-
aV6.46
p124
aa(lp125
V2016/2017
p126
aVStoke
p127
aVEPL
p128
aV8(9)
p129
aV849
p130
aV-
aV1
aV2
aV-
aV0.2
p131
aV78.9
p132
aV0.2
p133
aV-
aV6.48
p134
aa(lp135
V2018
p136
aVEgypt
p137
aVWC
p138
aV0(3)
p139
aV56
p140
aV-
aV-
aV-
aV-
aV-
aV76
p141
aV-
aV-
aV6.02
p142
aa(lp143
VTotal / Average
p144
aV
aV
aV48
p145
aV2215
p146
aV2
aV1
aV4
aV0
aV0.4
p147
aV78.4
p148
aV0.4
p149
aV0
aV6.41
p150
aasS'sumary_data'
p151
(lp152
(lp153
a(lp154
V2018/2019
p155
aVHuddersfield
p156
aVEPL
p157
aV0(4)
p158
aV76
p159
aV-
aV-
aV-
aV-
aV-
aV86
p160
aV0.8
p161
aV-
aV6.17
p162
aa(lp163
V2017/2018
p164
aVStoke
p165
aVEPL
p166
aV12(12)
p167
aV1234
p168
aV2
aV-
aV2
aV-
aV0.5
p169
aV77
p170
aV0.5
p171
aV-
aV6.46
p172
aa(lp173
V2016/2017
p174
aVStoke
p175
aVEPL
p176
aV8(9)
p177
aV849
p178
aV-
aV1
aV2
aV-
aV0.2
p179
aV78.9
p180
aV0.2
p181
aV-
aV6.48
p182
aa(lp183
V2018
p184
aVEgypt
p185
aVWC
p186
aV0(3)
p187
aV56
p188
aV-
aV-
aV-
aV-
aV-
aV76
p189
aV-
aV-
aV6.02
p190
aa(lp191
VTotal / Average
p192
aV
aV
aV48
p193
aV2215
p194
aV2
aV1
aV4
aV0
aV0.4
p195
aV78.4
p196
aV0.4
p197
aV0
aV6.41
p198
aasS'id'
p199
V260289
p200
sb.