(i__main__
Player
p1
(dp2
S'name'
p3
VJuninho Bacuna 
p4
sS'offensive_data'
p5
(lp6
(lp7
a(lp8
V2018/2019
p9
aVHuddersfield
p10
aVEPL
p11
aV1(3)
p12
aV141
p13
aV-
aV-
aV1
aV-
aV0.3
p14
aV71.7
p15
aV0.8
p16
aV-
aV6.45
p17
aa(lp18
V2017/2018
p19
aVFC Groningen
p20
aVNE
p21
aV28(5)
p22
aV2594
p23
aV1
aV4
aV5
aV-
aV2
aV74.3
p24
aV1.3
p25
aV1
aV6.89
p26
aa(lp27
V2016/2017
p28
aVFC Groningen
p29
aVNE
p30
aV23(3)
p31
aV1938
p32
aV1
aV3
aV4
aV3
aV1.2
p33
aV75.2
p34
aV0.5
p35
aV1
aV6.55
p36
aa(lp37
V2015/2016
p38
aVFC Groningen
p39
aVUEL
p40
aV0(1)
p41
aV23
p42
aV-
aV-
aV1
aV-
aV1
aV60
p43
aV1
aV-
aV6.03
p44
aa(lp45
V2015/2016
p46
aVFC Groningen
p47
aVNE
p48
aV11(5)
p49
aV970
p50
aV-
aV1
aV2
aV-
aV0.4
p51
aV77.3
p52
aV0.3
p53
aV-
aV6.41
p54
aa(lp55
V2014/2015
p56
aVFC Groningen
p57
aVNE
p58
aV0(12)
p59
aV135
p60
aV-
aV-
aV1
aV-
aV0.3
p61
aV71.4
p62
aV0.3
p63
aV-
aV6.16
p64
aa(lp65
VTotal / Average
p66
aV
aV
aV92
p67
aV5801
p68
aV2
aV8
aV14
p69
aV3
aV1.2
p70
aV74.4
p71
aV0.8
p72
aV2
aV6.59
p73
aasS'url'
p74
S'https://www.whoscored.com/Players/261143/History/'
p75
sS'passing_data'
p76
(lp77
(lp78
a(lp79
V2018/2019
p80
aVHuddersfield
p81
aVEPL
p82
aV1(3)
p83
aV141
p84
aV-
aV-
aV1
aV-
aV0.3
p85
aV71.7
p86
aV0.8
p87
aV-
aV6.45
p88
aa(lp89
V2017/2018
p90
aVFC Groningen
p91
aVNE
p92
aV28(5)
p93
aV2594
p94
aV1
aV4
aV5
aV-
aV2
aV74.3
p95
aV1.3
p96
aV1
aV6.89
p97
aa(lp98
V2016/2017
p99
aVFC Groningen
p100
aVNE
p101
aV23(3)
p102
aV1938
p103
aV1
aV3
aV4
aV3
aV1.2
p104
aV75.2
p105
aV0.5
p106
aV1
aV6.55
p107
aa(lp108
V2015/2016
p109
aVFC Groningen
p110
aVUEL
p111
aV0(1)
p112
aV23
p113
aV-
aV-
aV1
aV-
aV1
aV60
p114
aV1
aV-
aV6.03
p115
aa(lp116
V2015/2016
p117
aVFC Groningen
p118
aVNE
p119
aV11(5)
p120
aV970
p121
aV-
aV1
aV2
aV-
aV0.4
p122
aV77.3
p123
aV0.3
p124
aV-
aV6.41
p125
aa(lp126
V2014/2015
p127
aVFC Groningen
p128
aVNE
p129
aV0(12)
p130
aV135
p131
aV-
aV-
aV1
aV-
aV0.3
p132
aV71.4
p133
aV0.3
p134
aV-
aV6.16
p135
aa(lp136
VTotal / Average
p137
aV
aV
aV92
p138
aV5801
p139
aV2
aV8
aV14
p140
aV3
aV1.2
p141
aV74.4
p142
aV0.8
p143
aV2
aV6.59
p144
aasS'defensive_data'
p145
(lp146
(lp147
a(lp148
V2018/2019
p149
aVHuddersfield
p150
aVEPL
p151
aV1(3)
p152
aV141
p153
aV-
aV-
aV1
aV-
aV0.3
p154
aV71.7
p155
aV0.8
p156
aV-
aV6.45
p157
aa(lp158
V2017/2018
p159
aVFC Groningen
p160
aVNE
p161
aV28(5)
p162
aV2594
p163
aV1
aV4
aV5
aV-
aV2
aV74.3
p164
aV1.3
p165
aV1
aV6.89
p166
aa(lp167
V2016/2017
p168
aVFC Groningen
p169
aVNE
p170
aV23(3)
p171
aV1938
p172
aV1
aV3
aV4
aV3
aV1.2
p173
aV75.2
p174
aV0.5
p175
aV1
aV6.55
p176
aa(lp177
V2015/2016
p178
aVFC Groningen
p179
aVUEL
p180
aV0(1)
p181
aV23
p182
aV-
aV-
aV1
aV-
aV1
aV60
p183
aV1
aV-
aV6.03
p184
aa(lp185
V2015/2016
p186
aVFC Groningen
p187
aVNE
p188
aV11(5)
p189
aV970
p190
aV-
aV1
aV2
aV-
aV0.4
p191
aV77.3
p192
aV0.3
p193
aV-
aV6.41
p194
aa(lp195
V2014/2015
p196
aVFC Groningen
p197
aVNE
p198
aV0(12)
p199
aV135
p200
aV-
aV-
aV1
aV-
aV0.3
p201
aV71.4
p202
aV0.3
p203
aV-
aV6.16
p204
aa(lp205
VTotal / Average
p206
aV
aV
aV92
p207
aV5801
p208
aV2
aV8
aV14
p209
aV3
aV1.2
p210
aV74.4
p211
aV0.8
p212
aV2
aV6.59
p213
aasS'sumary_data'
p214
(lp215
(lp216
a(lp217
V2018/2019
p218
aVHuddersfield
p219
aVEPL
p220
aV1(3)
p221
aV141
p222
aV-
aV-
aV1
aV-
aV0.3
p223
aV71.7
p224
aV0.8
p225
aV-
aV6.45
p226
aa(lp227
V2017/2018
p228
aVFC Groningen
p229
aVNE
p230
aV28(5)
p231
aV2594
p232
aV1
aV4
aV5
aV-
aV2
aV74.3
p233
aV1.3
p234
aV1
aV6.89
p235
aa(lp236
V2016/2017
p237
aVFC Groningen
p238
aVNE
p239
aV23(3)
p240
aV1938
p241
aV1
aV3
aV4
aV3
aV1.2
p242
aV75.2
p243
aV0.5
p244
aV1
aV6.55
p245
aa(lp246
V2015/2016
p247
aVFC Groningen
p248
aVUEL
p249
aV0(1)
p250
aV23
p251
aV-
aV-
aV1
aV-
aV1
aV60
p252
aV1
aV-
aV6.03
p253
aa(lp254
V2015/2016
p255
aVFC Groningen
p256
aVNE
p257
aV11(5)
p258
aV970
p259
aV-
aV1
aV2
aV-
aV0.4
p260
aV77.3
p261
aV0.3
p262
aV-
aV6.41
p263
aa(lp264
V2014/2015
p265
aVFC Groningen
p266
aVNE
p267
aV0(12)
p268
aV135
p269
aV-
aV-
aV1
aV-
aV0.3
p270
aV71.4
p271
aV0.3
p272
aV-
aV6.16
p273
aa(lp274
VTotal / Average
p275
aV
aV
aV92
p276
aV5801
p277
aV2
aV8
aV14
p278
aV3
aV1.2
p279
aV74.4
p280
aV0.8
p281
aV2
aV6.59
p282
aasS'id'
p283
V261143
p284
sb.