(i__main__
Player
p1
(dp2
S'name'
p3
VShinji Okazaki 
p4
sS'offensive_data'
p5
(lp6
(lp7
a(lp8
V2018/2019
p9
aVLeicester
p10
aVEPL
p11
aV1(10)
p12
aV157
p13
aV-
aV1
aV-
aV-
aV0.4
p14
aV78.4
p15
aV0.4
p16
aV-
aV6.15
p17
aa(lp18
V2017/2018
p19
aVLeicester
p20
aVEPL
p21
aV17(10)
p22
aV1330
p23
aV6
aV2
aV2
aV-
aV1
aV73.3
p24
aV1.1
p25
aV1
aV6.58
p26
aa(lp27
V2016/2017
p28
aVLeicester
p29
aVUCL
p30
aV5(2)
p31
aV338
p32
aV1
aV-
aV-
aV-
aV1
aV78.6
p33
aV1.7
p34
aV-
aV6.48
p35
aa(lp36
V2016/2017
p37
aVLeicester
p38
aVEPL
p39
aV21(9)
p40
aV1578
p41
aV3
aV1
aV1
aV-
aV1
aV74.9
p42
aV0.9
p43
aV1
aV6.50
p44
aa(lp45
V2018
p46
aVJapan
p47
aVWC
p48
aV1(2)
p49
aV68
p50
aV-
aV-
aV-
aV-
aV0.3
p51
aV70.6
p52
aV1
aV-
aV6.24
p53
aa(lp54
V2015/2016
p55
aVLeicester
p56
aVEPL
p57
aV28(8)
p58
aV2074
p59
aV5
aV-
aV1
aV-
aV1.3
p60
aV74.9
p61
aV1.5
p62
aV1
aV6.61
p63
aa(lp64
V2014/2015
p65
aVMainz 05
p66
aVGB
p67
aV31(1)
p68
aV2788
p69
aV12
p70
aV3
aV4
aV-
aV1.8
p71
aV71.2
p72
aV3.3
p73
aV2
aV7.04
p74
aa(lp75
V2013/2014
p76
aVMainz 05
p77
aVGB
p78
aV31(2)
p79
aV2719
p80
aV15
p81
aV1
aV2
aV-
aV2.2
p82
aV76
p83
aV3.4
p84
aV3
aV7.23
p85
aa(lp86
V2014
p87
aVJapan
p88
aVWC
p89
aV3
aV249
p90
aV1
aV-
aV-
aV-
aV1
aV73.3
p91
aV1.3
p92
aV-
aV6.54
p93
aa(lp94
V2013
p95
aVJapan
p96
aVICC
p97
aV3
aV270
p98
aV2
aV-
aV-
aV-
aV3.3
p99
aV73.8
p100
aV2.3
p101
aV1
aV7.60
p102
aa(lp103
V2012/2013
p104
aVVfB Stuttgart
p105
aVGB
p106
aV11(14)
p107
aV1027
p108
aV1
aV-
aV3
aV-
aV1
aV81.3
p109
aV0.7
p110
aV-
aV6.26
p111
aa(lp112
V2012/2013
p113
aVVfB Stuttgart
p114
aVUEL
p115
aV6(3)
p116
aV593
p117
aV2
aV1
aV-
aV-
aV2.4
p118
aV87.3
p119
aV0.9
p120
aV1
aV6.99
p121
aa(lp122
V2011/2012
p123
aVVfB Stuttgart
p124
aVGB
p125
aV18(8)
p126
aV1583
p127
aV7
aV-
aV4
aV-
aV1.5
p128
aV82.8
p129
aV0.5
p130
aV-
aV6.97
p131
aa(lp132
V2010/2011
p133
aVVfB Stuttgart
p134
aVGB
p135
aV12
p136
aV994
p137
aV2
aV-
aV2
aV-
aV2.4
p138
aV81
p139
aV0.5
p140
aV-
aV6.92
p141
aa(lp142
VTotal / Average
p143
aV
aV
aV257
p144
aV15768
p145
aV57
p146
aV9
aV19
p147
aV0
aV1.5
p148
aV76.7
p149
aV1.6
p150
aV10
p151
aV6.74
p152
aasS'url'
p153
S'https://www.whoscored.com/Players/26222/History/'
p154
sS'passing_data'
p155
(lp156
(lp157
a(lp158
V2018/2019
p159
aVLeicester
p160
aVEPL
p161
aV1(10)
p162
aV157
p163
aV-
aV1
aV-
aV-
aV0.4
p164
aV78.4
p165
aV0.4
p166
aV-
aV6.15
p167
aa(lp168
V2017/2018
p169
aVLeicester
p170
aVEPL
p171
aV17(10)
p172
aV1330
p173
aV6
aV2
aV2
aV-
aV1
aV73.3
p174
aV1.1
p175
aV1
aV6.58
p176
aa(lp177
V2016/2017
p178
aVLeicester
p179
aVUCL
p180
aV5(2)
p181
aV338
p182
aV1
aV-
aV-
aV-
aV1
aV78.6
p183
aV1.7
p184
aV-
aV6.48
p185
aa(lp186
V2016/2017
p187
aVLeicester
p188
aVEPL
p189
aV21(9)
p190
aV1578
p191
aV3
aV1
aV1
aV-
aV1
aV74.9
p192
aV0.9
p193
aV1
aV6.50
p194
aa(lp195
V2018
p196
aVJapan
p197
aVWC
p198
aV1(2)
p199
aV68
p200
aV-
aV-
aV-
aV-
aV0.3
p201
aV70.6
p202
aV1
aV-
aV6.24
p203
aa(lp204
V2015/2016
p205
aVLeicester
p206
aVEPL
p207
aV28(8)
p208
aV2074
p209
aV5
aV-
aV1
aV-
aV1.3
p210
aV74.9
p211
aV1.5
p212
aV1
aV6.61
p213
aa(lp214
V2014/2015
p215
aVMainz 05
p216
aVGB
p217
aV31(1)
p218
aV2788
p219
aV12
p220
aV3
aV4
aV-
aV1.8
p221
aV71.2
p222
aV3.3
p223
aV2
aV7.04
p224
aa(lp225
V2013/2014
p226
aVMainz 05
p227
aVGB
p228
aV31(2)
p229
aV2719
p230
aV15
p231
aV1
aV2
aV-
aV2.2
p232
aV76
p233
aV3.4
p234
aV3
aV7.23
p235
aa(lp236
V2014
p237
aVJapan
p238
aVWC
p239
aV3
aV249
p240
aV1
aV-
aV-
aV-
aV1
aV73.3
p241
aV1.3
p242
aV-
aV6.54
p243
aa(lp244
V2013
p245
aVJapan
p246
aVICC
p247
aV3
aV270
p248
aV2
aV-
aV-
aV-
aV3.3
p249
aV73.8
p250
aV2.3
p251
aV1
aV7.60
p252
aa(lp253
V2012/2013
p254
aVVfB Stuttgart
p255
aVGB
p256
aV11(14)
p257
aV1027
p258
aV1
aV-
aV3
aV-
aV1
aV81.3
p259
aV0.7
p260
aV-
aV6.26
p261
aa(lp262
V2012/2013
p263
aVVfB Stuttgart
p264
aVUEL
p265
aV6(3)
p266
aV593
p267
aV2
aV1
aV-
aV-
aV2.4
p268
aV87.3
p269
aV0.9
p270
aV1
aV6.99
p271
aa(lp272
V2011/2012
p273
aVVfB Stuttgart
p274
aVGB
p275
aV18(8)
p276
aV1583
p277
aV7
aV-
aV4
aV-
aV1.5
p278
aV82.8
p279
aV0.5
p280
aV-
aV6.97
p281
aa(lp282
V2010/2011
p283
aVVfB Stuttgart
p284
aVGB
p285
aV12
p286
aV994
p287
aV2
aV-
aV2
aV-
aV2.4
p288
aV81
p289
aV0.5
p290
aV-
aV6.92
p291
aa(lp292
VTotal / Average
p293
aV
aV
aV257
p294
aV15768
p295
aV57
p296
aV9
aV19
p297
aV0
aV1.5
p298
aV76.7
p299
aV1.6
p300
aV10
p301
aV6.74
p302
aasS'defensive_data'
p303
(lp304
(lp305
a(lp306
V2018/2019
p307
aVLeicester
p308
aVEPL
p309
aV1(10)
p310
aV157
p311
aV-
aV1
aV-
aV-
aV0.4
p312
aV78.4
p313
aV0.4
p314
aV-
aV6.15
p315
aa(lp316
V2017/2018
p317
aVLeicester
p318
aVEPL
p319
aV17(10)
p320
aV1330
p321
aV6
aV2
aV2
aV-
aV1
aV73.3
p322
aV1.1
p323
aV1
aV6.58
p324
aa(lp325
V2016/2017
p326
aVLeicester
p327
aVUCL
p328
aV5(2)
p329
aV338
p330
aV1
aV-
aV-
aV-
aV1
aV78.6
p331
aV1.7
p332
aV-
aV6.48
p333
aa(lp334
V2016/2017
p335
aVLeicester
p336
aVEPL
p337
aV21(9)
p338
aV1578
p339
aV3
aV1
aV1
aV-
aV1
aV74.9
p340
aV0.9
p341
aV1
aV6.50
p342
aa(lp343
V2018
p344
aVJapan
p345
aVWC
p346
aV1(2)
p347
aV68
p348
aV-
aV-
aV-
aV-
aV0.3
p349
aV70.6
p350
aV1
aV-
aV6.24
p351
aa(lp352
V2015/2016
p353
aVLeicester
p354
aVEPL
p355
aV28(8)
p356
aV2074
p357
aV5
aV-
aV1
aV-
aV1.3
p358
aV74.9
p359
aV1.5
p360
aV1
aV6.61
p361
aa(lp362
V2014/2015
p363
aVMainz 05
p364
aVGB
p365
aV31(1)
p366
aV2788
p367
aV12
p368
aV3
aV4
aV-
aV1.8
p369
aV71.2
p370
aV3.3
p371
aV2
aV7.04
p372
aa(lp373
V2013/2014
p374
aVMainz 05
p375
aVGB
p376
aV31(2)
p377
aV2719
p378
aV15
p379
aV1
aV2
aV-
aV2.2
p380
aV76
p381
aV3.4
p382
aV3
aV7.23
p383
aa(lp384
V2014
p385
aVJapan
p386
aVWC
p387
aV3
aV249
p388
aV1
aV-
aV-
aV-
aV1
aV73.3
p389
aV1.3
p390
aV-
aV6.54
p391
aa(lp392
V2013
p393
aVJapan
p394
aVICC
p395
aV3
aV270
p396
aV2
aV-
aV-
aV-
aV3.3
p397
aV73.8
p398
aV2.3
p399
aV1
aV7.60
p400
aa(lp401
V2012/2013
p402
aVVfB Stuttgart
p403
aVGB
p404
aV11(14)
p405
aV1027
p406
aV1
aV-
aV3
aV-
aV1
aV81.3
p407
aV0.7
p408
aV-
aV6.26
p409
aa(lp410
V2012/2013
p411
aVVfB Stuttgart
p412
aVUEL
p413
aV6(3)
p414
aV593
p415
aV2
aV1
aV-
aV-
aV2.4
p416
aV87.3
p417
aV0.9
p418
aV1
aV6.99
p419
aa(lp420
V2011/2012
p421
aVVfB Stuttgart
p422
aVGB
p423
aV18(8)
p424
aV1583
p425
aV7
aV-
aV4
aV-
aV1.5
p426
aV82.8
p427
aV0.5
p428
aV-
aV6.97
p429
aa(lp430
V2010/2011
p431
aVVfB Stuttgart
p432
aVGB
p433
aV12
p434
aV994
p435
aV2
aV-
aV2
aV-
aV2.4
p436
aV81
p437
aV0.5
p438
aV-
aV6.92
p439
aa(lp440
VTotal / Average
p441
aV
aV
aV257
p442
aV15768
p443
aV57
p444
aV9
aV19
p445
aV0
aV1.5
p446
aV76.7
p447
aV1.6
p448
aV10
p449
aV6.74
p450
aasS'sumary_data'
p451
(lp452
(lp453
a(lp454
V2018/2019
p455
aVLeicester
p456
aVEPL
p457
aV1(10)
p458
aV157
p459
aV-
aV1
aV-
aV-
aV0.4
p460
aV78.4
p461
aV0.4
p462
aV-
aV6.15
p463
aa(lp464
V2017/2018
p465
aVLeicester
p466
aVEPL
p467
aV17(10)
p468
aV1330
p469
aV6
aV2
aV2
aV-
aV1
aV73.3
p470
aV1.1
p471
aV1
aV6.58
p472
aa(lp473
V2016/2017
p474
aVLeicester
p475
aVUCL
p476
aV5(2)
p477
aV338
p478
aV1
aV-
aV-
aV-
aV1
aV78.6
p479
aV1.7
p480
aV-
aV6.48
p481
aa(lp482
V2016/2017
p483
aVLeicester
p484
aVEPL
p485
aV21(9)
p486
aV1578
p487
aV3
aV1
aV1
aV-
aV1
aV74.9
p488
aV0.9
p489
aV1
aV6.50
p490
aa(lp491
V2018
p492
aVJapan
p493
aVWC
p494
aV1(2)
p495
aV68
p496
aV-
aV-
aV-
aV-
aV0.3
p497
aV70.6
p498
aV1
aV-
aV6.24
p499
aa(lp500
V2015/2016
p501
aVLeicester
p502
aVEPL
p503
aV28(8)
p504
aV2074
p505
aV5
aV-
aV1
aV-
aV1.3
p506
aV74.9
p507
aV1.5
p508
aV1
aV6.61
p509
aa(lp510
V2014/2015
p511
aVMainz 05
p512
aVGB
p513
aV31(1)
p514
aV2788
p515
aV12
p516
aV3
aV4
aV-
aV1.8
p517
aV71.2
p518
aV3.3
p519
aV2
aV7.04
p520
aa(lp521
V2013/2014
p522
aVMainz 05
p523
aVGB
p524
aV31(2)
p525
aV2719
p526
aV15
p527
aV1
aV2
aV-
aV2.2
p528
aV76
p529
aV3.4
p530
aV3
aV7.23
p531
aa(lp532
V2014
p533
aVJapan
p534
aVWC
p535
aV3
aV249
p536
aV1
aV-
aV-
aV-
aV1
aV73.3
p537
aV1.3
p538
aV-
aV6.54
p539
aa(lp540
V2013
p541
aVJapan
p542
aVICC
p543
aV3
aV270
p544
aV2
aV-
aV-
aV-
aV3.3
p545
aV73.8
p546
aV2.3
p547
aV1
aV7.60
p548
aa(lp549
V2012/2013
p550
aVVfB Stuttgart
p551
aVGB
p552
aV11(14)
p553
aV1027
p554
aV1
aV-
aV3
aV-
aV1
aV81.3
p555
aV0.7
p556
aV-
aV6.26
p557
aa(lp558
V2012/2013
p559
aVVfB Stuttgart
p560
aVUEL
p561
aV6(3)
p562
aV593
p563
aV2
aV1
aV-
aV-
aV2.4
p564
aV87.3
p565
aV0.9
p566
aV1
aV6.99
p567
aa(lp568
V2011/2012
p569
aVVfB Stuttgart
p570
aVGB
p571
aV18(8)
p572
aV1583
p573
aV7
aV-
aV4
aV-
aV1.5
p574
aV82.8
p575
aV0.5
p576
aV-
aV6.97
p577
aa(lp578
V2010/2011
p579
aVVfB Stuttgart
p580
aVGB
p581
aV12
p582
aV994
p583
aV2
aV-
aV2
aV-
aV2.4
p584
aV81
p585
aV0.5
p586
aV-
aV6.92
p587
aa(lp588
VTotal / Average
p589
aV
aV
aV257
p590
aV15768
p591
aV57
p592
aV9
aV19
p593
aV0
aV1.5
p594
aV76.7
p595
aV1.6
p596
aV10
p597
aV6.74
p598
aasS'id'
p599
V26222
p600
sb.