(i__main__
Player
p1
(dp2
S'name'
p3
VAaron Ramsey 
p4
sS'offensive_data'
p5
(lp6
(lp7
a(lp8
V2018/2019
p9
aVArsenal
p10
aVEPL
p11
aV7(8)
p12
aV656
p13
aV1
aV6
aV-
aV-
aV0.9
p14
aV80.5
p15
aV0.4
p16
aV-
aV6.71
p17
aa(lp18
V2018/2019
p19
aVArsenal
p20
aVUEL
p21
aV3
aV248
p22
aV1
aV-
aV-
aV-
aV1
aV88
p23
aV1
aV-
aV7.35
p24
aa(lp25
V2018/2019
p26
aVWales
p27
aVUNL
p28
aV3
aV270
p29
aV1
aV-
aV-
aV-
aV2.3
p30
aV86.4
p31
aV1.3
p32
aV-
aV6.81
p33
aa(lp34
V2017/2018
p35
aVArsenal
p36
aVUEL
p37
aV6
aV540
p38
aV4
aV1
aV1
aV-
aV4
aV83.1
p39
aV0.8
p40
aV-
aV7.80
p41
aa(lp42
V2017/2018
p43
aVArsenal
p44
aVEPL
p45
aV21(3)
p46
aV1848
p47
aV7
aV8
aV-
aV-
aV2.3
p48
aV84.9
p49
aV0.4
p50
aV1
aV7.27
p51
aa(lp52
V2016/2017
p53
aVArsenal
p54
aVUCL
p55
aV4
aV307
p56
aV-
aV1
aV-
aV-
aV1.8
p57
aV85.8
p58
aV0.3
p59
aV-
aV6.99
p60
aa(lp61
V2016/2017
p62
aVArsenal
p63
aVEPL
p64
aV13(10)
p65
aV1231
p66
aV1
aV4
aV3
aV-
aV1.8
p67
aV88.4
p68
aV0.3
p69
aV1
aV6.72
p70
aa(lp71
V2015/2016
p72
aVArsenal
p73
aVUCL
p74
aV3(2)
p75
aV291
p76
aV-
aV1
aV1
aV-
aV1.2
p77
aV85.7
p78
aV0.8
p79
aV-
aV6.63
p80
aa(lp81
V2015/2016
p82
aVArsenal
p83
aVEPL
p84
aV29(2)
p85
aV2624
p86
aV5
aV4
aV4
aV-
aV2.2
p87
aV86.1
p88
aV0.9
p89
aV2
aV7.21
p90
aa(lp91
V2014/2015
p92
aVArsenal
p93
aVUCL
p94
aV5(1)
p95
aV405
p96
aV3
aV1
aV-
aV-
aV1.3
p97
aV86.5
p98
aV0.7
p99
aV1
aV7.46
p100
aa(lp101
V2014/2015
p102
aVArsenal
p103
aVEPL
p104
aV23(6)
p105
aV2010
p106
aV6
aV6
aV6
aV-
aV2.2
p107
aV86
p108
aV0.6
p109
aV1
aV7.07
p110
aa(lp111
V2016
p112
aVWales
p113
aVUEC
p114
aV5
aV448
p115
aV1
aV4
aV2
aV-
aV2.4
p116
aV81.6
p117
aV0.8
p118
aV-
aV7.70
p119
aa(lp120
V2013/2014
p121
aVArsenal
p122
aVUCL
p123
aV5(1)
p124
aV466
p125
aV2
aV1
aV2
aV-
aV1.7
p126
aV85.9
p127
aV0.7
p128
aV1
aV7.22
p129
aa(lp130
V2013/2014
p131
aVArsenal
p132
aVEPL
p133
aV20(3)
p134
aV1764
p135
aV10
p136
aV8
aV3
aV-
aV2.2
p137
aV84.4
p138
aV0.5
p139
aV6
aV7.76
p140
aa(lp141
V2012/2013
p142
aVArsenal
p143
aVUCL
p144
aV4(3)
p145
aV369
p146
aV1
aV-
aV2
aV-
aV0.3
p147
aV79.6
p148
aV0.7
p149
aV-
aV6.49
p150
aa(lp151
V2012/2013
p152
aVArsenal
p153
aVEPL
p154
aV21(15)
p155
aV2087
p156
aV1
aV2
aV5
aV-
aV1.3
p157
aV88.2
p158
aV0.4
p159
aV1
aV6.96
p160
aa(lp161
V2011/2012
p162
aVArsenal
p163
aVUCL
p164
aV3(2)
p165
aV281
p166
aV1
aV-
aV1
aV-
aV1
aV76.4
p167
aV0.6
p168
aV-
aV6.61
p169
aa(lp170
V2011/2012
p171
aVArsenal
p172
aVEPL
p173
aV27(7)
p174
aV2466
p175
aV2
aV4
aV3
aV-
aV1.8
p176
aV87.3
p177
aV0.3
p178
aV-
aV6.77
p179
aa(lp180
V2010/2011
p181
aVArsenal
p182
aVEPL
p183
aV5(2)
p184
aV356
p185
aV1
aV-
aV1
aV-
aV1.4
p186
aV89.7
p187
aV-
aV-
aV6.46
p188
aa(lp189
V2009/2010
p190
aVArsenal
p191
aVUCL
p192
aV1(4)
p193
aV145
p194
aV-
aV-
aV-
aV-
aV1.4
p195
aV80.8
p196
aV-
aV-
aV6.54
p197
aa(lp198
V2009/2010
p199
aVArsenal
p200
aVEPL
p201
aV7(11)
p202
aV780
p203
aV3
aV3
aV-
aV-
aV1.1
p204
aV85.6
p205
aV0.7
p206
aV1
aV6.86
p207
aa(lp208
VTotal / Average
p209
aV
aV
aV295
p210
aV19592
p211
aV51
p212
aV54
p213
aV34
p214
aV0
aV1.8
p215
aV85.7
p216
aV0.5
p217
aV15
p218
aV7.03
p219
aasS'url'
p220
S'https://www.whoscored.com/Players/26820/History/'
p221
sS'passing_data'
p222
(lp223
(lp224
a(lp225
V2018/2019
p226
aVArsenal
p227
aVEPL
p228
aV7(8)
p229
aV656
p230
aV1
aV6
aV-
aV-
aV0.9
p231
aV80.5
p232
aV0.4
p233
aV-
aV6.71
p234
aa(lp235
V2018/2019
p236
aVArsenal
p237
aVUEL
p238
aV3
aV248
p239
aV1
aV-
aV-
aV-
aV1
aV88
p240
aV1
aV-
aV7.35
p241
aa(lp242
V2018/2019
p243
aVWales
p244
aVUNL
p245
aV3
aV270
p246
aV1
aV-
aV-
aV-
aV2.3
p247
aV86.4
p248
aV1.3
p249
aV-
aV6.81
p250
aa(lp251
V2017/2018
p252
aVArsenal
p253
aVUEL
p254
aV6
aV540
p255
aV4
aV1
aV1
aV-
aV4
aV83.1
p256
aV0.8
p257
aV-
aV7.80
p258
aa(lp259
V2017/2018
p260
aVArsenal
p261
aVEPL
p262
aV21(3)
p263
aV1848
p264
aV7
aV8
aV-
aV-
aV2.3
p265
aV84.9
p266
aV0.4
p267
aV1
aV7.27
p268
aa(lp269
V2016/2017
p270
aVArsenal
p271
aVUCL
p272
aV4
aV307
p273
aV-
aV1
aV-
aV-
aV1.8
p274
aV85.8
p275
aV0.3
p276
aV-
aV6.99
p277
aa(lp278
V2016/2017
p279
aVArsenal
p280
aVEPL
p281
aV13(10)
p282
aV1231
p283
aV1
aV4
aV3
aV-
aV1.8
p284
aV88.4
p285
aV0.3
p286
aV1
aV6.72
p287
aa(lp288
V2015/2016
p289
aVArsenal
p290
aVUCL
p291
aV3(2)
p292
aV291
p293
aV-
aV1
aV1
aV-
aV1.2
p294
aV85.7
p295
aV0.8
p296
aV-
aV6.63
p297
aa(lp298
V2015/2016
p299
aVArsenal
p300
aVEPL
p301
aV29(2)
p302
aV2624
p303
aV5
aV4
aV4
aV-
aV2.2
p304
aV86.1
p305
aV0.9
p306
aV2
aV7.21
p307
aa(lp308
V2014/2015
p309
aVArsenal
p310
aVUCL
p311
aV5(1)
p312
aV405
p313
aV3
aV1
aV-
aV-
aV1.3
p314
aV86.5
p315
aV0.7
p316
aV1
aV7.46
p317
aa(lp318
V2014/2015
p319
aVArsenal
p320
aVEPL
p321
aV23(6)
p322
aV2010
p323
aV6
aV6
aV6
aV-
aV2.2
p324
aV86
p325
aV0.6
p326
aV1
aV7.07
p327
aa(lp328
V2016
p329
aVWales
p330
aVUEC
p331
aV5
aV448
p332
aV1
aV4
aV2
aV-
aV2.4
p333
aV81.6
p334
aV0.8
p335
aV-
aV7.70
p336
aa(lp337
V2013/2014
p338
aVArsenal
p339
aVUCL
p340
aV5(1)
p341
aV466
p342
aV2
aV1
aV2
aV-
aV1.7
p343
aV85.9
p344
aV0.7
p345
aV1
aV7.22
p346
aa(lp347
V2013/2014
p348
aVArsenal
p349
aVEPL
p350
aV20(3)
p351
aV1764
p352
aV10
p353
aV8
aV3
aV-
aV2.2
p354
aV84.4
p355
aV0.5
p356
aV6
aV7.76
p357
aa(lp358
V2012/2013
p359
aVArsenal
p360
aVUCL
p361
aV4(3)
p362
aV369
p363
aV1
aV-
aV2
aV-
aV0.3
p364
aV79.6
p365
aV0.7
p366
aV-
aV6.49
p367
aa(lp368
V2012/2013
p369
aVArsenal
p370
aVEPL
p371
aV21(15)
p372
aV2087
p373
aV1
aV2
aV5
aV-
aV1.3
p374
aV88.2
p375
aV0.4
p376
aV1
aV6.96
p377
aa(lp378
V2011/2012
p379
aVArsenal
p380
aVUCL
p381
aV3(2)
p382
aV281
p383
aV1
aV-
aV1
aV-
aV1
aV76.4
p384
aV0.6
p385
aV-
aV6.61
p386
aa(lp387
V2011/2012
p388
aVArsenal
p389
aVEPL
p390
aV27(7)
p391
aV2466
p392
aV2
aV4
aV3
aV-
aV1.8
p393
aV87.3
p394
aV0.3
p395
aV-
aV6.77
p396
aa(lp397
V2010/2011
p398
aVArsenal
p399
aVEPL
p400
aV5(2)
p401
aV356
p402
aV1
aV-
aV1
aV-
aV1.4
p403
aV89.7
p404
aV-
aV-
aV6.46
p405
aa(lp406
V2009/2010
p407
aVArsenal
p408
aVUCL
p409
aV1(4)
p410
aV145
p411
aV-
aV-
aV-
aV-
aV1.4
p412
aV80.8
p413
aV-
aV-
aV6.54
p414
aa(lp415
V2009/2010
p416
aVArsenal
p417
aVEPL
p418
aV7(11)
p419
aV780
p420
aV3
aV3
aV-
aV-
aV1.1
p421
aV85.6
p422
aV0.7
p423
aV1
aV6.86
p424
aa(lp425
VTotal / Average
p426
aV
aV
aV295
p427
aV19592
p428
aV51
p429
aV54
p430
aV34
p431
aV0
aV1.8
p432
aV85.7
p433
aV0.5
p434
aV15
p435
aV7.03
p436
aasS'defensive_data'
p437
(lp438
(lp439
a(lp440
V2018/2019
p441
aVArsenal
p442
aVEPL
p443
aV7(8)
p444
aV656
p445
aV1
aV6
aV-
aV-
aV0.9
p446
aV80.5
p447
aV0.4
p448
aV-
aV6.71
p449
aa(lp450
V2018/2019
p451
aVArsenal
p452
aVUEL
p453
aV3
aV248
p454
aV1
aV-
aV-
aV-
aV1
aV88
p455
aV1
aV-
aV7.35
p456
aa(lp457
V2018/2019
p458
aVWales
p459
aVUNL
p460
aV3
aV270
p461
aV1
aV-
aV-
aV-
aV2.3
p462
aV86.4
p463
aV1.3
p464
aV-
aV6.81
p465
aa(lp466
V2017/2018
p467
aVArsenal
p468
aVUEL
p469
aV6
aV540
p470
aV4
aV1
aV1
aV-
aV4
aV83.1
p471
aV0.8
p472
aV-
aV7.80
p473
aa(lp474
V2017/2018
p475
aVArsenal
p476
aVEPL
p477
aV21(3)
p478
aV1848
p479
aV7
aV8
aV-
aV-
aV2.3
p480
aV84.9
p481
aV0.4
p482
aV1
aV7.27
p483
aa(lp484
V2016/2017
p485
aVArsenal
p486
aVUCL
p487
aV4
aV307
p488
aV-
aV1
aV-
aV-
aV1.8
p489
aV85.8
p490
aV0.3
p491
aV-
aV6.99
p492
aa(lp493
V2016/2017
p494
aVArsenal
p495
aVEPL
p496
aV13(10)
p497
aV1231
p498
aV1
aV4
aV3
aV-
aV1.8
p499
aV88.4
p500
aV0.3
p501
aV1
aV6.72
p502
aa(lp503
V2015/2016
p504
aVArsenal
p505
aVUCL
p506
aV3(2)
p507
aV291
p508
aV-
aV1
aV1
aV-
aV1.2
p509
aV85.7
p510
aV0.8
p511
aV-
aV6.63
p512
aa(lp513
V2015/2016
p514
aVArsenal
p515
aVEPL
p516
aV29(2)
p517
aV2624
p518
aV5
aV4
aV4
aV-
aV2.2
p519
aV86.1
p520
aV0.9
p521
aV2
aV7.21
p522
aa(lp523
V2014/2015
p524
aVArsenal
p525
aVUCL
p526
aV5(1)
p527
aV405
p528
aV3
aV1
aV-
aV-
aV1.3
p529
aV86.5
p530
aV0.7
p531
aV1
aV7.46
p532
aa(lp533
V2014/2015
p534
aVArsenal
p535
aVEPL
p536
aV23(6)
p537
aV2010
p538
aV6
aV6
aV6
aV-
aV2.2
p539
aV86
p540
aV0.6
p541
aV1
aV7.07
p542
aa(lp543
V2016
p544
aVWales
p545
aVUEC
p546
aV5
aV448
p547
aV1
aV4
aV2
aV-
aV2.4
p548
aV81.6
p549
aV0.8
p550
aV-
aV7.70
p551
aa(lp552
V2013/2014
p553
aVArsenal
p554
aVUCL
p555
aV5(1)
p556
aV466
p557
aV2
aV1
aV2
aV-
aV1.7
p558
aV85.9
p559
aV0.7
p560
aV1
aV7.22
p561
aa(lp562
V2013/2014
p563
aVArsenal
p564
aVEPL
p565
aV20(3)
p566
aV1764
p567
aV10
p568
aV8
aV3
aV-
aV2.2
p569
aV84.4
p570
aV0.5
p571
aV6
aV7.76
p572
aa(lp573
V2012/2013
p574
aVArsenal
p575
aVUCL
p576
aV4(3)
p577
aV369
p578
aV1
aV-
aV2
aV-
aV0.3
p579
aV79.6
p580
aV0.7
p581
aV-
aV6.49
p582
aa(lp583
V2012/2013
p584
aVArsenal
p585
aVEPL
p586
aV21(15)
p587
aV2087
p588
aV1
aV2
aV5
aV-
aV1.3
p589
aV88.2
p590
aV0.4
p591
aV1
aV6.96
p592
aa(lp593
V2011/2012
p594
aVArsenal
p595
aVUCL
p596
aV3(2)
p597
aV281
p598
aV1
aV-
aV1
aV-
aV1
aV76.4
p599
aV0.6
p600
aV-
aV6.61
p601
aa(lp602
V2011/2012
p603
aVArsenal
p604
aVEPL
p605
aV27(7)
p606
aV2466
p607
aV2
aV4
aV3
aV-
aV1.8
p608
aV87.3
p609
aV0.3
p610
aV-
aV6.77
p611
aa(lp612
V2010/2011
p613
aVArsenal
p614
aVEPL
p615
aV5(2)
p616
aV356
p617
aV1
aV-
aV1
aV-
aV1.4
p618
aV89.7
p619
aV-
aV-
aV6.46
p620
aa(lp621
V2009/2010
p622
aVArsenal
p623
aVUCL
p624
aV1(4)
p625
aV145
p626
aV-
aV-
aV-
aV-
aV1.4
p627
aV80.8
p628
aV-
aV-
aV6.54
p629
aa(lp630
V2009/2010
p631
aVArsenal
p632
aVEPL
p633
aV7(11)
p634
aV780
p635
aV3
aV3
aV-
aV-
aV1.1
p636
aV85.6
p637
aV0.7
p638
aV1
aV6.86
p639
aa(lp640
VTotal / Average
p641
aV
aV
aV295
p642
aV19592
p643
aV51
p644
aV54
p645
aV34
p646
aV0
aV1.8
p647
aV85.7
p648
aV0.5
p649
aV15
p650
aV7.03
p651
aasS'sumary_data'
p652
(lp653
(lp654
a(lp655
V2018/2019
p656
aVArsenal
p657
aVEPL
p658
aV7(8)
p659
aV656
p660
aV1
aV6
aV-
aV-
aV0.9
p661
aV80.5
p662
aV0.4
p663
aV-
aV6.71
p664
aa(lp665
V2018/2019
p666
aVArsenal
p667
aVUEL
p668
aV3
aV248
p669
aV1
aV-
aV-
aV-
aV1
aV88
p670
aV1
aV-
aV7.35
p671
aa(lp672
V2018/2019
p673
aVWales
p674
aVUNL
p675
aV3
aV270
p676
aV1
aV-
aV-
aV-
aV2.3
p677
aV86.4
p678
aV1.3
p679
aV-
aV6.81
p680
aa(lp681
V2017/2018
p682
aVArsenal
p683
aVUEL
p684
aV6
aV540
p685
aV4
aV1
aV1
aV-
aV4
aV83.1
p686
aV0.8
p687
aV-
aV7.80
p688
aa(lp689
V2017/2018
p690
aVArsenal
p691
aVEPL
p692
aV21(3)
p693
aV1848
p694
aV7
aV8
aV-
aV-
aV2.3
p695
aV84.9
p696
aV0.4
p697
aV1
aV7.27
p698
aa(lp699
V2016/2017
p700
aVArsenal
p701
aVUCL
p702
aV4
aV307
p703
aV-
aV1
aV-
aV-
aV1.8
p704
aV85.8
p705
aV0.3
p706
aV-
aV6.99
p707
aa(lp708
V2016/2017
p709
aVArsenal
p710
aVEPL
p711
aV13(10)
p712
aV1231
p713
aV1
aV4
aV3
aV-
aV1.8
p714
aV88.4
p715
aV0.3
p716
aV1
aV6.72
p717
aa(lp718
V2015/2016
p719
aVArsenal
p720
aVUCL
p721
aV3(2)
p722
aV291
p723
aV-
aV1
aV1
aV-
aV1.2
p724
aV85.7
p725
aV0.8
p726
aV-
aV6.63
p727
aa(lp728
V2015/2016
p729
aVArsenal
p730
aVEPL
p731
aV29(2)
p732
aV2624
p733
aV5
aV4
aV4
aV-
aV2.2
p734
aV86.1
p735
aV0.9
p736
aV2
aV7.21
p737
aa(lp738
V2014/2015
p739
aVArsenal
p740
aVUCL
p741
aV5(1)
p742
aV405
p743
aV3
aV1
aV-
aV-
aV1.3
p744
aV86.5
p745
aV0.7
p746
aV1
aV7.46
p747
aa(lp748
V2014/2015
p749
aVArsenal
p750
aVEPL
p751
aV23(6)
p752
aV2010
p753
aV6
aV6
aV6
aV-
aV2.2
p754
aV86
p755
aV0.6
p756
aV1
aV7.07
p757
aa(lp758
V2016
p759
aVWales
p760
aVUEC
p761
aV5
aV448
p762
aV1
aV4
aV2
aV-
aV2.4
p763
aV81.6
p764
aV0.8
p765
aV-
aV7.70
p766
aa(lp767
V2013/2014
p768
aVArsenal
p769
aVUCL
p770
aV5(1)
p771
aV466
p772
aV2
aV1
aV2
aV-
aV1.7
p773
aV85.9
p774
aV0.7
p775
aV1
aV7.22
p776
aa(lp777
V2013/2014
p778
aVArsenal
p779
aVEPL
p780
aV20(3)
p781
aV1764
p782
aV10
p783
aV8
aV3
aV-
aV2.2
p784
aV84.4
p785
aV0.5
p786
aV6
aV7.76
p787
aa(lp788
V2012/2013
p789
aVArsenal
p790
aVUCL
p791
aV4(3)
p792
aV369
p793
aV1
aV-
aV2
aV-
aV0.3
p794
aV79.6
p795
aV0.7
p796
aV-
aV6.49
p797
aa(lp798
V2012/2013
p799
aVArsenal
p800
aVEPL
p801
aV21(15)
p802
aV2087
p803
aV1
aV2
aV5
aV-
aV1.3
p804
aV88.2
p805
aV0.4
p806
aV1
aV6.96
p807
aa(lp808
V2011/2012
p809
aVArsenal
p810
aVUCL
p811
aV3(2)
p812
aV281
p813
aV1
aV-
aV1
aV-
aV1
aV76.4
p814
aV0.6
p815
aV-
aV6.61
p816
aa(lp817
V2011/2012
p818
aVArsenal
p819
aVEPL
p820
aV27(7)
p821
aV2466
p822
aV2
aV4
aV3
aV-
aV1.8
p823
aV87.3
p824
aV0.3
p825
aV-
aV6.77
p826
aa(lp827
V2010/2011
p828
aVArsenal
p829
aVEPL
p830
aV5(2)
p831
aV356
p832
aV1
aV-
aV1
aV-
aV1.4
p833
aV89.7
p834
aV-
aV-
aV6.46
p835
aa(lp836
V2009/2010
p837
aVArsenal
p838
aVUCL
p839
aV1(4)
p840
aV145
p841
aV-
aV-
aV-
aV-
aV1.4
p842
aV80.8
p843
aV-
aV-
aV6.54
p844
aa(lp845
V2009/2010
p846
aVArsenal
p847
aVEPL
p848
aV7(11)
p849
aV780
p850
aV3
aV3
aV-
aV-
aV1.1
p851
aV85.6
p852
aV0.7
p853
aV1
aV6.86
p854
aa(lp855
VTotal / Average
p856
aV
aV
aV295
p857
aV19592
p858
aV51
p859
aV54
p860
aV34
p861
aV0
aV1.8
p862
aV85.7
p863
aV0.5
p864
aV15
p865
aV7.03
p866
aasS'id'
p867
V26820
p868
sb.