(i__main__
Player
p1
(dp2
S'name'
p3
VFabian Delph 
p4
sS'offensive_data'
p5
(lp6
(lp7
a(lp8
V2018/2019
p9
aVManchester Ci..
p10
aVEPL
p11
aV6(2)
p12
aV564
p13
aV-
aV-
aV1
aV-
aV0.3
p14
aV91.7
p15
aV0.8
p16
aV-
aV7.05
p17
aa(lp18
V2018/2019
p19
aVManchester Ci..
p20
aVUCL
p21
aV1(3)
p22
aV149
p23
aV-
aV-
aV-
aV-
aV1.3
p24
aV90.9
p25
aV0.8
p26
aV-
aV6.16
p27
aa(lp28
V2018/2019
p29
aVEngland
p30
aVUNL
p31
aV1
aV73
p32
aV-
aV-
aV-
aV-
aV-
aV88.7
p33
aV1
aV-
aV6.39
p34
aa(lp35
V2017/2018
p36
aVManchester Ci..
p37
aVUCL
p38
aV4(1)
p39
aV383
p40
aV-
aV-
aV-
aV-
aV0.2
p41
aV92.7
p42
aV0.6
p43
aV-
aV7.04
p44
aa(lp45
V2017/2018
p46
aVManchester Ci..
p47
aVEPL
p48
aV21(1)
p49
aV1746
p50
aV1
aV2
aV2
aV-
aV0.5
p51
aV93
p52
aV1
aV1
aV7.16
p53
aa(lp54
V2016/2017
p55
aVManchester Ci..
p56
aVEPL
p57
aV2(5)
p58
aV220
p59
aV1
aV-
aV1
aV-
aV0.9
p60
aV93.3
p61
aV0.6
p62
aV-
aV6.56
p63
aa(lp64
V2018
p65
aVEngland
p66
aVWC
p67
aV2(2)
p68
aV220
p69
aV-
aV-
aV-
aV-
aV0.8
p70
aV90.7
p71
aV0.5
p72
aV-
aV6.53
p73
aa(lp74
V2015/2016
p75
aVManchester Ci..
p76
aVUCL
p77
aV1(4)
p78
aV116
p79
aV-
aV-
aV-
aV-
aV0.2
p80
aV87.7
p81
aV0.2
p82
aV-
aV6.16
p83
aa(lp84
V2015/2016
p85
aVManchester Ci..
p86
aVEPL
p87
aV8(9)
p88
aV756
p89
aV2
aV-
aV-
aV-
aV0.8
p90
aV85.7
p91
aV0.4
p92
aV1
aV6.75
p93
aa(lp94
V2014/2015
p95
aVAston Villa
p96
aVEPL
p97
aV27(1)
p98
aV2434
p99
aV-
aV3
aV1
aV1
aV1.5
p100
aV85.2
p101
aV0.7
p102
aV1
aV7.08
p103
aa(lp104
V2013/2014
p105
aVAston Villa
p106
aVEPL
p107
aV33(1)
p108
aV3003
p109
aV3
aV2
aV7
aV-
aV1.1
p110
aV83.6
p111
aV1
aV2
aV7.12
p112
aa(lp113
V2012/2013
p114
aVAston Villa
p115
aVEPL
p116
aV19(5)
p117
aV1703
p118
aV-
aV-
aV6
aV-
aV0.7
p119
aV87.8
p120
aV0.5
p121
aV-
aV6.88
p122
aa(lp123
V2011/2012
p124
aVAston Villa
p125
aVEPL
p126
aV10(1)
p127
aV855
p128
aV-
aV-
aV3
aV-
aV0.6
p129
aV81.3
p130
aV0.5
p131
aV-
aV6.66
p132
aa(lp133
V2010/2011
p134
aVAston Villa
p135
aVEPL
p136
aV4(3)
p137
aV415
p138
aV-
aV-
aV1
aV-
aV0.3
p139
aV83.3
p140
aV0.3
p141
aV-
aV6.63
p142
aa(lp143
V2009/2010
p144
aVAston Villa
p145
aVEPL
p146
aV4(4)
p147
aV292
p148
aV-
aV-
aV3
aV-
aV0.4
p149
aV84.4
p150
aV0.3
p151
aV-
aV6.44
p152
aa(lp153
VTotal / Average
p154
aV
aV
aV185
p155
aV12929
p156
aV7
aV7
aV25
p157
aV1
aV0.8
p158
aV87
p159
aV0.7
p160
aV5
aV6.89
p161
aasS'url'
p162
S'https://www.whoscored.com/Players/27213/History/'
p163
sS'passing_data'
p164
(lp165
(lp166
a(lp167
V2018/2019
p168
aVManchester Ci..
p169
aVEPL
p170
aV6(2)
p171
aV564
p172
aV-
aV-
aV1
aV-
aV0.3
p173
aV91.7
p174
aV0.8
p175
aV-
aV7.05
p176
aa(lp177
V2018/2019
p178
aVManchester Ci..
p179
aVUCL
p180
aV1(3)
p181
aV149
p182
aV-
aV-
aV-
aV-
aV1.3
p183
aV90.9
p184
aV0.8
p185
aV-
aV6.16
p186
aa(lp187
V2018/2019
p188
aVEngland
p189
aVUNL
p190
aV1
aV73
p191
aV-
aV-
aV-
aV-
aV-
aV88.7
p192
aV1
aV-
aV6.39
p193
aa(lp194
V2017/2018
p195
aVManchester Ci..
p196
aVUCL
p197
aV4(1)
p198
aV383
p199
aV-
aV-
aV-
aV-
aV0.2
p200
aV92.7
p201
aV0.6
p202
aV-
aV7.04
p203
aa(lp204
V2017/2018
p205
aVManchester Ci..
p206
aVEPL
p207
aV21(1)
p208
aV1746
p209
aV1
aV2
aV2
aV-
aV0.5
p210
aV93
p211
aV1
aV1
aV7.16
p212
aa(lp213
V2016/2017
p214
aVManchester Ci..
p215
aVEPL
p216
aV2(5)
p217
aV220
p218
aV1
aV-
aV1
aV-
aV0.9
p219
aV93.3
p220
aV0.6
p221
aV-
aV6.56
p222
aa(lp223
V2018
p224
aVEngland
p225
aVWC
p226
aV2(2)
p227
aV220
p228
aV-
aV-
aV-
aV-
aV0.8
p229
aV90.7
p230
aV0.5
p231
aV-
aV6.53
p232
aa(lp233
V2015/2016
p234
aVManchester Ci..
p235
aVUCL
p236
aV1(4)
p237
aV116
p238
aV-
aV-
aV-
aV-
aV0.2
p239
aV87.7
p240
aV0.2
p241
aV-
aV6.16
p242
aa(lp243
V2015/2016
p244
aVManchester Ci..
p245
aVEPL
p246
aV8(9)
p247
aV756
p248
aV2
aV-
aV-
aV-
aV0.8
p249
aV85.7
p250
aV0.4
p251
aV1
aV6.75
p252
aa(lp253
V2014/2015
p254
aVAston Villa
p255
aVEPL
p256
aV27(1)
p257
aV2434
p258
aV-
aV3
aV1
aV1
aV1.5
p259
aV85.2
p260
aV0.7
p261
aV1
aV7.08
p262
aa(lp263
V2013/2014
p264
aVAston Villa
p265
aVEPL
p266
aV33(1)
p267
aV3003
p268
aV3
aV2
aV7
aV-
aV1.1
p269
aV83.6
p270
aV1
aV2
aV7.12
p271
aa(lp272
V2012/2013
p273
aVAston Villa
p274
aVEPL
p275
aV19(5)
p276
aV1703
p277
aV-
aV-
aV6
aV-
aV0.7
p278
aV87.8
p279
aV0.5
p280
aV-
aV6.88
p281
aa(lp282
V2011/2012
p283
aVAston Villa
p284
aVEPL
p285
aV10(1)
p286
aV855
p287
aV-
aV-
aV3
aV-
aV0.6
p288
aV81.3
p289
aV0.5
p290
aV-
aV6.66
p291
aa(lp292
V2010/2011
p293
aVAston Villa
p294
aVEPL
p295
aV4(3)
p296
aV415
p297
aV-
aV-
aV1
aV-
aV0.3
p298
aV83.3
p299
aV0.3
p300
aV-
aV6.63
p301
aa(lp302
V2009/2010
p303
aVAston Villa
p304
aVEPL
p305
aV4(4)
p306
aV292
p307
aV-
aV-
aV3
aV-
aV0.4
p308
aV84.4
p309
aV0.3
p310
aV-
aV6.44
p311
aa(lp312
VTotal / Average
p313
aV
aV
aV185
p314
aV12929
p315
aV7
aV7
aV25
p316
aV1
aV0.8
p317
aV87
p318
aV0.7
p319
aV5
aV6.89
p320
aasS'defensive_data'
p321
(lp322
(lp323
a(lp324
V2018/2019
p325
aVManchester Ci..
p326
aVEPL
p327
aV6(2)
p328
aV564
p329
aV-
aV-
aV1
aV-
aV0.3
p330
aV91.7
p331
aV0.8
p332
aV-
aV7.05
p333
aa(lp334
V2018/2019
p335
aVManchester Ci..
p336
aVUCL
p337
aV1(3)
p338
aV149
p339
aV-
aV-
aV-
aV-
aV1.3
p340
aV90.9
p341
aV0.8
p342
aV-
aV6.16
p343
aa(lp344
V2018/2019
p345
aVEngland
p346
aVUNL
p347
aV1
aV73
p348
aV-
aV-
aV-
aV-
aV-
aV88.7
p349
aV1
aV-
aV6.39
p350
aa(lp351
V2017/2018
p352
aVManchester Ci..
p353
aVUCL
p354
aV4(1)
p355
aV383
p356
aV-
aV-
aV-
aV-
aV0.2
p357
aV92.7
p358
aV0.6
p359
aV-
aV7.04
p360
aa(lp361
V2017/2018
p362
aVManchester Ci..
p363
aVEPL
p364
aV21(1)
p365
aV1746
p366
aV1
aV2
aV2
aV-
aV0.5
p367
aV93
p368
aV1
aV1
aV7.16
p369
aa(lp370
V2016/2017
p371
aVManchester Ci..
p372
aVEPL
p373
aV2(5)
p374
aV220
p375
aV1
aV-
aV1
aV-
aV0.9
p376
aV93.3
p377
aV0.6
p378
aV-
aV6.56
p379
aa(lp380
V2018
p381
aVEngland
p382
aVWC
p383
aV2(2)
p384
aV220
p385
aV-
aV-
aV-
aV-
aV0.8
p386
aV90.7
p387
aV0.5
p388
aV-
aV6.53
p389
aa(lp390
V2015/2016
p391
aVManchester Ci..
p392
aVUCL
p393
aV1(4)
p394
aV116
p395
aV-
aV-
aV-
aV-
aV0.2
p396
aV87.7
p397
aV0.2
p398
aV-
aV6.16
p399
aa(lp400
V2015/2016
p401
aVManchester Ci..
p402
aVEPL
p403
aV8(9)
p404
aV756
p405
aV2
aV-
aV-
aV-
aV0.8
p406
aV85.7
p407
aV0.4
p408
aV1
aV6.75
p409
aa(lp410
V2014/2015
p411
aVAston Villa
p412
aVEPL
p413
aV27(1)
p414
aV2434
p415
aV-
aV3
aV1
aV1
aV1.5
p416
aV85.2
p417
aV0.7
p418
aV1
aV7.08
p419
aa(lp420
V2013/2014
p421
aVAston Villa
p422
aVEPL
p423
aV33(1)
p424
aV3003
p425
aV3
aV2
aV7
aV-
aV1.1
p426
aV83.6
p427
aV1
aV2
aV7.12
p428
aa(lp429
V2012/2013
p430
aVAston Villa
p431
aVEPL
p432
aV19(5)
p433
aV1703
p434
aV-
aV-
aV6
aV-
aV0.7
p435
aV87.8
p436
aV0.5
p437
aV-
aV6.88
p438
aa(lp439
V2011/2012
p440
aVAston Villa
p441
aVEPL
p442
aV10(1)
p443
aV855
p444
aV-
aV-
aV3
aV-
aV0.6
p445
aV81.3
p446
aV0.5
p447
aV-
aV6.66
p448
aa(lp449
V2010/2011
p450
aVAston Villa
p451
aVEPL
p452
aV4(3)
p453
aV415
p454
aV-
aV-
aV1
aV-
aV0.3
p455
aV83.3
p456
aV0.3
p457
aV-
aV6.63
p458
aa(lp459
V2009/2010
p460
aVAston Villa
p461
aVEPL
p462
aV4(4)
p463
aV292
p464
aV-
aV-
aV3
aV-
aV0.4
p465
aV84.4
p466
aV0.3
p467
aV-
aV6.44
p468
aa(lp469
VTotal / Average
p470
aV
aV
aV185
p471
aV12929
p472
aV7
aV7
aV25
p473
aV1
aV0.8
p474
aV87
p475
aV0.7
p476
aV5
aV6.89
p477
aasS'sumary_data'
p478
(lp479
(lp480
a(lp481
V2018/2019
p482
aVManchester Ci..
p483
aVEPL
p484
aV6(2)
p485
aV564
p486
aV-
aV-
aV1
aV-
aV0.3
p487
aV91.7
p488
aV0.8
p489
aV-
aV7.05
p490
aa(lp491
V2018/2019
p492
aVManchester Ci..
p493
aVUCL
p494
aV1(3)
p495
aV149
p496
aV-
aV-
aV-
aV-
aV1.3
p497
aV90.9
p498
aV0.8
p499
aV-
aV6.16
p500
aa(lp501
V2018/2019
p502
aVEngland
p503
aVUNL
p504
aV1
aV73
p505
aV-
aV-
aV-
aV-
aV-
aV88.7
p506
aV1
aV-
aV6.39
p507
aa(lp508
V2017/2018
p509
aVManchester Ci..
p510
aVUCL
p511
aV4(1)
p512
aV383
p513
aV-
aV-
aV-
aV-
aV0.2
p514
aV92.7
p515
aV0.6
p516
aV-
aV7.04
p517
aa(lp518
V2017/2018
p519
aVManchester Ci..
p520
aVEPL
p521
aV21(1)
p522
aV1746
p523
aV1
aV2
aV2
aV-
aV0.5
p524
aV93
p525
aV1
aV1
aV7.16
p526
aa(lp527
V2016/2017
p528
aVManchester Ci..
p529
aVEPL
p530
aV2(5)
p531
aV220
p532
aV1
aV-
aV1
aV-
aV0.9
p533
aV93.3
p534
aV0.6
p535
aV-
aV6.56
p536
aa(lp537
V2018
p538
aVEngland
p539
aVWC
p540
aV2(2)
p541
aV220
p542
aV-
aV-
aV-
aV-
aV0.8
p543
aV90.7
p544
aV0.5
p545
aV-
aV6.53
p546
aa(lp547
V2015/2016
p548
aVManchester Ci..
p549
aVUCL
p550
aV1(4)
p551
aV116
p552
aV-
aV-
aV-
aV-
aV0.2
p553
aV87.7
p554
aV0.2
p555
aV-
aV6.16
p556
aa(lp557
V2015/2016
p558
aVManchester Ci..
p559
aVEPL
p560
aV8(9)
p561
aV756
p562
aV2
aV-
aV-
aV-
aV0.8
p563
aV85.7
p564
aV0.4
p565
aV1
aV6.75
p566
aa(lp567
V2014/2015
p568
aVAston Villa
p569
aVEPL
p570
aV27(1)
p571
aV2434
p572
aV-
aV3
aV1
aV1
aV1.5
p573
aV85.2
p574
aV0.7
p575
aV1
aV7.08
p576
aa(lp577
V2013/2014
p578
aVAston Villa
p579
aVEPL
p580
aV33(1)
p581
aV3003
p582
aV3
aV2
aV7
aV-
aV1.1
p583
aV83.6
p584
aV1
aV2
aV7.12
p585
aa(lp586
V2012/2013
p587
aVAston Villa
p588
aVEPL
p589
aV19(5)
p590
aV1703
p591
aV-
aV-
aV6
aV-
aV0.7
p592
aV87.8
p593
aV0.5
p594
aV-
aV6.88
p595
aa(lp596
V2011/2012
p597
aVAston Villa
p598
aVEPL
p599
aV10(1)
p600
aV855
p601
aV-
aV-
aV3
aV-
aV0.6
p602
aV81.3
p603
aV0.5
p604
aV-
aV6.66
p605
aa(lp606
V2010/2011
p607
aVAston Villa
p608
aVEPL
p609
aV4(3)
p610
aV415
p611
aV-
aV-
aV1
aV-
aV0.3
p612
aV83.3
p613
aV0.3
p614
aV-
aV6.63
p615
aa(lp616
V2009/2010
p617
aVAston Villa
p618
aVEPL
p619
aV4(4)
p620
aV292
p621
aV-
aV-
aV3
aV-
aV0.4
p622
aV84.4
p623
aV0.3
p624
aV-
aV6.44
p625
aa(lp626
VTotal / Average
p627
aV
aV
aV185
p628
aV12929
p629
aV7
aV7
aV25
p630
aV1
aV0.8
p631
aV87
p632
aV0.7
p633
aV5
aV6.89
p634
aasS'id'
p635
V27213
p636
sb.