(i__main__
Player
p1
(dp2
S'name'
p3
VOleksandr Zinchenko 
p4
sS'offensive_data'
p5
(lp6
(lp7
a(lp8
V2018/2019
p9
aVManchester Ci..
p10
aVEPL
p11
aV2
aV144
p12
aV-
aV-
aV-
aV-
aV1.5
p13
aV94.6
p14
aV1.5
p15
aV-
aV7.35
p16
aa(lp17
V2018/2019
p18
aVManchester Ci..
p19
aVUCL
p20
aV3
aV244
p21
aV-
aV1
aV-
aV-
aV0.7
p22
aV92.3
p23
aV1.3
p24
aV-
aV7.12
p25
aa(lp26
V2018/2019
p27
aVUkraine
p28
aVUNL
p29
aV1(3)
p30
aV137
p31
aV1
aV-
aV-
aV-
aV1.3
p32
aV83.1
p33
aV0.8
p34
aV-
aV6.49
p35
aa(lp36
V2017/2018
p37
aVManchester Ci..
p38
aVUCL
p39
aV1
aV90
p40
aV-
aV-
aV-
aV-
aV-
aV85.8
p41
aV-
aV-
aV5.72
p42
aa(lp43
V2017/2018
p44
aVManchester Ci..
p45
aVEPL
p46
aV6(2)
p47
aV533
p48
aV-
aV-
aV1
aV-
aV0.6
p49
aV92.4
p50
aV2
aV-
aV7.11
p51
aa(lp52
V2016/2017
p53
aVPSV Eindhoven
p54
aVUCL
p55
aV2(2)
p56
aV173
p57
aV-
aV-
aV-
aV-
aV0.3
p58
aV87.6
p59
aV-
aV-
aV6.21
p60
aa(lp61
V2016/2017
p62
aVPSV Eindhoven
p63
aVNE
p64
aV4(8)
p65
aV497
p66
aV-
aV3
aV-
aV-
aV1.3
p67
aV85.6
p68
aV0.3
p69
aV1
aV6.83
p70
aa(lp71
V2015/2016
p72
aVFC Ufa
p73
aVRPL
p74
aV19(5)
p75
aV1703
p76
aV2
aV4
aV3
aV-
aV0.9
p77
aV72.4
p78
aV0.9
p79
aV-
aV6.81
p80
aa(lp81
V2014/2015
p82
aVFC Ufa
p83
aVRPL
p84
aV2(5)
p85
aV235
p86
aV-
aV-
aV-
aV-
aV0.3
p87
aV70.3
p88
aV0.3
p89
aV-
aV6.38
p90
aa(lp91
V2016
p92
aVUkraine
p93
aVUEC
p94
aV1(2)
p95
aV96
p96
aV-
aV-
aV-
aV-
aV1.7
p97
aV82.5
p98
aV1
aV-
aV6.24
p99
aa(lp100
VTotal / Average
p101
aV
aV
aV68
p102
aV3852
p103
aV3
aV8
aV4
aV0
aV0.9
p104
aV80.6
p105
aV0.8
p106
aV1
aV6.74
p107
aasS'url'
p108
S'https://www.whoscored.com/Players/273257/History/'
p109
sS'passing_data'
p110
(lp111
(lp112
a(lp113
V2018/2019
p114
aVManchester Ci..
p115
aVEPL
p116
aV2
aV144
p117
aV-
aV-
aV-
aV-
aV1.5
p118
aV94.6
p119
aV1.5
p120
aV-
aV7.35
p121
aa(lp122
V2018/2019
p123
aVManchester Ci..
p124
aVUCL
p125
aV3
aV244
p126
aV-
aV1
aV-
aV-
aV0.7
p127
aV92.3
p128
aV1.3
p129
aV-
aV7.12
p130
aa(lp131
V2018/2019
p132
aVUkraine
p133
aVUNL
p134
aV1(3)
p135
aV137
p136
aV1
aV-
aV-
aV-
aV1.3
p137
aV83.1
p138
aV0.8
p139
aV-
aV6.49
p140
aa(lp141
V2017/2018
p142
aVManchester Ci..
p143
aVUCL
p144
aV1
aV90
p145
aV-
aV-
aV-
aV-
aV-
aV85.8
p146
aV-
aV-
aV5.72
p147
aa(lp148
V2017/2018
p149
aVManchester Ci..
p150
aVEPL
p151
aV6(2)
p152
aV533
p153
aV-
aV-
aV1
aV-
aV0.6
p154
aV92.4
p155
aV2
aV-
aV7.11
p156
aa(lp157
V2016/2017
p158
aVPSV Eindhoven
p159
aVUCL
p160
aV2(2)
p161
aV173
p162
aV-
aV-
aV-
aV-
aV0.3
p163
aV87.6
p164
aV-
aV-
aV6.21
p165
aa(lp166
V2016/2017
p167
aVPSV Eindhoven
p168
aVNE
p169
aV4(8)
p170
aV497
p171
aV-
aV3
aV-
aV-
aV1.3
p172
aV85.6
p173
aV0.3
p174
aV1
aV6.83
p175
aa(lp176
V2015/2016
p177
aVFC Ufa
p178
aVRPL
p179
aV19(5)
p180
aV1703
p181
aV2
aV4
aV3
aV-
aV0.9
p182
aV72.4
p183
aV0.9
p184
aV-
aV6.81
p185
aa(lp186
V2014/2015
p187
aVFC Ufa
p188
aVRPL
p189
aV2(5)
p190
aV235
p191
aV-
aV-
aV-
aV-
aV0.3
p192
aV70.3
p193
aV0.3
p194
aV-
aV6.38
p195
aa(lp196
V2016
p197
aVUkraine
p198
aVUEC
p199
aV1(2)
p200
aV96
p201
aV-
aV-
aV-
aV-
aV1.7
p202
aV82.5
p203
aV1
aV-
aV6.24
p204
aa(lp205
VTotal / Average
p206
aV
aV
aV68
p207
aV3852
p208
aV3
aV8
aV4
aV0
aV0.9
p209
aV80.6
p210
aV0.8
p211
aV1
aV6.74
p212
aasS'defensive_data'
p213
(lp214
(lp215
a(lp216
V2018/2019
p217
aVManchester Ci..
p218
aVEPL
p219
aV2
aV144
p220
aV-
aV-
aV-
aV-
aV1.5
p221
aV94.6
p222
aV1.5
p223
aV-
aV7.35
p224
aa(lp225
V2018/2019
p226
aVManchester Ci..
p227
aVUCL
p228
aV3
aV244
p229
aV-
aV1
aV-
aV-
aV0.7
p230
aV92.3
p231
aV1.3
p232
aV-
aV7.12
p233
aa(lp234
V2018/2019
p235
aVUkraine
p236
aVUNL
p237
aV1(3)
p238
aV137
p239
aV1
aV-
aV-
aV-
aV1.3
p240
aV83.1
p241
aV0.8
p242
aV-
aV6.49
p243
aa(lp244
V2017/2018
p245
aVManchester Ci..
p246
aVUCL
p247
aV1
aV90
p248
aV-
aV-
aV-
aV-
aV-
aV85.8
p249
aV-
aV-
aV5.72
p250
aa(lp251
V2017/2018
p252
aVManchester Ci..
p253
aVEPL
p254
aV6(2)
p255
aV533
p256
aV-
aV-
aV1
aV-
aV0.6
p257
aV92.4
p258
aV2
aV-
aV7.11
p259
aa(lp260
V2016/2017
p261
aVPSV Eindhoven
p262
aVUCL
p263
aV2(2)
p264
aV173
p265
aV-
aV-
aV-
aV-
aV0.3
p266
aV87.6
p267
aV-
aV-
aV6.21
p268
aa(lp269
V2016/2017
p270
aVPSV Eindhoven
p271
aVNE
p272
aV4(8)
p273
aV497
p274
aV-
aV3
aV-
aV-
aV1.3
p275
aV85.6
p276
aV0.3
p277
aV1
aV6.83
p278
aa(lp279
V2015/2016
p280
aVFC Ufa
p281
aVRPL
p282
aV19(5)
p283
aV1703
p284
aV2
aV4
aV3
aV-
aV0.9
p285
aV72.4
p286
aV0.9
p287
aV-
aV6.81
p288
aa(lp289
V2014/2015
p290
aVFC Ufa
p291
aVRPL
p292
aV2(5)
p293
aV235
p294
aV-
aV-
aV-
aV-
aV0.3
p295
aV70.3
p296
aV0.3
p297
aV-
aV6.38
p298
aa(lp299
V2016
p300
aVUkraine
p301
aVUEC
p302
aV1(2)
p303
aV96
p304
aV-
aV-
aV-
aV-
aV1.7
p305
aV82.5
p306
aV1
aV-
aV6.24
p307
aa(lp308
VTotal / Average
p309
aV
aV
aV68
p310
aV3852
p311
aV3
aV8
aV4
aV0
aV0.9
p312
aV80.6
p313
aV0.8
p314
aV1
aV6.74
p315
aasS'sumary_data'
p316
(lp317
(lp318
a(lp319
V2018/2019
p320
aVManchester Ci..
p321
aVEPL
p322
aV2
aV144
p323
aV-
aV-
aV-
aV-
aV1.5
p324
aV94.6
p325
aV1.5
p326
aV-
aV7.35
p327
aa(lp328
V2018/2019
p329
aVManchester Ci..
p330
aVUCL
p331
aV3
aV244
p332
aV-
aV1
aV-
aV-
aV0.7
p333
aV92.3
p334
aV1.3
p335
aV-
aV7.12
p336
aa(lp337
V2018/2019
p338
aVUkraine
p339
aVUNL
p340
aV1(3)
p341
aV137
p342
aV1
aV-
aV-
aV-
aV1.3
p343
aV83.1
p344
aV0.8
p345
aV-
aV6.49
p346
aa(lp347
V2017/2018
p348
aVManchester Ci..
p349
aVUCL
p350
aV1
aV90
p351
aV-
aV-
aV-
aV-
aV-
aV85.8
p352
aV-
aV-
aV5.72
p353
aa(lp354
V2017/2018
p355
aVManchester Ci..
p356
aVEPL
p357
aV6(2)
p358
aV533
p359
aV-
aV-
aV1
aV-
aV0.6
p360
aV92.4
p361
aV2
aV-
aV7.11
p362
aa(lp363
V2016/2017
p364
aVPSV Eindhoven
p365
aVUCL
p366
aV2(2)
p367
aV173
p368
aV-
aV-
aV-
aV-
aV0.3
p369
aV87.6
p370
aV-
aV-
aV6.21
p371
aa(lp372
V2016/2017
p373
aVPSV Eindhoven
p374
aVNE
p375
aV4(8)
p376
aV497
p377
aV-
aV3
aV-
aV-
aV1.3
p378
aV85.6
p379
aV0.3
p380
aV1
aV6.83
p381
aa(lp382
V2015/2016
p383
aVFC Ufa
p384
aVRPL
p385
aV19(5)
p386
aV1703
p387
aV2
aV4
aV3
aV-
aV0.9
p388
aV72.4
p389
aV0.9
p390
aV-
aV6.81
p391
aa(lp392
V2014/2015
p393
aVFC Ufa
p394
aVRPL
p395
aV2(5)
p396
aV235
p397
aV-
aV-
aV-
aV-
aV0.3
p398
aV70.3
p399
aV0.3
p400
aV-
aV6.38
p401
aa(lp402
V2016
p403
aVUkraine
p404
aVUEC
p405
aV1(2)
p406
aV96
p407
aV-
aV-
aV-
aV-
aV1.7
p408
aV82.5
p409
aV1
aV-
aV6.24
p410
aa(lp411
VTotal / Average
p412
aV
aV
aV68
p413
aV3852
p414
aV3
aV8
aV4
aV0
aV0.9
p415
aV80.6
p416
aV0.8
p417
aV1
aV6.74
p418
aasS'id'
p419
V273257
p420
sb.