(i__main__
Player
p1
(dp2
S'name'
p3
VStefan Johansen 
p4
sS'offensive_data'
p5
(lp6
(lp7
a(lp8
V2018/2019
p9
aVFulham
p10
aVEPL
p11
aV4(8)
p12
aV412
p13
aV-
aV-
aV4
aV-
aV0.1
p14
aV79.7
p15
aV0.3
p16
aV-
aV6.03
p17
aa(lp18
V2018/2019
p19
aVNorway
p20
aVUNL
p21
aV5
aV349
p22
aV2
aV-
aV-
aV-
aV1.6
p23
aV67.5
p24
aV1.6
p25
aV1
aV6.76
p26
aa(lp27
V2017/2018
p28
aVFulham
p29
aVEC
p30
aV46(2)
p31
aV3883
p32
aV8
aV9
aV12
p33
aV-
aV1.8
p34
aV83.8
p35
aV0.4
p36
aV2
aV6.86
p37
aa(lp38
V2016/2017
p39
aVFulham
p40
aVEC
p41
aV37(1)
p42
aV3229
p43
aV11
p44
aV8
aV9
aV-
aV1.6
p45
aV84.5
p46
aV0.4
p47
aV5
aV7.12
p48
aa(lp49
V2015/2016
p50
aVCeltic
p51
aVUEL
p52
aV5
aV426
p53
aV-
aV-
aV4
aV-
aV0.2
p54
aV85.4
p55
aV0.2
p56
aV-
aV6.41
p57
aa(lp58
V2014/2015
p59
aVCeltic
p60
aVUEL
p61
aV8
aV720
p62
aV3
aV-
aV2
aV-
aV1
aV81.1
p63
aV1
aV2
aV7.21
p64
aa(lp65
V2013
p66
aVNorway U21
p67
aVIEU
p68
aV3
aV260
p69
aV-
aV-
aV-
aV-
aV0.7
p70
aV83.1
p71
aV0.3
p72
aV-
aV6.61
p73
aa(lp74
VTotal / Average
p75
aV
aV
aV119
p76
aV9279
p77
aV24
p78
aV17
p79
aV31
p80
aV0
aV1.4
p81
aV82.8
p82
aV0.5
p83
aV10
p84
aV6.85
p85
aasS'url'
p86
S'https://www.whoscored.com/Players/27579/History/'
p87
sS'passing_data'
p88
(lp89
(lp90
a(lp91
V2018/2019
p92
aVFulham
p93
aVEPL
p94
aV4(8)
p95
aV412
p96
aV-
aV-
aV4
aV-
aV0.1
p97
aV79.7
p98
aV0.3
p99
aV-
aV6.03
p100
aa(lp101
V2018/2019
p102
aVNorway
p103
aVUNL
p104
aV5
aV349
p105
aV2
aV-
aV-
aV-
aV1.6
p106
aV67.5
p107
aV1.6
p108
aV1
aV6.76
p109
aa(lp110
V2017/2018
p111
aVFulham
p112
aVEC
p113
aV46(2)
p114
aV3883
p115
aV8
aV9
aV12
p116
aV-
aV1.8
p117
aV83.8
p118
aV0.4
p119
aV2
aV6.86
p120
aa(lp121
V2016/2017
p122
aVFulham
p123
aVEC
p124
aV37(1)
p125
aV3229
p126
aV11
p127
aV8
aV9
aV-
aV1.6
p128
aV84.5
p129
aV0.4
p130
aV5
aV7.12
p131
aa(lp132
V2015/2016
p133
aVCeltic
p134
aVUEL
p135
aV5
aV426
p136
aV-
aV-
aV4
aV-
aV0.2
p137
aV85.4
p138
aV0.2
p139
aV-
aV6.41
p140
aa(lp141
V2014/2015
p142
aVCeltic
p143
aVUEL
p144
aV8
aV720
p145
aV3
aV-
aV2
aV-
aV1
aV81.1
p146
aV1
aV2
aV7.21
p147
aa(lp148
V2013
p149
aVNorway U21
p150
aVIEU
p151
aV3
aV260
p152
aV-
aV-
aV-
aV-
aV0.7
p153
aV83.1
p154
aV0.3
p155
aV-
aV6.61
p156
aa(lp157
VTotal / Average
p158
aV
aV
aV119
p159
aV9279
p160
aV24
p161
aV17
p162
aV31
p163
aV0
aV1.4
p164
aV82.8
p165
aV0.5
p166
aV10
p167
aV6.85
p168
aasS'defensive_data'
p169
(lp170
(lp171
a(lp172
V2018/2019
p173
aVFulham
p174
aVEPL
p175
aV4(8)
p176
aV412
p177
aV-
aV-
aV4
aV-
aV0.1
p178
aV79.7
p179
aV0.3
p180
aV-
aV6.03
p181
aa(lp182
V2018/2019
p183
aVNorway
p184
aVUNL
p185
aV5
aV349
p186
aV2
aV-
aV-
aV-
aV1.6
p187
aV67.5
p188
aV1.6
p189
aV1
aV6.76
p190
aa(lp191
V2017/2018
p192
aVFulham
p193
aVEC
p194
aV46(2)
p195
aV3883
p196
aV8
aV9
aV12
p197
aV-
aV1.8
p198
aV83.8
p199
aV0.4
p200
aV2
aV6.86
p201
aa(lp202
V2016/2017
p203
aVFulham
p204
aVEC
p205
aV37(1)
p206
aV3229
p207
aV11
p208
aV8
aV9
aV-
aV1.6
p209
aV84.5
p210
aV0.4
p211
aV5
aV7.12
p212
aa(lp213
V2015/2016
p214
aVCeltic
p215
aVUEL
p216
aV5
aV426
p217
aV-
aV-
aV4
aV-
aV0.2
p218
aV85.4
p219
aV0.2
p220
aV-
aV6.41
p221
aa(lp222
V2014/2015
p223
aVCeltic
p224
aVUEL
p225
aV8
aV720
p226
aV3
aV-
aV2
aV-
aV1
aV81.1
p227
aV1
aV2
aV7.21
p228
aa(lp229
V2013
p230
aVNorway U21
p231
aVIEU
p232
aV3
aV260
p233
aV-
aV-
aV-
aV-
aV0.7
p234
aV83.1
p235
aV0.3
p236
aV-
aV6.61
p237
aa(lp238
VTotal / Average
p239
aV
aV
aV119
p240
aV9279
p241
aV24
p242
aV17
p243
aV31
p244
aV0
aV1.4
p245
aV82.8
p246
aV0.5
p247
aV10
p248
aV6.85
p249
aasS'sumary_data'
p250
(lp251
(lp252
a(lp253
V2018/2019
p254
aVFulham
p255
aVEPL
p256
aV4(8)
p257
aV412
p258
aV-
aV-
aV4
aV-
aV0.1
p259
aV79.7
p260
aV0.3
p261
aV-
aV6.03
p262
aa(lp263
V2018/2019
p264
aVNorway
p265
aVUNL
p266
aV5
aV349
p267
aV2
aV-
aV-
aV-
aV1.6
p268
aV67.5
p269
aV1.6
p270
aV1
aV6.76
p271
aa(lp272
V2017/2018
p273
aVFulham
p274
aVEC
p275
aV46(2)
p276
aV3883
p277
aV8
aV9
aV12
p278
aV-
aV1.8
p279
aV83.8
p280
aV0.4
p281
aV2
aV6.86
p282
aa(lp283
V2016/2017
p284
aVFulham
p285
aVEC
p286
aV37(1)
p287
aV3229
p288
aV11
p289
aV8
aV9
aV-
aV1.6
p290
aV84.5
p291
aV0.4
p292
aV5
aV7.12
p293
aa(lp294
V2015/2016
p295
aVCeltic
p296
aVUEL
p297
aV5
aV426
p298
aV-
aV-
aV4
aV-
aV0.2
p299
aV85.4
p300
aV0.2
p301
aV-
aV6.41
p302
aa(lp303
V2014/2015
p304
aVCeltic
p305
aVUEL
p306
aV8
aV720
p307
aV3
aV-
aV2
aV-
aV1
aV81.1
p308
aV1
aV2
aV7.21
p309
aa(lp310
V2013
p311
aVNorway U21
p312
aVIEU
p313
aV3
aV260
p314
aV-
aV-
aV-
aV-
aV0.7
p315
aV83.1
p316
aV0.3
p317
aV-
aV6.61
p318
aa(lp319
VTotal / Average
p320
aV
aV
aV119
p321
aV9279
p322
aV24
p323
aV17
p324
aV31
p325
aV0
aV1.4
p326
aV82.8
p327
aV0.5
p328
aV10
p329
aV6.85
p330
aasS'id'
p331
V27579
p332
sb.