(i__main__
Player
p1
(dp2
S'name'
p3
VDavid Luiz 
p4
sS'offensive_data'
p5
(lp6
(lp7
a(lp8
V2018/2019
p9
aVChelsea
p10
aVEPL
p11
aV16
p12
aV1440
p13
aV1
aV-
aV1
aV-
aV0.9
p14
aV88.9
p15
aV2.4
p16
aV-
aV7.24
p17
aa(lp18
V2017/2018
p19
aVChelsea
p20
aVUCL
p21
aV4
aV327
p22
aV1
aV-
aV1
aV-
aV1
aV91.1
p23
aV0.8
p24
aV-
aV6.65
p25
aa(lp26
V2017/2018
p27
aVChelsea
p28
aVEPL
p29
aV9(1)
p30
aV839
p31
aV1
aV-
aV4
aV1
aV1.1
p32
aV85.4
p33
aV1.7
p34
aV-
aV6.85
p35
aa(lp36
V2016/2017
p37
aVChelsea
p38
aVEPL
p39
aV33
p40
aV2956
p41
aV1
aV-
aV6
aV-
aV0.9
p42
aV83.6
p43
aV1.8
p44
aV1
aV7.16
p45
aa(lp46
V2016/2017
p47
aVParis Saint-G..
p48
aVFL1
p49
aV3
aV242
p50
aV-
aV-
aV1
aV-
aV1
aV93
p51
aV1.7
p52
aV-
aV6.94
p53
aa(lp54
V2015/2016
p55
aVParis Saint-G..
p56
aVUCL
p57
aV7
aV630
p58
aV1
aV-
aV5
aV-
aV0.6
p59
aV92.5
p60
aV1.1
p61
aV-
aV7.35
p62
aa(lp63
V2015/2016
p64
aVParis Saint-G..
p65
aVFL1
p66
aV23(2)
p67
aV2088
p68
aV1
aV2
aV4
aV-
aV0.6
p69
aV92.1
p70
aV1.2
p71
aV1
aV7.16
p72
aa(lp73
V2015
p74
aVBrazil
p75
aVICA
p76
aV1(1)
p77
aV113
p78
aV-
aV-
aV-
aV-
aV1
aV86.9
p79
aV1.5
p80
aV-
aV6.18
p81
aa(lp82
V2014/2015
p83
aVParis Saint-G..
p84
aVUCL
p85
aV9(1)
p86
aV909
p87
aV2
aV-
aV2
aV-
aV0.8
p88
aV87.9
p89
aV0.5
p90
aV-
aV7.12
p91
aa(lp92
V2014/2015
p93
aVParis Saint-G..
p94
aVFL1
p95
aV26(2)
p96
aV2291
p97
aV2
aV-
aV5
aV-
aV1
aV89.6
p98
aV2.3
p99
aV-
aV7.25
p100
aa(lp101
V2013/2014
p102
aVChelsea
p103
aVUCL
p104
aV7(1)
p105
aV637
p106
aV-
aV1
aV2
aV-
aV1.4
p107
aV80.7
p108
aV2.1
p109
aV1
aV7.22
p110
aa(lp111
V2013/2014
p112
aVChelsea
p113
aVEPL
p114
aV15(4)
p115
aV1359
p116
aV-
aV1
aV6
aV-
aV1.6
p117
aV81.4
p118
aV2.2
p119
aV1
aV6.98
p120
aa(lp121
V2014
p122
aVBrazil
p123
aVWC
p124
aV7
aV661
p125
aV2
aV1
aV-
aV-
aV1.3
p126
aV81
p127
aV2.3
p128
aV-
aV7.35
p129
aa(lp130
V2013
p131
aVBrazil
p132
aVICC
p133
aV5
aV396
p134
aV-
aV-
aV2
aV-
aV0.4
p135
aV84.6
p136
aV0.8
p137
aV-
aV6.93
p138
aa(lp139
V2012/2013
p140
aVChelsea
p141
aVUEL
p142
aV7
aV622
p143
aV2
aV1
aV1
aV-
aV1.3
p144
aV74.5
p145
aV2.1
p146
aV-
aV7.21
p147
aa(lp148
V2012/2013
p149
aVChelsea
p150
aVUCL
p151
aV6
aV540
p152
aV2
aV-
aV3
aV-
aV1.7
p153
aV87
p154
aV0.8
p155
aV-
aV7.10
p156
aa(lp157
V2012/2013
p158
aVChelsea
p159
aVEPL
p160
aV29(1)
p161
aV2634
p162
aV2
aV2
aV8
aV-
aV1.9
p163
aV81.1
p164
aV2
aV2
aV7.21
p165
aa(lp166
V2011/2012
p167
aVChelsea
p168
aVUCL
p169
aV11
p170
aV1017
p171
aV1
aV-
aV3
aV-
aV1.2
p172
aV86.8
p173
aV0.5
p174
aV-
aV7.26
p175
aa(lp176
V2011/2012
p177
aVChelsea
p178
aVEPL
p179
aV18(2)
p180
aV1652
p181
aV2
aV1
aV5
aV-
aV0.8
p182
aV85.1
p183
aV0.9
p184
aV-
aV7.19
p185
aa(lp186
V2010/2011
p187
aVBenfica
p188
aVUCL
p189
aV6
aV540
p190
aV-
aV-
aV1
aV-
aV0.7
p191
aV81.8
p192
aV0.5
p193
aV-
aV6.79
p194
aa(lp195
V2010/2011
p196
aVChelsea
p197
aVEPL
p198
aV11(1)
p199
aV954
p200
aV2
aV-
aV3
aV-
aV0.8
p201
aV83.9
p202
aV1.3
p203
aV2
aV7.17
p204
aa(lp205
VTotal / Average
p206
aV
aV
aV269
p207
aV22847
p208
aV23
p209
aV9
aV63
p210
aV1
aV1.1
p211
aV85.5
p212
aV1.6
p213
aV8
aV7.14
p214
aasS'url'
p215
S'https://www.whoscored.com/Players/27586/History/'
p216
sS'passing_data'
p217
(lp218
(lp219
a(lp220
V2018/2019
p221
aVChelsea
p222
aVEPL
p223
aV16
p224
aV1440
p225
aV1
aV-
aV1
aV-
aV0.9
p226
aV88.9
p227
aV2.4
p228
aV-
aV7.24
p229
aa(lp230
V2017/2018
p231
aVChelsea
p232
aVUCL
p233
aV4
aV327
p234
aV1
aV-
aV1
aV-
aV1
aV91.1
p235
aV0.8
p236
aV-
aV6.65
p237
aa(lp238
V2017/2018
p239
aVChelsea
p240
aVEPL
p241
aV9(1)
p242
aV839
p243
aV1
aV-
aV4
aV1
aV1.1
p244
aV85.4
p245
aV1.7
p246
aV-
aV6.85
p247
aa(lp248
V2016/2017
p249
aVChelsea
p250
aVEPL
p251
aV33
p252
aV2956
p253
aV1
aV-
aV6
aV-
aV0.9
p254
aV83.6
p255
aV1.8
p256
aV1
aV7.16
p257
aa(lp258
V2016/2017
p259
aVParis Saint-G..
p260
aVFL1
p261
aV3
aV242
p262
aV-
aV-
aV1
aV-
aV1
aV93
p263
aV1.7
p264
aV-
aV6.94
p265
aa(lp266
V2015/2016
p267
aVParis Saint-G..
p268
aVUCL
p269
aV7
aV630
p270
aV1
aV-
aV5
aV-
aV0.6
p271
aV92.5
p272
aV1.1
p273
aV-
aV7.35
p274
aa(lp275
V2015/2016
p276
aVParis Saint-G..
p277
aVFL1
p278
aV23(2)
p279
aV2088
p280
aV1
aV2
aV4
aV-
aV0.6
p281
aV92.1
p282
aV1.2
p283
aV1
aV7.16
p284
aa(lp285
V2015
p286
aVBrazil
p287
aVICA
p288
aV1(1)
p289
aV113
p290
aV-
aV-
aV-
aV-
aV1
aV86.9
p291
aV1.5
p292
aV-
aV6.18
p293
aa(lp294
V2014/2015
p295
aVParis Saint-G..
p296
aVUCL
p297
aV9(1)
p298
aV909
p299
aV2
aV-
aV2
aV-
aV0.8
p300
aV87.9
p301
aV0.5
p302
aV-
aV7.12
p303
aa(lp304
V2014/2015
p305
aVParis Saint-G..
p306
aVFL1
p307
aV26(2)
p308
aV2291
p309
aV2
aV-
aV5
aV-
aV1
aV89.6
p310
aV2.3
p311
aV-
aV7.25
p312
aa(lp313
V2013/2014
p314
aVChelsea
p315
aVUCL
p316
aV7(1)
p317
aV637
p318
aV-
aV1
aV2
aV-
aV1.4
p319
aV80.7
p320
aV2.1
p321
aV1
aV7.22
p322
aa(lp323
V2013/2014
p324
aVChelsea
p325
aVEPL
p326
aV15(4)
p327
aV1359
p328
aV-
aV1
aV6
aV-
aV1.6
p329
aV81.4
p330
aV2.2
p331
aV1
aV6.98
p332
aa(lp333
V2014
p334
aVBrazil
p335
aVWC
p336
aV7
aV661
p337
aV2
aV1
aV-
aV-
aV1.3
p338
aV81
p339
aV2.3
p340
aV-
aV7.35
p341
aa(lp342
V2013
p343
aVBrazil
p344
aVICC
p345
aV5
aV396
p346
aV-
aV-
aV2
aV-
aV0.4
p347
aV84.6
p348
aV0.8
p349
aV-
aV6.93
p350
aa(lp351
V2012/2013
p352
aVChelsea
p353
aVUEL
p354
aV7
aV622
p355
aV2
aV1
aV1
aV-
aV1.3
p356
aV74.5
p357
aV2.1
p358
aV-
aV7.21
p359
aa(lp360
V2012/2013
p361
aVChelsea
p362
aVUCL
p363
aV6
aV540
p364
aV2
aV-
aV3
aV-
aV1.7
p365
aV87
p366
aV0.8
p367
aV-
aV7.10
p368
aa(lp369
V2012/2013
p370
aVChelsea
p371
aVEPL
p372
aV29(1)
p373
aV2634
p374
aV2
aV2
aV8
aV-
aV1.9
p375
aV81.1
p376
aV2
aV2
aV7.21
p377
aa(lp378
V2011/2012
p379
aVChelsea
p380
aVUCL
p381
aV11
p382
aV1017
p383
aV1
aV-
aV3
aV-
aV1.2
p384
aV86.8
p385
aV0.5
p386
aV-
aV7.26
p387
aa(lp388
V2011/2012
p389
aVChelsea
p390
aVEPL
p391
aV18(2)
p392
aV1652
p393
aV2
aV1
aV5
aV-
aV0.8
p394
aV85.1
p395
aV0.9
p396
aV-
aV7.19
p397
aa(lp398
V2010/2011
p399
aVBenfica
p400
aVUCL
p401
aV6
aV540
p402
aV-
aV-
aV1
aV-
aV0.7
p403
aV81.8
p404
aV0.5
p405
aV-
aV6.79
p406
aa(lp407
V2010/2011
p408
aVChelsea
p409
aVEPL
p410
aV11(1)
p411
aV954
p412
aV2
aV-
aV3
aV-
aV0.8
p413
aV83.9
p414
aV1.3
p415
aV2
aV7.17
p416
aa(lp417
VTotal / Average
p418
aV
aV
aV269
p419
aV22847
p420
aV23
p421
aV9
aV63
p422
aV1
aV1.1
p423
aV85.5
p424
aV1.6
p425
aV8
aV7.14
p426
aasS'defensive_data'
p427
(lp428
(lp429
a(lp430
V2018/2019
p431
aVChelsea
p432
aVEPL
p433
aV16
p434
aV1440
p435
aV1
aV-
aV1
aV-
aV0.9
p436
aV88.9
p437
aV2.4
p438
aV-
aV7.24
p439
aa(lp440
V2017/2018
p441
aVChelsea
p442
aVUCL
p443
aV4
aV327
p444
aV1
aV-
aV1
aV-
aV1
aV91.1
p445
aV0.8
p446
aV-
aV6.65
p447
aa(lp448
V2017/2018
p449
aVChelsea
p450
aVEPL
p451
aV9(1)
p452
aV839
p453
aV1
aV-
aV4
aV1
aV1.1
p454
aV85.4
p455
aV1.7
p456
aV-
aV6.85
p457
aa(lp458
V2016/2017
p459
aVChelsea
p460
aVEPL
p461
aV33
p462
aV2956
p463
aV1
aV-
aV6
aV-
aV0.9
p464
aV83.6
p465
aV1.8
p466
aV1
aV7.16
p467
aa(lp468
V2016/2017
p469
aVParis Saint-G..
p470
aVFL1
p471
aV3
aV242
p472
aV-
aV-
aV1
aV-
aV1
aV93
p473
aV1.7
p474
aV-
aV6.94
p475
aa(lp476
V2015/2016
p477
aVParis Saint-G..
p478
aVUCL
p479
aV7
aV630
p480
aV1
aV-
aV5
aV-
aV0.6
p481
aV92.5
p482
aV1.1
p483
aV-
aV7.35
p484
aa(lp485
V2015/2016
p486
aVParis Saint-G..
p487
aVFL1
p488
aV23(2)
p489
aV2088
p490
aV1
aV2
aV4
aV-
aV0.6
p491
aV92.1
p492
aV1.2
p493
aV1
aV7.16
p494
aa(lp495
V2015
p496
aVBrazil
p497
aVICA
p498
aV1(1)
p499
aV113
p500
aV-
aV-
aV-
aV-
aV1
aV86.9
p501
aV1.5
p502
aV-
aV6.18
p503
aa(lp504
V2014/2015
p505
aVParis Saint-G..
p506
aVUCL
p507
aV9(1)
p508
aV909
p509
aV2
aV-
aV2
aV-
aV0.8
p510
aV87.9
p511
aV0.5
p512
aV-
aV7.12
p513
aa(lp514
V2014/2015
p515
aVParis Saint-G..
p516
aVFL1
p517
aV26(2)
p518
aV2291
p519
aV2
aV-
aV5
aV-
aV1
aV89.6
p520
aV2.3
p521
aV-
aV7.25
p522
aa(lp523
V2013/2014
p524
aVChelsea
p525
aVUCL
p526
aV7(1)
p527
aV637
p528
aV-
aV1
aV2
aV-
aV1.4
p529
aV80.7
p530
aV2.1
p531
aV1
aV7.22
p532
aa(lp533
V2013/2014
p534
aVChelsea
p535
aVEPL
p536
aV15(4)
p537
aV1359
p538
aV-
aV1
aV6
aV-
aV1.6
p539
aV81.4
p540
aV2.2
p541
aV1
aV6.98
p542
aa(lp543
V2014
p544
aVBrazil
p545
aVWC
p546
aV7
aV661
p547
aV2
aV1
aV-
aV-
aV1.3
p548
aV81
p549
aV2.3
p550
aV-
aV7.35
p551
aa(lp552
V2013
p553
aVBrazil
p554
aVICC
p555
aV5
aV396
p556
aV-
aV-
aV2
aV-
aV0.4
p557
aV84.6
p558
aV0.8
p559
aV-
aV6.93
p560
aa(lp561
V2012/2013
p562
aVChelsea
p563
aVUEL
p564
aV7
aV622
p565
aV2
aV1
aV1
aV-
aV1.3
p566
aV74.5
p567
aV2.1
p568
aV-
aV7.21
p569
aa(lp570
V2012/2013
p571
aVChelsea
p572
aVUCL
p573
aV6
aV540
p574
aV2
aV-
aV3
aV-
aV1.7
p575
aV87
p576
aV0.8
p577
aV-
aV7.10
p578
aa(lp579
V2012/2013
p580
aVChelsea
p581
aVEPL
p582
aV29(1)
p583
aV2634
p584
aV2
aV2
aV8
aV-
aV1.9
p585
aV81.1
p586
aV2
aV2
aV7.21
p587
aa(lp588
V2011/2012
p589
aVChelsea
p590
aVUCL
p591
aV11
p592
aV1017
p593
aV1
aV-
aV3
aV-
aV1.2
p594
aV86.8
p595
aV0.5
p596
aV-
aV7.26
p597
aa(lp598
V2011/2012
p599
aVChelsea
p600
aVEPL
p601
aV18(2)
p602
aV1652
p603
aV2
aV1
aV5
aV-
aV0.8
p604
aV85.1
p605
aV0.9
p606
aV-
aV7.19
p607
aa(lp608
V2010/2011
p609
aVBenfica
p610
aVUCL
p611
aV6
aV540
p612
aV-
aV-
aV1
aV-
aV0.7
p613
aV81.8
p614
aV0.5
p615
aV-
aV6.79
p616
aa(lp617
V2010/2011
p618
aVChelsea
p619
aVEPL
p620
aV11(1)
p621
aV954
p622
aV2
aV-
aV3
aV-
aV0.8
p623
aV83.9
p624
aV1.3
p625
aV2
aV7.17
p626
aa(lp627
VTotal / Average
p628
aV
aV
aV269
p629
aV22847
p630
aV23
p631
aV9
aV63
p632
aV1
aV1.1
p633
aV85.5
p634
aV1.6
p635
aV8
aV7.14
p636
aasS'sumary_data'
p637
(lp638
(lp639
a(lp640
V2018/2019
p641
aVChelsea
p642
aVEPL
p643
aV16
p644
aV1440
p645
aV1
aV-
aV1
aV-
aV0.9
p646
aV88.9
p647
aV2.4
p648
aV-
aV7.24
p649
aa(lp650
V2017/2018
p651
aVChelsea
p652
aVUCL
p653
aV4
aV327
p654
aV1
aV-
aV1
aV-
aV1
aV91.1
p655
aV0.8
p656
aV-
aV6.65
p657
aa(lp658
V2017/2018
p659
aVChelsea
p660
aVEPL
p661
aV9(1)
p662
aV839
p663
aV1
aV-
aV4
aV1
aV1.1
p664
aV85.4
p665
aV1.7
p666
aV-
aV6.85
p667
aa(lp668
V2016/2017
p669
aVChelsea
p670
aVEPL
p671
aV33
p672
aV2956
p673
aV1
aV-
aV6
aV-
aV0.9
p674
aV83.6
p675
aV1.8
p676
aV1
aV7.16
p677
aa(lp678
V2016/2017
p679
aVParis Saint-G..
p680
aVFL1
p681
aV3
aV242
p682
aV-
aV-
aV1
aV-
aV1
aV93
p683
aV1.7
p684
aV-
aV6.94
p685
aa(lp686
V2015/2016
p687
aVParis Saint-G..
p688
aVUCL
p689
aV7
aV630
p690
aV1
aV-
aV5
aV-
aV0.6
p691
aV92.5
p692
aV1.1
p693
aV-
aV7.35
p694
aa(lp695
V2015/2016
p696
aVParis Saint-G..
p697
aVFL1
p698
aV23(2)
p699
aV2088
p700
aV1
aV2
aV4
aV-
aV0.6
p701
aV92.1
p702
aV1.2
p703
aV1
aV7.16
p704
aa(lp705
V2015
p706
aVBrazil
p707
aVICA
p708
aV1(1)
p709
aV113
p710
aV-
aV-
aV-
aV-
aV1
aV86.9
p711
aV1.5
p712
aV-
aV6.18
p713
aa(lp714
V2014/2015
p715
aVParis Saint-G..
p716
aVUCL
p717
aV9(1)
p718
aV909
p719
aV2
aV-
aV2
aV-
aV0.8
p720
aV87.9
p721
aV0.5
p722
aV-
aV7.12
p723
aa(lp724
V2014/2015
p725
aVParis Saint-G..
p726
aVFL1
p727
aV26(2)
p728
aV2291
p729
aV2
aV-
aV5
aV-
aV1
aV89.6
p730
aV2.3
p731
aV-
aV7.25
p732
aa(lp733
V2013/2014
p734
aVChelsea
p735
aVUCL
p736
aV7(1)
p737
aV637
p738
aV-
aV1
aV2
aV-
aV1.4
p739
aV80.7
p740
aV2.1
p741
aV1
aV7.22
p742
aa(lp743
V2013/2014
p744
aVChelsea
p745
aVEPL
p746
aV15(4)
p747
aV1359
p748
aV-
aV1
aV6
aV-
aV1.6
p749
aV81.4
p750
aV2.2
p751
aV1
aV6.98
p752
aa(lp753
V2014
p754
aVBrazil
p755
aVWC
p756
aV7
aV661
p757
aV2
aV1
aV-
aV-
aV1.3
p758
aV81
p759
aV2.3
p760
aV-
aV7.35
p761
aa(lp762
V2013
p763
aVBrazil
p764
aVICC
p765
aV5
aV396
p766
aV-
aV-
aV2
aV-
aV0.4
p767
aV84.6
p768
aV0.8
p769
aV-
aV6.93
p770
aa(lp771
V2012/2013
p772
aVChelsea
p773
aVUEL
p774
aV7
aV622
p775
aV2
aV1
aV1
aV-
aV1.3
p776
aV74.5
p777
aV2.1
p778
aV-
aV7.21
p779
aa(lp780
V2012/2013
p781
aVChelsea
p782
aVUCL
p783
aV6
aV540
p784
aV2
aV-
aV3
aV-
aV1.7
p785
aV87
p786
aV0.8
p787
aV-
aV7.10
p788
aa(lp789
V2012/2013
p790
aVChelsea
p791
aVEPL
p792
aV29(1)
p793
aV2634
p794
aV2
aV2
aV8
aV-
aV1.9
p795
aV81.1
p796
aV2
aV2
aV7.21
p797
aa(lp798
V2011/2012
p799
aVChelsea
p800
aVUCL
p801
aV11
p802
aV1017
p803
aV1
aV-
aV3
aV-
aV1.2
p804
aV86.8
p805
aV0.5
p806
aV-
aV7.26
p807
aa(lp808
V2011/2012
p809
aVChelsea
p810
aVEPL
p811
aV18(2)
p812
aV1652
p813
aV2
aV1
aV5
aV-
aV0.8
p814
aV85.1
p815
aV0.9
p816
aV-
aV7.19
p817
aa(lp818
V2010/2011
p819
aVBenfica
p820
aVUCL
p821
aV6
aV540
p822
aV-
aV-
aV1
aV-
aV0.7
p823
aV81.8
p824
aV0.5
p825
aV-
aV6.79
p826
aa(lp827
V2010/2011
p828
aVChelsea
p829
aVEPL
p830
aV11(1)
p831
aV954
p832
aV2
aV-
aV3
aV-
aV0.8
p833
aV83.9
p834
aV1.3
p835
aV2
aV7.17
p836
aa(lp837
VTotal / Average
p838
aV
aV
aV269
p839
aV22847
p840
aV23
p841
aV9
aV63
p842
aV1
aV1.1
p843
aV85.5
p844
aV1.6
p845
aV8
aV7.14
p846
aasS'id'
p847
V27586
p848
sb.