(i__main__
Player
p1
(dp2
S'name'
p3
VGabriel Jesus 
p4
sS'offensive_data'
p5
(lp6
(lp7
a(lp8
V2018/2019
p9
aVManchester Ci..
p10
aVEPL
p11
aV5(9)
p12
aV598
p13
aV3
aV2
aV-
aV-
aV1.8
p14
aV78.3
p15
aV0.8
p16
aV1
aV6.77
p17
aa(lp18
V2018/2019
p19
aVManchester Ci..
p20
aVUCL
p21
aV4
aV330
p22
aV3
aV-
aV-
aV-
aV4.5
p23
aV77.9
p24
aV0.8
p25
aV-
aV7.50
p26
aa(lp27
V2017/2018
p28
aVManchester Ci..
p29
aVUCL
p30
aV7(2)
p31
aV618
p32
aV4
aV-
aV2
aV-
aV1.2
p33
aV78
p34
aV0.6
p35
aV-
aV6.81
p36
aa(lp37
V2017/2018
p38
aVManchester Ci..
p39
aVEPL
p40
aV19(10)
p41
aV1673
p42
aV13
p43
aV3
aV6
aV-
aV1.9
p44
aV79.7
p45
aV0.7
p46
aV1
aV7.05
p47
aa(lp48
V2016/2017
p49
aVManchester Ci..
p50
aVEPL
p51
aV8(2)
p52
aV651
p53
aV7
aV4
aV2
aV-
aV2.4
p54
aV81.3
p55
aV0.8
p56
aV1
aV7.48
p57
aa(lp58
V2016
p59
aVPalmeiras
p60
aVBSA
p61
aV26(1)
p62
aV2319
p63
aV12
p64
aV5
aV11
p65
aV-
aV2.8
p66
aV69.7
p67
aV1.9
p68
aV6
aV7.43
p69
aa(lp70
V2018
p71
aVBrazil
p72
aVWC
p73
aV5
aV407
p74
aV-
aV1
aV-
aV-
aV1.8
p75
aV73
p76
aV1.8
p77
aV-
aV6.92
p78
aa(lp79
V2015
p80
aVPalmeiras
p81
aVBSA
p82
aV12(8)
p83
aV1300
p84
aV4
aV3
aV5
aV-
aV1.9
p85
aV75.1
p86
aV1.1
p87
aV1
aV6.80
p88
aa(lp89
VTotal / Average
p90
aV
aV
aV118
p91
aV7896
p92
aV46
p93
aV18
p94
aV26
p95
aV0
aV2.2
p96
aV76.1
p97
aV1.1
p98
aV10
p99
aV7.09
p100
aasS'url'
p101
S'https://www.whoscored.com/Players/279379/History/'
p102
sS'passing_data'
p103
(lp104
(lp105
a(lp106
V2018/2019
p107
aVManchester Ci..
p108
aVEPL
p109
aV5(9)
p110
aV598
p111
aV3
aV2
aV-
aV-
aV1.8
p112
aV78.3
p113
aV0.8
p114
aV1
aV6.77
p115
aa(lp116
V2018/2019
p117
aVManchester Ci..
p118
aVUCL
p119
aV4
aV330
p120
aV3
aV-
aV-
aV-
aV4.5
p121
aV77.9
p122
aV0.8
p123
aV-
aV7.50
p124
aa(lp125
V2017/2018
p126
aVManchester Ci..
p127
aVUCL
p128
aV7(2)
p129
aV618
p130
aV4
aV-
aV2
aV-
aV1.2
p131
aV78
p132
aV0.6
p133
aV-
aV6.81
p134
aa(lp135
V2017/2018
p136
aVManchester Ci..
p137
aVEPL
p138
aV19(10)
p139
aV1673
p140
aV13
p141
aV3
aV6
aV-
aV1.9
p142
aV79.7
p143
aV0.7
p144
aV1
aV7.05
p145
aa(lp146
V2016/2017
p147
aVManchester Ci..
p148
aVEPL
p149
aV8(2)
p150
aV651
p151
aV7
aV4
aV2
aV-
aV2.4
p152
aV81.3
p153
aV0.8
p154
aV1
aV7.48
p155
aa(lp156
V2016
p157
aVPalmeiras
p158
aVBSA
p159
aV26(1)
p160
aV2319
p161
aV12
p162
aV5
aV11
p163
aV-
aV2.8
p164
aV69.7
p165
aV1.9
p166
aV6
aV7.43
p167
aa(lp168
V2018
p169
aVBrazil
p170
aVWC
p171
aV5
aV407
p172
aV-
aV1
aV-
aV-
aV1.8
p173
aV73
p174
aV1.8
p175
aV-
aV6.92
p176
aa(lp177
V2015
p178
aVPalmeiras
p179
aVBSA
p180
aV12(8)
p181
aV1300
p182
aV4
aV3
aV5
aV-
aV1.9
p183
aV75.1
p184
aV1.1
p185
aV1
aV6.80
p186
aa(lp187
VTotal / Average
p188
aV
aV
aV118
p189
aV7896
p190
aV46
p191
aV18
p192
aV26
p193
aV0
aV2.2
p194
aV76.1
p195
aV1.1
p196
aV10
p197
aV7.09
p198
aasS'defensive_data'
p199
(lp200
(lp201
a(lp202
V2018/2019
p203
aVManchester Ci..
p204
aVEPL
p205
aV5(9)
p206
aV598
p207
aV3
aV2
aV-
aV-
aV1.8
p208
aV78.3
p209
aV0.8
p210
aV1
aV6.77
p211
aa(lp212
V2018/2019
p213
aVManchester Ci..
p214
aVUCL
p215
aV4
aV330
p216
aV3
aV-
aV-
aV-
aV4.5
p217
aV77.9
p218
aV0.8
p219
aV-
aV7.50
p220
aa(lp221
V2017/2018
p222
aVManchester Ci..
p223
aVUCL
p224
aV7(2)
p225
aV618
p226
aV4
aV-
aV2
aV-
aV1.2
p227
aV78
p228
aV0.6
p229
aV-
aV6.81
p230
aa(lp231
V2017/2018
p232
aVManchester Ci..
p233
aVEPL
p234
aV19(10)
p235
aV1673
p236
aV13
p237
aV3
aV6
aV-
aV1.9
p238
aV79.7
p239
aV0.7
p240
aV1
aV7.05
p241
aa(lp242
V2016/2017
p243
aVManchester Ci..
p244
aVEPL
p245
aV8(2)
p246
aV651
p247
aV7
aV4
aV2
aV-
aV2.4
p248
aV81.3
p249
aV0.8
p250
aV1
aV7.48
p251
aa(lp252
V2016
p253
aVPalmeiras
p254
aVBSA
p255
aV26(1)
p256
aV2319
p257
aV12
p258
aV5
aV11
p259
aV-
aV2.8
p260
aV69.7
p261
aV1.9
p262
aV6
aV7.43
p263
aa(lp264
V2018
p265
aVBrazil
p266
aVWC
p267
aV5
aV407
p268
aV-
aV1
aV-
aV-
aV1.8
p269
aV73
p270
aV1.8
p271
aV-
aV6.92
p272
aa(lp273
V2015
p274
aVPalmeiras
p275
aVBSA
p276
aV12(8)
p277
aV1300
p278
aV4
aV3
aV5
aV-
aV1.9
p279
aV75.1
p280
aV1.1
p281
aV1
aV6.80
p282
aa(lp283
VTotal / Average
p284
aV
aV
aV118
p285
aV7896
p286
aV46
p287
aV18
p288
aV26
p289
aV0
aV2.2
p290
aV76.1
p291
aV1.1
p292
aV10
p293
aV7.09
p294
aasS'sumary_data'
p295
(lp296
(lp297
a(lp298
V2018/2019
p299
aVManchester Ci..
p300
aVEPL
p301
aV5(9)
p302
aV598
p303
aV3
aV2
aV-
aV-
aV1.8
p304
aV78.3
p305
aV0.8
p306
aV1
aV6.77
p307
aa(lp308
V2018/2019
p309
aVManchester Ci..
p310
aVUCL
p311
aV4
aV330
p312
aV3
aV-
aV-
aV-
aV4.5
p313
aV77.9
p314
aV0.8
p315
aV-
aV7.50
p316
aa(lp317
V2017/2018
p318
aVManchester Ci..
p319
aVUCL
p320
aV7(2)
p321
aV618
p322
aV4
aV-
aV2
aV-
aV1.2
p323
aV78
p324
aV0.6
p325
aV-
aV6.81
p326
aa(lp327
V2017/2018
p328
aVManchester Ci..
p329
aVEPL
p330
aV19(10)
p331
aV1673
p332
aV13
p333
aV3
aV6
aV-
aV1.9
p334
aV79.7
p335
aV0.7
p336
aV1
aV7.05
p337
aa(lp338
V2016/2017
p339
aVManchester Ci..
p340
aVEPL
p341
aV8(2)
p342
aV651
p343
aV7
aV4
aV2
aV-
aV2.4
p344
aV81.3
p345
aV0.8
p346
aV1
aV7.48
p347
aa(lp348
V2016
p349
aVPalmeiras
p350
aVBSA
p351
aV26(1)
p352
aV2319
p353
aV12
p354
aV5
aV11
p355
aV-
aV2.8
p356
aV69.7
p357
aV1.9
p358
aV6
aV7.43
p359
aa(lp360
V2018
p361
aVBrazil
p362
aVWC
p363
aV5
aV407
p364
aV-
aV1
aV-
aV-
aV1.8
p365
aV73
p366
aV1.8
p367
aV-
aV6.92
p368
aa(lp369
V2015
p370
aVPalmeiras
p371
aVBSA
p372
aV12(8)
p373
aV1300
p374
aV4
aV3
aV5
aV-
aV1.9
p375
aV75.1
p376
aV1.1
p377
aV1
aV6.80
p378
aa(lp379
VTotal / Average
p380
aV
aV
aV118
p381
aV7896
p382
aV46
p383
aV18
p384
aV26
p385
aV0
aV2.2
p386
aV76.1
p387
aV1.1
p388
aV10
p389
aV7.09
p390
aasS'id'
p391
V279379
p392
sb.