(i__main__
Player
p1
(dp2
S'name'
p3
VMarc Navarro 
p4
sS'offensive_data'
p5
(lp6
(lp7
a(lp8
V2018/2019
p9
aVWatford
p10
aVEPL
p11
aV1
aV84
p12
aV-
aV-
aV-
aV-
aV-
aV81.8
p13
aV-
aV-
aV6.30
p14
aa(lp15
V2017/2018
p16
aVEspanyol
p17
aVSLL
p18
aV10(9)
p19
aV1105
p20
aV1
aV-
aV3
aV-
aV1.1
p21
aV72.7
p22
aV0.6
p23
aV-
aV6.44
p24
aa(lp25
V2016/2017
p26
aVEspanyol
p27
aVSLL
p28
aV10(2)
p29
aV789
p30
aV2
aV1
aV-
aV-
aV1.3
p31
aV75.7
p32
aV0.9
p33
aV2
aV6.98
p34
aa(lp35
VTotal / Average
p36
aV
aV
aV32
p37
aV1978
p38
aV3
aV1
aV3
aV0
aV1.1
p39
aV74.1
p40
aV0.7
p41
aV2
aV6.64
p42
aasS'url'
p43
S'https://www.whoscored.com/Players/280157/History/'
p44
sS'passing_data'
p45
(lp46
(lp47
a(lp48
V2018/2019
p49
aVWatford
p50
aVEPL
p51
aV1
aV84
p52
aV-
aV-
aV-
aV-
aV-
aV81.8
p53
aV-
aV-
aV6.30
p54
aa(lp55
V2017/2018
p56
aVEspanyol
p57
aVSLL
p58
aV10(9)
p59
aV1105
p60
aV1
aV-
aV3
aV-
aV1.1
p61
aV72.7
p62
aV0.6
p63
aV-
aV6.44
p64
aa(lp65
V2016/2017
p66
aVEspanyol
p67
aVSLL
p68
aV10(2)
p69
aV789
p70
aV2
aV1
aV-
aV-
aV1.3
p71
aV75.7
p72
aV0.9
p73
aV2
aV6.98
p74
aa(lp75
VTotal / Average
p76
aV
aV
aV32
p77
aV1978
p78
aV3
aV1
aV3
aV0
aV1.1
p79
aV74.1
p80
aV0.7
p81
aV2
aV6.64
p82
aasS'defensive_data'
p83
(lp84
(lp85
a(lp86
V2018/2019
p87
aVWatford
p88
aVEPL
p89
aV1
aV84
p90
aV-
aV-
aV-
aV-
aV-
aV81.8
p91
aV-
aV-
aV6.30
p92
aa(lp93
V2017/2018
p94
aVEspanyol
p95
aVSLL
p96
aV10(9)
p97
aV1105
p98
aV1
aV-
aV3
aV-
aV1.1
p99
aV72.7
p100
aV0.6
p101
aV-
aV6.44
p102
aa(lp103
V2016/2017
p104
aVEspanyol
p105
aVSLL
p106
aV10(2)
p107
aV789
p108
aV2
aV1
aV-
aV-
aV1.3
p109
aV75.7
p110
aV0.9
p111
aV2
aV6.98
p112
aa(lp113
VTotal / Average
p114
aV
aV
aV32
p115
aV1978
p116
aV3
aV1
aV3
aV0
aV1.1
p117
aV74.1
p118
aV0.7
p119
aV2
aV6.64
p120
aasS'sumary_data'
p121
(lp122
(lp123
a(lp124
V2018/2019
p125
aVWatford
p126
aVEPL
p127
aV1
aV84
p128
aV-
aV-
aV-
aV-
aV-
aV81.8
p129
aV-
aV-
aV6.30
p130
aa(lp131
V2017/2018
p132
aVEspanyol
p133
aVSLL
p134
aV10(9)
p135
aV1105
p136
aV1
aV-
aV3
aV-
aV1.1
p137
aV72.7
p138
aV0.6
p139
aV-
aV6.44
p140
aa(lp141
V2016/2017
p142
aVEspanyol
p143
aVSLL
p144
aV10(2)
p145
aV789
p146
aV2
aV1
aV-
aV-
aV1.3
p147
aV75.7
p148
aV0.9
p149
aV2
aV6.98
p150
aa(lp151
VTotal / Average
p152
aV
aV
aV32
p153
aV1978
p154
aV3
aV1
aV3
aV0
aV1.1
p155
aV74.1
p156
aV0.7
p157
aV2
aV6.64
p158
aasS'id'
p159
V280157
p160
sb.