(i__main__
Player
p1
(dp2
S'name'
p3
VJermain Defoe 
p4
sS'offensive_data'
p5
(lp6
(lp7
a(lp8
V2018/2019
p9
aVBournemouth
p10
aVEPL
p11
aV0(4)
p12
aV22
p13
aV-
aV-
aV-
aV-
aV0.3
p14
aV33.3
p15
aV-
aV-
aV5.98
p16
aa(lp17
V2017/2018
p18
aVBournemouth
p19
aVEPL
p20
aV11(13)
p21
aV1085
p22
aV4
aV1
aV1
aV-
aV1.1
p23
aV74
p24
aV0.1
p25
aV1
aV6.38
p26
aa(lp27
V2016/2017
p28
aVSunderland
p29
aVEPL
p30
aV37
p31
aV3323
p32
aV15
p33
aV2
aV1
aV-
aV2.7
p34
aV79.3
p35
aV0.1
p36
aV-
aV6.58
p37
aa(lp38
V2015/2016
p39
aVSunderland
p40
aVEPL
p41
aV28(5)
p42
aV2550
p43
aV15
p44
aV1
aV3
aV-
aV2.6
p45
aV75.8
p46
aV0.2
p47
aV2
aV6.79
p48
aa(lp49
V2014/2015
p50
aVSunderland
p51
aVEPL
p52
aV17
p53
aV1457
p54
aV4
aV-
aV1
aV-
aV2
aV79.6
p55
aV0.1
p56
aV-
aV6.61
p57
aa(lp58
V2014
p59
aVToronto FC
p60
aVUMLS
p61
aV17(2)
p62
aV1530
p63
aV11
p64
aV2
aV5
aV-
aV3.1
p65
aV79.2
p66
aV0.1
p67
aV1
aV6.93
p68
aa(lp69
V2013/2014
p70
aVTottenham
p71
aVUEL
p72
aV4
aV360
p73
aV5
aV-
aV-
aV-
aV3.8
p74
aV93.2
p75
aV-
aV1
aV7.65
p76
aa(lp77
V2013/2014
p78
aVTottenham
p79
aVEPL
p80
aV3(11)
p81
aV423
p82
aV1
aV-
aV1
aV-
aV1.4
p83
aV80.6
p84
aV0.1
p85
aV-
aV6.28
p86
aa(lp87
V2012/2013
p88
aVTottenham
p89
aVUEL
p90
aV7(1)
p91
aV614
p92
aV4
aV-
aV-
aV-
aV3
aV81
p93
aV0.1
p94
aV1
aV6.82
p95
aa(lp96
V2012/2013
p97
aVTottenham
p98
aVEPL
p99
aV27(7)
p100
aV2415
p101
aV11
p102
aV3
aV4
aV-
aV3.2
p103
aV85.1
p104
aV0.2
p105
aV3
aV6.81
p106
aa(lp107
V2012
p108
aVEngland
p109
aVUEC
p110
aV0(1)
p111
aV13
p112
aV-
aV-
aV-
aV-
aV-
aV50
p113
aV-
aV-
aV6.01
p114
aa(lp115
V2011/2012
p116
aVTottenham
p117
aVEPL
p118
aV11(14)
p119
aV1288
p120
aV11
p121
aV1
aV2
aV-
aV2.6
p122
aV82.5
p123
aV-
aV-
aV6.84
p124
aa(lp125
V2010/2011
p126
aVTottenham
p127
aVUCL
p128
aV1(3)
p129
aV196
p130
aV2
aV-
aV1
aV-
aV2
aV71.8
p131
aV-
aV1
aV6.63
p132
aa(lp133
V2010/2011
p134
aVTottenham
p135
aVEPL
p136
aV16(6)
p137
aV1481
p138
aV4
aV2
aV-
aV1
aV3.1
p139
aV85.6
p140
aV0.4
p141
aV1
aV6.68
p142
aa(lp143
V2009/2010
p144
aVTottenham
p145
aVEPL
p146
aV31(3)
p147
aV2570
p148
aV18
p149
aV4
aV3
aV1
aV3.3
p150
aV78.9
p151
aV0.1
p152
aV2
aV7.10
p153
aa(lp154
VTotal / Average
p155
aV
aV
aV280
p156
aV19327
p157
aV105
p158
aV16
p159
aV22
p160
aV2
aV2.6
p161
aV79.3
p162
aV0.1
p163
aV13
p164
aV6.73
p165
aasS'url'
p166
S'https://www.whoscored.com/Players/2837/History/'
p167
sS'passing_data'
p168
(lp169
(lp170
a(lp171
V2018/2019
p172
aVBournemouth
p173
aVEPL
p174
aV0(4)
p175
aV22
p176
aV-
aV-
aV-
aV-
aV0.3
p177
aV33.3
p178
aV-
aV-
aV5.98
p179
aa(lp180
V2017/2018
p181
aVBournemouth
p182
aVEPL
p183
aV11(13)
p184
aV1085
p185
aV4
aV1
aV1
aV-
aV1.1
p186
aV74
p187
aV0.1
p188
aV1
aV6.38
p189
aa(lp190
V2016/2017
p191
aVSunderland
p192
aVEPL
p193
aV37
p194
aV3323
p195
aV15
p196
aV2
aV1
aV-
aV2.7
p197
aV79.3
p198
aV0.1
p199
aV-
aV6.58
p200
aa(lp201
V2015/2016
p202
aVSunderland
p203
aVEPL
p204
aV28(5)
p205
aV2550
p206
aV15
p207
aV1
aV3
aV-
aV2.6
p208
aV75.8
p209
aV0.2
p210
aV2
aV6.79
p211
aa(lp212
V2014/2015
p213
aVSunderland
p214
aVEPL
p215
aV17
p216
aV1457
p217
aV4
aV-
aV1
aV-
aV2
aV79.6
p218
aV0.1
p219
aV-
aV6.61
p220
aa(lp221
V2014
p222
aVToronto FC
p223
aVUMLS
p224
aV17(2)
p225
aV1530
p226
aV11
p227
aV2
aV5
aV-
aV3.1
p228
aV79.2
p229
aV0.1
p230
aV1
aV6.93
p231
aa(lp232
V2013/2014
p233
aVTottenham
p234
aVUEL
p235
aV4
aV360
p236
aV5
aV-
aV-
aV-
aV3.8
p237
aV93.2
p238
aV-
aV1
aV7.65
p239
aa(lp240
V2013/2014
p241
aVTottenham
p242
aVEPL
p243
aV3(11)
p244
aV423
p245
aV1
aV-
aV1
aV-
aV1.4
p246
aV80.6
p247
aV0.1
p248
aV-
aV6.28
p249
aa(lp250
V2012/2013
p251
aVTottenham
p252
aVUEL
p253
aV7(1)
p254
aV614
p255
aV4
aV-
aV-
aV-
aV3
aV81
p256
aV0.1
p257
aV1
aV6.82
p258
aa(lp259
V2012/2013
p260
aVTottenham
p261
aVEPL
p262
aV27(7)
p263
aV2415
p264
aV11
p265
aV3
aV4
aV-
aV3.2
p266
aV85.1
p267
aV0.2
p268
aV3
aV6.81
p269
aa(lp270
V2012
p271
aVEngland
p272
aVUEC
p273
aV0(1)
p274
aV13
p275
aV-
aV-
aV-
aV-
aV-
aV50
p276
aV-
aV-
aV6.01
p277
aa(lp278
V2011/2012
p279
aVTottenham
p280
aVEPL
p281
aV11(14)
p282
aV1288
p283
aV11
p284
aV1
aV2
aV-
aV2.6
p285
aV82.5
p286
aV-
aV-
aV6.84
p287
aa(lp288
V2010/2011
p289
aVTottenham
p290
aVUCL
p291
aV1(3)
p292
aV196
p293
aV2
aV-
aV1
aV-
aV2
aV71.8
p294
aV-
aV1
aV6.63
p295
aa(lp296
V2010/2011
p297
aVTottenham
p298
aVEPL
p299
aV16(6)
p300
aV1481
p301
aV4
aV2
aV-
aV1
aV3.1
p302
aV85.6
p303
aV0.4
p304
aV1
aV6.68
p305
aa(lp306
V2009/2010
p307
aVTottenham
p308
aVEPL
p309
aV31(3)
p310
aV2570
p311
aV18
p312
aV4
aV3
aV1
aV3.3
p313
aV78.9
p314
aV0.1
p315
aV2
aV7.10
p316
aa(lp317
VTotal / Average
p318
aV
aV
aV280
p319
aV19327
p320
aV105
p321
aV16
p322
aV22
p323
aV2
aV2.6
p324
aV79.3
p325
aV0.1
p326
aV13
p327
aV6.73
p328
aasS'defensive_data'
p329
(lp330
(lp331
a(lp332
V2018/2019
p333
aVBournemouth
p334
aVEPL
p335
aV0(4)
p336
aV22
p337
aV-
aV-
aV-
aV-
aV0.3
p338
aV33.3
p339
aV-
aV-
aV5.98
p340
aa(lp341
V2017/2018
p342
aVBournemouth
p343
aVEPL
p344
aV11(13)
p345
aV1085
p346
aV4
aV1
aV1
aV-
aV1.1
p347
aV74
p348
aV0.1
p349
aV1
aV6.38
p350
aa(lp351
V2016/2017
p352
aVSunderland
p353
aVEPL
p354
aV37
p355
aV3323
p356
aV15
p357
aV2
aV1
aV-
aV2.7
p358
aV79.3
p359
aV0.1
p360
aV-
aV6.58
p361
aa(lp362
V2015/2016
p363
aVSunderland
p364
aVEPL
p365
aV28(5)
p366
aV2550
p367
aV15
p368
aV1
aV3
aV-
aV2.6
p369
aV75.8
p370
aV0.2
p371
aV2
aV6.79
p372
aa(lp373
V2014/2015
p374
aVSunderland
p375
aVEPL
p376
aV17
p377
aV1457
p378
aV4
aV-
aV1
aV-
aV2
aV79.6
p379
aV0.1
p380
aV-
aV6.61
p381
aa(lp382
V2014
p383
aVToronto FC
p384
aVUMLS
p385
aV17(2)
p386
aV1530
p387
aV11
p388
aV2
aV5
aV-
aV3.1
p389
aV79.2
p390
aV0.1
p391
aV1
aV6.93
p392
aa(lp393
V2013/2014
p394
aVTottenham
p395
aVUEL
p396
aV4
aV360
p397
aV5
aV-
aV-
aV-
aV3.8
p398
aV93.2
p399
aV-
aV1
aV7.65
p400
aa(lp401
V2013/2014
p402
aVTottenham
p403
aVEPL
p404
aV3(11)
p405
aV423
p406
aV1
aV-
aV1
aV-
aV1.4
p407
aV80.6
p408
aV0.1
p409
aV-
aV6.28
p410
aa(lp411
V2012/2013
p412
aVTottenham
p413
aVUEL
p414
aV7(1)
p415
aV614
p416
aV4
aV-
aV-
aV-
aV3
aV81
p417
aV0.1
p418
aV1
aV6.82
p419
aa(lp420
V2012/2013
p421
aVTottenham
p422
aVEPL
p423
aV27(7)
p424
aV2415
p425
aV11
p426
aV3
aV4
aV-
aV3.2
p427
aV85.1
p428
aV0.2
p429
aV3
aV6.81
p430
aa(lp431
V2012
p432
aVEngland
p433
aVUEC
p434
aV0(1)
p435
aV13
p436
aV-
aV-
aV-
aV-
aV-
aV50
p437
aV-
aV-
aV6.01
p438
aa(lp439
V2011/2012
p440
aVTottenham
p441
aVEPL
p442
aV11(14)
p443
aV1288
p444
aV11
p445
aV1
aV2
aV-
aV2.6
p446
aV82.5
p447
aV-
aV-
aV6.84
p448
aa(lp449
V2010/2011
p450
aVTottenham
p451
aVUCL
p452
aV1(3)
p453
aV196
p454
aV2
aV-
aV1
aV-
aV2
aV71.8
p455
aV-
aV1
aV6.63
p456
aa(lp457
V2010/2011
p458
aVTottenham
p459
aVEPL
p460
aV16(6)
p461
aV1481
p462
aV4
aV2
aV-
aV1
aV3.1
p463
aV85.6
p464
aV0.4
p465
aV1
aV6.68
p466
aa(lp467
V2009/2010
p468
aVTottenham
p469
aVEPL
p470
aV31(3)
p471
aV2570
p472
aV18
p473
aV4
aV3
aV1
aV3.3
p474
aV78.9
p475
aV0.1
p476
aV2
aV7.10
p477
aa(lp478
VTotal / Average
p479
aV
aV
aV280
p480
aV19327
p481
aV105
p482
aV16
p483
aV22
p484
aV2
aV2.6
p485
aV79.3
p486
aV0.1
p487
aV13
p488
aV6.73
p489
aasS'sumary_data'
p490
(lp491
(lp492
a(lp493
V2018/2019
p494
aVBournemouth
p495
aVEPL
p496
aV0(4)
p497
aV22
p498
aV-
aV-
aV-
aV-
aV0.3
p499
aV33.3
p500
aV-
aV-
aV5.98
p501
aa(lp502
V2017/2018
p503
aVBournemouth
p504
aVEPL
p505
aV11(13)
p506
aV1085
p507
aV4
aV1
aV1
aV-
aV1.1
p508
aV74
p509
aV0.1
p510
aV1
aV6.38
p511
aa(lp512
V2016/2017
p513
aVSunderland
p514
aVEPL
p515
aV37
p516
aV3323
p517
aV15
p518
aV2
aV1
aV-
aV2.7
p519
aV79.3
p520
aV0.1
p521
aV-
aV6.58
p522
aa(lp523
V2015/2016
p524
aVSunderland
p525
aVEPL
p526
aV28(5)
p527
aV2550
p528
aV15
p529
aV1
aV3
aV-
aV2.6
p530
aV75.8
p531
aV0.2
p532
aV2
aV6.79
p533
aa(lp534
V2014/2015
p535
aVSunderland
p536
aVEPL
p537
aV17
p538
aV1457
p539
aV4
aV-
aV1
aV-
aV2
aV79.6
p540
aV0.1
p541
aV-
aV6.61
p542
aa(lp543
V2014
p544
aVToronto FC
p545
aVUMLS
p546
aV17(2)
p547
aV1530
p548
aV11
p549
aV2
aV5
aV-
aV3.1
p550
aV79.2
p551
aV0.1
p552
aV1
aV6.93
p553
aa(lp554
V2013/2014
p555
aVTottenham
p556
aVUEL
p557
aV4
aV360
p558
aV5
aV-
aV-
aV-
aV3.8
p559
aV93.2
p560
aV-
aV1
aV7.65
p561
aa(lp562
V2013/2014
p563
aVTottenham
p564
aVEPL
p565
aV3(11)
p566
aV423
p567
aV1
aV-
aV1
aV-
aV1.4
p568
aV80.6
p569
aV0.1
p570
aV-
aV6.28
p571
aa(lp572
V2012/2013
p573
aVTottenham
p574
aVUEL
p575
aV7(1)
p576
aV614
p577
aV4
aV-
aV-
aV-
aV3
aV81
p578
aV0.1
p579
aV1
aV6.82
p580
aa(lp581
V2012/2013
p582
aVTottenham
p583
aVEPL
p584
aV27(7)
p585
aV2415
p586
aV11
p587
aV3
aV4
aV-
aV3.2
p588
aV85.1
p589
aV0.2
p590
aV3
aV6.81
p591
aa(lp592
V2012
p593
aVEngland
p594
aVUEC
p595
aV0(1)
p596
aV13
p597
aV-
aV-
aV-
aV-
aV-
aV50
p598
aV-
aV-
aV6.01
p599
aa(lp600
V2011/2012
p601
aVTottenham
p602
aVEPL
p603
aV11(14)
p604
aV1288
p605
aV11
p606
aV1
aV2
aV-
aV2.6
p607
aV82.5
p608
aV-
aV-
aV6.84
p609
aa(lp610
V2010/2011
p611
aVTottenham
p612
aVUCL
p613
aV1(3)
p614
aV196
p615
aV2
aV-
aV1
aV-
aV2
aV71.8
p616
aV-
aV1
aV6.63
p617
aa(lp618
V2010/2011
p619
aVTottenham
p620
aVEPL
p621
aV16(6)
p622
aV1481
p623
aV4
aV2
aV-
aV1
aV3.1
p624
aV85.6
p625
aV0.4
p626
aV1
aV6.68
p627
aa(lp628
V2009/2010
p629
aVTottenham
p630
aVEPL
p631
aV31(3)
p632
aV2570
p633
aV18
p634
aV4
aV3
aV1
aV3.3
p635
aV78.9
p636
aV0.1
p637
aV2
aV7.10
p638
aa(lp639
VTotal / Average
p640
aV
aV
aV280
p641
aV19327
p642
aV105
p643
aV16
p644
aV22
p645
aV2
aV2.6
p646
aV79.3
p647
aV0.1
p648
aV13
p649
aV6.73
p650
aasS'id'
p651
V2837
p652
sb.