(i__main__
Player
p1
(dp2
S'name'
p3
VHenrikh Mkhitaryan 
p4
sS'offensive_data'
p5
(lp6
(lp7
a(lp8
V2018/2019
p9
aVArsenal
p10
aVEPL
p11
aV9(5)
p12
aV841
p13
aV4
aV1
aV-
aV-
aV2.1
p14
aV79
p15
aV1
aV1
aV6.77
p16
aa(lp17
V2018/2019
p18
aVArsenal
p19
aVUEL
p20
aV3
aV270
p21
aV-
aV2
aV1
aV-
aV1.3
p22
aV84.1
p23
aV0.3
p24
aV1
aV7.25
p25
aa(lp26
V2018/2019
p27
aVArmenia
p28
aVUNL
p29
aV6
aV540
p30
aV1
aV4
aV1
aV-
aV4.3
p31
aV75.8
p32
aV0.8
p33
aV1
aV7.77
p34
aa(lp35
V2017/2018
p36
aVArsenal
p37
aVUEL
p38
aV5(1)
p39
aV416
p40
aV1
aV1
aV1
aV-
aV2.8
p41
aV79.3
p42
aV0.7
p43
aV1
aV7.19
p44
aa(lp45
V2017/2018
p46
aVManchester Un..
p47
aVUCL
p48
aV3(1)
p49
aV285
p50
aV1
aV-
aV-
aV-
aV2
aV83.3
p51
aV0.8
p52
aV-
aV7.33
p53
aa(lp54
V2017/2018
p55
aVManchester Un..
p56
aVEPL
p57
aV11(4)
p58
aV931
p59
aV1
aV5
aV2
aV-
aV1
aV82.5
p60
aV0.6
p61
aV1
aV6.96
p62
aa(lp63
V2017/2018
p64
aVArsenal
p65
aVEPL
p66
aV9(2)
p67
aV797
p68
aV2
aV4
aV-
aV-
aV1.9
p69
aV77.7
p70
aV0.9
p71
aV2
aV7.35
p72
aa(lp73
V2016/2017
p74
aVManchester Un..
p75
aVEPL
p76
aV15(9)
p77
aV1352
p78
aV4
aV1
aV1
aV-
aV1.4
p79
aV84.1
p80
aV0.4
p81
aV1
aV6.90
p82
aa(lp83
V2016/2017
p84
aVManchester Un..
p85
aVUEL
p86
aV10(1)
p87
aV817
p88
aV6
aV-
aV3
aV-
aV2
aV79.7
p89
aV0.6
p90
aV1
aV7.33
p91
aa(lp92
V2015/2016
p93
aVBorussia Dort..
p94
aVGB
p95
aV28(3)
p96
aV2578
p97
aV11
p98
aV15
p99
aV5
aV-
aV2.6
p100
aV75.7
p101
aV0.8
p102
aV11
p103
aV7.90
p104
aa(lp105
V2015/2016
p106
aVBorussia Dort..
p107
aVUEL
p108
aV10(1)
p109
aV901
p110
aV2
aV5
aV1
aV-
aV3.3
p111
aV80.2
p112
aV1.5
p113
aV2
aV7.78
p114
aa(lp115
V2014/2015
p116
aVBorussia Dort..
p117
aVGB
p118
aV21(7)
p119
aV1921
p120
aV3
aV4
aV4
aV-
aV2.5
p121
aV73.5
p122
aV1.1
p123
aV3
aV7.33
p124
aa(lp125
V2014/2015
p126
aVBorussia Dort..
p127
aVUCL
p128
aV7
aV603
p129
aV-
aV-
aV1
aV-
aV2.9
p130
aV80.3
p131
aV2
aV-
aV7.29
p132
aa(lp133
V2013/2014
p134
aVBorussia Dort..
p135
aVUCL
p136
aV10
p137
aV794
p138
aV2
aV-
aV-
aV-
aV2
aV79.8
p139
aV0.6
p140
aV1
aV6.97
p141
aa(lp142
V2013/2014
p143
aVBorussia Dort..
p144
aVGB
p145
aV29(2)
p146
aV2454
p147
aV9
aV10
p148
aV6
aV-
aV2.3
p149
aV76.7
p150
aV1.1
p151
aV3
aV7.59
p152
aa(lp153
V2012/2013
p154
aVShakhtar Done..
p155
aVUCL
p156
aV8
aV720
p157
aV2
aV-
aV1
aV-
aV3.3
p158
aV86
p159
aV1.1
p160
aV1
aV7.16
p161
aa(lp162
V2011/2012
p163
aVShakhtar Done..
p164
aVUCL
p165
aV5(1)
p166
aV473
p167
aV-
aV-
aV1
aV-
aV1.5
p168
aV85
p169
aV0.5
p170
aV1
aV7.15
p171
aa(lp172
V2010/2011
p173
aVShakhtar Done..
p174
aVUCL
p175
aV6(1)
p176
aV523
p177
aV-
aV-
aV3
aV-
aV1.4
p178
aV79.8
p179
aV0.4
p180
aV-
aV6.65
p181
aa(lp182
VTotal / Average
p183
aV
aV
aV233
p184
aV17216
p185
aV49
p186
aV52
p187
aV31
p188
aV0
aV2.2
p189
aV78.9
p190
aV0.9
p191
aV31
p192
aV7.32
p193
aasS'url'
p194
S'https://www.whoscored.com/Players/28421/History/'
p195
sS'passing_data'
p196
(lp197
(lp198
a(lp199
V2018/2019
p200
aVArsenal
p201
aVEPL
p202
aV9(5)
p203
aV841
p204
aV4
aV1
aV-
aV-
aV2.1
p205
aV79
p206
aV1
aV1
aV6.77
p207
aa(lp208
V2018/2019
p209
aVArsenal
p210
aVUEL
p211
aV3
aV270
p212
aV-
aV2
aV1
aV-
aV1.3
p213
aV84.1
p214
aV0.3
p215
aV1
aV7.25
p216
aa(lp217
V2018/2019
p218
aVArmenia
p219
aVUNL
p220
aV6
aV540
p221
aV1
aV4
aV1
aV-
aV4.3
p222
aV75.8
p223
aV0.8
p224
aV1
aV7.77
p225
aa(lp226
V2017/2018
p227
aVArsenal
p228
aVUEL
p229
aV5(1)
p230
aV416
p231
aV1
aV1
aV1
aV-
aV2.8
p232
aV79.3
p233
aV0.7
p234
aV1
aV7.19
p235
aa(lp236
V2017/2018
p237
aVManchester Un..
p238
aVUCL
p239
aV3(1)
p240
aV285
p241
aV1
aV-
aV-
aV-
aV2
aV83.3
p242
aV0.8
p243
aV-
aV7.33
p244
aa(lp245
V2017/2018
p246
aVManchester Un..
p247
aVEPL
p248
aV11(4)
p249
aV931
p250
aV1
aV5
aV2
aV-
aV1
aV82.5
p251
aV0.6
p252
aV1
aV6.96
p253
aa(lp254
V2017/2018
p255
aVArsenal
p256
aVEPL
p257
aV9(2)
p258
aV797
p259
aV2
aV4
aV-
aV-
aV1.9
p260
aV77.7
p261
aV0.9
p262
aV2
aV7.35
p263
aa(lp264
V2016/2017
p265
aVManchester Un..
p266
aVEPL
p267
aV15(9)
p268
aV1352
p269
aV4
aV1
aV1
aV-
aV1.4
p270
aV84.1
p271
aV0.4
p272
aV1
aV6.90
p273
aa(lp274
V2016/2017
p275
aVManchester Un..
p276
aVUEL
p277
aV10(1)
p278
aV817
p279
aV6
aV-
aV3
aV-
aV2
aV79.7
p280
aV0.6
p281
aV1
aV7.33
p282
aa(lp283
V2015/2016
p284
aVBorussia Dort..
p285
aVGB
p286
aV28(3)
p287
aV2578
p288
aV11
p289
aV15
p290
aV5
aV-
aV2.6
p291
aV75.7
p292
aV0.8
p293
aV11
p294
aV7.90
p295
aa(lp296
V2015/2016
p297
aVBorussia Dort..
p298
aVUEL
p299
aV10(1)
p300
aV901
p301
aV2
aV5
aV1
aV-
aV3.3
p302
aV80.2
p303
aV1.5
p304
aV2
aV7.78
p305
aa(lp306
V2014/2015
p307
aVBorussia Dort..
p308
aVGB
p309
aV21(7)
p310
aV1921
p311
aV3
aV4
aV4
aV-
aV2.5
p312
aV73.5
p313
aV1.1
p314
aV3
aV7.33
p315
aa(lp316
V2014/2015
p317
aVBorussia Dort..
p318
aVUCL
p319
aV7
aV603
p320
aV-
aV-
aV1
aV-
aV2.9
p321
aV80.3
p322
aV2
aV-
aV7.29
p323
aa(lp324
V2013/2014
p325
aVBorussia Dort..
p326
aVUCL
p327
aV10
p328
aV794
p329
aV2
aV-
aV-
aV-
aV2
aV79.8
p330
aV0.6
p331
aV1
aV6.97
p332
aa(lp333
V2013/2014
p334
aVBorussia Dort..
p335
aVGB
p336
aV29(2)
p337
aV2454
p338
aV9
aV10
p339
aV6
aV-
aV2.3
p340
aV76.7
p341
aV1.1
p342
aV3
aV7.59
p343
aa(lp344
V2012/2013
p345
aVShakhtar Done..
p346
aVUCL
p347
aV8
aV720
p348
aV2
aV-
aV1
aV-
aV3.3
p349
aV86
p350
aV1.1
p351
aV1
aV7.16
p352
aa(lp353
V2011/2012
p354
aVShakhtar Done..
p355
aVUCL
p356
aV5(1)
p357
aV473
p358
aV-
aV-
aV1
aV-
aV1.5
p359
aV85
p360
aV0.5
p361
aV1
aV7.15
p362
aa(lp363
V2010/2011
p364
aVShakhtar Done..
p365
aVUCL
p366
aV6(1)
p367
aV523
p368
aV-
aV-
aV3
aV-
aV1.4
p369
aV79.8
p370
aV0.4
p371
aV-
aV6.65
p372
aa(lp373
VTotal / Average
p374
aV
aV
aV233
p375
aV17216
p376
aV49
p377
aV52
p378
aV31
p379
aV0
aV2.2
p380
aV78.9
p381
aV0.9
p382
aV31
p383
aV7.32
p384
aasS'defensive_data'
p385
(lp386
(lp387
a(lp388
V2018/2019
p389
aVArsenal
p390
aVEPL
p391
aV9(5)
p392
aV841
p393
aV4
aV1
aV-
aV-
aV2.1
p394
aV79
p395
aV1
aV1
aV6.77
p396
aa(lp397
V2018/2019
p398
aVArsenal
p399
aVUEL
p400
aV3
aV270
p401
aV-
aV2
aV1
aV-
aV1.3
p402
aV84.1
p403
aV0.3
p404
aV1
aV7.25
p405
aa(lp406
V2018/2019
p407
aVArmenia
p408
aVUNL
p409
aV6
aV540
p410
aV1
aV4
aV1
aV-
aV4.3
p411
aV75.8
p412
aV0.8
p413
aV1
aV7.77
p414
aa(lp415
V2017/2018
p416
aVArsenal
p417
aVUEL
p418
aV5(1)
p419
aV416
p420
aV1
aV1
aV1
aV-
aV2.8
p421
aV79.3
p422
aV0.7
p423
aV1
aV7.19
p424
aa(lp425
V2017/2018
p426
aVManchester Un..
p427
aVUCL
p428
aV3(1)
p429
aV285
p430
aV1
aV-
aV-
aV-
aV2
aV83.3
p431
aV0.8
p432
aV-
aV7.33
p433
aa(lp434
V2017/2018
p435
aVManchester Un..
p436
aVEPL
p437
aV11(4)
p438
aV931
p439
aV1
aV5
aV2
aV-
aV1
aV82.5
p440
aV0.6
p441
aV1
aV6.96
p442
aa(lp443
V2017/2018
p444
aVArsenal
p445
aVEPL
p446
aV9(2)
p447
aV797
p448
aV2
aV4
aV-
aV-
aV1.9
p449
aV77.7
p450
aV0.9
p451
aV2
aV7.35
p452
aa(lp453
V2016/2017
p454
aVManchester Un..
p455
aVEPL
p456
aV15(9)
p457
aV1352
p458
aV4
aV1
aV1
aV-
aV1.4
p459
aV84.1
p460
aV0.4
p461
aV1
aV6.90
p462
aa(lp463
V2016/2017
p464
aVManchester Un..
p465
aVUEL
p466
aV10(1)
p467
aV817
p468
aV6
aV-
aV3
aV-
aV2
aV79.7
p469
aV0.6
p470
aV1
aV7.33
p471
aa(lp472
V2015/2016
p473
aVBorussia Dort..
p474
aVGB
p475
aV28(3)
p476
aV2578
p477
aV11
p478
aV15
p479
aV5
aV-
aV2.6
p480
aV75.7
p481
aV0.8
p482
aV11
p483
aV7.90
p484
aa(lp485
V2015/2016
p486
aVBorussia Dort..
p487
aVUEL
p488
aV10(1)
p489
aV901
p490
aV2
aV5
aV1
aV-
aV3.3
p491
aV80.2
p492
aV1.5
p493
aV2
aV7.78
p494
aa(lp495
V2014/2015
p496
aVBorussia Dort..
p497
aVGB
p498
aV21(7)
p499
aV1921
p500
aV3
aV4
aV4
aV-
aV2.5
p501
aV73.5
p502
aV1.1
p503
aV3
aV7.33
p504
aa(lp505
V2014/2015
p506
aVBorussia Dort..
p507
aVUCL
p508
aV7
aV603
p509
aV-
aV-
aV1
aV-
aV2.9
p510
aV80.3
p511
aV2
aV-
aV7.29
p512
aa(lp513
V2013/2014
p514
aVBorussia Dort..
p515
aVUCL
p516
aV10
p517
aV794
p518
aV2
aV-
aV-
aV-
aV2
aV79.8
p519
aV0.6
p520
aV1
aV6.97
p521
aa(lp522
V2013/2014
p523
aVBorussia Dort..
p524
aVGB
p525
aV29(2)
p526
aV2454
p527
aV9
aV10
p528
aV6
aV-
aV2.3
p529
aV76.7
p530
aV1.1
p531
aV3
aV7.59
p532
aa(lp533
V2012/2013
p534
aVShakhtar Done..
p535
aVUCL
p536
aV8
aV720
p537
aV2
aV-
aV1
aV-
aV3.3
p538
aV86
p539
aV1.1
p540
aV1
aV7.16
p541
aa(lp542
V2011/2012
p543
aVShakhtar Done..
p544
aVUCL
p545
aV5(1)
p546
aV473
p547
aV-
aV-
aV1
aV-
aV1.5
p548
aV85
p549
aV0.5
p550
aV1
aV7.15
p551
aa(lp552
V2010/2011
p553
aVShakhtar Done..
p554
aVUCL
p555
aV6(1)
p556
aV523
p557
aV-
aV-
aV3
aV-
aV1.4
p558
aV79.8
p559
aV0.4
p560
aV-
aV6.65
p561
aa(lp562
VTotal / Average
p563
aV
aV
aV233
p564
aV17216
p565
aV49
p566
aV52
p567
aV31
p568
aV0
aV2.2
p569
aV78.9
p570
aV0.9
p571
aV31
p572
aV7.32
p573
aasS'sumary_data'
p574
(lp575
(lp576
a(lp577
V2018/2019
p578
aVArsenal
p579
aVEPL
p580
aV9(5)
p581
aV841
p582
aV4
aV1
aV-
aV-
aV2.1
p583
aV79
p584
aV1
aV1
aV6.77
p585
aa(lp586
V2018/2019
p587
aVArsenal
p588
aVUEL
p589
aV3
aV270
p590
aV-
aV2
aV1
aV-
aV1.3
p591
aV84.1
p592
aV0.3
p593
aV1
aV7.25
p594
aa(lp595
V2018/2019
p596
aVArmenia
p597
aVUNL
p598
aV6
aV540
p599
aV1
aV4
aV1
aV-
aV4.3
p600
aV75.8
p601
aV0.8
p602
aV1
aV7.77
p603
aa(lp604
V2017/2018
p605
aVArsenal
p606
aVUEL
p607
aV5(1)
p608
aV416
p609
aV1
aV1
aV1
aV-
aV2.8
p610
aV79.3
p611
aV0.7
p612
aV1
aV7.19
p613
aa(lp614
V2017/2018
p615
aVManchester Un..
p616
aVUCL
p617
aV3(1)
p618
aV285
p619
aV1
aV-
aV-
aV-
aV2
aV83.3
p620
aV0.8
p621
aV-
aV7.33
p622
aa(lp623
V2017/2018
p624
aVManchester Un..
p625
aVEPL
p626
aV11(4)
p627
aV931
p628
aV1
aV5
aV2
aV-
aV1
aV82.5
p629
aV0.6
p630
aV1
aV6.96
p631
aa(lp632
V2017/2018
p633
aVArsenal
p634
aVEPL
p635
aV9(2)
p636
aV797
p637
aV2
aV4
aV-
aV-
aV1.9
p638
aV77.7
p639
aV0.9
p640
aV2
aV7.35
p641
aa(lp642
V2016/2017
p643
aVManchester Un..
p644
aVEPL
p645
aV15(9)
p646
aV1352
p647
aV4
aV1
aV1
aV-
aV1.4
p648
aV84.1
p649
aV0.4
p650
aV1
aV6.90
p651
aa(lp652
V2016/2017
p653
aVManchester Un..
p654
aVUEL
p655
aV10(1)
p656
aV817
p657
aV6
aV-
aV3
aV-
aV2
aV79.7
p658
aV0.6
p659
aV1
aV7.33
p660
aa(lp661
V2015/2016
p662
aVBorussia Dort..
p663
aVGB
p664
aV28(3)
p665
aV2578
p666
aV11
p667
aV15
p668
aV5
aV-
aV2.6
p669
aV75.7
p670
aV0.8
p671
aV11
p672
aV7.90
p673
aa(lp674
V2015/2016
p675
aVBorussia Dort..
p676
aVUEL
p677
aV10(1)
p678
aV901
p679
aV2
aV5
aV1
aV-
aV3.3
p680
aV80.2
p681
aV1.5
p682
aV2
aV7.78
p683
aa(lp684
V2014/2015
p685
aVBorussia Dort..
p686
aVGB
p687
aV21(7)
p688
aV1921
p689
aV3
aV4
aV4
aV-
aV2.5
p690
aV73.5
p691
aV1.1
p692
aV3
aV7.33
p693
aa(lp694
V2014/2015
p695
aVBorussia Dort..
p696
aVUCL
p697
aV7
aV603
p698
aV-
aV-
aV1
aV-
aV2.9
p699
aV80.3
p700
aV2
aV-
aV7.29
p701
aa(lp702
V2013/2014
p703
aVBorussia Dort..
p704
aVUCL
p705
aV10
p706
aV794
p707
aV2
aV-
aV-
aV-
aV2
aV79.8
p708
aV0.6
p709
aV1
aV6.97
p710
aa(lp711
V2013/2014
p712
aVBorussia Dort..
p713
aVGB
p714
aV29(2)
p715
aV2454
p716
aV9
aV10
p717
aV6
aV-
aV2.3
p718
aV76.7
p719
aV1.1
p720
aV3
aV7.59
p721
aa(lp722
V2012/2013
p723
aVShakhtar Done..
p724
aVUCL
p725
aV8
aV720
p726
aV2
aV-
aV1
aV-
aV3.3
p727
aV86
p728
aV1.1
p729
aV1
aV7.16
p730
aa(lp731
V2011/2012
p732
aVShakhtar Done..
p733
aVUCL
p734
aV5(1)
p735
aV473
p736
aV-
aV-
aV1
aV-
aV1.5
p737
aV85
p738
aV0.5
p739
aV1
aV7.15
p740
aa(lp741
V2010/2011
p742
aVShakhtar Done..
p743
aVUCL
p744
aV6(1)
p745
aV523
p746
aV-
aV-
aV3
aV-
aV1.4
p747
aV79.8
p748
aV0.4
p749
aV-
aV6.65
p750
aa(lp751
VTotal / Average
p752
aV
aV
aV233
p753
aV17216
p754
aV49
p755
aV52
p756
aV31
p757
aV0
aV2.2
p758
aV78.9
p759
aV0.9
p760
aV31
p761
aV7.32
p762
aasS'id'
p763
V28421
p764
sb.