(i__main__
Player
p1
(dp2
S'name'
p3
VRob Holding 
p4
sS'offensive_data'
p5
(lp6
(lp7
a(lp8
V2018/2019
p9
aVArsenal
p10
aVEPL
p11
aV9(1)
p12
aV807
p13
aV-
aV-
aV1
aV-
aV0.2
p14
aV87.5
p15
aV2.1
p16
aV1
aV6.74
p17
aa(lp18
V2018/2019
p19
aVArsenal
p20
aVUEL
p21
aV5
aV420
p22
aV-
aV-
aV3
aV-
aV0.2
p23
aV93
p24
aV2.8
p25
aV-
aV6.94
p26
aa(lp27
V2017/2018
p28
aVArsenal
p29
aVUEL
p30
aV7(1)
p31
aV596
p32
aV1
aV-
aV1
aV-
aV0.5
p33
aV90.2
p34
aV1.8
p35
aV1
aV6.97
p36
aa(lp37
V2017/2018
p38
aVArsenal
p39
aVEPL
p40
aV9(3)
p41
aV820
p42
aV-
aV-
aV3
aV-
aV0.1
p43
aV84.6
p44
aV2.3
p45
aV-
aV6.69
p46
aa(lp47
V2016/2017
p48
aVArsenal
p49
aVUCL
p50
aV1
aV90
p51
aV-
aV-
aV-
aV-
aV1
aV91.4
p52
aV2
aV-
aV7.62
p53
aa(lp54
V2016/2017
p55
aVArsenal
p56
aVEPL
p57
aV9
aV810
p58
aV-
aV-
aV3
aV-
aV0.6
p59
aV82.4
p60
aV3
aV-
aV6.97
p61
aa(lp62
V2015/2016
p63
aVBolton
p64
aVEC
p65
aV26
p66
aV2238
p67
aV1
aV-
aV1
aV1
aV0.6
p68
aV67.1
p69
aV2.5
p70
aV1
aV6.79
p71
aa(lp72
VTotal / Average
p73
aV
aV
aV71
p74
aV5781
p75
aV2
aV0
aV12
p76
aV1
aV0.4
p77
aV79.6
p78
aV2.4
p79
aV3
aV6.83
p80
aasS'url'
p81
S'https://www.whoscored.com/Players/288795/History/'
p82
sS'passing_data'
p83
(lp84
(lp85
a(lp86
V2018/2019
p87
aVArsenal
p88
aVEPL
p89
aV9(1)
p90
aV807
p91
aV-
aV-
aV1
aV-
aV0.2
p92
aV87.5
p93
aV2.1
p94
aV1
aV6.74
p95
aa(lp96
V2018/2019
p97
aVArsenal
p98
aVUEL
p99
aV5
aV420
p100
aV-
aV-
aV3
aV-
aV0.2
p101
aV93
p102
aV2.8
p103
aV-
aV6.94
p104
aa(lp105
V2017/2018
p106
aVArsenal
p107
aVUEL
p108
aV7(1)
p109
aV596
p110
aV1
aV-
aV1
aV-
aV0.5
p111
aV90.2
p112
aV1.8
p113
aV1
aV6.97
p114
aa(lp115
V2017/2018
p116
aVArsenal
p117
aVEPL
p118
aV9(3)
p119
aV820
p120
aV-
aV-
aV3
aV-
aV0.1
p121
aV84.6
p122
aV2.3
p123
aV-
aV6.69
p124
aa(lp125
V2016/2017
p126
aVArsenal
p127
aVUCL
p128
aV1
aV90
p129
aV-
aV-
aV-
aV-
aV1
aV91.4
p130
aV2
aV-
aV7.62
p131
aa(lp132
V2016/2017
p133
aVArsenal
p134
aVEPL
p135
aV9
aV810
p136
aV-
aV-
aV3
aV-
aV0.6
p137
aV82.4
p138
aV3
aV-
aV6.97
p139
aa(lp140
V2015/2016
p141
aVBolton
p142
aVEC
p143
aV26
p144
aV2238
p145
aV1
aV-
aV1
aV1
aV0.6
p146
aV67.1
p147
aV2.5
p148
aV1
aV6.79
p149
aa(lp150
VTotal / Average
p151
aV
aV
aV71
p152
aV5781
p153
aV2
aV0
aV12
p154
aV1
aV0.4
p155
aV79.6
p156
aV2.4
p157
aV3
aV6.83
p158
aasS'defensive_data'
p159
(lp160
(lp161
a(lp162
V2018/2019
p163
aVArsenal
p164
aVEPL
p165
aV9(1)
p166
aV807
p167
aV-
aV-
aV1
aV-
aV0.2
p168
aV87.5
p169
aV2.1
p170
aV1
aV6.74
p171
aa(lp172
V2018/2019
p173
aVArsenal
p174
aVUEL
p175
aV5
aV420
p176
aV-
aV-
aV3
aV-
aV0.2
p177
aV93
p178
aV2.8
p179
aV-
aV6.94
p180
aa(lp181
V2017/2018
p182
aVArsenal
p183
aVUEL
p184
aV7(1)
p185
aV596
p186
aV1
aV-
aV1
aV-
aV0.5
p187
aV90.2
p188
aV1.8
p189
aV1
aV6.97
p190
aa(lp191
V2017/2018
p192
aVArsenal
p193
aVEPL
p194
aV9(3)
p195
aV820
p196
aV-
aV-
aV3
aV-
aV0.1
p197
aV84.6
p198
aV2.3
p199
aV-
aV6.69
p200
aa(lp201
V2016/2017
p202
aVArsenal
p203
aVUCL
p204
aV1
aV90
p205
aV-
aV-
aV-
aV-
aV1
aV91.4
p206
aV2
aV-
aV7.62
p207
aa(lp208
V2016/2017
p209
aVArsenal
p210
aVEPL
p211
aV9
aV810
p212
aV-
aV-
aV3
aV-
aV0.6
p213
aV82.4
p214
aV3
aV-
aV6.97
p215
aa(lp216
V2015/2016
p217
aVBolton
p218
aVEC
p219
aV26
p220
aV2238
p221
aV1
aV-
aV1
aV1
aV0.6
p222
aV67.1
p223
aV2.5
p224
aV1
aV6.79
p225
aa(lp226
VTotal / Average
p227
aV
aV
aV71
p228
aV5781
p229
aV2
aV0
aV12
p230
aV1
aV0.4
p231
aV79.6
p232
aV2.4
p233
aV3
aV6.83
p234
aasS'sumary_data'
p235
(lp236
(lp237
a(lp238
V2018/2019
p239
aVArsenal
p240
aVEPL
p241
aV9(1)
p242
aV807
p243
aV-
aV-
aV1
aV-
aV0.2
p244
aV87.5
p245
aV2.1
p246
aV1
aV6.74
p247
aa(lp248
V2018/2019
p249
aVArsenal
p250
aVUEL
p251
aV5
aV420
p252
aV-
aV-
aV3
aV-
aV0.2
p253
aV93
p254
aV2.8
p255
aV-
aV6.94
p256
aa(lp257
V2017/2018
p258
aVArsenal
p259
aVUEL
p260
aV7(1)
p261
aV596
p262
aV1
aV-
aV1
aV-
aV0.5
p263
aV90.2
p264
aV1.8
p265
aV1
aV6.97
p266
aa(lp267
V2017/2018
p268
aVArsenal
p269
aVEPL
p270
aV9(3)
p271
aV820
p272
aV-
aV-
aV3
aV-
aV0.1
p273
aV84.6
p274
aV2.3
p275
aV-
aV6.69
p276
aa(lp277
V2016/2017
p278
aVArsenal
p279
aVUCL
p280
aV1
aV90
p281
aV-
aV-
aV-
aV-
aV1
aV91.4
p282
aV2
aV-
aV7.62
p283
aa(lp284
V2016/2017
p285
aVArsenal
p286
aVEPL
p287
aV9
aV810
p288
aV-
aV-
aV3
aV-
aV0.6
p289
aV82.4
p290
aV3
aV-
aV6.97
p291
aa(lp292
V2015/2016
p293
aVBolton
p294
aVEC
p295
aV26
p296
aV2238
p297
aV1
aV-
aV1
aV1
aV0.6
p298
aV67.1
p299
aV2.5
p300
aV1
aV6.79
p301
aa(lp302
VTotal / Average
p303
aV
aV
aV71
p304
aV5781
p305
aV2
aV0
aV12
p306
aV1
aV0.4
p307
aV79.6
p308
aV2.4
p309
aV3
aV6.83
p310
aasS'id'
p311
V288795
p312
sb.