(i__main__
Player
p1
(dp2
S'name'
p3
VKelechi Iheanacho 
p4
sS'offensive_data'
p5
(lp6
(lp7
a(lp8
V2018/2019
p9
aVLeicester
p10
aVEPL
p11
aV9(7)
p12
aV811
p13
aV1
aV3
aV1
aV-
aV0.8
p14
aV76
p15
aV0.7
p16
aV-
aV6.39
p17
aa(lp18
V2017/2018
p19
aVLeicester
p20
aVEPL
p21
aV7(14)
p22
aV827
p23
aV3
aV3
aV2
aV-
aV1.4
p24
aV79.3
p25
aV0.3
p26
aV-
aV6.48
p27
aa(lp28
V2016/2017
p29
aVManchester Ci..
p30
aVUCL
p31
aV1(2)
p32
aV103
p33
aV2
aV-
aV-
aV-
aV2
aV80.6
p34
aV0.3
p35
aV-
aV6.75
p36
aa(lp37
V2016/2017
p38
aVManchester Ci..
p39
aVEPL
p40
aV5(15)
p41
aV528
p42
aV4
aV3
aV-
aV-
aV1.1
p43
aV76.6
p44
aV0.3
p45
aV-
aV6.40
p46
aa(lp47
V2018
p48
aVNigeria
p49
aVWC
p50
aV2(1)
p51
aV148
p52
aV-
aV-
aV-
aV-
aV1
aV68.2
p53
aV1
aV-
aV6.48
p54
aa(lp55
V2015/2016
p56
aVManchester Ci..
p57
aVUCL
p58
aV0(4)
p59
aV73
p60
aV-
aV-
aV-
aV-
aV-
aV73.3
p61
aV-
aV-
aV5.98
p62
aa(lp63
V2015/2016
p64
aVManchester Ci..
p65
aVEPL
p66
aV7(19)
p67
aV753
p68
aV8
aV1
aV1
aV-
aV1.1
p69
aV76.9
p70
aV0.5
p71
aV1
aV6.56
p72
aa(lp73
VTotal / Average
p74
aV
aV
aV93
p75
aV3243
p76
aV18
p77
aV10
p78
aV4
aV0
aV1.1
p79
aV76.9
p80
aV0.4
p81
aV1
aV6.46
p82
aasS'url'
p83
S'https://www.whoscored.com/Players/289253/History/'
p84
sS'passing_data'
p85
(lp86
(lp87
a(lp88
V2018/2019
p89
aVLeicester
p90
aVEPL
p91
aV9(7)
p92
aV811
p93
aV1
aV3
aV1
aV-
aV0.8
p94
aV76
p95
aV0.7
p96
aV-
aV6.39
p97
aa(lp98
V2017/2018
p99
aVLeicester
p100
aVEPL
p101
aV7(14)
p102
aV827
p103
aV3
aV3
aV2
aV-
aV1.4
p104
aV79.3
p105
aV0.3
p106
aV-
aV6.48
p107
aa(lp108
V2016/2017
p109
aVManchester Ci..
p110
aVUCL
p111
aV1(2)
p112
aV103
p113
aV2
aV-
aV-
aV-
aV2
aV80.6
p114
aV0.3
p115
aV-
aV6.75
p116
aa(lp117
V2016/2017
p118
aVManchester Ci..
p119
aVEPL
p120
aV5(15)
p121
aV528
p122
aV4
aV3
aV-
aV-
aV1.1
p123
aV76.6
p124
aV0.3
p125
aV-
aV6.40
p126
aa(lp127
V2018
p128
aVNigeria
p129
aVWC
p130
aV2(1)
p131
aV148
p132
aV-
aV-
aV-
aV-
aV1
aV68.2
p133
aV1
aV-
aV6.48
p134
aa(lp135
V2015/2016
p136
aVManchester Ci..
p137
aVUCL
p138
aV0(4)
p139
aV73
p140
aV-
aV-
aV-
aV-
aV-
aV73.3
p141
aV-
aV-
aV5.98
p142
aa(lp143
V2015/2016
p144
aVManchester Ci..
p145
aVEPL
p146
aV7(19)
p147
aV753
p148
aV8
aV1
aV1
aV-
aV1.1
p149
aV76.9
p150
aV0.5
p151
aV1
aV6.56
p152
aa(lp153
VTotal / Average
p154
aV
aV
aV93
p155
aV3243
p156
aV18
p157
aV10
p158
aV4
aV0
aV1.1
p159
aV76.9
p160
aV0.4
p161
aV1
aV6.46
p162
aasS'defensive_data'
p163
(lp164
(lp165
a(lp166
V2018/2019
p167
aVLeicester
p168
aVEPL
p169
aV9(7)
p170
aV811
p171
aV1
aV3
aV1
aV-
aV0.8
p172
aV76
p173
aV0.7
p174
aV-
aV6.39
p175
aa(lp176
V2017/2018
p177
aVLeicester
p178
aVEPL
p179
aV7(14)
p180
aV827
p181
aV3
aV3
aV2
aV-
aV1.4
p182
aV79.3
p183
aV0.3
p184
aV-
aV6.48
p185
aa(lp186
V2016/2017
p187
aVManchester Ci..
p188
aVUCL
p189
aV1(2)
p190
aV103
p191
aV2
aV-
aV-
aV-
aV2
aV80.6
p192
aV0.3
p193
aV-
aV6.75
p194
aa(lp195
V2016/2017
p196
aVManchester Ci..
p197
aVEPL
p198
aV5(15)
p199
aV528
p200
aV4
aV3
aV-
aV-
aV1.1
p201
aV76.6
p202
aV0.3
p203
aV-
aV6.40
p204
aa(lp205
V2018
p206
aVNigeria
p207
aVWC
p208
aV2(1)
p209
aV148
p210
aV-
aV-
aV-
aV-
aV1
aV68.2
p211
aV1
aV-
aV6.48
p212
aa(lp213
V2015/2016
p214
aVManchester Ci..
p215
aVUCL
p216
aV0(4)
p217
aV73
p218
aV-
aV-
aV-
aV-
aV-
aV73.3
p219
aV-
aV-
aV5.98
p220
aa(lp221
V2015/2016
p222
aVManchester Ci..
p223
aVEPL
p224
aV7(19)
p225
aV753
p226
aV8
aV1
aV1
aV-
aV1.1
p227
aV76.9
p228
aV0.5
p229
aV1
aV6.56
p230
aa(lp231
VTotal / Average
p232
aV
aV
aV93
p233
aV3243
p234
aV18
p235
aV10
p236
aV4
aV0
aV1.1
p237
aV76.9
p238
aV0.4
p239
aV1
aV6.46
p240
aasS'sumary_data'
p241
(lp242
(lp243
a(lp244
V2018/2019
p245
aVLeicester
p246
aVEPL
p247
aV9(7)
p248
aV811
p249
aV1
aV3
aV1
aV-
aV0.8
p250
aV76
p251
aV0.7
p252
aV-
aV6.39
p253
aa(lp254
V2017/2018
p255
aVLeicester
p256
aVEPL
p257
aV7(14)
p258
aV827
p259
aV3
aV3
aV2
aV-
aV1.4
p260
aV79.3
p261
aV0.3
p262
aV-
aV6.48
p263
aa(lp264
V2016/2017
p265
aVManchester Ci..
p266
aVUCL
p267
aV1(2)
p268
aV103
p269
aV2
aV-
aV-
aV-
aV2
aV80.6
p270
aV0.3
p271
aV-
aV6.75
p272
aa(lp273
V2016/2017
p274
aVManchester Ci..
p275
aVEPL
p276
aV5(15)
p277
aV528
p278
aV4
aV3
aV-
aV-
aV1.1
p279
aV76.6
p280
aV0.3
p281
aV-
aV6.40
p282
aa(lp283
V2018
p284
aVNigeria
p285
aVWC
p286
aV2(1)
p287
aV148
p288
aV-
aV-
aV-
aV-
aV1
aV68.2
p289
aV1
aV-
aV6.48
p290
aa(lp291
V2015/2016
p292
aVManchester Ci..
p293
aVUCL
p294
aV0(4)
p295
aV73
p296
aV-
aV-
aV-
aV-
aV-
aV73.3
p297
aV-
aV-
aV5.98
p298
aa(lp299
V2015/2016
p300
aVManchester Ci..
p301
aVEPL
p302
aV7(19)
p303
aV753
p304
aV8
aV1
aV1
aV-
aV1.1
p305
aV76.9
p306
aV0.5
p307
aV1
aV6.56
p308
aa(lp309
VTotal / Average
p310
aV
aV
aV93
p311
aV3243
p312
aV18
p313
aV10
p314
aV4
aV0
aV1.1
p315
aV76.9
p316
aV0.4
p317
aV1
aV6.46
p318
aasS'id'
p319
V289253
p320
sb.