(i__main__
Player
p1
(dp2
S'name'
p3
VZanka 
p4
sS'offensive_data'
p5
(lp6
(lp7
a(lp8
V2018/2019
p9
aVHuddersfield
p10
aVEPL
p11
aV15
p12
aV1338
p13
aV2
aV1
aV5
aV-
aV0.2
p14
aV80.6
p15
aV1.3
p16
aV1
aV6.79
p17
aa(lp18
V2018/2019
p19
aVDenmark
p20
aVUNL
p21
aV4
aV360
p22
aV-
aV-
aV1
aV-
aV0.5
p23
aV93.4
p24
aV1
aV1
aV7.19
p25
aa(lp26
V2017/2018
p27
aVHuddersfield
p28
aVEPL
p29
aV38
p30
aV3420
p31
aV-
aV2
aV6
aV-
aV0.3
p32
aV76.7
p33
aV2.3
p34
aV1
aV6.71
p35
aa(lp36
V2016/2017
p37
aVFC Copenhagen
p38
aVUCL
p39
aV6
aV540
p40
aV2
aV-
aV2
aV-
aV0.3
p41
aV87.4
p42
aV3.2
p43
aV2
aV7.61
p44
aa(lp45
V2016/2017
p46
aVFC Copenhagen
p47
aVUEL
p48
aV3
aV270
p49
aV-
aV-
aV1
aV-
aV0.7
p50
aV83.5
p51
aV0.7
p52
aV-
aV6.89
p53
aa(lp54
V2018
p55
aVDenmark
p56
aVWC
p57
aV2(1)
p58
aV219
p59
aV1
aV-
aV2
aV-
aV0.3
p60
aV83.2
p61
aV1.3
p62
aV-
aV6.59
p63
aa(lp64
V2014/2015
p65
aVFC Copenhagen
p66
aVUEL
p67
aV5
aV400
p68
aV-
aV-
aV2
aV1
aV0.4
p69
aV88.9
p70
aV0.8
p71
aV-
aV6.30
p72
aa(lp73
V2013/2014
p74
aVPSV Eindhoven
p75
aVUEL
p76
aV2(3)
p77
aV273
p78
aV-
aV-
aV-
aV-
aV0.2
p79
aV86.2
p80
aV1
aV-
aV6.52
p81
aa(lp82
V2013/2014
p83
aVPSV Eindhoven
p84
aVNE
p85
aV3(6)
p86
aV377
p87
aV-
aV-
aV1
aV-
aV0.3
p88
aV85.9
p89
aV1.3
p90
aV-
aV6.45
p91
aa(lp92
V2012/2013
p93
aVPSV Eindhoven
p94
aVUEL
p95
aV1
aV90
p96
aV-
aV-
aV-
aV-
aV-
aV89.8
p97
aV-
aV-
aV7.30
p98
aa(lp99
V2010/2011
p100
aVFC Copenhagen
p101
aVUCL
p102
aV7(1)
p103
aV631
p104
aV-
aV-
aV1
aV-
aV-
aV89
p105
aV0.8
p106
aV-
aV6.78
p107
aa(lp108
VTotal / Average
p109
aV
aV
aV97
p110
aV7918
p111
aV5
aV3
aV21
p112
aV1
aV0.3
p113
aV82.2
p114
aV1.7
p115
aV5
aV6.75
p116
aasS'url'
p117
S'https://www.whoscored.com/Players/29026/History/'
p118
sS'passing_data'
p119
(lp120
(lp121
a(lp122
V2018/2019
p123
aVHuddersfield
p124
aVEPL
p125
aV15
p126
aV1338
p127
aV2
aV1
aV5
aV-
aV0.2
p128
aV80.6
p129
aV1.3
p130
aV1
aV6.79
p131
aa(lp132
V2018/2019
p133
aVDenmark
p134
aVUNL
p135
aV4
aV360
p136
aV-
aV-
aV1
aV-
aV0.5
p137
aV93.4
p138
aV1
aV1
aV7.19
p139
aa(lp140
V2017/2018
p141
aVHuddersfield
p142
aVEPL
p143
aV38
p144
aV3420
p145
aV-
aV2
aV6
aV-
aV0.3
p146
aV76.7
p147
aV2.3
p148
aV1
aV6.71
p149
aa(lp150
V2016/2017
p151
aVFC Copenhagen
p152
aVUCL
p153
aV6
aV540
p154
aV2
aV-
aV2
aV-
aV0.3
p155
aV87.4
p156
aV3.2
p157
aV2
aV7.61
p158
aa(lp159
V2016/2017
p160
aVFC Copenhagen
p161
aVUEL
p162
aV3
aV270
p163
aV-
aV-
aV1
aV-
aV0.7
p164
aV83.5
p165
aV0.7
p166
aV-
aV6.89
p167
aa(lp168
V2018
p169
aVDenmark
p170
aVWC
p171
aV2(1)
p172
aV219
p173
aV1
aV-
aV2
aV-
aV0.3
p174
aV83.2
p175
aV1.3
p176
aV-
aV6.59
p177
aa(lp178
V2014/2015
p179
aVFC Copenhagen
p180
aVUEL
p181
aV5
aV400
p182
aV-
aV-
aV2
aV1
aV0.4
p183
aV88.9
p184
aV0.8
p185
aV-
aV6.30
p186
aa(lp187
V2013/2014
p188
aVPSV Eindhoven
p189
aVUEL
p190
aV2(3)
p191
aV273
p192
aV-
aV-
aV-
aV-
aV0.2
p193
aV86.2
p194
aV1
aV-
aV6.52
p195
aa(lp196
V2013/2014
p197
aVPSV Eindhoven
p198
aVNE
p199
aV3(6)
p200
aV377
p201
aV-
aV-
aV1
aV-
aV0.3
p202
aV85.9
p203
aV1.3
p204
aV-
aV6.45
p205
aa(lp206
V2012/2013
p207
aVPSV Eindhoven
p208
aVUEL
p209
aV1
aV90
p210
aV-
aV-
aV-
aV-
aV-
aV89.8
p211
aV-
aV-
aV7.30
p212
aa(lp213
V2010/2011
p214
aVFC Copenhagen
p215
aVUCL
p216
aV7(1)
p217
aV631
p218
aV-
aV-
aV1
aV-
aV-
aV89
p219
aV0.8
p220
aV-
aV6.78
p221
aa(lp222
VTotal / Average
p223
aV
aV
aV97
p224
aV7918
p225
aV5
aV3
aV21
p226
aV1
aV0.3
p227
aV82.2
p228
aV1.7
p229
aV5
aV6.75
p230
aasS'defensive_data'
p231
(lp232
(lp233
a(lp234
V2018/2019
p235
aVHuddersfield
p236
aVEPL
p237
aV15
p238
aV1338
p239
aV2
aV1
aV5
aV-
aV0.2
p240
aV80.6
p241
aV1.3
p242
aV1
aV6.79
p243
aa(lp244
V2018/2019
p245
aVDenmark
p246
aVUNL
p247
aV4
aV360
p248
aV-
aV-
aV1
aV-
aV0.5
p249
aV93.4
p250
aV1
aV1
aV7.19
p251
aa(lp252
V2017/2018
p253
aVHuddersfield
p254
aVEPL
p255
aV38
p256
aV3420
p257
aV-
aV2
aV6
aV-
aV0.3
p258
aV76.7
p259
aV2.3
p260
aV1
aV6.71
p261
aa(lp262
V2016/2017
p263
aVFC Copenhagen
p264
aVUCL
p265
aV6
aV540
p266
aV2
aV-
aV2
aV-
aV0.3
p267
aV87.4
p268
aV3.2
p269
aV2
aV7.61
p270
aa(lp271
V2016/2017
p272
aVFC Copenhagen
p273
aVUEL
p274
aV3
aV270
p275
aV-
aV-
aV1
aV-
aV0.7
p276
aV83.5
p277
aV0.7
p278
aV-
aV6.89
p279
aa(lp280
V2018
p281
aVDenmark
p282
aVWC
p283
aV2(1)
p284
aV219
p285
aV1
aV-
aV2
aV-
aV0.3
p286
aV83.2
p287
aV1.3
p288
aV-
aV6.59
p289
aa(lp290
V2014/2015
p291
aVFC Copenhagen
p292
aVUEL
p293
aV5
aV400
p294
aV-
aV-
aV2
aV1
aV0.4
p295
aV88.9
p296
aV0.8
p297
aV-
aV6.30
p298
aa(lp299
V2013/2014
p300
aVPSV Eindhoven
p301
aVUEL
p302
aV2(3)
p303
aV273
p304
aV-
aV-
aV-
aV-
aV0.2
p305
aV86.2
p306
aV1
aV-
aV6.52
p307
aa(lp308
V2013/2014
p309
aVPSV Eindhoven
p310
aVNE
p311
aV3(6)
p312
aV377
p313
aV-
aV-
aV1
aV-
aV0.3
p314
aV85.9
p315
aV1.3
p316
aV-
aV6.45
p317
aa(lp318
V2012/2013
p319
aVPSV Eindhoven
p320
aVUEL
p321
aV1
aV90
p322
aV-
aV-
aV-
aV-
aV-
aV89.8
p323
aV-
aV-
aV7.30
p324
aa(lp325
V2010/2011
p326
aVFC Copenhagen
p327
aVUCL
p328
aV7(1)
p329
aV631
p330
aV-
aV-
aV1
aV-
aV-
aV89
p331
aV0.8
p332
aV-
aV6.78
p333
aa(lp334
VTotal / Average
p335
aV
aV
aV97
p336
aV7918
p337
aV5
aV3
aV21
p338
aV1
aV0.3
p339
aV82.2
p340
aV1.7
p341
aV5
aV6.75
p342
aasS'sumary_data'
p343
(lp344
(lp345
a(lp346
V2018/2019
p347
aVHuddersfield
p348
aVEPL
p349
aV15
p350
aV1338
p351
aV2
aV1
aV5
aV-
aV0.2
p352
aV80.6
p353
aV1.3
p354
aV1
aV6.79
p355
aa(lp356
V2018/2019
p357
aVDenmark
p358
aVUNL
p359
aV4
aV360
p360
aV-
aV-
aV1
aV-
aV0.5
p361
aV93.4
p362
aV1
aV1
aV7.19
p363
aa(lp364
V2017/2018
p365
aVHuddersfield
p366
aVEPL
p367
aV38
p368
aV3420
p369
aV-
aV2
aV6
aV-
aV0.3
p370
aV76.7
p371
aV2.3
p372
aV1
aV6.71
p373
aa(lp374
V2016/2017
p375
aVFC Copenhagen
p376
aVUCL
p377
aV6
aV540
p378
aV2
aV-
aV2
aV-
aV0.3
p379
aV87.4
p380
aV3.2
p381
aV2
aV7.61
p382
aa(lp383
V2016/2017
p384
aVFC Copenhagen
p385
aVUEL
p386
aV3
aV270
p387
aV-
aV-
aV1
aV-
aV0.7
p388
aV83.5
p389
aV0.7
p390
aV-
aV6.89
p391
aa(lp392
V2018
p393
aVDenmark
p394
aVWC
p395
aV2(1)
p396
aV219
p397
aV1
aV-
aV2
aV-
aV0.3
p398
aV83.2
p399
aV1.3
p400
aV-
aV6.59
p401
aa(lp402
V2014/2015
p403
aVFC Copenhagen
p404
aVUEL
p405
aV5
aV400
p406
aV-
aV-
aV2
aV1
aV0.4
p407
aV88.9
p408
aV0.8
p409
aV-
aV6.30
p410
aa(lp411
V2013/2014
p412
aVPSV Eindhoven
p413
aVUEL
p414
aV2(3)
p415
aV273
p416
aV-
aV-
aV-
aV-
aV0.2
p417
aV86.2
p418
aV1
aV-
aV6.52
p419
aa(lp420
V2013/2014
p421
aVPSV Eindhoven
p422
aVNE
p423
aV3(6)
p424
aV377
p425
aV-
aV-
aV1
aV-
aV0.3
p426
aV85.9
p427
aV1.3
p428
aV-
aV6.45
p429
aa(lp430
V2012/2013
p431
aVPSV Eindhoven
p432
aVUEL
p433
aV1
aV90
p434
aV-
aV-
aV-
aV-
aV-
aV89.8
p435
aV-
aV-
aV7.30
p436
aa(lp437
V2010/2011
p438
aVFC Copenhagen
p439
aVUCL
p440
aV7(1)
p441
aV631
p442
aV-
aV-
aV1
aV-
aV-
aV89
p443
aV0.8
p444
aV-
aV6.78
p445
aa(lp446
VTotal / Average
p447
aV
aV
aV97
p448
aV7918
p449
aV5
aV3
aV21
p450
aV1
aV0.3
p451
aV82.2
p452
aV1.7
p453
aV5
aV6.75
p454
aasS'id'
p455
V29026
p456
sb.