(i__main__
Player
p1
(dp2
S'name'
p3
VDejan Lovren 
p4
sS'offensive_data'
p5
(lp6
(lp7
a(lp8
V2018/2019
p9
aVLiverpool
p10
aVEPL
p11
aV5
aV450
p12
aV-
aV-
aV-
aV-
aV0.8
p13
aV85.6
p14
aV5.4
p15
aV-
aV7.29
p16
aa(lp17
V2018/2019
p18
aVLiverpool
p19
aVUCL
p20
aV1(1)
p21
aV91
p22
aV-
aV-
aV-
aV-
aV-
aV88.9
p23
aV-
aV-
aV6.12
p24
aa(lp25
V2018/2019
p26
aVCroatia
p27
aVUNL
p28
aV3
aV270
p29
aV-
aV-
aV2
aV-
aV0.3
p30
aV82.3
p31
aV3
aV-
aV6.72
p32
aa(lp33
V2017/2018
p34
aVLiverpool
p35
aVUCL
p36
aV12
p37
aV1050
p38
aV-
aV1
aV2
aV-
aV0.5
p39
aV84.1
p40
aV3.1
p41
aV-
aV7.00
p42
aa(lp43
V2017/2018
p44
aVLiverpool
p45
aVEPL
p46
aV24(5)
p47
aV2125
p48
aV2
aV1
aV4
aV-
aV0.5
p49
aV88.5
p50
aV3.6
p51
aV2
aV6.99
p52
aa(lp53
V2016/2017
p54
aVLiverpool
p55
aVEPL
p56
aV29
p57
aV2555
p58
aV2
aV1
aV6
aV-
aV0.5
p59
aV86.6
p60
aV3.6
p61
aV-
aV7.13
p62
aa(lp63
V2018
p64
aVCroatia
p65
aVWC
p66
aV6(1)
p67
aV651
p68
aV-
aV-
aV1
aV-
aV0.9
p69
aV84.9
p70
aV5.3
p71
aV-
aV6.72
p72
aa(lp73
V2015/2016
p74
aVLiverpool
p75
aVUEL
p76
aV10
p77
aV900
p78
aV1
aV-
aV3
aV-
aV0.8
p79
aV80.2
p80
aV2
aV-
aV7.06
p81
aa(lp82
V2015/2016
p83
aVLiverpool
p84
aVEPL
p85
aV22(2)
p86
aV1898
p87
aV-
aV-
aV2
aV-
aV0.9
p88
aV84.6
p89
aV3.3
p90
aV1
aV6.97
p91
aa(lp92
V2014/2015
p93
aVLiverpool
p94
aVUCL
p95
aV4
aV360
p96
aV-
aV-
aV1
aV-
aV1
aV84.4
p97
aV4
aV-
aV7.06
p98
aa(lp99
V2014/2015
p100
aVLiverpool
p101
aVUEL
p102
aV1(1)
p103
aV148
p104
aV-
aV-
aV1
aV-
aV1
aV78.9
p105
aV4
aV-
aV6.85
p106
aa(lp107
V2014/2015
p108
aVLiverpool
p109
aVEPL
p110
aV22(4)
p111
aV2036
p112
aV-
aV-
aV4
aV-
aV0.7
p113
aV85.2
p114
aV3.7
p115
aV1
aV6.98
p116
aa(lp117
V2013/2014
p118
aVSouthampton
p119
aVEPL
p120
aV31
p121
aV2788
p122
aV2
aV1
aV7
aV-
aV0.7
p123
aV82
p124
aV3.3
p125
aV2
aV7.32
p126
aa(lp127
V2014
p128
aVCroatia
p129
aVWC
p130
aV3
aV270
p131
aV-
aV-
aV1
aV-
aV0.3
p132
aV93.3
p133
aV3
aV-
aV6.66
p134
aa(lp135
V2012/2013
p136
aVLyon
p137
aVUEL
p138
aV5
aV450
p139
aV-
aV-
aV1
aV-
aV1
aV81
p140
aV1.6
p141
aV-
aV6.57
p142
aa(lp143
V2012/2013
p144
aVLyon
p145
aVFL1
p146
aV18
p147
aV1561
p148
aV1
aV-
aV3
aV3
aV0.6
p149
aV87.3
p150
aV2.1
p151
aV1
aV6.87
p152
aa(lp153
V2011/2012
p154
aVLyon
p155
aVUCL
p156
aV6
aV452
p157
aV-
aV-
aV1
aV-
aV0.3
p158
aV89
p159
aV0.8
p160
aV-
aV7.01
p161
aa(lp162
V2011/2012
p163
aVLyon
p164
aVFL1
p165
aV18
p166
aV1600
p167
aV1
aV1
aV3
aV1
aV0.2
p168
aV80.3
p169
aV2.2
p170
aV1
aV7.05
p171
aa(lp172
V2010/2011
p173
aVLyon
p174
aVUCL
p175
aV6
aV540
p176
aV1
aV-
aV2
aV-
aV1
aV82.5
p177
aV2
aV-
aV7.11
p178
aa(lp179
V2010/2011
p180
aVLyon
p181
aVFL1
p182
aV26(2)
p183
aV2346
p184
aV-
aV-
aV6
aV1
aV0.6
p185
aV80.1
p186
aV1.9
p187
aV1
aV6.94
p188
aa(lp189
V2009/2010
p190
aVLyon
p191
aVFL1
p192
aV8
aV682
p193
aV-
aV-
aV-
aV-
aV0.3
p194
aV72.3
p195
aV2.4
p196
aV-
aV7.17
p197
aa(lp198
VTotal / Average
p199
aV
aV
aV276
p200
aV23223
p201
aV10
p202
aV5
aV50
p203
aV5
aV0.6
p204
aV83.9
p205
aV3
aV9
aV7.02
p206
aasS'url'
p207
S'https://www.whoscored.com/Players/29106/History/'
p208
sS'passing_data'
p209
(lp210
(lp211
a(lp212
V2018/2019
p213
aVLiverpool
p214
aVEPL
p215
aV5
aV450
p216
aV-
aV-
aV-
aV-
aV0.8
p217
aV85.6
p218
aV5.4
p219
aV-
aV7.29
p220
aa(lp221
V2018/2019
p222
aVLiverpool
p223
aVUCL
p224
aV1(1)
p225
aV91
p226
aV-
aV-
aV-
aV-
aV-
aV88.9
p227
aV-
aV-
aV6.12
p228
aa(lp229
V2018/2019
p230
aVCroatia
p231
aVUNL
p232
aV3
aV270
p233
aV-
aV-
aV2
aV-
aV0.3
p234
aV82.3
p235
aV3
aV-
aV6.72
p236
aa(lp237
V2017/2018
p238
aVLiverpool
p239
aVUCL
p240
aV12
p241
aV1050
p242
aV-
aV1
aV2
aV-
aV0.5
p243
aV84.1
p244
aV3.1
p245
aV-
aV7.00
p246
aa(lp247
V2017/2018
p248
aVLiverpool
p249
aVEPL
p250
aV24(5)
p251
aV2125
p252
aV2
aV1
aV4
aV-
aV0.5
p253
aV88.5
p254
aV3.6
p255
aV2
aV6.99
p256
aa(lp257
V2016/2017
p258
aVLiverpool
p259
aVEPL
p260
aV29
p261
aV2555
p262
aV2
aV1
aV6
aV-
aV0.5
p263
aV86.6
p264
aV3.6
p265
aV-
aV7.13
p266
aa(lp267
V2018
p268
aVCroatia
p269
aVWC
p270
aV6(1)
p271
aV651
p272
aV-
aV-
aV1
aV-
aV0.9
p273
aV84.9
p274
aV5.3
p275
aV-
aV6.72
p276
aa(lp277
V2015/2016
p278
aVLiverpool
p279
aVUEL
p280
aV10
p281
aV900
p282
aV1
aV-
aV3
aV-
aV0.8
p283
aV80.2
p284
aV2
aV-
aV7.06
p285
aa(lp286
V2015/2016
p287
aVLiverpool
p288
aVEPL
p289
aV22(2)
p290
aV1898
p291
aV-
aV-
aV2
aV-
aV0.9
p292
aV84.6
p293
aV3.3
p294
aV1
aV6.97
p295
aa(lp296
V2014/2015
p297
aVLiverpool
p298
aVUCL
p299
aV4
aV360
p300
aV-
aV-
aV1
aV-
aV1
aV84.4
p301
aV4
aV-
aV7.06
p302
aa(lp303
V2014/2015
p304
aVLiverpool
p305
aVUEL
p306
aV1(1)
p307
aV148
p308
aV-
aV-
aV1
aV-
aV1
aV78.9
p309
aV4
aV-
aV6.85
p310
aa(lp311
V2014/2015
p312
aVLiverpool
p313
aVEPL
p314
aV22(4)
p315
aV2036
p316
aV-
aV-
aV4
aV-
aV0.7
p317
aV85.2
p318
aV3.7
p319
aV1
aV6.98
p320
aa(lp321
V2013/2014
p322
aVSouthampton
p323
aVEPL
p324
aV31
p325
aV2788
p326
aV2
aV1
aV7
aV-
aV0.7
p327
aV82
p328
aV3.3
p329
aV2
aV7.32
p330
aa(lp331
V2014
p332
aVCroatia
p333
aVWC
p334
aV3
aV270
p335
aV-
aV-
aV1
aV-
aV0.3
p336
aV93.3
p337
aV3
aV-
aV6.66
p338
aa(lp339
V2012/2013
p340
aVLyon
p341
aVUEL
p342
aV5
aV450
p343
aV-
aV-
aV1
aV-
aV1
aV81
p344
aV1.6
p345
aV-
aV6.57
p346
aa(lp347
V2012/2013
p348
aVLyon
p349
aVFL1
p350
aV18
p351
aV1561
p352
aV1
aV-
aV3
aV3
aV0.6
p353
aV87.3
p354
aV2.1
p355
aV1
aV6.87
p356
aa(lp357
V2011/2012
p358
aVLyon
p359
aVUCL
p360
aV6
aV452
p361
aV-
aV-
aV1
aV-
aV0.3
p362
aV89
p363
aV0.8
p364
aV-
aV7.01
p365
aa(lp366
V2011/2012
p367
aVLyon
p368
aVFL1
p369
aV18
p370
aV1600
p371
aV1
aV1
aV3
aV1
aV0.2
p372
aV80.3
p373
aV2.2
p374
aV1
aV7.05
p375
aa(lp376
V2010/2011
p377
aVLyon
p378
aVUCL
p379
aV6
aV540
p380
aV1
aV-
aV2
aV-
aV1
aV82.5
p381
aV2
aV-
aV7.11
p382
aa(lp383
V2010/2011
p384
aVLyon
p385
aVFL1
p386
aV26(2)
p387
aV2346
p388
aV-
aV-
aV6
aV1
aV0.6
p389
aV80.1
p390
aV1.9
p391
aV1
aV6.94
p392
aa(lp393
V2009/2010
p394
aVLyon
p395
aVFL1
p396
aV8
aV682
p397
aV-
aV-
aV-
aV-
aV0.3
p398
aV72.3
p399
aV2.4
p400
aV-
aV7.17
p401
aa(lp402
VTotal / Average
p403
aV
aV
aV276
p404
aV23223
p405
aV10
p406
aV5
aV50
p407
aV5
aV0.6
p408
aV83.9
p409
aV3
aV9
aV7.02
p410
aasS'defensive_data'
p411
(lp412
(lp413
a(lp414
V2018/2019
p415
aVLiverpool
p416
aVEPL
p417
aV5
aV450
p418
aV-
aV-
aV-
aV-
aV0.8
p419
aV85.6
p420
aV5.4
p421
aV-
aV7.29
p422
aa(lp423
V2018/2019
p424
aVLiverpool
p425
aVUCL
p426
aV1(1)
p427
aV91
p428
aV-
aV-
aV-
aV-
aV-
aV88.9
p429
aV-
aV-
aV6.12
p430
aa(lp431
V2018/2019
p432
aVCroatia
p433
aVUNL
p434
aV3
aV270
p435
aV-
aV-
aV2
aV-
aV0.3
p436
aV82.3
p437
aV3
aV-
aV6.72
p438
aa(lp439
V2017/2018
p440
aVLiverpool
p441
aVUCL
p442
aV12
p443
aV1050
p444
aV-
aV1
aV2
aV-
aV0.5
p445
aV84.1
p446
aV3.1
p447
aV-
aV7.00
p448
aa(lp449
V2017/2018
p450
aVLiverpool
p451
aVEPL
p452
aV24(5)
p453
aV2125
p454
aV2
aV1
aV4
aV-
aV0.5
p455
aV88.5
p456
aV3.6
p457
aV2
aV6.99
p458
aa(lp459
V2016/2017
p460
aVLiverpool
p461
aVEPL
p462
aV29
p463
aV2555
p464
aV2
aV1
aV6
aV-
aV0.5
p465
aV86.6
p466
aV3.6
p467
aV-
aV7.13
p468
aa(lp469
V2018
p470
aVCroatia
p471
aVWC
p472
aV6(1)
p473
aV651
p474
aV-
aV-
aV1
aV-
aV0.9
p475
aV84.9
p476
aV5.3
p477
aV-
aV6.72
p478
aa(lp479
V2015/2016
p480
aVLiverpool
p481
aVUEL
p482
aV10
p483
aV900
p484
aV1
aV-
aV3
aV-
aV0.8
p485
aV80.2
p486
aV2
aV-
aV7.06
p487
aa(lp488
V2015/2016
p489
aVLiverpool
p490
aVEPL
p491
aV22(2)
p492
aV1898
p493
aV-
aV-
aV2
aV-
aV0.9
p494
aV84.6
p495
aV3.3
p496
aV1
aV6.97
p497
aa(lp498
V2014/2015
p499
aVLiverpool
p500
aVUCL
p501
aV4
aV360
p502
aV-
aV-
aV1
aV-
aV1
aV84.4
p503
aV4
aV-
aV7.06
p504
aa(lp505
V2014/2015
p506
aVLiverpool
p507
aVUEL
p508
aV1(1)
p509
aV148
p510
aV-
aV-
aV1
aV-
aV1
aV78.9
p511
aV4
aV-
aV6.85
p512
aa(lp513
V2014/2015
p514
aVLiverpool
p515
aVEPL
p516
aV22(4)
p517
aV2036
p518
aV-
aV-
aV4
aV-
aV0.7
p519
aV85.2
p520
aV3.7
p521
aV1
aV6.98
p522
aa(lp523
V2013/2014
p524
aVSouthampton
p525
aVEPL
p526
aV31
p527
aV2788
p528
aV2
aV1
aV7
aV-
aV0.7
p529
aV82
p530
aV3.3
p531
aV2
aV7.32
p532
aa(lp533
V2014
p534
aVCroatia
p535
aVWC
p536
aV3
aV270
p537
aV-
aV-
aV1
aV-
aV0.3
p538
aV93.3
p539
aV3
aV-
aV6.66
p540
aa(lp541
V2012/2013
p542
aVLyon
p543
aVUEL
p544
aV5
aV450
p545
aV-
aV-
aV1
aV-
aV1
aV81
p546
aV1.6
p547
aV-
aV6.57
p548
aa(lp549
V2012/2013
p550
aVLyon
p551
aVFL1
p552
aV18
p553
aV1561
p554
aV1
aV-
aV3
aV3
aV0.6
p555
aV87.3
p556
aV2.1
p557
aV1
aV6.87
p558
aa(lp559
V2011/2012
p560
aVLyon
p561
aVUCL
p562
aV6
aV452
p563
aV-
aV-
aV1
aV-
aV0.3
p564
aV89
p565
aV0.8
p566
aV-
aV7.01
p567
aa(lp568
V2011/2012
p569
aVLyon
p570
aVFL1
p571
aV18
p572
aV1600
p573
aV1
aV1
aV3
aV1
aV0.2
p574
aV80.3
p575
aV2.2
p576
aV1
aV7.05
p577
aa(lp578
V2010/2011
p579
aVLyon
p580
aVUCL
p581
aV6
aV540
p582
aV1
aV-
aV2
aV-
aV1
aV82.5
p583
aV2
aV-
aV7.11
p584
aa(lp585
V2010/2011
p586
aVLyon
p587
aVFL1
p588
aV26(2)
p589
aV2346
p590
aV-
aV-
aV6
aV1
aV0.6
p591
aV80.1
p592
aV1.9
p593
aV1
aV6.94
p594
aa(lp595
V2009/2010
p596
aVLyon
p597
aVFL1
p598
aV8
aV682
p599
aV-
aV-
aV-
aV-
aV0.3
p600
aV72.3
p601
aV2.4
p602
aV-
aV7.17
p603
aa(lp604
VTotal / Average
p605
aV
aV
aV276
p606
aV23223
p607
aV10
p608
aV5
aV50
p609
aV5
aV0.6
p610
aV83.9
p611
aV3
aV9
aV7.02
p612
aasS'sumary_data'
p613
(lp614
(lp615
a(lp616
V2018/2019
p617
aVLiverpool
p618
aVEPL
p619
aV5
aV450
p620
aV-
aV-
aV-
aV-
aV0.8
p621
aV85.6
p622
aV5.4
p623
aV-
aV7.29
p624
aa(lp625
V2018/2019
p626
aVLiverpool
p627
aVUCL
p628
aV1(1)
p629
aV91
p630
aV-
aV-
aV-
aV-
aV-
aV88.9
p631
aV-
aV-
aV6.12
p632
aa(lp633
V2018/2019
p634
aVCroatia
p635
aVUNL
p636
aV3
aV270
p637
aV-
aV-
aV2
aV-
aV0.3
p638
aV82.3
p639
aV3
aV-
aV6.72
p640
aa(lp641
V2017/2018
p642
aVLiverpool
p643
aVUCL
p644
aV12
p645
aV1050
p646
aV-
aV1
aV2
aV-
aV0.5
p647
aV84.1
p648
aV3.1
p649
aV-
aV7.00
p650
aa(lp651
V2017/2018
p652
aVLiverpool
p653
aVEPL
p654
aV24(5)
p655
aV2125
p656
aV2
aV1
aV4
aV-
aV0.5
p657
aV88.5
p658
aV3.6
p659
aV2
aV6.99
p660
aa(lp661
V2016/2017
p662
aVLiverpool
p663
aVEPL
p664
aV29
p665
aV2555
p666
aV2
aV1
aV6
aV-
aV0.5
p667
aV86.6
p668
aV3.6
p669
aV-
aV7.13
p670
aa(lp671
V2018
p672
aVCroatia
p673
aVWC
p674
aV6(1)
p675
aV651
p676
aV-
aV-
aV1
aV-
aV0.9
p677
aV84.9
p678
aV5.3
p679
aV-
aV6.72
p680
aa(lp681
V2015/2016
p682
aVLiverpool
p683
aVUEL
p684
aV10
p685
aV900
p686
aV1
aV-
aV3
aV-
aV0.8
p687
aV80.2
p688
aV2
aV-
aV7.06
p689
aa(lp690
V2015/2016
p691
aVLiverpool
p692
aVEPL
p693
aV22(2)
p694
aV1898
p695
aV-
aV-
aV2
aV-
aV0.9
p696
aV84.6
p697
aV3.3
p698
aV1
aV6.97
p699
aa(lp700
V2014/2015
p701
aVLiverpool
p702
aVUCL
p703
aV4
aV360
p704
aV-
aV-
aV1
aV-
aV1
aV84.4
p705
aV4
aV-
aV7.06
p706
aa(lp707
V2014/2015
p708
aVLiverpool
p709
aVUEL
p710
aV1(1)
p711
aV148
p712
aV-
aV-
aV1
aV-
aV1
aV78.9
p713
aV4
aV-
aV6.85
p714
aa(lp715
V2014/2015
p716
aVLiverpool
p717
aVEPL
p718
aV22(4)
p719
aV2036
p720
aV-
aV-
aV4
aV-
aV0.7
p721
aV85.2
p722
aV3.7
p723
aV1
aV6.98
p724
aa(lp725
V2013/2014
p726
aVSouthampton
p727
aVEPL
p728
aV31
p729
aV2788
p730
aV2
aV1
aV7
aV-
aV0.7
p731
aV82
p732
aV3.3
p733
aV2
aV7.32
p734
aa(lp735
V2014
p736
aVCroatia
p737
aVWC
p738
aV3
aV270
p739
aV-
aV-
aV1
aV-
aV0.3
p740
aV93.3
p741
aV3
aV-
aV6.66
p742
aa(lp743
V2012/2013
p744
aVLyon
p745
aVUEL
p746
aV5
aV450
p747
aV-
aV-
aV1
aV-
aV1
aV81
p748
aV1.6
p749
aV-
aV6.57
p750
aa(lp751
V2012/2013
p752
aVLyon
p753
aVFL1
p754
aV18
p755
aV1561
p756
aV1
aV-
aV3
aV3
aV0.6
p757
aV87.3
p758
aV2.1
p759
aV1
aV6.87
p760
aa(lp761
V2011/2012
p762
aVLyon
p763
aVUCL
p764
aV6
aV452
p765
aV-
aV-
aV1
aV-
aV0.3
p766
aV89
p767
aV0.8
p768
aV-
aV7.01
p769
aa(lp770
V2011/2012
p771
aVLyon
p772
aVFL1
p773
aV18
p774
aV1600
p775
aV1
aV1
aV3
aV1
aV0.2
p776
aV80.3
p777
aV2.2
p778
aV1
aV7.05
p779
aa(lp780
V2010/2011
p781
aVLyon
p782
aVUCL
p783
aV6
aV540
p784
aV1
aV-
aV2
aV-
aV1
aV82.5
p785
aV2
aV-
aV7.11
p786
aa(lp787
V2010/2011
p788
aVLyon
p789
aVFL1
p790
aV26(2)
p791
aV2346
p792
aV-
aV-
aV6
aV1
aV0.6
p793
aV80.1
p794
aV1.9
p795
aV1
aV6.94
p796
aa(lp797
V2009/2010
p798
aVLyon
p799
aVFL1
p800
aV8
aV682
p801
aV-
aV-
aV-
aV-
aV0.3
p802
aV72.3
p803
aV2.4
p804
aV-
aV7.17
p805
aa(lp806
VTotal / Average
p807
aV
aV
aV276
p808
aV23223
p809
aV10
p810
aV5
aV50
p811
aV5
aV0.6
p812
aV83.9
p813
aV3
aV9
aV7.02
p814
aasS'id'
p815
V29106
p816
sb.