(i__main__
Player
p1
(dp2
S'name'
p3
VWillian 
p4
sS'offensive_data'
p5
(lp6
(lp7
a(lp8
V2018/2019
p9
aVChelsea
p10
aVEPL
p11
aV14(2)
p12
aV1084
p13
aV2
aV3
aV1
aV-
aV1.8
p14
aV84.9
p15
aV0.4
p16
aV1
aV7.17
p17
aa(lp18
V2018/2019
p19
aVChelsea
p20
aVUEL
p21
aV4(2)
p22
aV329
p23
aV2
aV2
aV-
aV-
aV3
aV84.8
p24
aV-
aV3
aV7.64
p25
aa(lp26
V2017/2018
p27
aVChelsea
p28
aVUCL
p29
aV4(4)
p30
aV429
p31
aV3
aV1
aV1
aV-
aV1.8
p32
aV72.5
p33
aV0.3
p34
aV3
aV7.39
p35
aa(lp36
V2017/2018
p37
aVChelsea
p38
aVEPL
p39
aV20(16)
p40
aV1883
p41
aV6
aV7
aV1
aV-
aV1.5
p42
aV80.2
p43
aV0.3
p44
aV4
aV7.01
p45
aa(lp46
V2016/2017
p47
aVChelsea
p48
aVEPL
p49
aV15(19)
p50
aV1531
p51
aV8
aV2
aV3
aV-
aV1.3
p52
aV83.5
p53
aV-
aV2
aV6.89
p54
aa(lp55
V2018
p56
aVBrazil
p57
aVWC
p58
aV5
aV362
p59
aV-
aV1
aV-
aV-
aV1
aV84.5
p60
aV0.8
p61
aV1
aV6.96
p62
aa(lp63
V2015/2016
p64
aVChelsea
p65
aVUCL
p66
aV8
aV642
p67
aV5
aV1
aV-
aV-
aV2.1
p68
aV81.9
p69
aV0.8
p70
aV3
aV8.05
p71
aa(lp72
V2015/2016
p73
aVChelsea
p74
aVEPL
p75
aV32(3)
p76
aV2751
p77
aV5
aV6
aV5
aV-
aV1.7
p78
aV82.4
p79
aV0.1
p80
aV3
aV7.20
p81
aa(lp82
V2015
p83
aVBrazil
p84
aVICA
p85
aV4
aV305
p86
aV-
aV1
aV-
aV-
aV0.8
p87
aV88.9
p88
aV0.3
p89
aV-
aV7.05
p90
aa(lp91
V2014/2015
p92
aVChelsea
p93
aVUCL
p94
aV5(2)
p95
aV486
p96
aV1
aV1
aV1
aV-
aV0.7
p97
aV88.4
p98
aV0.3
p99
aV1
aV7.28
p100
aa(lp101
V2014/2015
p102
aVChelsea
p103
aVEPL
p104
aV28(8)
p105
aV2418
p106
aV2
aV3
aV3
aV-
aV1.5
p107
aV85.1
p108
aV0.4
p109
aV-
aV7.02
p110
aa(lp111
V2013/2014
p112
aVChelsea
p113
aVUCL
p114
aV10(1)
p115
aV859
p116
aV-
aV2
aV2
aV-
aV0.5
p117
aV84.2
p118
aV0.3
p119
aV-
aV7.15
p120
aa(lp121
V2013/2014
p122
aVAnzhi Makhach..
p123
aVRPL
p124
aV4
aV360
p125
aV-
aV3
aV-
aV-
aV1.8
p126
aV83.4
p127
aV-
aV2
aV7.94
p128
aa(lp129
V2013/2014
p130
aVChelsea
p131
aVEPL
p132
aV18(7)
p133
aV1680
p134
aV4
aV2
aV3
aV1
aV1.8
p135
aV85.6
p136
aV0.3
p137
aV1
aV7.25
p138
aa(lp139
V2014
p140
aVBrazil
p141
aVWC
p142
aV1(4)
p143
aV152
p144
aV-
aV-
aV-
aV-
aV0.6
p145
aV94.7
p146
aV-
aV-
aV6.35
p147
aa(lp148
V2012/2013
p149
aVAnzhi Makhach..
p150
aVUEL
p151
aV3
aV176
p152
aV-
aV1
aV-
aV-
aV1
aV87.2
p153
aV-
aV-
aV6.91
p154
aa(lp155
V2012/2013
p156
aVShakhtar Done..
p157
aVUCL
p158
aV6
aV525
p159
aV4
aV2
aV-
aV-
aV2.5
p160
aV85.7
p161
aV-
aV2
aV8.17
p162
aa(lp163
V2011/2012
p164
aVShakhtar Done..
p165
aVUCL
p166
aV6
aV505
p167
aV1
aV-
aV1
aV-
aV2.7
p168
aV85.9
p169
aV0.5
p170
aV-
aV7.34
p171
aa(lp172
V2010/2011
p173
aVShakhtar Done..
p174
aVUCL
p175
aV10
p176
aV844
p177
aV2
aV1
aV-
aV-
aV1
aV85.9
p178
aV0.1
p179
aV1
aV7.11
p180
aa(lp181
VTotal / Average
p182
aV
aV
aV265
p183
aV17321
p184
aV45
p185
aV39
p186
aV21
p187
aV1
aV1.5
p188
aV83.8
p189
aV0.2
p190
aV27
p191
aV7.16
p192
aasS'url'
p193
S'https://www.whoscored.com/Players/29463/History/'
p194
sS'passing_data'
p195
(lp196
(lp197
a(lp198
V2018/2019
p199
aVChelsea
p200
aVEPL
p201
aV14(2)
p202
aV1084
p203
aV2
aV3
aV1
aV-
aV1.8
p204
aV84.9
p205
aV0.4
p206
aV1
aV7.17
p207
aa(lp208
V2018/2019
p209
aVChelsea
p210
aVUEL
p211
aV4(2)
p212
aV329
p213
aV2
aV2
aV-
aV-
aV3
aV84.8
p214
aV-
aV3
aV7.64
p215
aa(lp216
V2017/2018
p217
aVChelsea
p218
aVUCL
p219
aV4(4)
p220
aV429
p221
aV3
aV1
aV1
aV-
aV1.8
p222
aV72.5
p223
aV0.3
p224
aV3
aV7.39
p225
aa(lp226
V2017/2018
p227
aVChelsea
p228
aVEPL
p229
aV20(16)
p230
aV1883
p231
aV6
aV7
aV1
aV-
aV1.5
p232
aV80.2
p233
aV0.3
p234
aV4
aV7.01
p235
aa(lp236
V2016/2017
p237
aVChelsea
p238
aVEPL
p239
aV15(19)
p240
aV1531
p241
aV8
aV2
aV3
aV-
aV1.3
p242
aV83.5
p243
aV-
aV2
aV6.89
p244
aa(lp245
V2018
p246
aVBrazil
p247
aVWC
p248
aV5
aV362
p249
aV-
aV1
aV-
aV-
aV1
aV84.5
p250
aV0.8
p251
aV1
aV6.96
p252
aa(lp253
V2015/2016
p254
aVChelsea
p255
aVUCL
p256
aV8
aV642
p257
aV5
aV1
aV-
aV-
aV2.1
p258
aV81.9
p259
aV0.8
p260
aV3
aV8.05
p261
aa(lp262
V2015/2016
p263
aVChelsea
p264
aVEPL
p265
aV32(3)
p266
aV2751
p267
aV5
aV6
aV5
aV-
aV1.7
p268
aV82.4
p269
aV0.1
p270
aV3
aV7.20
p271
aa(lp272
V2015
p273
aVBrazil
p274
aVICA
p275
aV4
aV305
p276
aV-
aV1
aV-
aV-
aV0.8
p277
aV88.9
p278
aV0.3
p279
aV-
aV7.05
p280
aa(lp281
V2014/2015
p282
aVChelsea
p283
aVUCL
p284
aV5(2)
p285
aV486
p286
aV1
aV1
aV1
aV-
aV0.7
p287
aV88.4
p288
aV0.3
p289
aV1
aV7.28
p290
aa(lp291
V2014/2015
p292
aVChelsea
p293
aVEPL
p294
aV28(8)
p295
aV2418
p296
aV2
aV3
aV3
aV-
aV1.5
p297
aV85.1
p298
aV0.4
p299
aV-
aV7.02
p300
aa(lp301
V2013/2014
p302
aVChelsea
p303
aVUCL
p304
aV10(1)
p305
aV859
p306
aV-
aV2
aV2
aV-
aV0.5
p307
aV84.2
p308
aV0.3
p309
aV-
aV7.15
p310
aa(lp311
V2013/2014
p312
aVAnzhi Makhach..
p313
aVRPL
p314
aV4
aV360
p315
aV-
aV3
aV-
aV-
aV1.8
p316
aV83.4
p317
aV-
aV2
aV7.94
p318
aa(lp319
V2013/2014
p320
aVChelsea
p321
aVEPL
p322
aV18(7)
p323
aV1680
p324
aV4
aV2
aV3
aV1
aV1.8
p325
aV85.6
p326
aV0.3
p327
aV1
aV7.25
p328
aa(lp329
V2014
p330
aVBrazil
p331
aVWC
p332
aV1(4)
p333
aV152
p334
aV-
aV-
aV-
aV-
aV0.6
p335
aV94.7
p336
aV-
aV-
aV6.35
p337
aa(lp338
V2012/2013
p339
aVAnzhi Makhach..
p340
aVUEL
p341
aV3
aV176
p342
aV-
aV1
aV-
aV-
aV1
aV87.2
p343
aV-
aV-
aV6.91
p344
aa(lp345
V2012/2013
p346
aVShakhtar Done..
p347
aVUCL
p348
aV6
aV525
p349
aV4
aV2
aV-
aV-
aV2.5
p350
aV85.7
p351
aV-
aV2
aV8.17
p352
aa(lp353
V2011/2012
p354
aVShakhtar Done..
p355
aVUCL
p356
aV6
aV505
p357
aV1
aV-
aV1
aV-
aV2.7
p358
aV85.9
p359
aV0.5
p360
aV-
aV7.34
p361
aa(lp362
V2010/2011
p363
aVShakhtar Done..
p364
aVUCL
p365
aV10
p366
aV844
p367
aV2
aV1
aV-
aV-
aV1
aV85.9
p368
aV0.1
p369
aV1
aV7.11
p370
aa(lp371
VTotal / Average
p372
aV
aV
aV265
p373
aV17321
p374
aV45
p375
aV39
p376
aV21
p377
aV1
aV1.5
p378
aV83.8
p379
aV0.2
p380
aV27
p381
aV7.16
p382
aasS'defensive_data'
p383
(lp384
(lp385
a(lp386
V2018/2019
p387
aVChelsea
p388
aVEPL
p389
aV14(2)
p390
aV1084
p391
aV2
aV3
aV1
aV-
aV1.8
p392
aV84.9
p393
aV0.4
p394
aV1
aV7.17
p395
aa(lp396
V2018/2019
p397
aVChelsea
p398
aVUEL
p399
aV4(2)
p400
aV329
p401
aV2
aV2
aV-
aV-
aV3
aV84.8
p402
aV-
aV3
aV7.64
p403
aa(lp404
V2017/2018
p405
aVChelsea
p406
aVUCL
p407
aV4(4)
p408
aV429
p409
aV3
aV1
aV1
aV-
aV1.8
p410
aV72.5
p411
aV0.3
p412
aV3
aV7.39
p413
aa(lp414
V2017/2018
p415
aVChelsea
p416
aVEPL
p417
aV20(16)
p418
aV1883
p419
aV6
aV7
aV1
aV-
aV1.5
p420
aV80.2
p421
aV0.3
p422
aV4
aV7.01
p423
aa(lp424
V2016/2017
p425
aVChelsea
p426
aVEPL
p427
aV15(19)
p428
aV1531
p429
aV8
aV2
aV3
aV-
aV1.3
p430
aV83.5
p431
aV-
aV2
aV6.89
p432
aa(lp433
V2018
p434
aVBrazil
p435
aVWC
p436
aV5
aV362
p437
aV-
aV1
aV-
aV-
aV1
aV84.5
p438
aV0.8
p439
aV1
aV6.96
p440
aa(lp441
V2015/2016
p442
aVChelsea
p443
aVUCL
p444
aV8
aV642
p445
aV5
aV1
aV-
aV-
aV2.1
p446
aV81.9
p447
aV0.8
p448
aV3
aV8.05
p449
aa(lp450
V2015/2016
p451
aVChelsea
p452
aVEPL
p453
aV32(3)
p454
aV2751
p455
aV5
aV6
aV5
aV-
aV1.7
p456
aV82.4
p457
aV0.1
p458
aV3
aV7.20
p459
aa(lp460
V2015
p461
aVBrazil
p462
aVICA
p463
aV4
aV305
p464
aV-
aV1
aV-
aV-
aV0.8
p465
aV88.9
p466
aV0.3
p467
aV-
aV7.05
p468
aa(lp469
V2014/2015
p470
aVChelsea
p471
aVUCL
p472
aV5(2)
p473
aV486
p474
aV1
aV1
aV1
aV-
aV0.7
p475
aV88.4
p476
aV0.3
p477
aV1
aV7.28
p478
aa(lp479
V2014/2015
p480
aVChelsea
p481
aVEPL
p482
aV28(8)
p483
aV2418
p484
aV2
aV3
aV3
aV-
aV1.5
p485
aV85.1
p486
aV0.4
p487
aV-
aV7.02
p488
aa(lp489
V2013/2014
p490
aVChelsea
p491
aVUCL
p492
aV10(1)
p493
aV859
p494
aV-
aV2
aV2
aV-
aV0.5
p495
aV84.2
p496
aV0.3
p497
aV-
aV7.15
p498
aa(lp499
V2013/2014
p500
aVAnzhi Makhach..
p501
aVRPL
p502
aV4
aV360
p503
aV-
aV3
aV-
aV-
aV1.8
p504
aV83.4
p505
aV-
aV2
aV7.94
p506
aa(lp507
V2013/2014
p508
aVChelsea
p509
aVEPL
p510
aV18(7)
p511
aV1680
p512
aV4
aV2
aV3
aV1
aV1.8
p513
aV85.6
p514
aV0.3
p515
aV1
aV7.25
p516
aa(lp517
V2014
p518
aVBrazil
p519
aVWC
p520
aV1(4)
p521
aV152
p522
aV-
aV-
aV-
aV-
aV0.6
p523
aV94.7
p524
aV-
aV-
aV6.35
p525
aa(lp526
V2012/2013
p527
aVAnzhi Makhach..
p528
aVUEL
p529
aV3
aV176
p530
aV-
aV1
aV-
aV-
aV1
aV87.2
p531
aV-
aV-
aV6.91
p532
aa(lp533
V2012/2013
p534
aVShakhtar Done..
p535
aVUCL
p536
aV6
aV525
p537
aV4
aV2
aV-
aV-
aV2.5
p538
aV85.7
p539
aV-
aV2
aV8.17
p540
aa(lp541
V2011/2012
p542
aVShakhtar Done..
p543
aVUCL
p544
aV6
aV505
p545
aV1
aV-
aV1
aV-
aV2.7
p546
aV85.9
p547
aV0.5
p548
aV-
aV7.34
p549
aa(lp550
V2010/2011
p551
aVShakhtar Done..
p552
aVUCL
p553
aV10
p554
aV844
p555
aV2
aV1
aV-
aV-
aV1
aV85.9
p556
aV0.1
p557
aV1
aV7.11
p558
aa(lp559
VTotal / Average
p560
aV
aV
aV265
p561
aV17321
p562
aV45
p563
aV39
p564
aV21
p565
aV1
aV1.5
p566
aV83.8
p567
aV0.2
p568
aV27
p569
aV7.16
p570
aasS'sumary_data'
p571
(lp572
(lp573
a(lp574
V2018/2019
p575
aVChelsea
p576
aVEPL
p577
aV14(2)
p578
aV1084
p579
aV2
aV3
aV1
aV-
aV1.8
p580
aV84.9
p581
aV0.4
p582
aV1
aV7.17
p583
aa(lp584
V2018/2019
p585
aVChelsea
p586
aVUEL
p587
aV4(2)
p588
aV329
p589
aV2
aV2
aV-
aV-
aV3
aV84.8
p590
aV-
aV3
aV7.64
p591
aa(lp592
V2017/2018
p593
aVChelsea
p594
aVUCL
p595
aV4(4)
p596
aV429
p597
aV3
aV1
aV1
aV-
aV1.8
p598
aV72.5
p599
aV0.3
p600
aV3
aV7.39
p601
aa(lp602
V2017/2018
p603
aVChelsea
p604
aVEPL
p605
aV20(16)
p606
aV1883
p607
aV6
aV7
aV1
aV-
aV1.5
p608
aV80.2
p609
aV0.3
p610
aV4
aV7.01
p611
aa(lp612
V2016/2017
p613
aVChelsea
p614
aVEPL
p615
aV15(19)
p616
aV1531
p617
aV8
aV2
aV3
aV-
aV1.3
p618
aV83.5
p619
aV-
aV2
aV6.89
p620
aa(lp621
V2018
p622
aVBrazil
p623
aVWC
p624
aV5
aV362
p625
aV-
aV1
aV-
aV-
aV1
aV84.5
p626
aV0.8
p627
aV1
aV6.96
p628
aa(lp629
V2015/2016
p630
aVChelsea
p631
aVUCL
p632
aV8
aV642
p633
aV5
aV1
aV-
aV-
aV2.1
p634
aV81.9
p635
aV0.8
p636
aV3
aV8.05
p637
aa(lp638
V2015/2016
p639
aVChelsea
p640
aVEPL
p641
aV32(3)
p642
aV2751
p643
aV5
aV6
aV5
aV-
aV1.7
p644
aV82.4
p645
aV0.1
p646
aV3
aV7.20
p647
aa(lp648
V2015
p649
aVBrazil
p650
aVICA
p651
aV4
aV305
p652
aV-
aV1
aV-
aV-
aV0.8
p653
aV88.9
p654
aV0.3
p655
aV-
aV7.05
p656
aa(lp657
V2014/2015
p658
aVChelsea
p659
aVUCL
p660
aV5(2)
p661
aV486
p662
aV1
aV1
aV1
aV-
aV0.7
p663
aV88.4
p664
aV0.3
p665
aV1
aV7.28
p666
aa(lp667
V2014/2015
p668
aVChelsea
p669
aVEPL
p670
aV28(8)
p671
aV2418
p672
aV2
aV3
aV3
aV-
aV1.5
p673
aV85.1
p674
aV0.4
p675
aV-
aV7.02
p676
aa(lp677
V2013/2014
p678
aVChelsea
p679
aVUCL
p680
aV10(1)
p681
aV859
p682
aV-
aV2
aV2
aV-
aV0.5
p683
aV84.2
p684
aV0.3
p685
aV-
aV7.15
p686
aa(lp687
V2013/2014
p688
aVAnzhi Makhach..
p689
aVRPL
p690
aV4
aV360
p691
aV-
aV3
aV-
aV-
aV1.8
p692
aV83.4
p693
aV-
aV2
aV7.94
p694
aa(lp695
V2013/2014
p696
aVChelsea
p697
aVEPL
p698
aV18(7)
p699
aV1680
p700
aV4
aV2
aV3
aV1
aV1.8
p701
aV85.6
p702
aV0.3
p703
aV1
aV7.25
p704
aa(lp705
V2014
p706
aVBrazil
p707
aVWC
p708
aV1(4)
p709
aV152
p710
aV-
aV-
aV-
aV-
aV0.6
p711
aV94.7
p712
aV-
aV-
aV6.35
p713
aa(lp714
V2012/2013
p715
aVAnzhi Makhach..
p716
aVUEL
p717
aV3
aV176
p718
aV-
aV1
aV-
aV-
aV1
aV87.2
p719
aV-
aV-
aV6.91
p720
aa(lp721
V2012/2013
p722
aVShakhtar Done..
p723
aVUCL
p724
aV6
aV525
p725
aV4
aV2
aV-
aV-
aV2.5
p726
aV85.7
p727
aV-
aV2
aV8.17
p728
aa(lp729
V2011/2012
p730
aVShakhtar Done..
p731
aVUCL
p732
aV6
aV505
p733
aV1
aV-
aV1
aV-
aV2.7
p734
aV85.9
p735
aV0.5
p736
aV-
aV7.34
p737
aa(lp738
V2010/2011
p739
aVShakhtar Done..
p740
aVUCL
p741
aV10
p742
aV844
p743
aV2
aV1
aV-
aV-
aV1
aV85.9
p744
aV0.1
p745
aV1
aV7.11
p746
aa(lp747
VTotal / Average
p748
aV
aV
aV265
p749
aV17321
p750
aV45
p751
aV39
p752
aV21
p753
aV1
aV1.5
p754
aV83.8
p755
aV0.2
p756
aV27
p757
aV7.16
p758
aasS'id'
p759
V29463
p760
sb.