(i__main__
Player
p1
(dp2
S'name'
p3
VDavid Brooks 
p4
sS'offensive_data'
p5
(lp6
(lp7
a(lp8
V2018/2019
p9
aVBournemouth
p10
aVEPL
p11
aV14(1)
p12
aV1038
p13
aV3
aV1
aV1
aV-
aV1.6
p14
aV73.2
p15
aV0.3
p16
aV-
aV6.69
p17
aa(lp18
V2018/2019
p19
aVWales
p20
aVUNL
p21
aV3(1)
p22
aV298
p23
aV-
aV-
aV-
aV-
aV1.8
p24
aV79
p25
aV1
aV-
aV6.69
p26
aa(lp27
V2017/2018
p28
aVSheffield Uni..
p29
aVEC
p30
aV9(21)
p31
aV1148
p32
aV3
aV4
aV5
aV-
aV1.1
p33
aV79.2
p34
aV0.3
p35
aV-
aV6.54
p36
aa(lp37
VTotal / Average
p38
aV
aV
aV49
p39
aV2484
p40
aV6
aV5
aV6
aV0
aV1.3
p41
aV77.4
p42
aV0.3
p43
aV0
aV6.60
p44
aasS'url'
p45
S'https://www.whoscored.com/Players/295084/History/'
p46
sS'passing_data'
p47
(lp48
(lp49
a(lp50
V2018/2019
p51
aVBournemouth
p52
aVEPL
p53
aV14(1)
p54
aV1038
p55
aV3
aV1
aV1
aV-
aV1.6
p56
aV73.2
p57
aV0.3
p58
aV-
aV6.69
p59
aa(lp60
V2018/2019
p61
aVWales
p62
aVUNL
p63
aV3(1)
p64
aV298
p65
aV-
aV-
aV-
aV-
aV1.8
p66
aV79
p67
aV1
aV-
aV6.69
p68
aa(lp69
V2017/2018
p70
aVSheffield Uni..
p71
aVEC
p72
aV9(21)
p73
aV1148
p74
aV3
aV4
aV5
aV-
aV1.1
p75
aV79.2
p76
aV0.3
p77
aV-
aV6.54
p78
aa(lp79
VTotal / Average
p80
aV
aV
aV49
p81
aV2484
p82
aV6
aV5
aV6
aV0
aV1.3
p83
aV77.4
p84
aV0.3
p85
aV0
aV6.60
p86
aasS'defensive_data'
p87
(lp88
(lp89
a(lp90
V2018/2019
p91
aVBournemouth
p92
aVEPL
p93
aV14(1)
p94
aV1038
p95
aV3
aV1
aV1
aV-
aV1.6
p96
aV73.2
p97
aV0.3
p98
aV-
aV6.69
p99
aa(lp100
V2018/2019
p101
aVWales
p102
aVUNL
p103
aV3(1)
p104
aV298
p105
aV-
aV-
aV-
aV-
aV1.8
p106
aV79
p107
aV1
aV-
aV6.69
p108
aa(lp109
V2017/2018
p110
aVSheffield Uni..
p111
aVEC
p112
aV9(21)
p113
aV1148
p114
aV3
aV4
aV5
aV-
aV1.1
p115
aV79.2
p116
aV0.3
p117
aV-
aV6.54
p118
aa(lp119
VTotal / Average
p120
aV
aV
aV49
p121
aV2484
p122
aV6
aV5
aV6
aV0
aV1.3
p123
aV77.4
p124
aV0.3
p125
aV0
aV6.60
p126
aasS'sumary_data'
p127
(lp128
(lp129
a(lp130
V2018/2019
p131
aVBournemouth
p132
aVEPL
p133
aV14(1)
p134
aV1038
p135
aV3
aV1
aV1
aV-
aV1.6
p136
aV73.2
p137
aV0.3
p138
aV-
aV6.69
p139
aa(lp140
V2018/2019
p141
aVWales
p142
aVUNL
p143
aV3(1)
p144
aV298
p145
aV-
aV-
aV-
aV-
aV1.8
p146
aV79
p147
aV1
aV-
aV6.69
p148
aa(lp149
V2017/2018
p150
aVSheffield Uni..
p151
aVEC
p152
aV9(21)
p153
aV1148
p154
aV3
aV4
aV5
aV-
aV1.1
p155
aV79.2
p156
aV0.3
p157
aV-
aV6.54
p158
aa(lp159
VTotal / Average
p160
aV
aV
aV49
p161
aV2484
p162
aV6
aV5
aV6
aV0
aV1.3
p163
aV77.4
p164
aV0.3
p165
aV0
aV6.60
p166
aasS'id'
p167
V295084
p168
sb.