(i__main__
Player
p1
(dp2
S'name'
p3
VMorgan Schneiderlin 
p4
sS'offensive_data'
p5
(lp6
(lp7
a(lp8
V2018/2019
p9
aVEverton
p10
aVEPL
p11
aV4(2)
p12
aV250
p13
aV-
aV1
aV1
aV-
aV-
aV92.1
p14
aV1.2
p15
aV-
aV6.50
p16
aa(lp17
V2017/2018
p18
aVEverton
p19
aVUEL
p20
aV5
aV383
p21
aV-
aV-
aV-
aV1
aV0.4
p22
aV87.6
p23
aV1.4
p24
aV-
aV6.85
p25
aa(lp26
V2017/2018
p27
aVEverton
p28
aVEPL
p29
aV24(6)
p30
aV2129
p31
aV-
aV-
aV5
aV1
aV0.2
p32
aV83.9
p33
aV1.2
p34
aV-
aV6.57
p35
aa(lp36
V2016/2017
p37
aVEverton
p38
aVEPL
p39
aV12(2)
p40
aV1059
p41
aV1
aV-
aV2
aV-
aV0.6
p42
aV89.9
p43
aV1.3
p44
aV-
aV7.02
p45
aa(lp46
V2016/2017
p47
aVManchester Un..
p48
aVEPL
p49
aV0(3)
p50
aV11
p51
aV-
aV-
aV-
aV-
aV-
aV86.7
p52
aV-
aV-
aV6.04
p53
aa(lp54
V2016/2017
p55
aVManchester Un..
p56
aVUEL
p57
aV2
aV136
p58
aV-
aV-
aV1
aV-
aV-
aV94
p59
aV0.5
p60
aV-
aV6.47
p61
aa(lp62
V2015/2016
p63
aVManchester Un..
p64
aVUEL
p65
aV2(1)
p66
aV187
p67
aV-
aV-
aV-
aV-
aV1.3
p68
aV87.2
p69
aV0.7
p70
aV-
aV7.22
p71
aa(lp72
V2015/2016
p73
aVManchester Un..
p74
aVUCL
p75
aV3
aV270
p76
aV-
aV-
aV1
aV-
aV0.7
p77
aV87.1
p78
aV0.3
p79
aV-
aV6.76
p80
aa(lp81
V2015/2016
p82
aVManchester Un..
p83
aVEPL
p84
aV25(4)
p85
aV2205
p86
aV1
aV-
aV3
aV-
aV0.4
p87
aV89.5
p88
aV0.7
p89
aV-
aV6.92
p90
aa(lp91
V2014/2015
p92
aVSouthampton
p93
aVEPL
p94
aV24(2)
p95
aV2188
p96
aV4
aV1
aV5
aV1
aV1.2
p97
aV89.3
p98
aV1.8
p99
aV3
aV7.51
p100
aa(lp101
V2013/2014
p102
aVSouthampton
p103
aVEPL
p104
aV31(2)
p105
aV2767
p106
aV2
aV1
aV8
aV-
aV0.9
p107
aV89.3
p108
aV1.5
p109
aV2
aV7.21
p110
aa(lp111
V2014
p112
aVFrance
p113
aVWC
p114
aV1
aV90
p115
aV-
aV-
aV-
aV-
aV1
aV92.9
p116
aV-
aV-
aV7.22
p117
aa(lp118
V2012/2013
p119
aVSouthampton
p120
aVEPL
p121
aV36
p122
aV3210
p123
aV5
aV-
aV9
aV-
aV0.8
p124
aV85.1
p125
aV1.6
p126
aV4
aV7.28
p127
aa(lp128
VTotal / Average
p129
aV
aV
aV191
p130
aV14885
p131
aV13
p132
aV3
aV35
p133
aV3
aV0.6
p134
aV87.7
p135
aV1.3
p136
aV9
aV7.04
p137
aasS'url'
p138
S'https://www.whoscored.com/Players/29544/History/'
p139
sS'passing_data'
p140
(lp141
(lp142
a(lp143
V2018/2019
p144
aVEverton
p145
aVEPL
p146
aV4(2)
p147
aV250
p148
aV-
aV1
aV1
aV-
aV-
aV92.1
p149
aV1.2
p150
aV-
aV6.50
p151
aa(lp152
V2017/2018
p153
aVEverton
p154
aVUEL
p155
aV5
aV383
p156
aV-
aV-
aV-
aV1
aV0.4
p157
aV87.6
p158
aV1.4
p159
aV-
aV6.85
p160
aa(lp161
V2017/2018
p162
aVEverton
p163
aVEPL
p164
aV24(6)
p165
aV2129
p166
aV-
aV-
aV5
aV1
aV0.2
p167
aV83.9
p168
aV1.2
p169
aV-
aV6.57
p170
aa(lp171
V2016/2017
p172
aVEverton
p173
aVEPL
p174
aV12(2)
p175
aV1059
p176
aV1
aV-
aV2
aV-
aV0.6
p177
aV89.9
p178
aV1.3
p179
aV-
aV7.02
p180
aa(lp181
V2016/2017
p182
aVManchester Un..
p183
aVEPL
p184
aV0(3)
p185
aV11
p186
aV-
aV-
aV-
aV-
aV-
aV86.7
p187
aV-
aV-
aV6.04
p188
aa(lp189
V2016/2017
p190
aVManchester Un..
p191
aVUEL
p192
aV2
aV136
p193
aV-
aV-
aV1
aV-
aV-
aV94
p194
aV0.5
p195
aV-
aV6.47
p196
aa(lp197
V2015/2016
p198
aVManchester Un..
p199
aVUEL
p200
aV2(1)
p201
aV187
p202
aV-
aV-
aV-
aV-
aV1.3
p203
aV87.2
p204
aV0.7
p205
aV-
aV7.22
p206
aa(lp207
V2015/2016
p208
aVManchester Un..
p209
aVUCL
p210
aV3
aV270
p211
aV-
aV-
aV1
aV-
aV0.7
p212
aV87.1
p213
aV0.3
p214
aV-
aV6.76
p215
aa(lp216
V2015/2016
p217
aVManchester Un..
p218
aVEPL
p219
aV25(4)
p220
aV2205
p221
aV1
aV-
aV3
aV-
aV0.4
p222
aV89.5
p223
aV0.7
p224
aV-
aV6.92
p225
aa(lp226
V2014/2015
p227
aVSouthampton
p228
aVEPL
p229
aV24(2)
p230
aV2188
p231
aV4
aV1
aV5
aV1
aV1.2
p232
aV89.3
p233
aV1.8
p234
aV3
aV7.51
p235
aa(lp236
V2013/2014
p237
aVSouthampton
p238
aVEPL
p239
aV31(2)
p240
aV2767
p241
aV2
aV1
aV8
aV-
aV0.9
p242
aV89.3
p243
aV1.5
p244
aV2
aV7.21
p245
aa(lp246
V2014
p247
aVFrance
p248
aVWC
p249
aV1
aV90
p250
aV-
aV-
aV-
aV-
aV1
aV92.9
p251
aV-
aV-
aV7.22
p252
aa(lp253
V2012/2013
p254
aVSouthampton
p255
aVEPL
p256
aV36
p257
aV3210
p258
aV5
aV-
aV9
aV-
aV0.8
p259
aV85.1
p260
aV1.6
p261
aV4
aV7.28
p262
aa(lp263
VTotal / Average
p264
aV
aV
aV191
p265
aV14885
p266
aV13
p267
aV3
aV35
p268
aV3
aV0.6
p269
aV87.7
p270
aV1.3
p271
aV9
aV7.04
p272
aasS'defensive_data'
p273
(lp274
(lp275
a(lp276
V2018/2019
p277
aVEverton
p278
aVEPL
p279
aV4(2)
p280
aV250
p281
aV-
aV1
aV1
aV-
aV-
aV92.1
p282
aV1.2
p283
aV-
aV6.50
p284
aa(lp285
V2017/2018
p286
aVEverton
p287
aVUEL
p288
aV5
aV383
p289
aV-
aV-
aV-
aV1
aV0.4
p290
aV87.6
p291
aV1.4
p292
aV-
aV6.85
p293
aa(lp294
V2017/2018
p295
aVEverton
p296
aVEPL
p297
aV24(6)
p298
aV2129
p299
aV-
aV-
aV5
aV1
aV0.2
p300
aV83.9
p301
aV1.2
p302
aV-
aV6.57
p303
aa(lp304
V2016/2017
p305
aVEverton
p306
aVEPL
p307
aV12(2)
p308
aV1059
p309
aV1
aV-
aV2
aV-
aV0.6
p310
aV89.9
p311
aV1.3
p312
aV-
aV7.02
p313
aa(lp314
V2016/2017
p315
aVManchester Un..
p316
aVEPL
p317
aV0(3)
p318
aV11
p319
aV-
aV-
aV-
aV-
aV-
aV86.7
p320
aV-
aV-
aV6.04
p321
aa(lp322
V2016/2017
p323
aVManchester Un..
p324
aVUEL
p325
aV2
aV136
p326
aV-
aV-
aV1
aV-
aV-
aV94
p327
aV0.5
p328
aV-
aV6.47
p329
aa(lp330
V2015/2016
p331
aVManchester Un..
p332
aVUEL
p333
aV2(1)
p334
aV187
p335
aV-
aV-
aV-
aV-
aV1.3
p336
aV87.2
p337
aV0.7
p338
aV-
aV7.22
p339
aa(lp340
V2015/2016
p341
aVManchester Un..
p342
aVUCL
p343
aV3
aV270
p344
aV-
aV-
aV1
aV-
aV0.7
p345
aV87.1
p346
aV0.3
p347
aV-
aV6.76
p348
aa(lp349
V2015/2016
p350
aVManchester Un..
p351
aVEPL
p352
aV25(4)
p353
aV2205
p354
aV1
aV-
aV3
aV-
aV0.4
p355
aV89.5
p356
aV0.7
p357
aV-
aV6.92
p358
aa(lp359
V2014/2015
p360
aVSouthampton
p361
aVEPL
p362
aV24(2)
p363
aV2188
p364
aV4
aV1
aV5
aV1
aV1.2
p365
aV89.3
p366
aV1.8
p367
aV3
aV7.51
p368
aa(lp369
V2013/2014
p370
aVSouthampton
p371
aVEPL
p372
aV31(2)
p373
aV2767
p374
aV2
aV1
aV8
aV-
aV0.9
p375
aV89.3
p376
aV1.5
p377
aV2
aV7.21
p378
aa(lp379
V2014
p380
aVFrance
p381
aVWC
p382
aV1
aV90
p383
aV-
aV-
aV-
aV-
aV1
aV92.9
p384
aV-
aV-
aV7.22
p385
aa(lp386
V2012/2013
p387
aVSouthampton
p388
aVEPL
p389
aV36
p390
aV3210
p391
aV5
aV-
aV9
aV-
aV0.8
p392
aV85.1
p393
aV1.6
p394
aV4
aV7.28
p395
aa(lp396
VTotal / Average
p397
aV
aV
aV191
p398
aV14885
p399
aV13
p400
aV3
aV35
p401
aV3
aV0.6
p402
aV87.7
p403
aV1.3
p404
aV9
aV7.04
p405
aasS'sumary_data'
p406
(lp407
(lp408
a(lp409
V2018/2019
p410
aVEverton
p411
aVEPL
p412
aV4(2)
p413
aV250
p414
aV-
aV1
aV1
aV-
aV-
aV92.1
p415
aV1.2
p416
aV-
aV6.50
p417
aa(lp418
V2017/2018
p419
aVEverton
p420
aVUEL
p421
aV5
aV383
p422
aV-
aV-
aV-
aV1
aV0.4
p423
aV87.6
p424
aV1.4
p425
aV-
aV6.85
p426
aa(lp427
V2017/2018
p428
aVEverton
p429
aVEPL
p430
aV24(6)
p431
aV2129
p432
aV-
aV-
aV5
aV1
aV0.2
p433
aV83.9
p434
aV1.2
p435
aV-
aV6.57
p436
aa(lp437
V2016/2017
p438
aVEverton
p439
aVEPL
p440
aV12(2)
p441
aV1059
p442
aV1
aV-
aV2
aV-
aV0.6
p443
aV89.9
p444
aV1.3
p445
aV-
aV7.02
p446
aa(lp447
V2016/2017
p448
aVManchester Un..
p449
aVEPL
p450
aV0(3)
p451
aV11
p452
aV-
aV-
aV-
aV-
aV-
aV86.7
p453
aV-
aV-
aV6.04
p454
aa(lp455
V2016/2017
p456
aVManchester Un..
p457
aVUEL
p458
aV2
aV136
p459
aV-
aV-
aV1
aV-
aV-
aV94
p460
aV0.5
p461
aV-
aV6.47
p462
aa(lp463
V2015/2016
p464
aVManchester Un..
p465
aVUEL
p466
aV2(1)
p467
aV187
p468
aV-
aV-
aV-
aV-
aV1.3
p469
aV87.2
p470
aV0.7
p471
aV-
aV7.22
p472
aa(lp473
V2015/2016
p474
aVManchester Un..
p475
aVUCL
p476
aV3
aV270
p477
aV-
aV-
aV1
aV-
aV0.7
p478
aV87.1
p479
aV0.3
p480
aV-
aV6.76
p481
aa(lp482
V2015/2016
p483
aVManchester Un..
p484
aVEPL
p485
aV25(4)
p486
aV2205
p487
aV1
aV-
aV3
aV-
aV0.4
p488
aV89.5
p489
aV0.7
p490
aV-
aV6.92
p491
aa(lp492
V2014/2015
p493
aVSouthampton
p494
aVEPL
p495
aV24(2)
p496
aV2188
p497
aV4
aV1
aV5
aV1
aV1.2
p498
aV89.3
p499
aV1.8
p500
aV3
aV7.51
p501
aa(lp502
V2013/2014
p503
aVSouthampton
p504
aVEPL
p505
aV31(2)
p506
aV2767
p507
aV2
aV1
aV8
aV-
aV0.9
p508
aV89.3
p509
aV1.5
p510
aV2
aV7.21
p511
aa(lp512
V2014
p513
aVFrance
p514
aVWC
p515
aV1
aV90
p516
aV-
aV-
aV-
aV-
aV1
aV92.9
p517
aV-
aV-
aV7.22
p518
aa(lp519
V2012/2013
p520
aVSouthampton
p521
aVEPL
p522
aV36
p523
aV3210
p524
aV5
aV-
aV9
aV-
aV0.8
p525
aV85.1
p526
aV1.6
p527
aV4
aV7.28
p528
aa(lp529
VTotal / Average
p530
aV
aV
aV191
p531
aV14885
p532
aV13
p533
aV3
aV35
p534
aV3
aV0.6
p535
aV87.7
p536
aV1.3
p537
aV9
aV7.04
p538
aasS'id'
p539
V29544
p540
sb.