(i__main__
Player
p1
(dp2
S'name'
p3
VMamadou Sakho 
p4
sS'offensive_data'
p5
(lp6
(lp7
a(lp8
V2018/2019
p9
aVCrystal Palac..
p10
aVEPL
p11
aV17
p12
aV1530
p13
aV-
aV-
aV2
aV-
aV0.1
p14
aV89.2
p15
aV2
aV-
aV6.71
p16
aa(lp17
V2017/2018
p18
aVCrystal Palac..
p19
aVEPL
p20
aV18(1)
p21
aV1599
p22
aV1
aV2
aV1
aV-
aV0.2
p23
aV85.5
p24
aV2.2
p25
aV-
aV6.81
p26
aa(lp27
V2016/2017
p28
aVCrystal Palac..
p29
aVEPL
p30
aV8
aV687
p31
aV-
aV-
aV-
aV-
aV0.3
p32
aV82.7
p33
aV2.4
p34
aV-
aV7.07
p35
aa(lp36
V2015/2016
p37
aVLiverpool
p38
aVUEL
p39
aV9(1)
p40
aV824
p41
aV1
aV-
aV1
aV-
aV0.1
p42
aV89.3
p43
aV3
aV-
aV7.25
p44
aa(lp45
V2015/2016
p46
aVLiverpool
p47
aVEPL
p48
aV21(1)
p49
aV1855
p50
aV1
aV-
aV1
aV-
aV0.3
p51
aV87.9
p52
aV3.4
p53
aV-
aV7.07
p54
aa(lp55
V2014/2015
p56
aVLiverpool
p57
aVUCL
p58
aV1
aV90
p59
aV-
aV-
aV-
aV-
aV1
aV97
p60
aV3
aV-
aV6.73
p61
aa(lp62
V2014/2015
p63
aVLiverpool
p64
aVUEL
p65
aV1
aV90
p66
aV-
aV-
aV-
aV-
aV-
aV94.9
p67
aV2
aV-
aV7.19
p68
aa(lp69
V2014/2015
p70
aVLiverpool
p71
aVEPL
p72
aV15(1)
p73
aV1418
p74
aV-
aV-
aV1
aV-
aV0.1
p75
aV89.5
p76
aV2.8
p77
aV1
aV7.05
p78
aa(lp79
V2013/2014
p80
aVLiverpool
p81
aVEPL
p82
aV17(1)
p83
aV1481
p84
aV1
aV-
aV-
aV-
aV0.6
p85
aV92.5
p86
aV2.7
p87
aV-
aV7.05
p88
aa(lp89
V2014
p90
aVFrance
p91
aVWC
p92
aV4
aV289
p93
aV-
aV-
aV-
aV-
aV0.3
p94
aV91.4
p95
aV4.5
p96
aV-
aV7.15
p97
aa(lp98
V2012/2013
p99
aVParis Saint-G..
p100
aVUCL
p101
aV2(1)
p102
aV187
p103
aV-
aV-
aV-
aV-
aV0.3
p104
aV91.5
p105
aV1
aV-
aV6.58
p106
aa(lp107
V2012/2013
p108
aVParis Saint-G..
p109
aVFL1
p110
aV24(3)
p111
aV2140
p112
aV2
aV-
aV3
aV1
aV0.4
p113
aV91.6
p114
aV3.1
p115
aV-
aV7.15
p116
aa(lp117
V2011/2012
p118
aVParis Saint-G..
p119
aVFL1
p120
aV20(2)
p121
aV1774
p122
aV-
aV-
aV4
aV1
aV0.4
p123
aV86.8
p124
aV2.7
p125
aV-
aV6.87
p126
aa(lp127
V2010/2011
p128
aVParis Saint-G..
p129
aVFL1
p130
aV35
p131
aV3037
p132
aV4
aV1
aV5
aV1
aV0.4
p133
aV84
p134
aV2.6
p135
aV1
aV7.23
p136
aa(lp137
V2009/2010
p138
aVParis Saint-G..
p139
aVFL1
p140
aV32
p141
aV2827
p142
aV-
aV1
aV6
aV1
aV0.2
p143
aV79.6
p144
aV1.4
p145
aV-
aV6.84
p146
aa(lp147
VTotal / Average
p148
aV
aV
aV235
p149
aV19828
p150
aV10
p151
aV4
aV24
p152
aV4
aV0.3
p153
aV86.9
p154
aV2.5
p155
aV2
aV7.01
p156
aasS'url'
p157
S'https://www.whoscored.com/Players/29575/History/'
p158
sS'passing_data'
p159
(lp160
(lp161
a(lp162
V2018/2019
p163
aVCrystal Palac..
p164
aVEPL
p165
aV17
p166
aV1530
p167
aV-
aV-
aV2
aV-
aV0.1
p168
aV89.2
p169
aV2
aV-
aV6.71
p170
aa(lp171
V2017/2018
p172
aVCrystal Palac..
p173
aVEPL
p174
aV18(1)
p175
aV1599
p176
aV1
aV2
aV1
aV-
aV0.2
p177
aV85.5
p178
aV2.2
p179
aV-
aV6.81
p180
aa(lp181
V2016/2017
p182
aVCrystal Palac..
p183
aVEPL
p184
aV8
aV687
p185
aV-
aV-
aV-
aV-
aV0.3
p186
aV82.7
p187
aV2.4
p188
aV-
aV7.07
p189
aa(lp190
V2015/2016
p191
aVLiverpool
p192
aVUEL
p193
aV9(1)
p194
aV824
p195
aV1
aV-
aV1
aV-
aV0.1
p196
aV89.3
p197
aV3
aV-
aV7.25
p198
aa(lp199
V2015/2016
p200
aVLiverpool
p201
aVEPL
p202
aV21(1)
p203
aV1855
p204
aV1
aV-
aV1
aV-
aV0.3
p205
aV87.9
p206
aV3.4
p207
aV-
aV7.07
p208
aa(lp209
V2014/2015
p210
aVLiverpool
p211
aVUCL
p212
aV1
aV90
p213
aV-
aV-
aV-
aV-
aV1
aV97
p214
aV3
aV-
aV6.73
p215
aa(lp216
V2014/2015
p217
aVLiverpool
p218
aVUEL
p219
aV1
aV90
p220
aV-
aV-
aV-
aV-
aV-
aV94.9
p221
aV2
aV-
aV7.19
p222
aa(lp223
V2014/2015
p224
aVLiverpool
p225
aVEPL
p226
aV15(1)
p227
aV1418
p228
aV-
aV-
aV1
aV-
aV0.1
p229
aV89.5
p230
aV2.8
p231
aV1
aV7.05
p232
aa(lp233
V2013/2014
p234
aVLiverpool
p235
aVEPL
p236
aV17(1)
p237
aV1481
p238
aV1
aV-
aV-
aV-
aV0.6
p239
aV92.5
p240
aV2.7
p241
aV-
aV7.05
p242
aa(lp243
V2014
p244
aVFrance
p245
aVWC
p246
aV4
aV289
p247
aV-
aV-
aV-
aV-
aV0.3
p248
aV91.4
p249
aV4.5
p250
aV-
aV7.15
p251
aa(lp252
V2012/2013
p253
aVParis Saint-G..
p254
aVUCL
p255
aV2(1)
p256
aV187
p257
aV-
aV-
aV-
aV-
aV0.3
p258
aV91.5
p259
aV1
aV-
aV6.58
p260
aa(lp261
V2012/2013
p262
aVParis Saint-G..
p263
aVFL1
p264
aV24(3)
p265
aV2140
p266
aV2
aV-
aV3
aV1
aV0.4
p267
aV91.6
p268
aV3.1
p269
aV-
aV7.15
p270
aa(lp271
V2011/2012
p272
aVParis Saint-G..
p273
aVFL1
p274
aV20(2)
p275
aV1774
p276
aV-
aV-
aV4
aV1
aV0.4
p277
aV86.8
p278
aV2.7
p279
aV-
aV6.87
p280
aa(lp281
V2010/2011
p282
aVParis Saint-G..
p283
aVFL1
p284
aV35
p285
aV3037
p286
aV4
aV1
aV5
aV1
aV0.4
p287
aV84
p288
aV2.6
p289
aV1
aV7.23
p290
aa(lp291
V2009/2010
p292
aVParis Saint-G..
p293
aVFL1
p294
aV32
p295
aV2827
p296
aV-
aV1
aV6
aV1
aV0.2
p297
aV79.6
p298
aV1.4
p299
aV-
aV6.84
p300
aa(lp301
VTotal / Average
p302
aV
aV
aV235
p303
aV19828
p304
aV10
p305
aV4
aV24
p306
aV4
aV0.3
p307
aV86.9
p308
aV2.5
p309
aV2
aV7.01
p310
aasS'defensive_data'
p311
(lp312
(lp313
a(lp314
V2018/2019
p315
aVCrystal Palac..
p316
aVEPL
p317
aV17
p318
aV1530
p319
aV-
aV-
aV2
aV-
aV0.1
p320
aV89.2
p321
aV2
aV-
aV6.71
p322
aa(lp323
V2017/2018
p324
aVCrystal Palac..
p325
aVEPL
p326
aV18(1)
p327
aV1599
p328
aV1
aV2
aV1
aV-
aV0.2
p329
aV85.5
p330
aV2.2
p331
aV-
aV6.81
p332
aa(lp333
V2016/2017
p334
aVCrystal Palac..
p335
aVEPL
p336
aV8
aV687
p337
aV-
aV-
aV-
aV-
aV0.3
p338
aV82.7
p339
aV2.4
p340
aV-
aV7.07
p341
aa(lp342
V2015/2016
p343
aVLiverpool
p344
aVUEL
p345
aV9(1)
p346
aV824
p347
aV1
aV-
aV1
aV-
aV0.1
p348
aV89.3
p349
aV3
aV-
aV7.25
p350
aa(lp351
V2015/2016
p352
aVLiverpool
p353
aVEPL
p354
aV21(1)
p355
aV1855
p356
aV1
aV-
aV1
aV-
aV0.3
p357
aV87.9
p358
aV3.4
p359
aV-
aV7.07
p360
aa(lp361
V2014/2015
p362
aVLiverpool
p363
aVUCL
p364
aV1
aV90
p365
aV-
aV-
aV-
aV-
aV1
aV97
p366
aV3
aV-
aV6.73
p367
aa(lp368
V2014/2015
p369
aVLiverpool
p370
aVUEL
p371
aV1
aV90
p372
aV-
aV-
aV-
aV-
aV-
aV94.9
p373
aV2
aV-
aV7.19
p374
aa(lp375
V2014/2015
p376
aVLiverpool
p377
aVEPL
p378
aV15(1)
p379
aV1418
p380
aV-
aV-
aV1
aV-
aV0.1
p381
aV89.5
p382
aV2.8
p383
aV1
aV7.05
p384
aa(lp385
V2013/2014
p386
aVLiverpool
p387
aVEPL
p388
aV17(1)
p389
aV1481
p390
aV1
aV-
aV-
aV-
aV0.6
p391
aV92.5
p392
aV2.7
p393
aV-
aV7.05
p394
aa(lp395
V2014
p396
aVFrance
p397
aVWC
p398
aV4
aV289
p399
aV-
aV-
aV-
aV-
aV0.3
p400
aV91.4
p401
aV4.5
p402
aV-
aV7.15
p403
aa(lp404
V2012/2013
p405
aVParis Saint-G..
p406
aVUCL
p407
aV2(1)
p408
aV187
p409
aV-
aV-
aV-
aV-
aV0.3
p410
aV91.5
p411
aV1
aV-
aV6.58
p412
aa(lp413
V2012/2013
p414
aVParis Saint-G..
p415
aVFL1
p416
aV24(3)
p417
aV2140
p418
aV2
aV-
aV3
aV1
aV0.4
p419
aV91.6
p420
aV3.1
p421
aV-
aV7.15
p422
aa(lp423
V2011/2012
p424
aVParis Saint-G..
p425
aVFL1
p426
aV20(2)
p427
aV1774
p428
aV-
aV-
aV4
aV1
aV0.4
p429
aV86.8
p430
aV2.7
p431
aV-
aV6.87
p432
aa(lp433
V2010/2011
p434
aVParis Saint-G..
p435
aVFL1
p436
aV35
p437
aV3037
p438
aV4
aV1
aV5
aV1
aV0.4
p439
aV84
p440
aV2.6
p441
aV1
aV7.23
p442
aa(lp443
V2009/2010
p444
aVParis Saint-G..
p445
aVFL1
p446
aV32
p447
aV2827
p448
aV-
aV1
aV6
aV1
aV0.2
p449
aV79.6
p450
aV1.4
p451
aV-
aV6.84
p452
aa(lp453
VTotal / Average
p454
aV
aV
aV235
p455
aV19828
p456
aV10
p457
aV4
aV24
p458
aV4
aV0.3
p459
aV86.9
p460
aV2.5
p461
aV2
aV7.01
p462
aasS'sumary_data'
p463
(lp464
(lp465
a(lp466
V2018/2019
p467
aVCrystal Palac..
p468
aVEPL
p469
aV17
p470
aV1530
p471
aV-
aV-
aV2
aV-
aV0.1
p472
aV89.2
p473
aV2
aV-
aV6.71
p474
aa(lp475
V2017/2018
p476
aVCrystal Palac..
p477
aVEPL
p478
aV18(1)
p479
aV1599
p480
aV1
aV2
aV1
aV-
aV0.2
p481
aV85.5
p482
aV2.2
p483
aV-
aV6.81
p484
aa(lp485
V2016/2017
p486
aVCrystal Palac..
p487
aVEPL
p488
aV8
aV687
p489
aV-
aV-
aV-
aV-
aV0.3
p490
aV82.7
p491
aV2.4
p492
aV-
aV7.07
p493
aa(lp494
V2015/2016
p495
aVLiverpool
p496
aVUEL
p497
aV9(1)
p498
aV824
p499
aV1
aV-
aV1
aV-
aV0.1
p500
aV89.3
p501
aV3
aV-
aV7.25
p502
aa(lp503
V2015/2016
p504
aVLiverpool
p505
aVEPL
p506
aV21(1)
p507
aV1855
p508
aV1
aV-
aV1
aV-
aV0.3
p509
aV87.9
p510
aV3.4
p511
aV-
aV7.07
p512
aa(lp513
V2014/2015
p514
aVLiverpool
p515
aVUCL
p516
aV1
aV90
p517
aV-
aV-
aV-
aV-
aV1
aV97
p518
aV3
aV-
aV6.73
p519
aa(lp520
V2014/2015
p521
aVLiverpool
p522
aVUEL
p523
aV1
aV90
p524
aV-
aV-
aV-
aV-
aV-
aV94.9
p525
aV2
aV-
aV7.19
p526
aa(lp527
V2014/2015
p528
aVLiverpool
p529
aVEPL
p530
aV15(1)
p531
aV1418
p532
aV-
aV-
aV1
aV-
aV0.1
p533
aV89.5
p534
aV2.8
p535
aV1
aV7.05
p536
aa(lp537
V2013/2014
p538
aVLiverpool
p539
aVEPL
p540
aV17(1)
p541
aV1481
p542
aV1
aV-
aV-
aV-
aV0.6
p543
aV92.5
p544
aV2.7
p545
aV-
aV7.05
p546
aa(lp547
V2014
p548
aVFrance
p549
aVWC
p550
aV4
aV289
p551
aV-
aV-
aV-
aV-
aV0.3
p552
aV91.4
p553
aV4.5
p554
aV-
aV7.15
p555
aa(lp556
V2012/2013
p557
aVParis Saint-G..
p558
aVUCL
p559
aV2(1)
p560
aV187
p561
aV-
aV-
aV-
aV-
aV0.3
p562
aV91.5
p563
aV1
aV-
aV6.58
p564
aa(lp565
V2012/2013
p566
aVParis Saint-G..
p567
aVFL1
p568
aV24(3)
p569
aV2140
p570
aV2
aV-
aV3
aV1
aV0.4
p571
aV91.6
p572
aV3.1
p573
aV-
aV7.15
p574
aa(lp575
V2011/2012
p576
aVParis Saint-G..
p577
aVFL1
p578
aV20(2)
p579
aV1774
p580
aV-
aV-
aV4
aV1
aV0.4
p581
aV86.8
p582
aV2.7
p583
aV-
aV6.87
p584
aa(lp585
V2010/2011
p586
aVParis Saint-G..
p587
aVFL1
p588
aV35
p589
aV3037
p590
aV4
aV1
aV5
aV1
aV0.4
p591
aV84
p592
aV2.6
p593
aV1
aV7.23
p594
aa(lp595
V2009/2010
p596
aVParis Saint-G..
p597
aVFL1
p598
aV32
p599
aV2827
p600
aV-
aV1
aV6
aV1
aV0.2
p601
aV79.6
p602
aV1.4
p603
aV-
aV6.84
p604
aa(lp605
VTotal / Average
p606
aV
aV
aV235
p607
aV19828
p608
aV10
p609
aV4
aV24
p610
aV4
aV0.3
p611
aV86.9
p612
aV2.5
p613
aV2
aV7.01
p614
aasS'id'
p615
V29575
p616
sb.