(i__main__
Player
p1
(dp2
S'name'
p3
VMoussa Sissoko 
p4
sS'offensive_data'
p5
(lp6
(lp7
a(lp8
V2018/2019
p9
aVTottenham
p10
aVEPL
p11
aV10(2)
p12
aV911
p13
aV-
aV1
aV-
aV-
aV0.3
p14
aV84.4
p15
aV0.7
p16
aV-
aV6.70
p17
aa(lp18
V2018/2019
p19
aVTottenham
p20
aVUCL
p21
aV2(1)
p22
aV204
p23
aV-
aV-
aV-
aV-
aV0.7
p24
aV89
p25
aV0.3
p26
aV-
aV6.67
p27
aa(lp28
V2018/2019
p29
aVFrance
p30
aVUNL
p31
aV0(1)
p32
aV25
p33
aV-
aV-
aV-
aV-
aV-
aV90
p34
aV-
aV-
aV5.48
p35
aa(lp36
V2017/2018
p37
aVTottenham
p38
aVUCL
p39
aV3(3)
p40
aV341
p41
aV-
aV1
aV-
aV-
aV0.7
p42
aV88.4
p43
aV0.5
p44
aV-
aV6.92
p45
aa(lp46
V2017/2018
p47
aVTottenham
p48
aVEPL
p49
aV15(18)
p50
aV1396
p51
aV1
aV1
aV3
aV-
aV0.6
p52
aV83.5
p53
aV0.5
p54
aV-
aV6.46
p55
aa(lp56
V2016/2017
p57
aVTottenham
p58
aVUCL
p59
aV1(3)
p60
aV134
p61
aV-
aV-
aV-
aV-
aV0.3
p62
aV69.6
p63
aV1
aV-
aV6.41
p64
aa(lp65
V2016/2017
p66
aVTottenham
p67
aVEPL
p68
aV8(17)
p69
aV903
p70
aV-
aV2
aV3
aV-
aV0.7
p71
aV81.9
p72
aV0.5
p73
aV-
aV6.46
p74
aa(lp75
V2016/2017
p76
aVTottenham
p77
aVUEL
p78
aV1
aV71
p79
aV-
aV-
aV-
aV-
aV-
aV86.2
p80
aV-
aV-
aV6.19
p81
aa(lp82
V2015/2016
p83
aVNewcastle Uni..
p84
aVEPL
p85
aV37
p86
aV3223
p87
aV1
aV7
aV3
aV-
aV1
aV76
p88
aV1.5
p89
aV4
aV7.04
p90
aa(lp91
V2014/2015
p92
aVNewcastle Uni..
p93
aVEPL
p94
aV34
p95
aV3032
p96
aV4
aV2
aV7
aV2
aV1.3
p97
aV79.1
p98
aV1.4
p99
aV-
aV6.92
p100
aa(lp101
V2016
p102
aVFrance
p103
aVUEC
p104
aV4(2)
p105
aV382
p106
aV-
aV-
aV-
aV-
aV1.3
p107
aV88.7
p108
aV0.3
p109
aV-
aV7.14
p110
aa(lp111
V2013/2014
p112
aVNewcastle Uni..
p113
aVEPL
p114
aV35
p115
aV3036
p116
aV3
aV6
aV8
aV-
aV1.3
p117
aV81.2
p118
aV0.9
p119
aV1
aV7.09
p120
aa(lp121
V2014
p122
aVFrance
p123
aVWC
p124
aV2(2)
p125
aV214
p126
aV1
aV-
aV-
aV-
aV0.8
p127
aV79.8
p128
aV0.3
p129
aV-
aV6.62
p130
aa(lp131
V2012/2013
p132
aVNewcastle Uni..
p133
aVUEL
p134
aV6
aV540
p135
aV-
aV1
aV1
aV-
aV1
aV81.9
p136
aV0.8
p137
aV-
aV6.79
p138
aa(lp139
V2012/2013
p140
aVNewcastle Uni..
p141
aVEPL
p142
aV12
p143
aV1070
p144
aV3
aV2
aV2
aV-
aV2
aV78.6
p145
aV2.3
p146
aV1
aV7.03
p147
aa(lp148
V2012/2013
p149
aVToulouse
p150
aVFL1
p151
aV18(1)
p152
aV1554
p153
aV1
aV1
aV2
aV-
aV1
aV80.5
p154
aV0.8
p155
aV1
aV6.69
p156
aa(lp157
V2011/2012
p158
aVToulouse
p159
aVFL1
p160
aV33(2)
p161
aV2917
p162
aV2
aV3
aV6
aV1
aV1.7
p163
aV77.1
p164
aV1.2
p165
aV2
aV6.74
p166
aa(lp167
V2010/2011
p168
aVToulouse
p169
aVFL1
p170
aV32(4)
p171
aV2958
p172
aV5
aV1
aV5
aV-
aV1.3
p173
aV76.6
p174
aV1.6
p175
aV1
aV6.81
p176
aa(lp177
V2009/2010
p178
aVToulouse
p179
aVFL1
p180
aV35(2)
p181
aV3190
p182
aV7
aV3
aV4
aV-
aV1.4
p183
aV77.8
p184
aV1.9
p185
aV3
aV7.08
p186
aa(lp187
VTotal / Average
p188
aV
aV
aV346
p189
aV26101
p190
aV28
p191
aV31
p192
aV44
p193
aV3
aV1.1
p194
aV79.7
p195
aV1.1
p196
aV13
p197
aV6.83
p198
aasS'url'
p199
S'https://www.whoscored.com/Players/29595/History/'
p200
sS'passing_data'
p201
(lp202
(lp203
a(lp204
V2018/2019
p205
aVTottenham
p206
aVEPL
p207
aV10(2)
p208
aV911
p209
aV-
aV1
aV-
aV-
aV0.3
p210
aV84.4
p211
aV0.7
p212
aV-
aV6.70
p213
aa(lp214
V2018/2019
p215
aVTottenham
p216
aVUCL
p217
aV2(1)
p218
aV204
p219
aV-
aV-
aV-
aV-
aV0.7
p220
aV89
p221
aV0.3
p222
aV-
aV6.67
p223
aa(lp224
V2018/2019
p225
aVFrance
p226
aVUNL
p227
aV0(1)
p228
aV25
p229
aV-
aV-
aV-
aV-
aV-
aV90
p230
aV-
aV-
aV5.48
p231
aa(lp232
V2017/2018
p233
aVTottenham
p234
aVUCL
p235
aV3(3)
p236
aV341
p237
aV-
aV1
aV-
aV-
aV0.7
p238
aV88.4
p239
aV0.5
p240
aV-
aV6.92
p241
aa(lp242
V2017/2018
p243
aVTottenham
p244
aVEPL
p245
aV15(18)
p246
aV1396
p247
aV1
aV1
aV3
aV-
aV0.6
p248
aV83.5
p249
aV0.5
p250
aV-
aV6.46
p251
aa(lp252
V2016/2017
p253
aVTottenham
p254
aVUCL
p255
aV1(3)
p256
aV134
p257
aV-
aV-
aV-
aV-
aV0.3
p258
aV69.6
p259
aV1
aV-
aV6.41
p260
aa(lp261
V2016/2017
p262
aVTottenham
p263
aVEPL
p264
aV8(17)
p265
aV903
p266
aV-
aV2
aV3
aV-
aV0.7
p267
aV81.9
p268
aV0.5
p269
aV-
aV6.46
p270
aa(lp271
V2016/2017
p272
aVTottenham
p273
aVUEL
p274
aV1
aV71
p275
aV-
aV-
aV-
aV-
aV-
aV86.2
p276
aV-
aV-
aV6.19
p277
aa(lp278
V2015/2016
p279
aVNewcastle Uni..
p280
aVEPL
p281
aV37
p282
aV3223
p283
aV1
aV7
aV3
aV-
aV1
aV76
p284
aV1.5
p285
aV4
aV7.04
p286
aa(lp287
V2014/2015
p288
aVNewcastle Uni..
p289
aVEPL
p290
aV34
p291
aV3032
p292
aV4
aV2
aV7
aV2
aV1.3
p293
aV79.1
p294
aV1.4
p295
aV-
aV6.92
p296
aa(lp297
V2016
p298
aVFrance
p299
aVUEC
p300
aV4(2)
p301
aV382
p302
aV-
aV-
aV-
aV-
aV1.3
p303
aV88.7
p304
aV0.3
p305
aV-
aV7.14
p306
aa(lp307
V2013/2014
p308
aVNewcastle Uni..
p309
aVEPL
p310
aV35
p311
aV3036
p312
aV3
aV6
aV8
aV-
aV1.3
p313
aV81.2
p314
aV0.9
p315
aV1
aV7.09
p316
aa(lp317
V2014
p318
aVFrance
p319
aVWC
p320
aV2(2)
p321
aV214
p322
aV1
aV-
aV-
aV-
aV0.8
p323
aV79.8
p324
aV0.3
p325
aV-
aV6.62
p326
aa(lp327
V2012/2013
p328
aVNewcastle Uni..
p329
aVUEL
p330
aV6
aV540
p331
aV-
aV1
aV1
aV-
aV1
aV81.9
p332
aV0.8
p333
aV-
aV6.79
p334
aa(lp335
V2012/2013
p336
aVNewcastle Uni..
p337
aVEPL
p338
aV12
p339
aV1070
p340
aV3
aV2
aV2
aV-
aV2
aV78.6
p341
aV2.3
p342
aV1
aV7.03
p343
aa(lp344
V2012/2013
p345
aVToulouse
p346
aVFL1
p347
aV18(1)
p348
aV1554
p349
aV1
aV1
aV2
aV-
aV1
aV80.5
p350
aV0.8
p351
aV1
aV6.69
p352
aa(lp353
V2011/2012
p354
aVToulouse
p355
aVFL1
p356
aV33(2)
p357
aV2917
p358
aV2
aV3
aV6
aV1
aV1.7
p359
aV77.1
p360
aV1.2
p361
aV2
aV6.74
p362
aa(lp363
V2010/2011
p364
aVToulouse
p365
aVFL1
p366
aV32(4)
p367
aV2958
p368
aV5
aV1
aV5
aV-
aV1.3
p369
aV76.6
p370
aV1.6
p371
aV1
aV6.81
p372
aa(lp373
V2009/2010
p374
aVToulouse
p375
aVFL1
p376
aV35(2)
p377
aV3190
p378
aV7
aV3
aV4
aV-
aV1.4
p379
aV77.8
p380
aV1.9
p381
aV3
aV7.08
p382
aa(lp383
VTotal / Average
p384
aV
aV
aV346
p385
aV26101
p386
aV28
p387
aV31
p388
aV44
p389
aV3
aV1.1
p390
aV79.7
p391
aV1.1
p392
aV13
p393
aV6.83
p394
aasS'defensive_data'
p395
(lp396
(lp397
a(lp398
V2018/2019
p399
aVTottenham
p400
aVEPL
p401
aV10(2)
p402
aV911
p403
aV-
aV1
aV-
aV-
aV0.3
p404
aV84.4
p405
aV0.7
p406
aV-
aV6.70
p407
aa(lp408
V2018/2019
p409
aVTottenham
p410
aVUCL
p411
aV2(1)
p412
aV204
p413
aV-
aV-
aV-
aV-
aV0.7
p414
aV89
p415
aV0.3
p416
aV-
aV6.67
p417
aa(lp418
V2018/2019
p419
aVFrance
p420
aVUNL
p421
aV0(1)
p422
aV25
p423
aV-
aV-
aV-
aV-
aV-
aV90
p424
aV-
aV-
aV5.48
p425
aa(lp426
V2017/2018
p427
aVTottenham
p428
aVUCL
p429
aV3(3)
p430
aV341
p431
aV-
aV1
aV-
aV-
aV0.7
p432
aV88.4
p433
aV0.5
p434
aV-
aV6.92
p435
aa(lp436
V2017/2018
p437
aVTottenham
p438
aVEPL
p439
aV15(18)
p440
aV1396
p441
aV1
aV1
aV3
aV-
aV0.6
p442
aV83.5
p443
aV0.5
p444
aV-
aV6.46
p445
aa(lp446
V2016/2017
p447
aVTottenham
p448
aVUCL
p449
aV1(3)
p450
aV134
p451
aV-
aV-
aV-
aV-
aV0.3
p452
aV69.6
p453
aV1
aV-
aV6.41
p454
aa(lp455
V2016/2017
p456
aVTottenham
p457
aVEPL
p458
aV8(17)
p459
aV903
p460
aV-
aV2
aV3
aV-
aV0.7
p461
aV81.9
p462
aV0.5
p463
aV-
aV6.46
p464
aa(lp465
V2016/2017
p466
aVTottenham
p467
aVUEL
p468
aV1
aV71
p469
aV-
aV-
aV-
aV-
aV-
aV86.2
p470
aV-
aV-
aV6.19
p471
aa(lp472
V2015/2016
p473
aVNewcastle Uni..
p474
aVEPL
p475
aV37
p476
aV3223
p477
aV1
aV7
aV3
aV-
aV1
aV76
p478
aV1.5
p479
aV4
aV7.04
p480
aa(lp481
V2014/2015
p482
aVNewcastle Uni..
p483
aVEPL
p484
aV34
p485
aV3032
p486
aV4
aV2
aV7
aV2
aV1.3
p487
aV79.1
p488
aV1.4
p489
aV-
aV6.92
p490
aa(lp491
V2016
p492
aVFrance
p493
aVUEC
p494
aV4(2)
p495
aV382
p496
aV-
aV-
aV-
aV-
aV1.3
p497
aV88.7
p498
aV0.3
p499
aV-
aV7.14
p500
aa(lp501
V2013/2014
p502
aVNewcastle Uni..
p503
aVEPL
p504
aV35
p505
aV3036
p506
aV3
aV6
aV8
aV-
aV1.3
p507
aV81.2
p508
aV0.9
p509
aV1
aV7.09
p510
aa(lp511
V2014
p512
aVFrance
p513
aVWC
p514
aV2(2)
p515
aV214
p516
aV1
aV-
aV-
aV-
aV0.8
p517
aV79.8
p518
aV0.3
p519
aV-
aV6.62
p520
aa(lp521
V2012/2013
p522
aVNewcastle Uni..
p523
aVUEL
p524
aV6
aV540
p525
aV-
aV1
aV1
aV-
aV1
aV81.9
p526
aV0.8
p527
aV-
aV6.79
p528
aa(lp529
V2012/2013
p530
aVNewcastle Uni..
p531
aVEPL
p532
aV12
p533
aV1070
p534
aV3
aV2
aV2
aV-
aV2
aV78.6
p535
aV2.3
p536
aV1
aV7.03
p537
aa(lp538
V2012/2013
p539
aVToulouse
p540
aVFL1
p541
aV18(1)
p542
aV1554
p543
aV1
aV1
aV2
aV-
aV1
aV80.5
p544
aV0.8
p545
aV1
aV6.69
p546
aa(lp547
V2011/2012
p548
aVToulouse
p549
aVFL1
p550
aV33(2)
p551
aV2917
p552
aV2
aV3
aV6
aV1
aV1.7
p553
aV77.1
p554
aV1.2
p555
aV2
aV6.74
p556
aa(lp557
V2010/2011
p558
aVToulouse
p559
aVFL1
p560
aV32(4)
p561
aV2958
p562
aV5
aV1
aV5
aV-
aV1.3
p563
aV76.6
p564
aV1.6
p565
aV1
aV6.81
p566
aa(lp567
V2009/2010
p568
aVToulouse
p569
aVFL1
p570
aV35(2)
p571
aV3190
p572
aV7
aV3
aV4
aV-
aV1.4
p573
aV77.8
p574
aV1.9
p575
aV3
aV7.08
p576
aa(lp577
VTotal / Average
p578
aV
aV
aV346
p579
aV26101
p580
aV28
p581
aV31
p582
aV44
p583
aV3
aV1.1
p584
aV79.7
p585
aV1.1
p586
aV13
p587
aV6.83
p588
aasS'sumary_data'
p589
(lp590
(lp591
a(lp592
V2018/2019
p593
aVTottenham
p594
aVEPL
p595
aV10(2)
p596
aV911
p597
aV-
aV1
aV-
aV-
aV0.3
p598
aV84.4
p599
aV0.7
p600
aV-
aV6.70
p601
aa(lp602
V2018/2019
p603
aVTottenham
p604
aVUCL
p605
aV2(1)
p606
aV204
p607
aV-
aV-
aV-
aV-
aV0.7
p608
aV89
p609
aV0.3
p610
aV-
aV6.67
p611
aa(lp612
V2018/2019
p613
aVFrance
p614
aVUNL
p615
aV0(1)
p616
aV25
p617
aV-
aV-
aV-
aV-
aV-
aV90
p618
aV-
aV-
aV5.48
p619
aa(lp620
V2017/2018
p621
aVTottenham
p622
aVUCL
p623
aV3(3)
p624
aV341
p625
aV-
aV1
aV-
aV-
aV0.7
p626
aV88.4
p627
aV0.5
p628
aV-
aV6.92
p629
aa(lp630
V2017/2018
p631
aVTottenham
p632
aVEPL
p633
aV15(18)
p634
aV1396
p635
aV1
aV1
aV3
aV-
aV0.6
p636
aV83.5
p637
aV0.5
p638
aV-
aV6.46
p639
aa(lp640
V2016/2017
p641
aVTottenham
p642
aVUCL
p643
aV1(3)
p644
aV134
p645
aV-
aV-
aV-
aV-
aV0.3
p646
aV69.6
p647
aV1
aV-
aV6.41
p648
aa(lp649
V2016/2017
p650
aVTottenham
p651
aVEPL
p652
aV8(17)
p653
aV903
p654
aV-
aV2
aV3
aV-
aV0.7
p655
aV81.9
p656
aV0.5
p657
aV-
aV6.46
p658
aa(lp659
V2016/2017
p660
aVTottenham
p661
aVUEL
p662
aV1
aV71
p663
aV-
aV-
aV-
aV-
aV-
aV86.2
p664
aV-
aV-
aV6.19
p665
aa(lp666
V2015/2016
p667
aVNewcastle Uni..
p668
aVEPL
p669
aV37
p670
aV3223
p671
aV1
aV7
aV3
aV-
aV1
aV76
p672
aV1.5
p673
aV4
aV7.04
p674
aa(lp675
V2014/2015
p676
aVNewcastle Uni..
p677
aVEPL
p678
aV34
p679
aV3032
p680
aV4
aV2
aV7
aV2
aV1.3
p681
aV79.1
p682
aV1.4
p683
aV-
aV6.92
p684
aa(lp685
V2016
p686
aVFrance
p687
aVUEC
p688
aV4(2)
p689
aV382
p690
aV-
aV-
aV-
aV-
aV1.3
p691
aV88.7
p692
aV0.3
p693
aV-
aV7.14
p694
aa(lp695
V2013/2014
p696
aVNewcastle Uni..
p697
aVEPL
p698
aV35
p699
aV3036
p700
aV3
aV6
aV8
aV-
aV1.3
p701
aV81.2
p702
aV0.9
p703
aV1
aV7.09
p704
aa(lp705
V2014
p706
aVFrance
p707
aVWC
p708
aV2(2)
p709
aV214
p710
aV1
aV-
aV-
aV-
aV0.8
p711
aV79.8
p712
aV0.3
p713
aV-
aV6.62
p714
aa(lp715
V2012/2013
p716
aVNewcastle Uni..
p717
aVUEL
p718
aV6
aV540
p719
aV-
aV1
aV1
aV-
aV1
aV81.9
p720
aV0.8
p721
aV-
aV6.79
p722
aa(lp723
V2012/2013
p724
aVNewcastle Uni..
p725
aVEPL
p726
aV12
p727
aV1070
p728
aV3
aV2
aV2
aV-
aV2
aV78.6
p729
aV2.3
p730
aV1
aV7.03
p731
aa(lp732
V2012/2013
p733
aVToulouse
p734
aVFL1
p735
aV18(1)
p736
aV1554
p737
aV1
aV1
aV2
aV-
aV1
aV80.5
p738
aV0.8
p739
aV1
aV6.69
p740
aa(lp741
V2011/2012
p742
aVToulouse
p743
aVFL1
p744
aV33(2)
p745
aV2917
p746
aV2
aV3
aV6
aV1
aV1.7
p747
aV77.1
p748
aV1.2
p749
aV2
aV6.74
p750
aa(lp751
V2010/2011
p752
aVToulouse
p753
aVFL1
p754
aV32(4)
p755
aV2958
p756
aV5
aV1
aV5
aV-
aV1.3
p757
aV76.6
p758
aV1.6
p759
aV1
aV6.81
p760
aa(lp761
V2009/2010
p762
aVToulouse
p763
aVFL1
p764
aV35(2)
p765
aV3190
p766
aV7
aV3
aV4
aV-
aV1.4
p767
aV77.8
p768
aV1.9
p769
aV3
aV7.08
p770
aa(lp771
VTotal / Average
p772
aV
aV
aV346
p773
aV26101
p774
aV28
p775
aV31
p776
aV44
p777
aV3
aV1.1
p778
aV79.7
p779
aV1.1
p780
aV13
p781
aV6.83
p782
aasS'id'
p783
V29595
p784
sb.