(i__main__
Player
p1
(dp2
S'name'
p3
VIsaac Mbenza 
p4
sS'offensive_data'
p5
(lp6
(lp7
a(lp8
V2018/2019
p9
aVHuddersfield
p10
aVEPL
p11
aV1(10)
p12
aV224
p13
aV-
aV-
aV1
aV-
aV0.6
p14
aV72.1
p15
aV-
aV-
aV6.07
p16
aa(lp17
V2017/2018
p18
aVMontpellier
p19
aVFL1
p20
aV22(16)
p21
aV2096
p22
aV8
aV-
aV4
aV-
aV1.4
p23
aV75.8
p24
aV0.2
p25
aV-
aV6.42
p26
aa(lp27
V2016/2017
p28
aVMontpellier
p29
aVFL1
p30
aV12(4)
p31
aV951
p32
aV3
aV1
aV-
aV-
aV1.3
p33
aV77.7
p34
aV0.3
p35
aV-
aV6.49
p36
aa(lp37
V2016/2017
p38
aVStandard Lieg..
p39
aVUEL
p40
aV1(5)
p41
aV189
p42
aV-
aV-
aV-
aV-
aV0.5
p43
aV66.7
p44
aV-
aV-
aV6.33
p45
aa(lp46
VTotal / Average
p47
aV
aV
aV71
p48
aV3460
p49
aV11
p50
aV1
aV5
aV0
aV1.2
p51
aV74.9
p52
aV0.2
p53
aV0
aV6.38
p54
aasS'url'
p55
S'https://www.whoscored.com/Players/296317/History/'
p56
sS'passing_data'
p57
(lp58
(lp59
a(lp60
V2018/2019
p61
aVHuddersfield
p62
aVEPL
p63
aV1(10)
p64
aV224
p65
aV-
aV-
aV1
aV-
aV0.6
p66
aV72.1
p67
aV-
aV-
aV6.07
p68
aa(lp69
V2017/2018
p70
aVMontpellier
p71
aVFL1
p72
aV22(16)
p73
aV2096
p74
aV8
aV-
aV4
aV-
aV1.4
p75
aV75.8
p76
aV0.2
p77
aV-
aV6.42
p78
aa(lp79
V2016/2017
p80
aVMontpellier
p81
aVFL1
p82
aV12(4)
p83
aV951
p84
aV3
aV1
aV-
aV-
aV1.3
p85
aV77.7
p86
aV0.3
p87
aV-
aV6.49
p88
aa(lp89
V2016/2017
p90
aVStandard Lieg..
p91
aVUEL
p92
aV1(5)
p93
aV189
p94
aV-
aV-
aV-
aV-
aV0.5
p95
aV66.7
p96
aV-
aV-
aV6.33
p97
aa(lp98
VTotal / Average
p99
aV
aV
aV71
p100
aV3460
p101
aV11
p102
aV1
aV5
aV0
aV1.2
p103
aV74.9
p104
aV0.2
p105
aV0
aV6.38
p106
aasS'defensive_data'
p107
(lp108
(lp109
a(lp110
V2018/2019
p111
aVHuddersfield
p112
aVEPL
p113
aV1(10)
p114
aV224
p115
aV-
aV-
aV1
aV-
aV0.6
p116
aV72.1
p117
aV-
aV-
aV6.07
p118
aa(lp119
V2017/2018
p120
aVMontpellier
p121
aVFL1
p122
aV22(16)
p123
aV2096
p124
aV8
aV-
aV4
aV-
aV1.4
p125
aV75.8
p126
aV0.2
p127
aV-
aV6.42
p128
aa(lp129
V2016/2017
p130
aVMontpellier
p131
aVFL1
p132
aV12(4)
p133
aV951
p134
aV3
aV1
aV-
aV-
aV1.3
p135
aV77.7
p136
aV0.3
p137
aV-
aV6.49
p138
aa(lp139
V2016/2017
p140
aVStandard Lieg..
p141
aVUEL
p142
aV1(5)
p143
aV189
p144
aV-
aV-
aV-
aV-
aV0.5
p145
aV66.7
p146
aV-
aV-
aV6.33
p147
aa(lp148
VTotal / Average
p149
aV
aV
aV71
p150
aV3460
p151
aV11
p152
aV1
aV5
aV0
aV1.2
p153
aV74.9
p154
aV0.2
p155
aV0
aV6.38
p156
aasS'sumary_data'
p157
(lp158
(lp159
a(lp160
V2018/2019
p161
aVHuddersfield
p162
aVEPL
p163
aV1(10)
p164
aV224
p165
aV-
aV-
aV1
aV-
aV0.6
p166
aV72.1
p167
aV-
aV-
aV6.07
p168
aa(lp169
V2017/2018
p170
aVMontpellier
p171
aVFL1
p172
aV22(16)
p173
aV2096
p174
aV8
aV-
aV4
aV-
aV1.4
p175
aV75.8
p176
aV0.2
p177
aV-
aV6.42
p178
aa(lp179
V2016/2017
p180
aVMontpellier
p181
aVFL1
p182
aV12(4)
p183
aV951
p184
aV3
aV1
aV-
aV-
aV1.3
p185
aV77.7
p186
aV0.3
p187
aV-
aV6.49
p188
aa(lp189
V2016/2017
p190
aVStandard Lieg..
p191
aVUEL
p192
aV1(5)
p193
aV189
p194
aV-
aV-
aV-
aV-
aV0.5
p195
aV66.7
p196
aV-
aV-
aV6.33
p197
aa(lp198
VTotal / Average
p199
aV
aV
aV71
p200
aV3460
p201
aV11
p202
aV1
aV5
aV0
aV1.2
p203
aV74.9
p204
aV0.2
p205
aV0
aV6.38
p206
aasS'id'
p207
V296317
p208
sb.