(i__main__
Player
p1
(dp2
S'name'
p3
VLys Mousset 
p4
sS'offensive_data'
p5
(lp6
(lp7
a(lp8
V2018/2019
p9
aVBournemouth
p10
aVEPL
p11
aV0(9)
p12
aV68
p13
aV-
aV-
aV1
aV-
aV-
aV70.8
p14
aV0.2
p15
aV-
aV5.89
p16
aa(lp17
V2017/2018
p18
aVBournemouth
p19
aVEPL
p20
aV4(19)
p21
aV585
p22
aV2
aV-
aV1
aV-
aV1
aV63.4
p23
aV0.3
p24
aV-
aV6.29
p25
aa(lp26
V2016/2017
p27
aVBournemouth
p28
aVEPL
p29
aV3(8)
p30
aV265
p31
aV-
aV-
aV-
aV-
aV0.9
p32
aV68.3
p33
aV0.6
p34
aV-
aV6.10
p35
aa(lp36
VTotal / Average
p37
aV
aV
aV43
p38
aV918
p39
aV2
aV0
aV2
aV0
aV0.7
p40
aV66.2
p41
aV0.4
p42
aV0
aV6.16
p43
aasS'url'
p44
S'https://www.whoscored.com/Players/296332/History/'
p45
sS'passing_data'
p46
(lp47
(lp48
a(lp49
V2018/2019
p50
aVBournemouth
p51
aVEPL
p52
aV0(9)
p53
aV68
p54
aV-
aV-
aV1
aV-
aV-
aV70.8
p55
aV0.2
p56
aV-
aV5.89
p57
aa(lp58
V2017/2018
p59
aVBournemouth
p60
aVEPL
p61
aV4(19)
p62
aV585
p63
aV2
aV-
aV1
aV-
aV1
aV63.4
p64
aV0.3
p65
aV-
aV6.29
p66
aa(lp67
V2016/2017
p68
aVBournemouth
p69
aVEPL
p70
aV3(8)
p71
aV265
p72
aV-
aV-
aV-
aV-
aV0.9
p73
aV68.3
p74
aV0.6
p75
aV-
aV6.10
p76
aa(lp77
VTotal / Average
p78
aV
aV
aV43
p79
aV918
p80
aV2
aV0
aV2
aV0
aV0.7
p81
aV66.2
p82
aV0.4
p83
aV0
aV6.16
p84
aasS'defensive_data'
p85
(lp86
(lp87
a(lp88
V2018/2019
p89
aVBournemouth
p90
aVEPL
p91
aV0(9)
p92
aV68
p93
aV-
aV-
aV1
aV-
aV-
aV70.8
p94
aV0.2
p95
aV-
aV5.89
p96
aa(lp97
V2017/2018
p98
aVBournemouth
p99
aVEPL
p100
aV4(19)
p101
aV585
p102
aV2
aV-
aV1
aV-
aV1
aV63.4
p103
aV0.3
p104
aV-
aV6.29
p105
aa(lp106
V2016/2017
p107
aVBournemouth
p108
aVEPL
p109
aV3(8)
p110
aV265
p111
aV-
aV-
aV-
aV-
aV0.9
p112
aV68.3
p113
aV0.6
p114
aV-
aV6.10
p115
aa(lp116
VTotal / Average
p117
aV
aV
aV43
p118
aV918
p119
aV2
aV0
aV2
aV0
aV0.7
p120
aV66.2
p121
aV0.4
p122
aV0
aV6.16
p123
aasS'sumary_data'
p124
(lp125
(lp126
a(lp127
V2018/2019
p128
aVBournemouth
p129
aVEPL
p130
aV0(9)
p131
aV68
p132
aV-
aV-
aV1
aV-
aV-
aV70.8
p133
aV0.2
p134
aV-
aV5.89
p135
aa(lp136
V2017/2018
p137
aVBournemouth
p138
aVEPL
p139
aV4(19)
p140
aV585
p141
aV2
aV-
aV1
aV-
aV1
aV63.4
p142
aV0.3
p143
aV-
aV6.29
p144
aa(lp145
V2016/2017
p146
aVBournemouth
p147
aVEPL
p148
aV3(8)
p149
aV265
p150
aV-
aV-
aV-
aV-
aV0.9
p151
aV68.3
p152
aV0.6
p153
aV-
aV6.10
p154
aa(lp155
VTotal / Average
p156
aV
aV
aV43
p157
aV918
p158
aV2
aV0
aV2
aV0
aV0.7
p159
aV66.2
p160
aV0.4
p161
aV0
aV6.16
p162
aasS'id'
p163
V296332
p164
sb.