(i__main__
Player
p1
(dp2
S'name'
p3
VMason Holgate 
p4
sS'offensive_data'
p5
(lp6
(lp7
a(lp8
V2018/2019
p9
aVEverton
p10
aVEPL
p11
aV4(1)
p12
aV407
p13
aV-
aV-
aV1
aV-
aV-
aV76.7
p14
aV2.8
p15
aV-
aV6.61
p16
aa(lp17
V2017/2018
p18
aVEverton
p19
aVUEL
p20
aV4
aV360
p21
aV-
aV-
aV-
aV-
aV0.3
p22
aV74
p23
aV2.5
p24
aV-
aV6.23
p25
aa(lp26
V2017/2018
p27
aVEverton
p28
aVEPL
p29
aV13(2)
p30
aV1183
p31
aV-
aV-
aV3
aV-
aV0.4
p32
aV67.4
p33
aV2.2
p34
aV-
aV6.81
p35
aa(lp36
V2016/2017
p37
aVEverton
p38
aVEPL
p39
aV16(2)
p40
aV1373
p41
aV-
aV1
aV2
aV-
aV0.3
p42
aV74.8
p43
aV1.8
p44
aV-
aV6.90
p45
aa(lp46
VTotal / Average
p47
aV
aV
aV42
p48
aV3323
p49
aV0
aV1
aV6
aV0
aV0.3
p50
aV72.3
p51
aV2.1
p52
aV0
aV6.77
p53
aasS'url'
p54
S'https://www.whoscored.com/Players/297544/History/'
p55
sS'passing_data'
p56
(lp57
(lp58
a(lp59
V2018/2019
p60
aVEverton
p61
aVEPL
p62
aV4(1)
p63
aV407
p64
aV-
aV-
aV1
aV-
aV-
aV76.7
p65
aV2.8
p66
aV-
aV6.61
p67
aa(lp68
V2017/2018
p69
aVEverton
p70
aVUEL
p71
aV4
aV360
p72
aV-
aV-
aV-
aV-
aV0.3
p73
aV74
p74
aV2.5
p75
aV-
aV6.23
p76
aa(lp77
V2017/2018
p78
aVEverton
p79
aVEPL
p80
aV13(2)
p81
aV1183
p82
aV-
aV-
aV3
aV-
aV0.4
p83
aV67.4
p84
aV2.2
p85
aV-
aV6.81
p86
aa(lp87
V2016/2017
p88
aVEverton
p89
aVEPL
p90
aV16(2)
p91
aV1373
p92
aV-
aV1
aV2
aV-
aV0.3
p93
aV74.8
p94
aV1.8
p95
aV-
aV6.90
p96
aa(lp97
VTotal / Average
p98
aV
aV
aV42
p99
aV3323
p100
aV0
aV1
aV6
aV0
aV0.3
p101
aV72.3
p102
aV2.1
p103
aV0
aV6.77
p104
aasS'defensive_data'
p105
(lp106
(lp107
a(lp108
V2018/2019
p109
aVEverton
p110
aVEPL
p111
aV4(1)
p112
aV407
p113
aV-
aV-
aV1
aV-
aV-
aV76.7
p114
aV2.8
p115
aV-
aV6.61
p116
aa(lp117
V2017/2018
p118
aVEverton
p119
aVUEL
p120
aV4
aV360
p121
aV-
aV-
aV-
aV-
aV0.3
p122
aV74
p123
aV2.5
p124
aV-
aV6.23
p125
aa(lp126
V2017/2018
p127
aVEverton
p128
aVEPL
p129
aV13(2)
p130
aV1183
p131
aV-
aV-
aV3
aV-
aV0.4
p132
aV67.4
p133
aV2.2
p134
aV-
aV6.81
p135
aa(lp136
V2016/2017
p137
aVEverton
p138
aVEPL
p139
aV16(2)
p140
aV1373
p141
aV-
aV1
aV2
aV-
aV0.3
p142
aV74.8
p143
aV1.8
p144
aV-
aV6.90
p145
aa(lp146
VTotal / Average
p147
aV
aV
aV42
p148
aV3323
p149
aV0
aV1
aV6
aV0
aV0.3
p150
aV72.3
p151
aV2.1
p152
aV0
aV6.77
p153
aasS'sumary_data'
p154
(lp155
(lp156
a(lp157
V2018/2019
p158
aVEverton
p159
aVEPL
p160
aV4(1)
p161
aV407
p162
aV-
aV-
aV1
aV-
aV-
aV76.7
p163
aV2.8
p164
aV-
aV6.61
p165
aa(lp166
V2017/2018
p167
aVEverton
p168
aVUEL
p169
aV4
aV360
p170
aV-
aV-
aV-
aV-
aV0.3
p171
aV74
p172
aV2.5
p173
aV-
aV6.23
p174
aa(lp175
V2017/2018
p176
aVEverton
p177
aVEPL
p178
aV13(2)
p179
aV1183
p180
aV-
aV-
aV3
aV-
aV0.4
p181
aV67.4
p182
aV2.2
p183
aV-
aV6.81
p184
aa(lp185
V2016/2017
p186
aVEverton
p187
aVEPL
p188
aV16(2)
p189
aV1373
p190
aV-
aV1
aV2
aV-
aV0.3
p191
aV74.8
p192
aV1.8
p193
aV-
aV6.90
p194
aa(lp195
VTotal / Average
p196
aV
aV
aV42
p197
aV3323
p198
aV0
aV1
aV6
aV0
aV0.3
p199
aV72.3
p200
aV2.1
p201
aV0
aV6.77
p202
aasS'id'
p203
V297544
p204
sb.