(i__main__
Player
p1
(dp2
S'name'
p3
VBen Hamer 
p4
sS'offensive_data'
p5
(lp6
(lp7
a(lp8
V2018/2019
p9
aVHuddersfield
p10
aVEPL
p11
aV3
aV193
p12
aV-
aV-
aV-
aV-
aV-
aV48.7
p13
aV-
aV-
aV5.84
p14
aa(lp15
V2017/2018
p16
aVLeicester
p17
aVEPL
p18
aV3(1)
p19
aV274
p20
aV-
aV-
aV-
aV-
aV-
aV56.3
p21
aV0.5
p22
aV-
aV5.97
p23
aa(lp24
V2016/2017
p25
aVLeicester
p26
aVUCL
p27
aV1
aV90
p28
aV-
aV-
aV-
aV-
aV-
aV31.3
p29
aV-
aV-
aV4.84
p30
aa(lp31
V2015/2016
p32
aVBristol City
p33
aVEC
p34
aV4
aV360
p35
aV-
aV-
aV1
aV-
aV-
aV54.5
p36
aV-
aV1
aV6.41
p37
aa(lp38
V2014/2015
p39
aVLeicester
p40
aVEPL
p41
aV9
aV721
p42
aV-
aV-
aV1
aV-
aV-
aV36.5
p43
aV0.4
p44
aV1
aV6.57
p45
aa(lp46
V2013/2014
p47
aVCharlton
p48
aVEC
p49
aV32
p50
aV2880
p51
aV-
aV-
aV-
aV-
aV-
aV45.1
p52
aV0.2
p53
aV1
aV6.82
p54
aa(lp55
VTotal / Average
p56
aV
aV
aV53
p57
aV4518
p58
aV0
aV0
aV2
aV0
aV0
aV45.1
p59
aV0.2
p60
aV3
aV6.59
p61
aasS'url'
p62
S'https://www.whoscored.com/Players/29832/History/'
p63
sS'passing_data'
p64
(lp65
(lp66
a(lp67
V2018/2019
p68
aVHuddersfield
p69
aVEPL
p70
aV3
aV193
p71
aV-
aV-
aV-
aV-
aV-
aV48.7
p72
aV-
aV-
aV5.84
p73
aa(lp74
V2017/2018
p75
aVLeicester
p76
aVEPL
p77
aV3(1)
p78
aV274
p79
aV-
aV-
aV-
aV-
aV-
aV56.3
p80
aV0.5
p81
aV-
aV5.97
p82
aa(lp83
V2016/2017
p84
aVLeicester
p85
aVUCL
p86
aV1
aV90
p87
aV-
aV-
aV-
aV-
aV-
aV31.3
p88
aV-
aV-
aV4.84
p89
aa(lp90
V2015/2016
p91
aVBristol City
p92
aVEC
p93
aV4
aV360
p94
aV-
aV-
aV1
aV-
aV-
aV54.5
p95
aV-
aV1
aV6.41
p96
aa(lp97
V2014/2015
p98
aVLeicester
p99
aVEPL
p100
aV9
aV721
p101
aV-
aV-
aV1
aV-
aV-
aV36.5
p102
aV0.4
p103
aV1
aV6.57
p104
aa(lp105
V2013/2014
p106
aVCharlton
p107
aVEC
p108
aV32
p109
aV2880
p110
aV-
aV-
aV-
aV-
aV-
aV45.1
p111
aV0.2
p112
aV1
aV6.82
p113
aa(lp114
VTotal / Average
p115
aV
aV
aV53
p116
aV4518
p117
aV0
aV0
aV2
aV0
aV0
aV45.1
p118
aV0.2
p119
aV3
aV6.59
p120
aasS'defensive_data'
p121
(lp122
(lp123
a(lp124
V2018/2019
p125
aVHuddersfield
p126
aVEPL
p127
aV3
aV193
p128
aV-
aV-
aV-
aV-
aV-
aV48.7
p129
aV-
aV-
aV5.84
p130
aa(lp131
V2017/2018
p132
aVLeicester
p133
aVEPL
p134
aV3(1)
p135
aV274
p136
aV-
aV-
aV-
aV-
aV-
aV56.3
p137
aV0.5
p138
aV-
aV5.97
p139
aa(lp140
V2016/2017
p141
aVLeicester
p142
aVUCL
p143
aV1
aV90
p144
aV-
aV-
aV-
aV-
aV-
aV31.3
p145
aV-
aV-
aV4.84
p146
aa(lp147
V2015/2016
p148
aVBristol City
p149
aVEC
p150
aV4
aV360
p151
aV-
aV-
aV1
aV-
aV-
aV54.5
p152
aV-
aV1
aV6.41
p153
aa(lp154
V2014/2015
p155
aVLeicester
p156
aVEPL
p157
aV9
aV721
p158
aV-
aV-
aV1
aV-
aV-
aV36.5
p159
aV0.4
p160
aV1
aV6.57
p161
aa(lp162
V2013/2014
p163
aVCharlton
p164
aVEC
p165
aV32
p166
aV2880
p167
aV-
aV-
aV-
aV-
aV-
aV45.1
p168
aV0.2
p169
aV1
aV6.82
p170
aa(lp171
VTotal / Average
p172
aV
aV
aV53
p173
aV4518
p174
aV0
aV0
aV2
aV0
aV0
aV45.1
p175
aV0.2
p176
aV3
aV6.59
p177
aasS'sumary_data'
p178
(lp179
(lp180
a(lp181
V2018/2019
p182
aVHuddersfield
p183
aVEPL
p184
aV3
aV193
p185
aV-
aV-
aV-
aV-
aV-
aV48.7
p186
aV-
aV-
aV5.84
p187
aa(lp188
V2017/2018
p189
aVLeicester
p190
aVEPL
p191
aV3(1)
p192
aV274
p193
aV-
aV-
aV-
aV-
aV-
aV56.3
p194
aV0.5
p195
aV-
aV5.97
p196
aa(lp197
V2016/2017
p198
aVLeicester
p199
aVUCL
p200
aV1
aV90
p201
aV-
aV-
aV-
aV-
aV-
aV31.3
p202
aV-
aV-
aV4.84
p203
aa(lp204
V2015/2016
p205
aVBristol City
p206
aVEC
p207
aV4
aV360
p208
aV-
aV-
aV1
aV-
aV-
aV54.5
p209
aV-
aV1
aV6.41
p210
aa(lp211
V2014/2015
p212
aVLeicester
p213
aVEPL
p214
aV9
aV721
p215
aV-
aV-
aV1
aV-
aV-
aV36.5
p216
aV0.4
p217
aV1
aV6.57
p218
aa(lp219
V2013/2014
p220
aVCharlton
p221
aVEC
p222
aV32
p223
aV2880
p224
aV-
aV-
aV-
aV-
aV-
aV45.1
p225
aV0.2
p226
aV1
aV6.82
p227
aa(lp228
VTotal / Average
p229
aV
aV
aV53
p230
aV4518
p231
aV0
aV0
aV2
aV0
aV0
aV45.1
p232
aV0.2
p233
aV3
aV6.59
p234
aasS'id'
p235
V29832
p236
sb.