(i__main__
Player
p1
(dp2
S'name'
p3
VBen Chilwell 
p4
sS'offensive_data'
p5
(lp6
(lp7
a(lp8
V2018/2019
p9
aVLeicester
p10
aVEPL
p11
aV16
p12
aV1440
p13
aV-
aV1
aV1
aV-
aV0.6
p14
aV71
p15
aV2.9
p16
aV2
aV6.94
p17
aa(lp18
V2018/2019
p19
aVEngland
p20
aVUNL
p21
aV3
aV270
p22
aV-
aV-
aV-
aV-
aV0.3
p23
aV80.2
p24
aV0.3
p25
aV-
aV6.57
p26
aa(lp27
V2017/2018
p28
aVLeicester
p29
aVEPL
p30
aV20(4)
p31
aV1852
p32
aV-
aV2
aV1
aV1
aV0.3
p33
aV73.9
p34
aV2.8
p35
aV1
aV6.82
p36
aa(lp37
V2016/2017
p38
aVLeicester
p39
aVUCL
p40
aV1(1)
p41
aV135
p42
aV-
aV-
aV1
aV-
aV2
aV79.1
p43
aV1
aV-
aV6.40
p44
aa(lp45
V2016/2017
p46
aVLeicester
p47
aVEPL
p48
aV7(5)
p49
aV696
p50
aV1
aV-
aV2
aV-
aV0.6
p51
aV68.8
p52
aV2.3
p53
aV-
aV6.69
p54
aa(lp55
V2015/2016
p56
aVHuddersfield
p57
aVEC
p58
aV7(1)
p59
aV661
p60
aV-
aV-
aV-
aV-
aV0.8
p61
aV78
p62
aV0.5
p63
aV-
aV6.84
p64
aa(lp65
VTotal / Average
p66
aV
aV
aV65
p67
aV5054
p68
aV1
aV3
aV5
aV1
aV0.5
p69
aV73.2
p70
aV2.3
p71
aV3
aV6.80
p72
aasS'url'
p73
S'https://www.whoscored.com/Players/299272/History/'
p74
sS'passing_data'
p75
(lp76
(lp77
a(lp78
V2018/2019
p79
aVLeicester
p80
aVEPL
p81
aV16
p82
aV1440
p83
aV-
aV1
aV1
aV-
aV0.6
p84
aV71
p85
aV2.9
p86
aV2
aV6.94
p87
aa(lp88
V2018/2019
p89
aVEngland
p90
aVUNL
p91
aV3
aV270
p92
aV-
aV-
aV-
aV-
aV0.3
p93
aV80.2
p94
aV0.3
p95
aV-
aV6.57
p96
aa(lp97
V2017/2018
p98
aVLeicester
p99
aVEPL
p100
aV20(4)
p101
aV1852
p102
aV-
aV2
aV1
aV1
aV0.3
p103
aV73.9
p104
aV2.8
p105
aV1
aV6.82
p106
aa(lp107
V2016/2017
p108
aVLeicester
p109
aVUCL
p110
aV1(1)
p111
aV135
p112
aV-
aV-
aV1
aV-
aV2
aV79.1
p113
aV1
aV-
aV6.40
p114
aa(lp115
V2016/2017
p116
aVLeicester
p117
aVEPL
p118
aV7(5)
p119
aV696
p120
aV1
aV-
aV2
aV-
aV0.6
p121
aV68.8
p122
aV2.3
p123
aV-
aV6.69
p124
aa(lp125
V2015/2016
p126
aVHuddersfield
p127
aVEC
p128
aV7(1)
p129
aV661
p130
aV-
aV-
aV-
aV-
aV0.8
p131
aV78
p132
aV0.5
p133
aV-
aV6.84
p134
aa(lp135
VTotal / Average
p136
aV
aV
aV65
p137
aV5054
p138
aV1
aV3
aV5
aV1
aV0.5
p139
aV73.2
p140
aV2.3
p141
aV3
aV6.80
p142
aasS'defensive_data'
p143
(lp144
(lp145
a(lp146
V2018/2019
p147
aVLeicester
p148
aVEPL
p149
aV16
p150
aV1440
p151
aV-
aV1
aV1
aV-
aV0.6
p152
aV71
p153
aV2.9
p154
aV2
aV6.94
p155
aa(lp156
V2018/2019
p157
aVEngland
p158
aVUNL
p159
aV3
aV270
p160
aV-
aV-
aV-
aV-
aV0.3
p161
aV80.2
p162
aV0.3
p163
aV-
aV6.57
p164
aa(lp165
V2017/2018
p166
aVLeicester
p167
aVEPL
p168
aV20(4)
p169
aV1852
p170
aV-
aV2
aV1
aV1
aV0.3
p171
aV73.9
p172
aV2.8
p173
aV1
aV6.82
p174
aa(lp175
V2016/2017
p176
aVLeicester
p177
aVUCL
p178
aV1(1)
p179
aV135
p180
aV-
aV-
aV1
aV-
aV2
aV79.1
p181
aV1
aV-
aV6.40
p182
aa(lp183
V2016/2017
p184
aVLeicester
p185
aVEPL
p186
aV7(5)
p187
aV696
p188
aV1
aV-
aV2
aV-
aV0.6
p189
aV68.8
p190
aV2.3
p191
aV-
aV6.69
p192
aa(lp193
V2015/2016
p194
aVHuddersfield
p195
aVEC
p196
aV7(1)
p197
aV661
p198
aV-
aV-
aV-
aV-
aV0.8
p199
aV78
p200
aV0.5
p201
aV-
aV6.84
p202
aa(lp203
VTotal / Average
p204
aV
aV
aV65
p205
aV5054
p206
aV1
aV3
aV5
aV1
aV0.5
p207
aV73.2
p208
aV2.3
p209
aV3
aV6.80
p210
aasS'sumary_data'
p211
(lp212
(lp213
a(lp214
V2018/2019
p215
aVLeicester
p216
aVEPL
p217
aV16
p218
aV1440
p219
aV-
aV1
aV1
aV-
aV0.6
p220
aV71
p221
aV2.9
p222
aV2
aV6.94
p223
aa(lp224
V2018/2019
p225
aVEngland
p226
aVUNL
p227
aV3
aV270
p228
aV-
aV-
aV-
aV-
aV0.3
p229
aV80.2
p230
aV0.3
p231
aV-
aV6.57
p232
aa(lp233
V2017/2018
p234
aVLeicester
p235
aVEPL
p236
aV20(4)
p237
aV1852
p238
aV-
aV2
aV1
aV1
aV0.3
p239
aV73.9
p240
aV2.8
p241
aV1
aV6.82
p242
aa(lp243
V2016/2017
p244
aVLeicester
p245
aVUCL
p246
aV1(1)
p247
aV135
p248
aV-
aV-
aV1
aV-
aV2
aV79.1
p249
aV1
aV-
aV6.40
p250
aa(lp251
V2016/2017
p252
aVLeicester
p253
aVEPL
p254
aV7(5)
p255
aV696
p256
aV1
aV-
aV2
aV-
aV0.6
p257
aV68.8
p258
aV2.3
p259
aV-
aV6.69
p260
aa(lp261
V2015/2016
p262
aVHuddersfield
p263
aVEC
p264
aV7(1)
p265
aV661
p266
aV-
aV-
aV-
aV-
aV0.8
p267
aV78
p268
aV0.5
p269
aV-
aV6.84
p270
aa(lp271
VTotal / Average
p272
aV
aV
aV65
p273
aV5054
p274
aV1
aV3
aV5
aV1
aV0.5
p275
aV73.2
p276
aV2.3
p277
aV3
aV6.80
p278
aasS'id'
p279
V299272
p280
sb.