(i__main__
Player
p1
(dp2
S'name'
p3
VAdemola Lookman 
p4
sS'offensive_data'
p5
(lp6
(lp7
a(lp8
V2018/2019
p9
aVEverton
p10
aVEPL
p11
aV1(10)
p12
aV309
p13
aV-
aV1
aV-
aV-
aV0.4
p14
aV84.4
p15
aV0.3
p16
aV-
aV6.49
p17
aa(lp18
V2017/2018
p19
aVRasenBallspor..
p20
aVGB
p21
aV7(4)
p22
aV576
p23
aV5
aV3
aV1
aV-
aV1.2
p24
aV76.6
p25
aV0.1
p26
aV1
aV7.01
p27
aa(lp28
V2017/2018
p29
aVEverton
p30
aVUEL
p31
aV2(1)
p32
aV225
p33
aV2
aV-
aV1
aV-
aV2.3
p34
aV82.8
p35
aV-
aV1
aV7.68
p36
aa(lp37
V2017/2018
p38
aVEverton
p39
aVEPL
p40
aV1(6)
p41
aV154
p42
aV-
aV1
aV-
aV-
aV0.4
p43
aV84.4
p44
aV0.1
p45
aV-
aV6.31
p46
aa(lp47
V2016/2017
p48
aVEverton
p49
aVEPL
p50
aV3(5)
p51
aV290
p52
aV1
aV-
aV-
aV-
aV2
aV87.2
p53
aV0.1
p54
aV-
aV6.41
p55
aa(lp56
V2015/2016
p57
aVCharlton
p58
aVEC
p59
aV17(7)
p60
aV1501
p61
aV5
aV1
aV1
aV-
aV1.7
p62
aV82.6
p63
aV-
aV-
aV6.57
p64
aa(lp65
VTotal / Average
p66
aV
aV
aV64
p67
aV3055
p68
aV13
p69
aV6
aV3
aV0
aV1.3
p70
aV82.7
p71
aV0.1
p72
aV2
aV6.64
p73
aasS'url'
p74
S'https://www.whoscored.com/Players/299451/History/'
p75
sS'passing_data'
p76
(lp77
(lp78
a(lp79
V2018/2019
p80
aVEverton
p81
aVEPL
p82
aV1(10)
p83
aV309
p84
aV-
aV1
aV-
aV-
aV0.4
p85
aV84.4
p86
aV0.3
p87
aV-
aV6.49
p88
aa(lp89
V2017/2018
p90
aVRasenBallspor..
p91
aVGB
p92
aV7(4)
p93
aV576
p94
aV5
aV3
aV1
aV-
aV1.2
p95
aV76.6
p96
aV0.1
p97
aV1
aV7.01
p98
aa(lp99
V2017/2018
p100
aVEverton
p101
aVUEL
p102
aV2(1)
p103
aV225
p104
aV2
aV-
aV1
aV-
aV2.3
p105
aV82.8
p106
aV-
aV1
aV7.68
p107
aa(lp108
V2017/2018
p109
aVEverton
p110
aVEPL
p111
aV1(6)
p112
aV154
p113
aV-
aV1
aV-
aV-
aV0.4
p114
aV84.4
p115
aV0.1
p116
aV-
aV6.31
p117
aa(lp118
V2016/2017
p119
aVEverton
p120
aVEPL
p121
aV3(5)
p122
aV290
p123
aV1
aV-
aV-
aV-
aV2
aV87.2
p124
aV0.1
p125
aV-
aV6.41
p126
aa(lp127
V2015/2016
p128
aVCharlton
p129
aVEC
p130
aV17(7)
p131
aV1501
p132
aV5
aV1
aV1
aV-
aV1.7
p133
aV82.6
p134
aV-
aV-
aV6.57
p135
aa(lp136
VTotal / Average
p137
aV
aV
aV64
p138
aV3055
p139
aV13
p140
aV6
aV3
aV0
aV1.3
p141
aV82.7
p142
aV0.1
p143
aV2
aV6.64
p144
aasS'defensive_data'
p145
(lp146
(lp147
a(lp148
V2018/2019
p149
aVEverton
p150
aVEPL
p151
aV1(10)
p152
aV309
p153
aV-
aV1
aV-
aV-
aV0.4
p154
aV84.4
p155
aV0.3
p156
aV-
aV6.49
p157
aa(lp158
V2017/2018
p159
aVRasenBallspor..
p160
aVGB
p161
aV7(4)
p162
aV576
p163
aV5
aV3
aV1
aV-
aV1.2
p164
aV76.6
p165
aV0.1
p166
aV1
aV7.01
p167
aa(lp168
V2017/2018
p169
aVEverton
p170
aVUEL
p171
aV2(1)
p172
aV225
p173
aV2
aV-
aV1
aV-
aV2.3
p174
aV82.8
p175
aV-
aV1
aV7.68
p176
aa(lp177
V2017/2018
p178
aVEverton
p179
aVEPL
p180
aV1(6)
p181
aV154
p182
aV-
aV1
aV-
aV-
aV0.4
p183
aV84.4
p184
aV0.1
p185
aV-
aV6.31
p186
aa(lp187
V2016/2017
p188
aVEverton
p189
aVEPL
p190
aV3(5)
p191
aV290
p192
aV1
aV-
aV-
aV-
aV2
aV87.2
p193
aV0.1
p194
aV-
aV6.41
p195
aa(lp196
V2015/2016
p197
aVCharlton
p198
aVEC
p199
aV17(7)
p200
aV1501
p201
aV5
aV1
aV1
aV-
aV1.7
p202
aV82.6
p203
aV-
aV-
aV6.57
p204
aa(lp205
VTotal / Average
p206
aV
aV
aV64
p207
aV3055
p208
aV13
p209
aV6
aV3
aV0
aV1.3
p210
aV82.7
p211
aV0.1
p212
aV2
aV6.64
p213
aasS'sumary_data'
p214
(lp215
(lp216
a(lp217
V2018/2019
p218
aVEverton
p219
aVEPL
p220
aV1(10)
p221
aV309
p222
aV-
aV1
aV-
aV-
aV0.4
p223
aV84.4
p224
aV0.3
p225
aV-
aV6.49
p226
aa(lp227
V2017/2018
p228
aVRasenBallspor..
p229
aVGB
p230
aV7(4)
p231
aV576
p232
aV5
aV3
aV1
aV-
aV1.2
p233
aV76.6
p234
aV0.1
p235
aV1
aV7.01
p236
aa(lp237
V2017/2018
p238
aVEverton
p239
aVUEL
p240
aV2(1)
p241
aV225
p242
aV2
aV-
aV1
aV-
aV2.3
p243
aV82.8
p244
aV-
aV1
aV7.68
p245
aa(lp246
V2017/2018
p247
aVEverton
p248
aVEPL
p249
aV1(6)
p250
aV154
p251
aV-
aV1
aV-
aV-
aV0.4
p252
aV84.4
p253
aV0.1
p254
aV-
aV6.31
p255
aa(lp256
V2016/2017
p257
aVEverton
p258
aVEPL
p259
aV3(5)
p260
aV290
p261
aV1
aV-
aV-
aV-
aV2
aV87.2
p262
aV0.1
p263
aV-
aV6.41
p264
aa(lp265
V2015/2016
p266
aVCharlton
p267
aVEC
p268
aV17(7)
p269
aV1501
p270
aV5
aV1
aV1
aV-
aV1.7
p271
aV82.6
p272
aV-
aV-
aV6.57
p273
aa(lp274
VTotal / Average
p275
aV
aV
aV64
p276
aV3055
p277
aV13
p278
aV6
aV3
aV0
aV1.3
p279
aV82.7
p280
aV0.1
p281
aV2
aV6.64
p282
aasS'id'
p283
V299451
p284
sb.