(i__main__
Player
p1
(dp2
S'name'
p3
VMarcus Rashford 
p4
sS'offensive_data'
p5
(lp6
(lp7
a(lp8
V2018/2019
p9
aVManchester Un..
p10
aVEPL
p11
aV9(5)
p12
aV851
p13
aV3
aV5
aV2
aV1
aV1.3
p14
aV76.7
p15
aV0.9
p16
aV1
aV6.76
p17
aa(lp18
V2018/2019
p19
aVManchester Un..
p20
aVUCL
p21
aV4(2)
p22
aV392
p23
aV1
aV-
aV1
aV-
aV3.3
p24
aV84
p25
aV0.8
p26
aV-
aV6.84
p27
aa(lp28
V2018/2019
p29
aVEngland
p30
aVUNL
p31
aV4
aV343
p32
aV2
aV1
aV-
aV-
aV2
aV79.8
p33
aV0.5
p34
aV-
aV7.24
p35
aa(lp36
V2017/2018
p37
aVManchester Un..
p38
aVUCL
p39
aV3(5)
p40
aV345
p41
aV3
aV1
aV1
aV-
aV2.4
p42
aV75.4
p43
aV0.4
p44
aV1
aV6.94
p45
aa(lp46
V2017/2018
p47
aVManchester Un..
p48
aVEPL
p49
aV17(18)
p50
aV1810
p51
aV7
aV5
aV3
aV-
aV1.7
p52
aV78.3
p53
aV0.5
p54
aV1
aV6.76
p55
aa(lp56
V2016/2017
p57
aVManchester Un..
p58
aVEPL
p59
aV16(16)
p60
aV1703
p61
aV5
aV1
aV3
aV-
aV1.4
p62
aV78.7
p63
aV0.1
p64
aV-
aV6.58
p65
aa(lp66
V2016/2017
p67
aVManchester Un..
p68
aVUEL
p69
aV8(3)
p70
aV767
p71
aV2
aV2
aV-
aV-
aV1.9
p72
aV78.9
p73
aV0.2
p74
aV-
aV6.86
p75
aa(lp76
V2018
p77
aVEngland
p78
aVWC
p79
aV1(5)
p80
aV211
p81
aV-
aV-
aV-
aV-
aV0.8
p82
aV83.5
p83
aV0.3
p84
aV-
aV6.23
p85
aa(lp86
V2015/2016
p87
aVManchester Un..
p88
aVUEL
p89
aV3
aV226
p90
aV2
aV-
aV1
aV-
aV3.3
p91
aV81.5
p92
aV1
aV-
aV7.48
p93
aa(lp94
V2015/2016
p95
aVManchester Un..
p96
aVEPL
p97
aV11
p98
aV862
p99
aV5
aV2
aV-
aV-
aV1.5
p100
aV76.9
p101
aV0.3
p102
aV1
aV6.94
p103
aa(lp104
V2016
p105
aVEngland
p106
aVUEC
p107
aV0(2)
p108
aV21
p109
aV-
aV-
aV-
aV-
aV-
aV80
p110
aV-
aV-
aV6.47
p111
aa(lp112
VTotal / Average
p113
aV
aV
aV132
p114
aV7531
p115
aV30
p116
aV17
p117
aV11
p118
aV1
aV1.7
p119
aV78.6
p120
aV0.4
p121
aV4
aV6.76
p122
aasS'url'
p123
S'https://www.whoscored.com/Players/300299/History/'
p124
sS'passing_data'
p125
(lp126
(lp127
a(lp128
V2018/2019
p129
aVManchester Un..
p130
aVEPL
p131
aV9(5)
p132
aV851
p133
aV3
aV5
aV2
aV1
aV1.3
p134
aV76.7
p135
aV0.9
p136
aV1
aV6.76
p137
aa(lp138
V2018/2019
p139
aVManchester Un..
p140
aVUCL
p141
aV4(2)
p142
aV392
p143
aV1
aV-
aV1
aV-
aV3.3
p144
aV84
p145
aV0.8
p146
aV-
aV6.84
p147
aa(lp148
V2018/2019
p149
aVEngland
p150
aVUNL
p151
aV4
aV343
p152
aV2
aV1
aV-
aV-
aV2
aV79.8
p153
aV0.5
p154
aV-
aV7.24
p155
aa(lp156
V2017/2018
p157
aVManchester Un..
p158
aVUCL
p159
aV3(5)
p160
aV345
p161
aV3
aV1
aV1
aV-
aV2.4
p162
aV75.4
p163
aV0.4
p164
aV1
aV6.94
p165
aa(lp166
V2017/2018
p167
aVManchester Un..
p168
aVEPL
p169
aV17(18)
p170
aV1810
p171
aV7
aV5
aV3
aV-
aV1.7
p172
aV78.3
p173
aV0.5
p174
aV1
aV6.76
p175
aa(lp176
V2016/2017
p177
aVManchester Un..
p178
aVEPL
p179
aV16(16)
p180
aV1703
p181
aV5
aV1
aV3
aV-
aV1.4
p182
aV78.7
p183
aV0.1
p184
aV-
aV6.58
p185
aa(lp186
V2016/2017
p187
aVManchester Un..
p188
aVUEL
p189
aV8(3)
p190
aV767
p191
aV2
aV2
aV-
aV-
aV1.9
p192
aV78.9
p193
aV0.2
p194
aV-
aV6.86
p195
aa(lp196
V2018
p197
aVEngland
p198
aVWC
p199
aV1(5)
p200
aV211
p201
aV-
aV-
aV-
aV-
aV0.8
p202
aV83.5
p203
aV0.3
p204
aV-
aV6.23
p205
aa(lp206
V2015/2016
p207
aVManchester Un..
p208
aVUEL
p209
aV3
aV226
p210
aV2
aV-
aV1
aV-
aV3.3
p211
aV81.5
p212
aV1
aV-
aV7.48
p213
aa(lp214
V2015/2016
p215
aVManchester Un..
p216
aVEPL
p217
aV11
p218
aV862
p219
aV5
aV2
aV-
aV-
aV1.5
p220
aV76.9
p221
aV0.3
p222
aV1
aV6.94
p223
aa(lp224
V2016
p225
aVEngland
p226
aVUEC
p227
aV0(2)
p228
aV21
p229
aV-
aV-
aV-
aV-
aV-
aV80
p230
aV-
aV-
aV6.47
p231
aa(lp232
VTotal / Average
p233
aV
aV
aV132
p234
aV7531
p235
aV30
p236
aV17
p237
aV11
p238
aV1
aV1.7
p239
aV78.6
p240
aV0.4
p241
aV4
aV6.76
p242
aasS'defensive_data'
p243
(lp244
(lp245
a(lp246
V2018/2019
p247
aVManchester Un..
p248
aVEPL
p249
aV9(5)
p250
aV851
p251
aV3
aV5
aV2
aV1
aV1.3
p252
aV76.7
p253
aV0.9
p254
aV1
aV6.76
p255
aa(lp256
V2018/2019
p257
aVManchester Un..
p258
aVUCL
p259
aV4(2)
p260
aV392
p261
aV1
aV-
aV1
aV-
aV3.3
p262
aV84
p263
aV0.8
p264
aV-
aV6.84
p265
aa(lp266
V2018/2019
p267
aVEngland
p268
aVUNL
p269
aV4
aV343
p270
aV2
aV1
aV-
aV-
aV2
aV79.8
p271
aV0.5
p272
aV-
aV7.24
p273
aa(lp274
V2017/2018
p275
aVManchester Un..
p276
aVUCL
p277
aV3(5)
p278
aV345
p279
aV3
aV1
aV1
aV-
aV2.4
p280
aV75.4
p281
aV0.4
p282
aV1
aV6.94
p283
aa(lp284
V2017/2018
p285
aVManchester Un..
p286
aVEPL
p287
aV17(18)
p288
aV1810
p289
aV7
aV5
aV3
aV-
aV1.7
p290
aV78.3
p291
aV0.5
p292
aV1
aV6.76
p293
aa(lp294
V2016/2017
p295
aVManchester Un..
p296
aVEPL
p297
aV16(16)
p298
aV1703
p299
aV5
aV1
aV3
aV-
aV1.4
p300
aV78.7
p301
aV0.1
p302
aV-
aV6.58
p303
aa(lp304
V2016/2017
p305
aVManchester Un..
p306
aVUEL
p307
aV8(3)
p308
aV767
p309
aV2
aV2
aV-
aV-
aV1.9
p310
aV78.9
p311
aV0.2
p312
aV-
aV6.86
p313
aa(lp314
V2018
p315
aVEngland
p316
aVWC
p317
aV1(5)
p318
aV211
p319
aV-
aV-
aV-
aV-
aV0.8
p320
aV83.5
p321
aV0.3
p322
aV-
aV6.23
p323
aa(lp324
V2015/2016
p325
aVManchester Un..
p326
aVUEL
p327
aV3
aV226
p328
aV2
aV-
aV1
aV-
aV3.3
p329
aV81.5
p330
aV1
aV-
aV7.48
p331
aa(lp332
V2015/2016
p333
aVManchester Un..
p334
aVEPL
p335
aV11
p336
aV862
p337
aV5
aV2
aV-
aV-
aV1.5
p338
aV76.9
p339
aV0.3
p340
aV1
aV6.94
p341
aa(lp342
V2016
p343
aVEngland
p344
aVUEC
p345
aV0(2)
p346
aV21
p347
aV-
aV-
aV-
aV-
aV-
aV80
p348
aV-
aV-
aV6.47
p349
aa(lp350
VTotal / Average
p351
aV
aV
aV132
p352
aV7531
p353
aV30
p354
aV17
p355
aV11
p356
aV1
aV1.7
p357
aV78.6
p358
aV0.4
p359
aV4
aV6.76
p360
aasS'sumary_data'
p361
(lp362
(lp363
a(lp364
V2018/2019
p365
aVManchester Un..
p366
aVEPL
p367
aV9(5)
p368
aV851
p369
aV3
aV5
aV2
aV1
aV1.3
p370
aV76.7
p371
aV0.9
p372
aV1
aV6.76
p373
aa(lp374
V2018/2019
p375
aVManchester Un..
p376
aVUCL
p377
aV4(2)
p378
aV392
p379
aV1
aV-
aV1
aV-
aV3.3
p380
aV84
p381
aV0.8
p382
aV-
aV6.84
p383
aa(lp384
V2018/2019
p385
aVEngland
p386
aVUNL
p387
aV4
aV343
p388
aV2
aV1
aV-
aV-
aV2
aV79.8
p389
aV0.5
p390
aV-
aV7.24
p391
aa(lp392
V2017/2018
p393
aVManchester Un..
p394
aVUCL
p395
aV3(5)
p396
aV345
p397
aV3
aV1
aV1
aV-
aV2.4
p398
aV75.4
p399
aV0.4
p400
aV1
aV6.94
p401
aa(lp402
V2017/2018
p403
aVManchester Un..
p404
aVEPL
p405
aV17(18)
p406
aV1810
p407
aV7
aV5
aV3
aV-
aV1.7
p408
aV78.3
p409
aV0.5
p410
aV1
aV6.76
p411
aa(lp412
V2016/2017
p413
aVManchester Un..
p414
aVEPL
p415
aV16(16)
p416
aV1703
p417
aV5
aV1
aV3
aV-
aV1.4
p418
aV78.7
p419
aV0.1
p420
aV-
aV6.58
p421
aa(lp422
V2016/2017
p423
aVManchester Un..
p424
aVUEL
p425
aV8(3)
p426
aV767
p427
aV2
aV2
aV-
aV-
aV1.9
p428
aV78.9
p429
aV0.2
p430
aV-
aV6.86
p431
aa(lp432
V2018
p433
aVEngland
p434
aVWC
p435
aV1(5)
p436
aV211
p437
aV-
aV-
aV-
aV-
aV0.8
p438
aV83.5
p439
aV0.3
p440
aV-
aV6.23
p441
aa(lp442
V2015/2016
p443
aVManchester Un..
p444
aVUEL
p445
aV3
aV226
p446
aV2
aV-
aV1
aV-
aV3.3
p447
aV81.5
p448
aV1
aV-
aV7.48
p449
aa(lp450
V2015/2016
p451
aVManchester Un..
p452
aVEPL
p453
aV11
p454
aV862
p455
aV5
aV2
aV-
aV-
aV1.5
p456
aV76.9
p457
aV0.3
p458
aV1
aV6.94
p459
aa(lp460
V2016
p461
aVEngland
p462
aVUEC
p463
aV0(2)
p464
aV21
p465
aV-
aV-
aV-
aV-
aV-
aV80
p466
aV-
aV-
aV6.47
p467
aa(lp468
VTotal / Average
p469
aV
aV
aV132
p470
aV7531
p471
aV30
p472
aV17
p473
aV11
p474
aV1
aV1.7
p475
aV78.6
p476
aV0.4
p477
aV4
aV6.76
p478
aasS'id'
p479
V300299
p480
sb.