(i__main__
Player
p1
(dp2
S'name'
p3
VIssa Diop 
p4
sS'offensive_data'
p5
(lp6
(lp7
a(lp8
V2018/2019
p9
aVWest Ham
p10
aVEPL
p11
aV15
p12
aV1350
p13
aV-
aV-
aV2
aV-
aV0.3
p14
aV88.2
p15
aV2.3
p16
aV-
aV6.83
p17
aa(lp18
V2017/2018
p19
aVToulouse
p20
aVFL1
p21
aV34
p22
aV3060
p23
aV3
aV-
aV8
aV-
aV0.6
p24
aV79.6
p25
aV1.7
p26
aV1
aV6.82
p27
aa(lp28
V2016/2017
p29
aVToulouse
p30
aVFL1
p31
aV30
p32
aV2700
p33
aV2
aV2
aV9
aV-
aV0.3
p34
aV73.9
p35
aV1.5
p36
aV-
aV6.81
p37
aa(lp38
V2015/2016
p39
aVToulouse
p40
aVFL1
p41
aV21
p42
aV1890
p43
aV1
aV-
aV4
aV2
aV0.2
p44
aV75.5
p45
aV1.8
p46
aV-
aV6.88
p47
aa(lp48
VTotal / Average
p49
aV
aV
aV100
p50
aV9000
p51
aV6
aV2
aV23
p52
aV2
aV0.4
p53
aV78.3
p54
aV1.7
p55
aV1
aV6.83
p56
aasS'url'
p57
S'https://www.whoscored.com/Players/300359/History/'
p58
sS'passing_data'
p59
(lp60
(lp61
a(lp62
V2018/2019
p63
aVWest Ham
p64
aVEPL
p65
aV15
p66
aV1350
p67
aV-
aV-
aV2
aV-
aV0.3
p68
aV88.2
p69
aV2.3
p70
aV-
aV6.83
p71
aa(lp72
V2017/2018
p73
aVToulouse
p74
aVFL1
p75
aV34
p76
aV3060
p77
aV3
aV-
aV8
aV-
aV0.6
p78
aV79.6
p79
aV1.7
p80
aV1
aV6.82
p81
aa(lp82
V2016/2017
p83
aVToulouse
p84
aVFL1
p85
aV30
p86
aV2700
p87
aV2
aV2
aV9
aV-
aV0.3
p88
aV73.9
p89
aV1.5
p90
aV-
aV6.81
p91
aa(lp92
V2015/2016
p93
aVToulouse
p94
aVFL1
p95
aV21
p96
aV1890
p97
aV1
aV-
aV4
aV2
aV0.2
p98
aV75.5
p99
aV1.8
p100
aV-
aV6.88
p101
aa(lp102
VTotal / Average
p103
aV
aV
aV100
p104
aV9000
p105
aV6
aV2
aV23
p106
aV2
aV0.4
p107
aV78.3
p108
aV1.7
p109
aV1
aV6.83
p110
aasS'defensive_data'
p111
(lp112
(lp113
a(lp114
V2018/2019
p115
aVWest Ham
p116
aVEPL
p117
aV15
p118
aV1350
p119
aV-
aV-
aV2
aV-
aV0.3
p120
aV88.2
p121
aV2.3
p122
aV-
aV6.83
p123
aa(lp124
V2017/2018
p125
aVToulouse
p126
aVFL1
p127
aV34
p128
aV3060
p129
aV3
aV-
aV8
aV-
aV0.6
p130
aV79.6
p131
aV1.7
p132
aV1
aV6.82
p133
aa(lp134
V2016/2017
p135
aVToulouse
p136
aVFL1
p137
aV30
p138
aV2700
p139
aV2
aV2
aV9
aV-
aV0.3
p140
aV73.9
p141
aV1.5
p142
aV-
aV6.81
p143
aa(lp144
V2015/2016
p145
aVToulouse
p146
aVFL1
p147
aV21
p148
aV1890
p149
aV1
aV-
aV4
aV2
aV0.2
p150
aV75.5
p151
aV1.8
p152
aV-
aV6.88
p153
aa(lp154
VTotal / Average
p155
aV
aV
aV100
p156
aV9000
p157
aV6
aV2
aV23
p158
aV2
aV0.4
p159
aV78.3
p160
aV1.7
p161
aV1
aV6.83
p162
aasS'sumary_data'
p163
(lp164
(lp165
a(lp166
V2018/2019
p167
aVWest Ham
p168
aVEPL
p169
aV15
p170
aV1350
p171
aV-
aV-
aV2
aV-
aV0.3
p172
aV88.2
p173
aV2.3
p174
aV-
aV6.83
p175
aa(lp176
V2017/2018
p177
aVToulouse
p178
aVFL1
p179
aV34
p180
aV3060
p181
aV3
aV-
aV8
aV-
aV0.6
p182
aV79.6
p183
aV1.7
p184
aV1
aV6.82
p185
aa(lp186
V2016/2017
p187
aVToulouse
p188
aVFL1
p189
aV30
p190
aV2700
p191
aV2
aV2
aV9
aV-
aV0.3
p192
aV73.9
p193
aV1.5
p194
aV-
aV6.81
p195
aa(lp196
V2015/2016
p197
aVToulouse
p198
aVFL1
p199
aV21
p200
aV1890
p201
aV1
aV-
aV4
aV2
aV0.2
p202
aV75.5
p203
aV1.8
p204
aV-
aV6.88
p205
aa(lp206
VTotal / Average
p207
aV
aV
aV100
p208
aV9000
p209
aV6
aV2
aV23
p210
aV2
aV0.4
p211
aV78.3
p212
aV1.7
p213
aV1
aV6.83
p214
aasS'id'
p215
V300359
p216
sb.