(i__main__
Player
p1
(dp2
S'name'
p3
VLaurent Koscielny 
p4
sS'offensive_data'
p5
(lp6
(lp7
a(lp8
V2018/2019
p9
aVArsenal
p10
aVEPL
p11
aV1
aV90
p12
aV-
aV-
aV1
aV-
aV1
aV92.4
p13
aV3
aV-
aV6.53
p14
aa(lp15
V2018/2019
p16
aVArsenal
p17
aVUEL
p18
aV1
aV72
p19
aV-
aV-
aV-
aV-
aV-
aV100
p20
aV1
aV-
aV6.85
p21
aa(lp22
V2017/2018
p23
aVArsenal
p24
aVUEL
p25
aV6
aV383
p26
aV-
aV-
aV-
aV-
aV0.5
p27
aV88.6
p28
aV3.2
p29
aV-
aV6.93
p30
aa(lp31
V2017/2018
p32
aVArsenal
p33
aVEPL
p34
aV25
p35
aV2227
p36
aV2
aV-
aV4
aV-
aV0.4
p37
aV89
p38
aV3.2
p39
aV1
aV7.08
p40
aa(lp41
V2016/2017
p42
aVArsenal
p43
aVUCL
p44
aV8
aV642
p45
aV-
aV-
aV1
aV1
aV0.1
p46
aV91.6
p47
aV1.9
p48
aV-
aV6.90
p49
aa(lp50
V2016/2017
p51
aVArsenal
p52
aVEPL
p53
aV33
p54
aV2824
p55
aV2
aV-
aV4
aV1
aV0.3
p56
aV87.9
p57
aV3.5
p58
aV1
aV7.25
p59
aa(lp60
V2015/2016
p61
aVArsenal
p62
aVUCL
p63
aV7
aV597
p64
aV-
aV-
aV-
aV-
aV0.1
p65
aV88.6
p66
aV2.4
p67
aV-
aV6.96
p68
aa(lp69
V2015/2016
p70
aVArsenal
p71
aVEPL
p72
aV33
p73
aV2847
p74
aV4
aV-
aV3
aV-
aV0.6
p75
aV87
p76
aV3.2
p77
aV3
aV7.48
p78
aa(lp79
V2014/2015
p80
aVArsenal
p81
aVUCL
p82
aV4
aV360
p83
aV-
aV-
aV-
aV-
aV-
aV92.6
p84
aV2.3
p85
aV1
aV7.39
p86
aa(lp87
V2014/2015
p88
aVArsenal
p89
aVEPL
p90
aV26(1)
p91
aV2288
p92
aV3
aV-
aV4
aV-
aV0.3
p93
aV88.9
p94
aV3.2
p95
aV2
aV7.40
p96
aa(lp97
V2016
p98
aVFrance
p99
aVUEC
p100
aV7
aV642
p101
aV-
aV-
aV2
aV-
aV0.6
p102
aV91.1
p103
aV2.9
p104
aV-
aV7.07
p105
aa(lp106
V2013/2014
p107
aVArsenal
p108
aVUCL
p109
aV8
aV720
p110
aV-
aV-
aV-
aV-
aV0.5
p111
aV90.6
p112
aV1.8
p113
aV-
aV7.14
p114
aa(lp115
V2013/2014
p116
aVArsenal
p117
aVEPL
p118
aV32
p119
aV2742
p120
aV2
aV-
aV1
aV1
aV0.4
p121
aV93.5
p122
aV1.7
p123
aV3
aV7.34
p124
aa(lp125
V2014
p126
aVFrance
p127
aVWC
p128
aV2(2)
p129
aV223
p130
aV-
aV-
aV-
aV-
aV0.3
p131
aV87
p132
aV2.8
p133
aV-
aV6.80
p134
aa(lp135
V2012/2013
p136
aVArsenal
p137
aVUCL
p138
aV5
aV450
p139
aV1
aV-
aV3
aV-
aV0.6
p140
aV89.7
p141
aV3
aV1
aV7.37
p142
aa(lp143
V2012/2013
p144
aVArsenal
p145
aVEPL
p146
aV20(5)
p147
aV1673
p148
aV2
aV1
aV1
aV1
aV0.4
p149
aV83.3
p150
aV2.3
p151
aV2
aV6.94
p152
aa(lp153
V2012
p154
aVFrance
p155
aVUEC
p156
aV1
aV90
p157
aV-
aV-
aV-
aV-
aV-
aV92.2
p158
aV-
aV-
aV7.25
p159
aa(lp160
V2011/2012
p161
aVArsenal
p162
aVUCL
p163
aV5
aV398
p164
aV1
aV-
aV-
aV-
aV0.4
p165
aV76.9
p166
aV2
aV2
aV7.53
p167
aa(lp168
V2011/2012
p169
aVArsenal
p170
aVEPL
p171
aV33
p172
aV2874
p173
aV2
aV1
aV9
aV-
aV0.6
p174
aV84.8
p175
aV1.9
p176
aV2
aV7.24
p177
aa(lp178
V2010/2011
p179
aVArsenal
p180
aVUCL
p181
aV4
aV360
p182
aV-
aV-
aV1
aV-
aV-
aV87.8
p183
aV0.8
p184
aV1
aV7.46
p185
aa(lp186
V2010/2011
p187
aVArsenal
p188
aVEPL
p189
aV30
p190
aV2619
p191
aV2
aV-
aV5
aV2
aV0.4
p192
aV85.2
p193
aV2.7
p194
aV1
aV7.04
p195
aa(lp196
V2009/2010
p197
aVLorient
p198
aVFL1
p199
aV35
p200
aV3118
p201
aV3
aV-
aV3
aV-
aV0.3
p202
aV74.9
p203
aV1.8
p204
aV4
aV7.57
p205
aa(lp206
VTotal / Average
p207
aV
aV
aV334
p208
aV28239
p209
aV24
p210
aV2
aV42
p211
aV6
aV0.4
p212
aV86.5
p213
aV2.5
p214
aV24
p215
aV7.25
p216
aasS'url'
p217
S'https://www.whoscored.com/Players/30051/History/'
p218
sS'passing_data'
p219
(lp220
(lp221
a(lp222
V2018/2019
p223
aVArsenal
p224
aVEPL
p225
aV1
aV90
p226
aV-
aV-
aV1
aV-
aV1
aV92.4
p227
aV3
aV-
aV6.53
p228
aa(lp229
V2018/2019
p230
aVArsenal
p231
aVUEL
p232
aV1
aV72
p233
aV-
aV-
aV-
aV-
aV-
aV100
p234
aV1
aV-
aV6.85
p235
aa(lp236
V2017/2018
p237
aVArsenal
p238
aVUEL
p239
aV6
aV383
p240
aV-
aV-
aV-
aV-
aV0.5
p241
aV88.6
p242
aV3.2
p243
aV-
aV6.93
p244
aa(lp245
V2017/2018
p246
aVArsenal
p247
aVEPL
p248
aV25
p249
aV2227
p250
aV2
aV-
aV4
aV-
aV0.4
p251
aV89
p252
aV3.2
p253
aV1
aV7.08
p254
aa(lp255
V2016/2017
p256
aVArsenal
p257
aVUCL
p258
aV8
aV642
p259
aV-
aV-
aV1
aV1
aV0.1
p260
aV91.6
p261
aV1.9
p262
aV-
aV6.90
p263
aa(lp264
V2016/2017
p265
aVArsenal
p266
aVEPL
p267
aV33
p268
aV2824
p269
aV2
aV-
aV4
aV1
aV0.3
p270
aV87.9
p271
aV3.5
p272
aV1
aV7.25
p273
aa(lp274
V2015/2016
p275
aVArsenal
p276
aVUCL
p277
aV7
aV597
p278
aV-
aV-
aV-
aV-
aV0.1
p279
aV88.6
p280
aV2.4
p281
aV-
aV6.96
p282
aa(lp283
V2015/2016
p284
aVArsenal
p285
aVEPL
p286
aV33
p287
aV2847
p288
aV4
aV-
aV3
aV-
aV0.6
p289
aV87
p290
aV3.2
p291
aV3
aV7.48
p292
aa(lp293
V2014/2015
p294
aVArsenal
p295
aVUCL
p296
aV4
aV360
p297
aV-
aV-
aV-
aV-
aV-
aV92.6
p298
aV2.3
p299
aV1
aV7.39
p300
aa(lp301
V2014/2015
p302
aVArsenal
p303
aVEPL
p304
aV26(1)
p305
aV2288
p306
aV3
aV-
aV4
aV-
aV0.3
p307
aV88.9
p308
aV3.2
p309
aV2
aV7.40
p310
aa(lp311
V2016
p312
aVFrance
p313
aVUEC
p314
aV7
aV642
p315
aV-
aV-
aV2
aV-
aV0.6
p316
aV91.1
p317
aV2.9
p318
aV-
aV7.07
p319
aa(lp320
V2013/2014
p321
aVArsenal
p322
aVUCL
p323
aV8
aV720
p324
aV-
aV-
aV-
aV-
aV0.5
p325
aV90.6
p326
aV1.8
p327
aV-
aV7.14
p328
aa(lp329
V2013/2014
p330
aVArsenal
p331
aVEPL
p332
aV32
p333
aV2742
p334
aV2
aV-
aV1
aV1
aV0.4
p335
aV93.5
p336
aV1.7
p337
aV3
aV7.34
p338
aa(lp339
V2014
p340
aVFrance
p341
aVWC
p342
aV2(2)
p343
aV223
p344
aV-
aV-
aV-
aV-
aV0.3
p345
aV87
p346
aV2.8
p347
aV-
aV6.80
p348
aa(lp349
V2012/2013
p350
aVArsenal
p351
aVUCL
p352
aV5
aV450
p353
aV1
aV-
aV3
aV-
aV0.6
p354
aV89.7
p355
aV3
aV1
aV7.37
p356
aa(lp357
V2012/2013
p358
aVArsenal
p359
aVEPL
p360
aV20(5)
p361
aV1673
p362
aV2
aV1
aV1
aV1
aV0.4
p363
aV83.3
p364
aV2.3
p365
aV2
aV6.94
p366
aa(lp367
V2012
p368
aVFrance
p369
aVUEC
p370
aV1
aV90
p371
aV-
aV-
aV-
aV-
aV-
aV92.2
p372
aV-
aV-
aV7.25
p373
aa(lp374
V2011/2012
p375
aVArsenal
p376
aVUCL
p377
aV5
aV398
p378
aV1
aV-
aV-
aV-
aV0.4
p379
aV76.9
p380
aV2
aV2
aV7.53
p381
aa(lp382
V2011/2012
p383
aVArsenal
p384
aVEPL
p385
aV33
p386
aV2874
p387
aV2
aV1
aV9
aV-
aV0.6
p388
aV84.8
p389
aV1.9
p390
aV2
aV7.24
p391
aa(lp392
V2010/2011
p393
aVArsenal
p394
aVUCL
p395
aV4
aV360
p396
aV-
aV-
aV1
aV-
aV-
aV87.8
p397
aV0.8
p398
aV1
aV7.46
p399
aa(lp400
V2010/2011
p401
aVArsenal
p402
aVEPL
p403
aV30
p404
aV2619
p405
aV2
aV-
aV5
aV2
aV0.4
p406
aV85.2
p407
aV2.7
p408
aV1
aV7.04
p409
aa(lp410
V2009/2010
p411
aVLorient
p412
aVFL1
p413
aV35
p414
aV3118
p415
aV3
aV-
aV3
aV-
aV0.3
p416
aV74.9
p417
aV1.8
p418
aV4
aV7.57
p419
aa(lp420
VTotal / Average
p421
aV
aV
aV334
p422
aV28239
p423
aV24
p424
aV2
aV42
p425
aV6
aV0.4
p426
aV86.5
p427
aV2.5
p428
aV24
p429
aV7.25
p430
aasS'defensive_data'
p431
(lp432
(lp433
a(lp434
V2018/2019
p435
aVArsenal
p436
aVEPL
p437
aV1
aV90
p438
aV-
aV-
aV1
aV-
aV1
aV92.4
p439
aV3
aV-
aV6.53
p440
aa(lp441
V2018/2019
p442
aVArsenal
p443
aVUEL
p444
aV1
aV72
p445
aV-
aV-
aV-
aV-
aV-
aV100
p446
aV1
aV-
aV6.85
p447
aa(lp448
V2017/2018
p449
aVArsenal
p450
aVUEL
p451
aV6
aV383
p452
aV-
aV-
aV-
aV-
aV0.5
p453
aV88.6
p454
aV3.2
p455
aV-
aV6.93
p456
aa(lp457
V2017/2018
p458
aVArsenal
p459
aVEPL
p460
aV25
p461
aV2227
p462
aV2
aV-
aV4
aV-
aV0.4
p463
aV89
p464
aV3.2
p465
aV1
aV7.08
p466
aa(lp467
V2016/2017
p468
aVArsenal
p469
aVUCL
p470
aV8
aV642
p471
aV-
aV-
aV1
aV1
aV0.1
p472
aV91.6
p473
aV1.9
p474
aV-
aV6.90
p475
aa(lp476
V2016/2017
p477
aVArsenal
p478
aVEPL
p479
aV33
p480
aV2824
p481
aV2
aV-
aV4
aV1
aV0.3
p482
aV87.9
p483
aV3.5
p484
aV1
aV7.25
p485
aa(lp486
V2015/2016
p487
aVArsenal
p488
aVUCL
p489
aV7
aV597
p490
aV-
aV-
aV-
aV-
aV0.1
p491
aV88.6
p492
aV2.4
p493
aV-
aV6.96
p494
aa(lp495
V2015/2016
p496
aVArsenal
p497
aVEPL
p498
aV33
p499
aV2847
p500
aV4
aV-
aV3
aV-
aV0.6
p501
aV87
p502
aV3.2
p503
aV3
aV7.48
p504
aa(lp505
V2014/2015
p506
aVArsenal
p507
aVUCL
p508
aV4
aV360
p509
aV-
aV-
aV-
aV-
aV-
aV92.6
p510
aV2.3
p511
aV1
aV7.39
p512
aa(lp513
V2014/2015
p514
aVArsenal
p515
aVEPL
p516
aV26(1)
p517
aV2288
p518
aV3
aV-
aV4
aV-
aV0.3
p519
aV88.9
p520
aV3.2
p521
aV2
aV7.40
p522
aa(lp523
V2016
p524
aVFrance
p525
aVUEC
p526
aV7
aV642
p527
aV-
aV-
aV2
aV-
aV0.6
p528
aV91.1
p529
aV2.9
p530
aV-
aV7.07
p531
aa(lp532
V2013/2014
p533
aVArsenal
p534
aVUCL
p535
aV8
aV720
p536
aV-
aV-
aV-
aV-
aV0.5
p537
aV90.6
p538
aV1.8
p539
aV-
aV7.14
p540
aa(lp541
V2013/2014
p542
aVArsenal
p543
aVEPL
p544
aV32
p545
aV2742
p546
aV2
aV-
aV1
aV1
aV0.4
p547
aV93.5
p548
aV1.7
p549
aV3
aV7.34
p550
aa(lp551
V2014
p552
aVFrance
p553
aVWC
p554
aV2(2)
p555
aV223
p556
aV-
aV-
aV-
aV-
aV0.3
p557
aV87
p558
aV2.8
p559
aV-
aV6.80
p560
aa(lp561
V2012/2013
p562
aVArsenal
p563
aVUCL
p564
aV5
aV450
p565
aV1
aV-
aV3
aV-
aV0.6
p566
aV89.7
p567
aV3
aV1
aV7.37
p568
aa(lp569
V2012/2013
p570
aVArsenal
p571
aVEPL
p572
aV20(5)
p573
aV1673
p574
aV2
aV1
aV1
aV1
aV0.4
p575
aV83.3
p576
aV2.3
p577
aV2
aV6.94
p578
aa(lp579
V2012
p580
aVFrance
p581
aVUEC
p582
aV1
aV90
p583
aV-
aV-
aV-
aV-
aV-
aV92.2
p584
aV-
aV-
aV7.25
p585
aa(lp586
V2011/2012
p587
aVArsenal
p588
aVUCL
p589
aV5
aV398
p590
aV1
aV-
aV-
aV-
aV0.4
p591
aV76.9
p592
aV2
aV2
aV7.53
p593
aa(lp594
V2011/2012
p595
aVArsenal
p596
aVEPL
p597
aV33
p598
aV2874
p599
aV2
aV1
aV9
aV-
aV0.6
p600
aV84.8
p601
aV1.9
p602
aV2
aV7.24
p603
aa(lp604
V2010/2011
p605
aVArsenal
p606
aVUCL
p607
aV4
aV360
p608
aV-
aV-
aV1
aV-
aV-
aV87.8
p609
aV0.8
p610
aV1
aV7.46
p611
aa(lp612
V2010/2011
p613
aVArsenal
p614
aVEPL
p615
aV30
p616
aV2619
p617
aV2
aV-
aV5
aV2
aV0.4
p618
aV85.2
p619
aV2.7
p620
aV1
aV7.04
p621
aa(lp622
V2009/2010
p623
aVLorient
p624
aVFL1
p625
aV35
p626
aV3118
p627
aV3
aV-
aV3
aV-
aV0.3
p628
aV74.9
p629
aV1.8
p630
aV4
aV7.57
p631
aa(lp632
VTotal / Average
p633
aV
aV
aV334
p634
aV28239
p635
aV24
p636
aV2
aV42
p637
aV6
aV0.4
p638
aV86.5
p639
aV2.5
p640
aV24
p641
aV7.25
p642
aasS'sumary_data'
p643
(lp644
(lp645
a(lp646
V2018/2019
p647
aVArsenal
p648
aVEPL
p649
aV1
aV90
p650
aV-
aV-
aV1
aV-
aV1
aV92.4
p651
aV3
aV-
aV6.53
p652
aa(lp653
V2018/2019
p654
aVArsenal
p655
aVUEL
p656
aV1
aV72
p657
aV-
aV-
aV-
aV-
aV-
aV100
p658
aV1
aV-
aV6.85
p659
aa(lp660
V2017/2018
p661
aVArsenal
p662
aVUEL
p663
aV6
aV383
p664
aV-
aV-
aV-
aV-
aV0.5
p665
aV88.6
p666
aV3.2
p667
aV-
aV6.93
p668
aa(lp669
V2017/2018
p670
aVArsenal
p671
aVEPL
p672
aV25
p673
aV2227
p674
aV2
aV-
aV4
aV-
aV0.4
p675
aV89
p676
aV3.2
p677
aV1
aV7.08
p678
aa(lp679
V2016/2017
p680
aVArsenal
p681
aVUCL
p682
aV8
aV642
p683
aV-
aV-
aV1
aV1
aV0.1
p684
aV91.6
p685
aV1.9
p686
aV-
aV6.90
p687
aa(lp688
V2016/2017
p689
aVArsenal
p690
aVEPL
p691
aV33
p692
aV2824
p693
aV2
aV-
aV4
aV1
aV0.3
p694
aV87.9
p695
aV3.5
p696
aV1
aV7.25
p697
aa(lp698
V2015/2016
p699
aVArsenal
p700
aVUCL
p701
aV7
aV597
p702
aV-
aV-
aV-
aV-
aV0.1
p703
aV88.6
p704
aV2.4
p705
aV-
aV6.96
p706
aa(lp707
V2015/2016
p708
aVArsenal
p709
aVEPL
p710
aV33
p711
aV2847
p712
aV4
aV-
aV3
aV-
aV0.6
p713
aV87
p714
aV3.2
p715
aV3
aV7.48
p716
aa(lp717
V2014/2015
p718
aVArsenal
p719
aVUCL
p720
aV4
aV360
p721
aV-
aV-
aV-
aV-
aV-
aV92.6
p722
aV2.3
p723
aV1
aV7.39
p724
aa(lp725
V2014/2015
p726
aVArsenal
p727
aVEPL
p728
aV26(1)
p729
aV2288
p730
aV3
aV-
aV4
aV-
aV0.3
p731
aV88.9
p732
aV3.2
p733
aV2
aV7.40
p734
aa(lp735
V2016
p736
aVFrance
p737
aVUEC
p738
aV7
aV642
p739
aV-
aV-
aV2
aV-
aV0.6
p740
aV91.1
p741
aV2.9
p742
aV-
aV7.07
p743
aa(lp744
V2013/2014
p745
aVArsenal
p746
aVUCL
p747
aV8
aV720
p748
aV-
aV-
aV-
aV-
aV0.5
p749
aV90.6
p750
aV1.8
p751
aV-
aV7.14
p752
aa(lp753
V2013/2014
p754
aVArsenal
p755
aVEPL
p756
aV32
p757
aV2742
p758
aV2
aV-
aV1
aV1
aV0.4
p759
aV93.5
p760
aV1.7
p761
aV3
aV7.34
p762
aa(lp763
V2014
p764
aVFrance
p765
aVWC
p766
aV2(2)
p767
aV223
p768
aV-
aV-
aV-
aV-
aV0.3
p769
aV87
p770
aV2.8
p771
aV-
aV6.80
p772
aa(lp773
V2012/2013
p774
aVArsenal
p775
aVUCL
p776
aV5
aV450
p777
aV1
aV-
aV3
aV-
aV0.6
p778
aV89.7
p779
aV3
aV1
aV7.37
p780
aa(lp781
V2012/2013
p782
aVArsenal
p783
aVEPL
p784
aV20(5)
p785
aV1673
p786
aV2
aV1
aV1
aV1
aV0.4
p787
aV83.3
p788
aV2.3
p789
aV2
aV6.94
p790
aa(lp791
V2012
p792
aVFrance
p793
aVUEC
p794
aV1
aV90
p795
aV-
aV-
aV-
aV-
aV-
aV92.2
p796
aV-
aV-
aV7.25
p797
aa(lp798
V2011/2012
p799
aVArsenal
p800
aVUCL
p801
aV5
aV398
p802
aV1
aV-
aV-
aV-
aV0.4
p803
aV76.9
p804
aV2
aV2
aV7.53
p805
aa(lp806
V2011/2012
p807
aVArsenal
p808
aVEPL
p809
aV33
p810
aV2874
p811
aV2
aV1
aV9
aV-
aV0.6
p812
aV84.8
p813
aV1.9
p814
aV2
aV7.24
p815
aa(lp816
V2010/2011
p817
aVArsenal
p818
aVUCL
p819
aV4
aV360
p820
aV-
aV-
aV1
aV-
aV-
aV87.8
p821
aV0.8
p822
aV1
aV7.46
p823
aa(lp824
V2010/2011
p825
aVArsenal
p826
aVEPL
p827
aV30
p828
aV2619
p829
aV2
aV-
aV5
aV2
aV0.4
p830
aV85.2
p831
aV2.7
p832
aV1
aV7.04
p833
aa(lp834
V2009/2010
p835
aVLorient
p836
aVFL1
p837
aV35
p838
aV3118
p839
aV3
aV-
aV3
aV-
aV0.3
p840
aV74.9
p841
aV1.8
p842
aV4
aV7.57
p843
aa(lp844
VTotal / Average
p845
aV
aV
aV334
p846
aV28239
p847
aV24
p848
aV2
aV42
p849
aV6
aV0.4
p850
aV86.5
p851
aV2.5
p852
aV24
p853
aV7.25
p854
aasS'id'
p855
V30051
p856
sb.