(i__main__
Player
p1
(dp2
S'name'
p3
VBernardo 
p4
sS'offensive_data'
p5
(lp6
(lp7
a(lp8
V2018/2019
p9
aVBrighton
p10
aVEPL
p11
aV6(1)
p12
aV562
p13
aV-
aV1
aV2
aV-
aV0.1
p14
aV75.7
p15
aV1.7
p16
aV-
aV6.94
p17
aa(lp18
V2017/2018
p19
aVRasenBallspor..
p20
aVGB
p21
aV15(3)
p22
aV1350
p23
aV1
aV1
aV2
aV-
aV0.7
p24
aV73.6
p25
aV2.8
p26
aV1
aV6.90
p27
aa(lp28
V2017/2018
p29
aVRasenBallspor..
p30
aVUEL
p31
aV2(3)
p32
aV265
p33
aV-
aV-
aV-
aV-
aV0.2
p34
aV71.8
p35
aV3.2
p36
aV1
aV6.91
p37
aa(lp38
V2017/2018
p39
aVRasenBallspor..
p40
aVUCL
p41
aV1(2)
p42
aV115
p43
aV-
aV-
aV-
aV-
aV0.3
p44
aV67.2
p45
aV1.3
p46
aV-
aV6.09
p47
aa(lp48
V2016/2017
p49
aVRasenBallspor..
p50
aVGB
p51
aV21(1)
p52
aV1894
p53
aV-
aV1
aV3
aV-
aV0.6
p54
aV74.4
p55
aV3.3
p56
aV-
aV7.24
p57
aa(lp58
VTotal / Average
p59
aV
aV
aV55
p60
aV4186
p61
aV1
aV3
aV7
aV0
aV0.5
p62
aV73.7
p63
aV2.8
p64
aV2
aV7.00
p65
aasS'url'
p66
S'https://www.whoscored.com/Players/302588/History/'
p67
sS'passing_data'
p68
(lp69
(lp70
a(lp71
V2018/2019
p72
aVBrighton
p73
aVEPL
p74
aV6(1)
p75
aV562
p76
aV-
aV1
aV2
aV-
aV0.1
p77
aV75.7
p78
aV1.7
p79
aV-
aV6.94
p80
aa(lp81
V2017/2018
p82
aVRasenBallspor..
p83
aVGB
p84
aV15(3)
p85
aV1350
p86
aV1
aV1
aV2
aV-
aV0.7
p87
aV73.6
p88
aV2.8
p89
aV1
aV6.90
p90
aa(lp91
V2017/2018
p92
aVRasenBallspor..
p93
aVUEL
p94
aV2(3)
p95
aV265
p96
aV-
aV-
aV-
aV-
aV0.2
p97
aV71.8
p98
aV3.2
p99
aV1
aV6.91
p100
aa(lp101
V2017/2018
p102
aVRasenBallspor..
p103
aVUCL
p104
aV1(2)
p105
aV115
p106
aV-
aV-
aV-
aV-
aV0.3
p107
aV67.2
p108
aV1.3
p109
aV-
aV6.09
p110
aa(lp111
V2016/2017
p112
aVRasenBallspor..
p113
aVGB
p114
aV21(1)
p115
aV1894
p116
aV-
aV1
aV3
aV-
aV0.6
p117
aV74.4
p118
aV3.3
p119
aV-
aV7.24
p120
aa(lp121
VTotal / Average
p122
aV
aV
aV55
p123
aV4186
p124
aV1
aV3
aV7
aV0
aV0.5
p125
aV73.7
p126
aV2.8
p127
aV2
aV7.00
p128
aasS'defensive_data'
p129
(lp130
(lp131
a(lp132
V2018/2019
p133
aVBrighton
p134
aVEPL
p135
aV6(1)
p136
aV562
p137
aV-
aV1
aV2
aV-
aV0.1
p138
aV75.7
p139
aV1.7
p140
aV-
aV6.94
p141
aa(lp142
V2017/2018
p143
aVRasenBallspor..
p144
aVGB
p145
aV15(3)
p146
aV1350
p147
aV1
aV1
aV2
aV-
aV0.7
p148
aV73.6
p149
aV2.8
p150
aV1
aV6.90
p151
aa(lp152
V2017/2018
p153
aVRasenBallspor..
p154
aVUEL
p155
aV2(3)
p156
aV265
p157
aV-
aV-
aV-
aV-
aV0.2
p158
aV71.8
p159
aV3.2
p160
aV1
aV6.91
p161
aa(lp162
V2017/2018
p163
aVRasenBallspor..
p164
aVUCL
p165
aV1(2)
p166
aV115
p167
aV-
aV-
aV-
aV-
aV0.3
p168
aV67.2
p169
aV1.3
p170
aV-
aV6.09
p171
aa(lp172
V2016/2017
p173
aVRasenBallspor..
p174
aVGB
p175
aV21(1)
p176
aV1894
p177
aV-
aV1
aV3
aV-
aV0.6
p178
aV74.4
p179
aV3.3
p180
aV-
aV7.24
p181
aa(lp182
VTotal / Average
p183
aV
aV
aV55
p184
aV4186
p185
aV1
aV3
aV7
aV0
aV0.5
p186
aV73.7
p187
aV2.8
p188
aV2
aV7.00
p189
aasS'sumary_data'
p190
(lp191
(lp192
a(lp193
V2018/2019
p194
aVBrighton
p195
aVEPL
p196
aV6(1)
p197
aV562
p198
aV-
aV1
aV2
aV-
aV0.1
p199
aV75.7
p200
aV1.7
p201
aV-
aV6.94
p202
aa(lp203
V2017/2018
p204
aVRasenBallspor..
p205
aVGB
p206
aV15(3)
p207
aV1350
p208
aV1
aV1
aV2
aV-
aV0.7
p209
aV73.6
p210
aV2.8
p211
aV1
aV6.90
p212
aa(lp213
V2017/2018
p214
aVRasenBallspor..
p215
aVUEL
p216
aV2(3)
p217
aV265
p218
aV-
aV-
aV-
aV-
aV0.2
p219
aV71.8
p220
aV3.2
p221
aV1
aV6.91
p222
aa(lp223
V2017/2018
p224
aVRasenBallspor..
p225
aVUCL
p226
aV1(2)
p227
aV115
p228
aV-
aV-
aV-
aV-
aV0.3
p229
aV67.2
p230
aV1.3
p231
aV-
aV6.09
p232
aa(lp233
V2016/2017
p234
aVRasenBallspor..
p235
aVGB
p236
aV21(1)
p237
aV1894
p238
aV-
aV1
aV3
aV-
aV0.6
p239
aV74.4
p240
aV3.3
p241
aV-
aV7.24
p242
aa(lp243
VTotal / Average
p244
aV
aV
aV55
p245
aV4186
p246
aV1
aV3
aV7
aV0
aV0.5
p247
aV73.7
p248
aV2.8
p249
aV2
aV7.00
p250
aasS'id'
p251
V302588
p252
sb.