(i__main__
Player
p1
(dp2
S'name'
p3
VYves Bissouma 
p4
sS'offensive_data'
p5
(lp6
(lp7
a(lp8
V2018/2019
p9
aVBrighton
p10
aVEPL
p11
aV7(8)
p12
aV776
p13
aV-
aV-
aV3
aV-
aV0.9
p14
aV81.9
p15
aV0.6
p16
aV-
aV6.45
p17
aa(lp18
V2017/2018
p19
aVLille
p20
aVFL1
p21
aV15(9)
p22
aV1557
p23
aV2
aV1
aV3
aV-
aV1.7
p24
aV85.2
p25
aV0.9
p26
aV2
aV6.97
p27
aa(lp28
V2016/2017
p29
aVLille
p30
aVFL1
p31
aV5(18)
p32
aV753
p33
aV1
aV-
aV4
aV1
aV0.8
p34
aV78.6
p35
aV0.7
p36
aV-
aV6.53
p37
aa(lp38
VTotal / Average
p39
aV
aV
aV62
p40
aV3086
p41
aV3
aV1
aV10
p42
aV1
aV1.2
p43
aV81.9
p44
aV0.7
p45
aV2
aV6.68
p46
aasS'url'
p47
S'https://www.whoscored.com/Players/303096/History/'
p48
sS'passing_data'
p49
(lp50
(lp51
a(lp52
V2018/2019
p53
aVBrighton
p54
aVEPL
p55
aV7(8)
p56
aV776
p57
aV-
aV-
aV3
aV-
aV0.9
p58
aV81.9
p59
aV0.6
p60
aV-
aV6.45
p61
aa(lp62
V2017/2018
p63
aVLille
p64
aVFL1
p65
aV15(9)
p66
aV1557
p67
aV2
aV1
aV3
aV-
aV1.7
p68
aV85.2
p69
aV0.9
p70
aV2
aV6.97
p71
aa(lp72
V2016/2017
p73
aVLille
p74
aVFL1
p75
aV5(18)
p76
aV753
p77
aV1
aV-
aV4
aV1
aV0.8
p78
aV78.6
p79
aV0.7
p80
aV-
aV6.53
p81
aa(lp82
VTotal / Average
p83
aV
aV
aV62
p84
aV3086
p85
aV3
aV1
aV10
p86
aV1
aV1.2
p87
aV81.9
p88
aV0.7
p89
aV2
aV6.68
p90
aasS'defensive_data'
p91
(lp92
(lp93
a(lp94
V2018/2019
p95
aVBrighton
p96
aVEPL
p97
aV7(8)
p98
aV776
p99
aV-
aV-
aV3
aV-
aV0.9
p100
aV81.9
p101
aV0.6
p102
aV-
aV6.45
p103
aa(lp104
V2017/2018
p105
aVLille
p106
aVFL1
p107
aV15(9)
p108
aV1557
p109
aV2
aV1
aV3
aV-
aV1.7
p110
aV85.2
p111
aV0.9
p112
aV2
aV6.97
p113
aa(lp114
V2016/2017
p115
aVLille
p116
aVFL1
p117
aV5(18)
p118
aV753
p119
aV1
aV-
aV4
aV1
aV0.8
p120
aV78.6
p121
aV0.7
p122
aV-
aV6.53
p123
aa(lp124
VTotal / Average
p125
aV
aV
aV62
p126
aV3086
p127
aV3
aV1
aV10
p128
aV1
aV1.2
p129
aV81.9
p130
aV0.7
p131
aV2
aV6.68
p132
aasS'sumary_data'
p133
(lp134
(lp135
a(lp136
V2018/2019
p137
aVBrighton
p138
aVEPL
p139
aV7(8)
p140
aV776
p141
aV-
aV-
aV3
aV-
aV0.9
p142
aV81.9
p143
aV0.6
p144
aV-
aV6.45
p145
aa(lp146
V2017/2018
p147
aVLille
p148
aVFL1
p149
aV15(9)
p150
aV1557
p151
aV2
aV1
aV3
aV-
aV1.7
p152
aV85.2
p153
aV0.9
p154
aV2
aV6.97
p155
aa(lp156
V2016/2017
p157
aVLille
p158
aVFL1
p159
aV5(18)
p160
aV753
p161
aV1
aV-
aV4
aV1
aV0.8
p162
aV78.6
p163
aV0.7
p164
aV-
aV6.53
p165
aa(lp166
VTotal / Average
p167
aV
aV
aV62
p168
aV3086
p169
aV3
aV1
aV10
p170
aV1
aV1.2
p171
aV81.9
p172
aV0.7
p173
aV2
aV6.68
p174
aasS'id'
p175
V303096
p176
sb.