(i__main__
Player
p1
(dp2
S'name'
p3
VGrady Diangana 
p4
sS'offensive_data'
p5
(lp6
(lp7
a(lp8
V2018/2019
p9
aVWest Ham
p10
aVEPL
p11
aV4(5)
p12
aV348
p13
aV-
aV1
aV-
aV-
aV0.7
p14
aV77.6
p15
aV0.3
p16
aV-
aV6.49
p17
aa(lp18
VTotal / Average
p19
aV
aV
aV9
aV348
p20
aV0
aV1
aV0
aV0
aV0.7
p21
aV77.6
p22
aV0.3
p23
aV0
aV6.49
p24
aasS'url'
p25
S'https://www.whoscored.com/Players/306943/History/'
p26
sS'passing_data'
p27
(lp28
(lp29
a(lp30
V2018/2019
p31
aVWest Ham
p32
aVEPL
p33
aV4(5)
p34
aV348
p35
aV-
aV1
aV-
aV-
aV0.7
p36
aV77.6
p37
aV0.3
p38
aV-
aV6.49
p39
aa(lp40
VTotal / Average
p41
aV
aV
aV9
aV348
p42
aV0
aV1
aV0
aV0
aV0.7
p43
aV77.6
p44
aV0.3
p45
aV0
aV6.49
p46
aasS'defensive_data'
p47
(lp48
(lp49
a(lp50
V2018/2019
p51
aVWest Ham
p52
aVEPL
p53
aV4(5)
p54
aV348
p55
aV-
aV1
aV-
aV-
aV0.7
p56
aV77.6
p57
aV0.3
p58
aV-
aV6.49
p59
aa(lp60
VTotal / Average
p61
aV
aV
aV9
aV348
p62
aV0
aV1
aV0
aV0
aV0.7
p63
aV77.6
p64
aV0.3
p65
aV0
aV6.49
p66
aasS'sumary_data'
p67
(lp68
(lp69
a(lp70
V2018/2019
p71
aVWest Ham
p72
aVEPL
p73
aV4(5)
p74
aV348
p75
aV-
aV1
aV-
aV-
aV0.7
p76
aV77.6
p77
aV0.3
p78
aV-
aV6.49
p79
aa(lp80
VTotal / Average
p81
aV
aV
aV9
aV348
p82
aV0
aV1
aV0
aV0
aV0.7
p83
aV77.6
p84
aV0.3
p85
aV0
aV6.49
p86
aasS'id'
p87
V306943
p88
sb.