(i__main__
Player
p1
(dp2
S'name'
p3
VTimothy Fosu-Mensah 
p4
sS'offensive_data'
p5
(lp6
(lp7
a(lp8
V2018/2019
p9
aVFulham
p10
aVEPL
p11
aV7
aV504
p12
aV-
aV-
aV2
aV-
aV0.6
p13
aV81.2
p14
aV0.7
p15
aV-
aV6.29
p16
aa(lp17
V2017/2018
p18
aVCrystal Palac..
p19
aVEPL
p20
aV17(4)
p21
aV1594
p22
aV-
aV-
aV2
aV-
aV0.4
p23
aV74.5
p24
aV0.9
p25
aV-
aV6.57
p26
aa(lp27
V2016/2017
p28
aVManchester Un..
p29
aVEPL
p30
aV1(3)
p31
aV96
p32
aV-
aV-
aV-
aV-
aV0.3
p33
aV80.5
p34
aV0.3
p35
aV-
aV6.38
p36
aa(lp37
V2016/2017
p38
aVManchester Un..
p39
aVUEL
p40
aV1(3)
p41
aV96
p42
aV-
aV-
aV1
aV-
aV0.5
p43
aV86.9
p44
aV0.5
p45
aV-
aV6.45
p46
aa(lp47
V2015/2016
p48
aVManchester Un..
p49
aVEPL
p50
aV2(6)
p51
aV254
p52
aV-
aV1
aV1
aV-
aV0.3
p53
aV73.2
p54
aV0.3
p55
aV-
aV6.70
p56
aa(lp57
VTotal / Average
p58
aV
aV
aV44
p59
aV2544
p60
aV0
aV1
aV6
aV0
aV0.4
p61
aV77
p62
aV0.7
p63
aV0
aV6.52
p64
aasS'url'
p65
S'https://www.whoscored.com/Players/312739/History/'
p66
sS'passing_data'
p67
(lp68
(lp69
a(lp70
V2018/2019
p71
aVFulham
p72
aVEPL
p73
aV7
aV504
p74
aV-
aV-
aV2
aV-
aV0.6
p75
aV81.2
p76
aV0.7
p77
aV-
aV6.29
p78
aa(lp79
V2017/2018
p80
aVCrystal Palac..
p81
aVEPL
p82
aV17(4)
p83
aV1594
p84
aV-
aV-
aV2
aV-
aV0.4
p85
aV74.5
p86
aV0.9
p87
aV-
aV6.57
p88
aa(lp89
V2016/2017
p90
aVManchester Un..
p91
aVEPL
p92
aV1(3)
p93
aV96
p94
aV-
aV-
aV-
aV-
aV0.3
p95
aV80.5
p96
aV0.3
p97
aV-
aV6.38
p98
aa(lp99
V2016/2017
p100
aVManchester Un..
p101
aVUEL
p102
aV1(3)
p103
aV96
p104
aV-
aV-
aV1
aV-
aV0.5
p105
aV86.9
p106
aV0.5
p107
aV-
aV6.45
p108
aa(lp109
V2015/2016
p110
aVManchester Un..
p111
aVEPL
p112
aV2(6)
p113
aV254
p114
aV-
aV1
aV1
aV-
aV0.3
p115
aV73.2
p116
aV0.3
p117
aV-
aV6.70
p118
aa(lp119
VTotal / Average
p120
aV
aV
aV44
p121
aV2544
p122
aV0
aV1
aV6
aV0
aV0.4
p123
aV77
p124
aV0.7
p125
aV0
aV6.52
p126
aasS'defensive_data'
p127
(lp128
(lp129
a(lp130
V2018/2019
p131
aVFulham
p132
aVEPL
p133
aV7
aV504
p134
aV-
aV-
aV2
aV-
aV0.6
p135
aV81.2
p136
aV0.7
p137
aV-
aV6.29
p138
aa(lp139
V2017/2018
p140
aVCrystal Palac..
p141
aVEPL
p142
aV17(4)
p143
aV1594
p144
aV-
aV-
aV2
aV-
aV0.4
p145
aV74.5
p146
aV0.9
p147
aV-
aV6.57
p148
aa(lp149
V2016/2017
p150
aVManchester Un..
p151
aVEPL
p152
aV1(3)
p153
aV96
p154
aV-
aV-
aV-
aV-
aV0.3
p155
aV80.5
p156
aV0.3
p157
aV-
aV6.38
p158
aa(lp159
V2016/2017
p160
aVManchester Un..
p161
aVUEL
p162
aV1(3)
p163
aV96
p164
aV-
aV-
aV1
aV-
aV0.5
p165
aV86.9
p166
aV0.5
p167
aV-
aV6.45
p168
aa(lp169
V2015/2016
p170
aVManchester Un..
p171
aVEPL
p172
aV2(6)
p173
aV254
p174
aV-
aV1
aV1
aV-
aV0.3
p175
aV73.2
p176
aV0.3
p177
aV-
aV6.70
p178
aa(lp179
VTotal / Average
p180
aV
aV
aV44
p181
aV2544
p182
aV0
aV1
aV6
aV0
aV0.4
p183
aV77
p184
aV0.7
p185
aV0
aV6.52
p186
aasS'sumary_data'
p187
(lp188
(lp189
a(lp190
V2018/2019
p191
aVFulham
p192
aVEPL
p193
aV7
aV504
p194
aV-
aV-
aV2
aV-
aV0.6
p195
aV81.2
p196
aV0.7
p197
aV-
aV6.29
p198
aa(lp199
V2017/2018
p200
aVCrystal Palac..
p201
aVEPL
p202
aV17(4)
p203
aV1594
p204
aV-
aV-
aV2
aV-
aV0.4
p205
aV74.5
p206
aV0.9
p207
aV-
aV6.57
p208
aa(lp209
V2016/2017
p210
aVManchester Un..
p211
aVEPL
p212
aV1(3)
p213
aV96
p214
aV-
aV-
aV-
aV-
aV0.3
p215
aV80.5
p216
aV0.3
p217
aV-
aV6.38
p218
aa(lp219
V2016/2017
p220
aVManchester Un..
p221
aVUEL
p222
aV1(3)
p223
aV96
p224
aV-
aV-
aV1
aV-
aV0.5
p225
aV86.9
p226
aV0.5
p227
aV-
aV6.45
p228
aa(lp229
V2015/2016
p230
aVManchester Un..
p231
aVEPL
p232
aV2(6)
p233
aV254
p234
aV-
aV1
aV1
aV-
aV0.3
p235
aV73.2
p236
aV0.3
p237
aV-
aV6.70
p238
aa(lp239
VTotal / Average
p240
aV
aV
aV44
p241
aV2544
p242
aV0
aV1
aV6
aV0
aV0.4
p243
aV77
p244
aV0.7
p245
aV0
aV6.52
p246
aasS'id'
p247
V312739
p248
sb.