(i__main__
Player
p1
(dp2
S'name'
p3
VKyle Walker-Peters 
p4
sS'offensive_data'
p5
(lp6
(lp7
a(lp8
V2018/2019
p9
aVTottenham
p10
aVEPL
p11
aV0(1)
p12
aV12
p13
aV-
aV-
aV-
aV-
aV-
aV66.7
p14
aV-
aV-
aV6.33
p15
aa(lp16
V2018/2019
p17
aVTottenham
p18
aVUCL
p19
aV1
aV61
p20
aV-
aV-
aV1
aV-
aV-
aV90.9
p21
aV1
aV-
aV5.34
p22
aa(lp23
V2017/2018
p24
aVTottenham
p25
aVUCL
p26
aV0(1)
p27
aV20
p28
aV-
aV-
aV-
aV-
aV-
aV93.8
p29
aV-
aV-
aV6.24
p30
aa(lp31
V2017/2018
p32
aVTottenham
p33
aVEPL
p34
aV2(1)
p35
aV188
p36
aV-
aV2
aV-
aV-
aV-
aV82.5
p37
aV0.7
p38
aV-
aV7.28
p39
aa(lp40
VTotal / Average
p41
aV
aV
aV6
aV281
p42
aV0
aV2
aV1
aV0
aV0
aV83.1
p43
aV0.5
p44
aV0
aV6.62
p45
aasS'url'
p46
S'https://www.whoscored.com/Players/313672/History/'
p47
sS'passing_data'
p48
(lp49
(lp50
a(lp51
V2018/2019
p52
aVTottenham
p53
aVEPL
p54
aV0(1)
p55
aV12
p56
aV-
aV-
aV-
aV-
aV-
aV66.7
p57
aV-
aV-
aV6.33
p58
aa(lp59
V2018/2019
p60
aVTottenham
p61
aVUCL
p62
aV1
aV61
p63
aV-
aV-
aV1
aV-
aV-
aV90.9
p64
aV1
aV-
aV5.34
p65
aa(lp66
V2017/2018
p67
aVTottenham
p68
aVUCL
p69
aV0(1)
p70
aV20
p71
aV-
aV-
aV-
aV-
aV-
aV93.8
p72
aV-
aV-
aV6.24
p73
aa(lp74
V2017/2018
p75
aVTottenham
p76
aVEPL
p77
aV2(1)
p78
aV188
p79
aV-
aV2
aV-
aV-
aV-
aV82.5
p80
aV0.7
p81
aV-
aV7.28
p82
aa(lp83
VTotal / Average
p84
aV
aV
aV6
aV281
p85
aV0
aV2
aV1
aV0
aV0
aV83.1
p86
aV0.5
p87
aV0
aV6.62
p88
aasS'defensive_data'
p89
(lp90
(lp91
a(lp92
V2018/2019
p93
aVTottenham
p94
aVEPL
p95
aV0(1)
p96
aV12
p97
aV-
aV-
aV-
aV-
aV-
aV66.7
p98
aV-
aV-
aV6.33
p99
aa(lp100
V2018/2019
p101
aVTottenham
p102
aVUCL
p103
aV1
aV61
p104
aV-
aV-
aV1
aV-
aV-
aV90.9
p105
aV1
aV-
aV5.34
p106
aa(lp107
V2017/2018
p108
aVTottenham
p109
aVUCL
p110
aV0(1)
p111
aV20
p112
aV-
aV-
aV-
aV-
aV-
aV93.8
p113
aV-
aV-
aV6.24
p114
aa(lp115
V2017/2018
p116
aVTottenham
p117
aVEPL
p118
aV2(1)
p119
aV188
p120
aV-
aV2
aV-
aV-
aV-
aV82.5
p121
aV0.7
p122
aV-
aV7.28
p123
aa(lp124
VTotal / Average
p125
aV
aV
aV6
aV281
p126
aV0
aV2
aV1
aV0
aV0
aV83.1
p127
aV0.5
p128
aV0
aV6.62
p129
aasS'sumary_data'
p130
(lp131
(lp132
a(lp133
V2018/2019
p134
aVTottenham
p135
aVEPL
p136
aV0(1)
p137
aV12
p138
aV-
aV-
aV-
aV-
aV-
aV66.7
p139
aV-
aV-
aV6.33
p140
aa(lp141
V2018/2019
p142
aVTottenham
p143
aVUCL
p144
aV1
aV61
p145
aV-
aV-
aV1
aV-
aV-
aV90.9
p146
aV1
aV-
aV5.34
p147
aa(lp148
V2017/2018
p149
aVTottenham
p150
aVUCL
p151
aV0(1)
p152
aV20
p153
aV-
aV-
aV-
aV-
aV-
aV93.8
p154
aV-
aV-
aV6.24
p155
aa(lp156
V2017/2018
p157
aVTottenham
p158
aVEPL
p159
aV2(1)
p160
aV188
p161
aV-
aV2
aV-
aV-
aV-
aV82.5
p162
aV0.7
p163
aV-
aV7.28
p164
aa(lp165
VTotal / Average
p166
aV
aV
aV6
aV281
p167
aV0
aV2
aV1
aV0
aV0
aV83.1
p168
aV0.5
p169
aV0
aV6.62
p170
aasS'id'
p171
V313672
p172
sb.