(i__main__
Player
p1
(dp2
S'name'
p3
VTom Davies 
p4
sS'offensive_data'
p5
(lp6
(lp7
a(lp8
V2018/2019
p9
aVEverton
p10
aVEPL
p11
aV5(2)
p12
aV506
p13
aV-
aV-
aV2
aV-
aV0.3
p14
aV81.1
p15
aV0.4
p16
aV-
aV6.56
p17
aa(lp18
V2017/2018
p19
aVEverton
p20
aVUEL
p21
aV3
aV247
p22
aV-
aV-
aV1
aV-
aV1
aV78
p23
aV0.7
p24
aV-
aV6.30
p25
aa(lp26
V2017/2018
p27
aVEverton
p28
aVEPL
p29
aV20(13)
p30
aV1905
p31
aV2
aV1
aV7
aV-
aV0.6
p32
aV78
p33
aV0.6
p34
aV-
aV6.41
p35
aa(lp36
V2016/2017
p37
aVEverton
p38
aVEPL
p39
aV18(6)
p40
aV1544
p41
aV2
aV3
aV4
aV-
aV0.6
p42
aV82.8
p43
aV0.4
p44
aV1
aV6.68
p45
aa(lp46
V2015/2016
p47
aVEverton
p48
aVEPL
p49
aV1(1)
p50
aV97
p51
aV-
aV-
aV-
aV-
aV0.5
p52
aV77.6
p53
aV-
aV-
aV6.79
p54
aa(lp55
VTotal / Average
p56
aV
aV
aV69
p57
aV4299
p58
aV4
aV4
aV14
p59
aV0
aV0.6
p60
aV80
p61
aV0.5
p62
aV1
aV6.52
p63
aasS'url'
p64
S'https://www.whoscored.com/Players/316077/History/'
p65
sS'passing_data'
p66
(lp67
(lp68
a(lp69
V2018/2019
p70
aVEverton
p71
aVEPL
p72
aV5(2)
p73
aV506
p74
aV-
aV-
aV2
aV-
aV0.3
p75
aV81.1
p76
aV0.4
p77
aV-
aV6.56
p78
aa(lp79
V2017/2018
p80
aVEverton
p81
aVUEL
p82
aV3
aV247
p83
aV-
aV-
aV1
aV-
aV1
aV78
p84
aV0.7
p85
aV-
aV6.30
p86
aa(lp87
V2017/2018
p88
aVEverton
p89
aVEPL
p90
aV20(13)
p91
aV1905
p92
aV2
aV1
aV7
aV-
aV0.6
p93
aV78
p94
aV0.6
p95
aV-
aV6.41
p96
aa(lp97
V2016/2017
p98
aVEverton
p99
aVEPL
p100
aV18(6)
p101
aV1544
p102
aV2
aV3
aV4
aV-
aV0.6
p103
aV82.8
p104
aV0.4
p105
aV1
aV6.68
p106
aa(lp107
V2015/2016
p108
aVEverton
p109
aVEPL
p110
aV1(1)
p111
aV97
p112
aV-
aV-
aV-
aV-
aV0.5
p113
aV77.6
p114
aV-
aV-
aV6.79
p115
aa(lp116
VTotal / Average
p117
aV
aV
aV69
p118
aV4299
p119
aV4
aV4
aV14
p120
aV0
aV0.6
p121
aV80
p122
aV0.5
p123
aV1
aV6.52
p124
aasS'defensive_data'
p125
(lp126
(lp127
a(lp128
V2018/2019
p129
aVEverton
p130
aVEPL
p131
aV5(2)
p132
aV506
p133
aV-
aV-
aV2
aV-
aV0.3
p134
aV81.1
p135
aV0.4
p136
aV-
aV6.56
p137
aa(lp138
V2017/2018
p139
aVEverton
p140
aVUEL
p141
aV3
aV247
p142
aV-
aV-
aV1
aV-
aV1
aV78
p143
aV0.7
p144
aV-
aV6.30
p145
aa(lp146
V2017/2018
p147
aVEverton
p148
aVEPL
p149
aV20(13)
p150
aV1905
p151
aV2
aV1
aV7
aV-
aV0.6
p152
aV78
p153
aV0.6
p154
aV-
aV6.41
p155
aa(lp156
V2016/2017
p157
aVEverton
p158
aVEPL
p159
aV18(6)
p160
aV1544
p161
aV2
aV3
aV4
aV-
aV0.6
p162
aV82.8
p163
aV0.4
p164
aV1
aV6.68
p165
aa(lp166
V2015/2016
p167
aVEverton
p168
aVEPL
p169
aV1(1)
p170
aV97
p171
aV-
aV-
aV-
aV-
aV0.5
p172
aV77.6
p173
aV-
aV-
aV6.79
p174
aa(lp175
VTotal / Average
p176
aV
aV
aV69
p177
aV4299
p178
aV4
aV4
aV14
p179
aV0
aV0.6
p180
aV80
p181
aV0.5
p182
aV1
aV6.52
p183
aasS'sumary_data'
p184
(lp185
(lp186
a(lp187
V2018/2019
p188
aVEverton
p189
aVEPL
p190
aV5(2)
p191
aV506
p192
aV-
aV-
aV2
aV-
aV0.3
p193
aV81.1
p194
aV0.4
p195
aV-
aV6.56
p196
aa(lp197
V2017/2018
p198
aVEverton
p199
aVUEL
p200
aV3
aV247
p201
aV-
aV-
aV1
aV-
aV1
aV78
p202
aV0.7
p203
aV-
aV6.30
p204
aa(lp205
V2017/2018
p206
aVEverton
p207
aVEPL
p208
aV20(13)
p209
aV1905
p210
aV2
aV1
aV7
aV-
aV0.6
p211
aV78
p212
aV0.6
p213
aV-
aV6.41
p214
aa(lp215
V2016/2017
p216
aVEverton
p217
aVEPL
p218
aV18(6)
p219
aV1544
p220
aV2
aV3
aV4
aV-
aV0.6
p221
aV82.8
p222
aV0.4
p223
aV1
aV6.68
p224
aa(lp225
V2015/2016
p226
aVEverton
p227
aVEPL
p228
aV1(1)
p229
aV97
p230
aV-
aV-
aV-
aV-
aV0.5
p231
aV77.6
p232
aV-
aV-
aV6.79
p233
aa(lp234
VTotal / Average
p235
aV
aV
aV69
p236
aV4299
p237
aV4
aV4
aV14
p238
aV0
aV0.6
p239
aV80
p240
aV0.5
p241
aV1
aV6.52
p242
aasS'id'
p243
V316077
p244
sb.