(i__main__
Player
p1
(dp2
S'name'
p3
VRicharlison 
p4
sS'offensive_data'
p5
(lp6
(lp7
a(lp8
V2018/2019
p9
aVEverton
p10
aVEPL
p11
aV15
p12
aV1290
p13
aV8
aV-
aV1
aV1
aV2.5
p14
aV67.2
p15
aV2.3
p16
aV3
aV7.10
p17
aa(lp18
V2017/2018
p19
aVWatford
p20
aVEPL
p21
aV32(6)
p22
aV2827
p23
aV5
aV4
aV4
aV-
aV2.5
p24
aV63.9
p25
aV3.2
p26
aV4
aV6.84
p27
aa(lp28
V2017
p29
aVFluminense
p30
aVBSA
p31
aV14
p32
aV1232
p33
aV5
aV1
aV4
aV-
aV2.2
p34
aV68.9
p35
aV1.4
p36
aV-
aV7.00
p37
aa(lp38
V2016
p39
aVFluminense
p40
aVBSA
p41
aV18(10)
p42
aV1511
p43
aV4
aV1
aV2
aV-
aV1.3
p44
aV68.2
p45
aV1
aV-
aV6.54
p46
aa(lp47
VTotal / Average
p48
aV
aV
aV95
p49
aV6860
p50
aV22
p51
aV6
aV11
p52
aV1
aV2.1
p53
aV66.4
p54
aV2.1
p55
aV7
aV6.82
p56
aasS'url'
p57
S'https://www.whoscored.com/Players/317804/History/'
p58
sS'passing_data'
p59
(lp60
(lp61
a(lp62
V2018/2019
p63
aVEverton
p64
aVEPL
p65
aV15
p66
aV1290
p67
aV8
aV-
aV1
aV1
aV2.5
p68
aV67.2
p69
aV2.3
p70
aV3
aV7.10
p71
aa(lp72
V2017/2018
p73
aVWatford
p74
aVEPL
p75
aV32(6)
p76
aV2827
p77
aV5
aV4
aV4
aV-
aV2.5
p78
aV63.9
p79
aV3.2
p80
aV4
aV6.84
p81
aa(lp82
V2017
p83
aVFluminense
p84
aVBSA
p85
aV14
p86
aV1232
p87
aV5
aV1
aV4
aV-
aV2.2
p88
aV68.9
p89
aV1.4
p90
aV-
aV7.00
p91
aa(lp92
V2016
p93
aVFluminense
p94
aVBSA
p95
aV18(10)
p96
aV1511
p97
aV4
aV1
aV2
aV-
aV1.3
p98
aV68.2
p99
aV1
aV-
aV6.54
p100
aa(lp101
VTotal / Average
p102
aV
aV
aV95
p103
aV6860
p104
aV22
p105
aV6
aV11
p106
aV1
aV2.1
p107
aV66.4
p108
aV2.1
p109
aV7
aV6.82
p110
aasS'defensive_data'
p111
(lp112
(lp113
a(lp114
V2018/2019
p115
aVEverton
p116
aVEPL
p117
aV15
p118
aV1290
p119
aV8
aV-
aV1
aV1
aV2.5
p120
aV67.2
p121
aV2.3
p122
aV3
aV7.10
p123
aa(lp124
V2017/2018
p125
aVWatford
p126
aVEPL
p127
aV32(6)
p128
aV2827
p129
aV5
aV4
aV4
aV-
aV2.5
p130
aV63.9
p131
aV3.2
p132
aV4
aV6.84
p133
aa(lp134
V2017
p135
aVFluminense
p136
aVBSA
p137
aV14
p138
aV1232
p139
aV5
aV1
aV4
aV-
aV2.2
p140
aV68.9
p141
aV1.4
p142
aV-
aV7.00
p143
aa(lp144
V2016
p145
aVFluminense
p146
aVBSA
p147
aV18(10)
p148
aV1511
p149
aV4
aV1
aV2
aV-
aV1.3
p150
aV68.2
p151
aV1
aV-
aV6.54
p152
aa(lp153
VTotal / Average
p154
aV
aV
aV95
p155
aV6860
p156
aV22
p157
aV6
aV11
p158
aV1
aV2.1
p159
aV66.4
p160
aV2.1
p161
aV7
aV6.82
p162
aasS'sumary_data'
p163
(lp164
(lp165
a(lp166
V2018/2019
p167
aVEverton
p168
aVEPL
p169
aV15
p170
aV1290
p171
aV8
aV-
aV1
aV1
aV2.5
p172
aV67.2
p173
aV2.3
p174
aV3
aV7.10
p175
aa(lp176
V2017/2018
p177
aVWatford
p178
aVEPL
p179
aV32(6)
p180
aV2827
p181
aV5
aV4
aV4
aV-
aV2.5
p182
aV63.9
p183
aV3.2
p184
aV4
aV6.84
p185
aa(lp186
V2017
p187
aVFluminense
p188
aVBSA
p189
aV14
p190
aV1232
p191
aV5
aV1
aV4
aV-
aV2.2
p192
aV68.9
p193
aV1.4
p194
aV-
aV7.00
p195
aa(lp196
V2016
p197
aVFluminense
p198
aVBSA
p199
aV18(10)
p200
aV1511
p201
aV4
aV1
aV2
aV-
aV1.3
p202
aV68.2
p203
aV1
aV-
aV6.54
p204
aa(lp205
VTotal / Average
p206
aV
aV
aV95
p207
aV6860
p208
aV22
p209
aV6
aV11
p210
aV1
aV2.1
p211
aV66.4
p212
aV2.1
p213
aV7
aV6.82
p214
aasS'id'
p215
V317804
p216
sb.