(i__main__
Player
p1
(dp2
S'name'
p3
VAaron Mooy 
p4
sS'offensive_data'
p5
(lp6
(lp7
a(lp8
V2018/2019
p9
aVHuddersfield
p10
aVEPL
p11
aV15
p12
aV1323
p13
aV2
aV-
aV2
aV-
aV1.8
p14
aV79.9
p15
aV0.7
p16
aV1
aV6.96
p17
aa(lp18
V2017/2018
p19
aVHuddersfield
p20
aVEPL
p21
aV34(2)
p22
aV3071
p23
aV4
aV3
aV5
aV-
aV0.8
p24
aV79.5
p25
aV0.9
p26
aV-
aV6.86
p27
aa(lp28
V2016/2017
p29
aVHuddersfield
p30
aVEC
p31
aV45(3)
p32
aV4161
p33
aV4
aV7
aV6
aV-
aV1.4
p34
aV82.6
p35
aV1.1
p36
aV2
aV7.08
p37
aa(lp38
V2018
p39
aVAustralia
p40
aVWC
p41
aV3
aV270
p42
aV-
aV-
aV-
aV-
aV1
aV84.3
p43
aV0.3
p44
aV-
aV7.17
p45
aa(lp46
VTotal / Average
p47
aV
aV
aV102
p48
aV8825
p49
aV10
p50
aV10
p51
aV13
p52
aV0
aV1.2
p53
aV81.2
p54
aV1
aV3
aV6.99
p55
aasS'url'
p56
S'https://www.whoscored.com/Players/318153/History/'
p57
sS'passing_data'
p58
(lp59
(lp60
a(lp61
V2018/2019
p62
aVHuddersfield
p63
aVEPL
p64
aV15
p65
aV1323
p66
aV2
aV-
aV2
aV-
aV1.8
p67
aV79.9
p68
aV0.7
p69
aV1
aV6.96
p70
aa(lp71
V2017/2018
p72
aVHuddersfield
p73
aVEPL
p74
aV34(2)
p75
aV3071
p76
aV4
aV3
aV5
aV-
aV0.8
p77
aV79.5
p78
aV0.9
p79
aV-
aV6.86
p80
aa(lp81
V2016/2017
p82
aVHuddersfield
p83
aVEC
p84
aV45(3)
p85
aV4161
p86
aV4
aV7
aV6
aV-
aV1.4
p87
aV82.6
p88
aV1.1
p89
aV2
aV7.08
p90
aa(lp91
V2018
p92
aVAustralia
p93
aVWC
p94
aV3
aV270
p95
aV-
aV-
aV-
aV-
aV1
aV84.3
p96
aV0.3
p97
aV-
aV7.17
p98
aa(lp99
VTotal / Average
p100
aV
aV
aV102
p101
aV8825
p102
aV10
p103
aV10
p104
aV13
p105
aV0
aV1.2
p106
aV81.2
p107
aV1
aV3
aV6.99
p108
aasS'defensive_data'
p109
(lp110
(lp111
a(lp112
V2018/2019
p113
aVHuddersfield
p114
aVEPL
p115
aV15
p116
aV1323
p117
aV2
aV-
aV2
aV-
aV1.8
p118
aV79.9
p119
aV0.7
p120
aV1
aV6.96
p121
aa(lp122
V2017/2018
p123
aVHuddersfield
p124
aVEPL
p125
aV34(2)
p126
aV3071
p127
aV4
aV3
aV5
aV-
aV0.8
p128
aV79.5
p129
aV0.9
p130
aV-
aV6.86
p131
aa(lp132
V2016/2017
p133
aVHuddersfield
p134
aVEC
p135
aV45(3)
p136
aV4161
p137
aV4
aV7
aV6
aV-
aV1.4
p138
aV82.6
p139
aV1.1
p140
aV2
aV7.08
p141
aa(lp142
V2018
p143
aVAustralia
p144
aVWC
p145
aV3
aV270
p146
aV-
aV-
aV-
aV-
aV1
aV84.3
p147
aV0.3
p148
aV-
aV7.17
p149
aa(lp150
VTotal / Average
p151
aV
aV
aV102
p152
aV8825
p153
aV10
p154
aV10
p155
aV13
p156
aV0
aV1.2
p157
aV81.2
p158
aV1
aV3
aV6.99
p159
aasS'sumary_data'
p160
(lp161
(lp162
a(lp163
V2018/2019
p164
aVHuddersfield
p165
aVEPL
p166
aV15
p167
aV1323
p168
aV2
aV-
aV2
aV-
aV1.8
p169
aV79.9
p170
aV0.7
p171
aV1
aV6.96
p172
aa(lp173
V2017/2018
p174
aVHuddersfield
p175
aVEPL
p176
aV34(2)
p177
aV3071
p178
aV4
aV3
aV5
aV-
aV0.8
p179
aV79.5
p180
aV0.9
p181
aV-
aV6.86
p182
aa(lp183
V2016/2017
p184
aVHuddersfield
p185
aVEC
p186
aV45(3)
p187
aV4161
p188
aV4
aV7
aV6
aV-
aV1.4
p189
aV82.6
p190
aV1.1
p191
aV2
aV7.08
p192
aa(lp193
V2018
p194
aVAustralia
p195
aVWC
p196
aV3
aV270
p197
aV-
aV-
aV-
aV-
aV1
aV84.3
p198
aV0.3
p199
aV-
aV7.17
p200
aa(lp201
VTotal / Average
p202
aV
aV
aV102
p203
aV8825
p204
aV10
p205
aV10
p206
aV13
p207
aV0
aV1.2
p208
aV81.2
p209
aV1
aV3
aV6.99
p210
aasS'id'
p211
V318153
p212
sb.