(i__main__
Player
p1
(dp2
S'name'
p3
VSeamus Coleman 
p4
sS'offensive_data'
p5
(lp6
(lp7
a(lp8
V2018/2019
p9
aVEverton
p10
aVEPL
p11
aV13
p12
aV1137
p13
aV1
aV-
aV1
aV-
aV0.5
p14
aV80.2
p15
aV1.8
p16
aV-
aV6.80
p17
aa(lp18
V2018/2019
p19
aVIreland
p20
aVUNL
p21
aV2
aV180
p22
aV-
aV-
aV-
aV-
aV-
aV78.6
p23
aV1
aV-
aV6.67
p24
aa(lp25
V2017/2018
p26
aVEverton
p27
aVEPL
p28
aV12
p29
aV1036
p30
aV-
aV1
aV-
aV-
aV0.4
p31
aV73.4
p32
aV1.2
p33
aV-
aV6.87
p34
aa(lp35
V2016/2017
p36
aVEverton
p37
aVEPL
p38
aV26
p39
aV2317
p40
aV4
aV3
aV3
aV-
aV0.7
p41
aV77.9
p42
aV0.8
p43
aV2
aV7.12
p44
aa(lp45
V2015/2016
p46
aVEverton
p47
aVEPL
p48
aV27(1)
p49
aV2386
p50
aV1
aV3
aV4
aV-
aV1
aV84.1
p51
aV0.5
p52
aV-
aV6.90
p53
aa(lp54
V2014/2015
p55
aVEverton
p56
aVUEL
p57
aV5
aV450
p58
aV2
aV-
aV-
aV-
aV0.6
p59
aV77
p60
aV0.6
p61
aV-
aV7.18
p62
aa(lp63
V2014/2015
p64
aVEverton
p65
aVEPL
p66
aV34(1)
p67
aV3065
p68
aV3
aV2
aV5
aV-
aV0.5
p69
aV84.5
p70
aV0.6
p71
aV-
aV6.92
p72
aa(lp73
V2016
p74
aVIreland
p75
aVUEC
p76
aV4
aV360
p77
aV-
aV1
aV1
aV-
aV0.3
p78
aV68.3
p79
aV1.3
p80
aV-
aV6.54
p81
aa(lp82
V2013/2014
p83
aVEverton
p84
aVEPL
p85
aV36
p86
aV3229
p87
aV6
aV2
aV3
aV-
aV0.8
p88
aV88.5
p89
aV0.4
p90
aV1
aV7.32
p91
aa(lp92
V2012/2013
p93
aVEverton
p94
aVEPL
p95
aV24(2)
p96
aV2163
p97
aV-
aV5
aV4
aV-
aV0.4
p98
aV80.5
p99
aV0.6
p100
aV-
aV7.12
p101
aa(lp102
V2011/2012
p103
aVEverton
p104
aVEPL
p105
aV14(4)
p106
aV1133
p107
aV-
aV-
aV2
aV-
aV0.8
p108
aV82.6
p109
aV0.2
p110
aV-
aV6.47
p111
aa(lp112
V2010/2011
p113
aVEverton
p114
aVEPL
p115
aV25(9)
p116
aV2259
p117
aV4
aV1
aV4
aV1
aV1.2
p118
aV78
p119
aV0.4
p120
aV1
aV6.74
p121
aa(lp122
V2009/2010
p123
aVEverton
p124
aVEPL
p125
aV0(3)
p126
aV106
p127
aV-
aV1
aV-
aV-
aV0.3
p128
aV48.6
p129
aV-
aV-
aV6.85
p130
aa(lp131
VTotal / Average
p132
aV
aV
aV242
p133
aV19821
p134
aV21
p135
aV19
p136
aV27
p137
aV1
aV0.7
p138
aV81.2
p139
aV0.6
p140
aV4
aV6.95
p141
aasS'url'
p142
S'https://www.whoscored.com/Players/31826/History/'
p143
sS'passing_data'
p144
(lp145
(lp146
a(lp147
V2018/2019
p148
aVEverton
p149
aVEPL
p150
aV13
p151
aV1137
p152
aV1
aV-
aV1
aV-
aV0.5
p153
aV80.2
p154
aV1.8
p155
aV-
aV6.80
p156
aa(lp157
V2018/2019
p158
aVIreland
p159
aVUNL
p160
aV2
aV180
p161
aV-
aV-
aV-
aV-
aV-
aV78.6
p162
aV1
aV-
aV6.67
p163
aa(lp164
V2017/2018
p165
aVEverton
p166
aVEPL
p167
aV12
p168
aV1036
p169
aV-
aV1
aV-
aV-
aV0.4
p170
aV73.4
p171
aV1.2
p172
aV-
aV6.87
p173
aa(lp174
V2016/2017
p175
aVEverton
p176
aVEPL
p177
aV26
p178
aV2317
p179
aV4
aV3
aV3
aV-
aV0.7
p180
aV77.9
p181
aV0.8
p182
aV2
aV7.12
p183
aa(lp184
V2015/2016
p185
aVEverton
p186
aVEPL
p187
aV27(1)
p188
aV2386
p189
aV1
aV3
aV4
aV-
aV1
aV84.1
p190
aV0.5
p191
aV-
aV6.90
p192
aa(lp193
V2014/2015
p194
aVEverton
p195
aVUEL
p196
aV5
aV450
p197
aV2
aV-
aV-
aV-
aV0.6
p198
aV77
p199
aV0.6
p200
aV-
aV7.18
p201
aa(lp202
V2014/2015
p203
aVEverton
p204
aVEPL
p205
aV34(1)
p206
aV3065
p207
aV3
aV2
aV5
aV-
aV0.5
p208
aV84.5
p209
aV0.6
p210
aV-
aV6.92
p211
aa(lp212
V2016
p213
aVIreland
p214
aVUEC
p215
aV4
aV360
p216
aV-
aV1
aV1
aV-
aV0.3
p217
aV68.3
p218
aV1.3
p219
aV-
aV6.54
p220
aa(lp221
V2013/2014
p222
aVEverton
p223
aVEPL
p224
aV36
p225
aV3229
p226
aV6
aV2
aV3
aV-
aV0.8
p227
aV88.5
p228
aV0.4
p229
aV1
aV7.32
p230
aa(lp231
V2012/2013
p232
aVEverton
p233
aVEPL
p234
aV24(2)
p235
aV2163
p236
aV-
aV5
aV4
aV-
aV0.4
p237
aV80.5
p238
aV0.6
p239
aV-
aV7.12
p240
aa(lp241
V2011/2012
p242
aVEverton
p243
aVEPL
p244
aV14(4)
p245
aV1133
p246
aV-
aV-
aV2
aV-
aV0.8
p247
aV82.6
p248
aV0.2
p249
aV-
aV6.47
p250
aa(lp251
V2010/2011
p252
aVEverton
p253
aVEPL
p254
aV25(9)
p255
aV2259
p256
aV4
aV1
aV4
aV1
aV1.2
p257
aV78
p258
aV0.4
p259
aV1
aV6.74
p260
aa(lp261
V2009/2010
p262
aVEverton
p263
aVEPL
p264
aV0(3)
p265
aV106
p266
aV-
aV1
aV-
aV-
aV0.3
p267
aV48.6
p268
aV-
aV-
aV6.85
p269
aa(lp270
VTotal / Average
p271
aV
aV
aV242
p272
aV19821
p273
aV21
p274
aV19
p275
aV27
p276
aV1
aV0.7
p277
aV81.2
p278
aV0.6
p279
aV4
aV6.95
p280
aasS'defensive_data'
p281
(lp282
(lp283
a(lp284
V2018/2019
p285
aVEverton
p286
aVEPL
p287
aV13
p288
aV1137
p289
aV1
aV-
aV1
aV-
aV0.5
p290
aV80.2
p291
aV1.8
p292
aV-
aV6.80
p293
aa(lp294
V2018/2019
p295
aVIreland
p296
aVUNL
p297
aV2
aV180
p298
aV-
aV-
aV-
aV-
aV-
aV78.6
p299
aV1
aV-
aV6.67
p300
aa(lp301
V2017/2018
p302
aVEverton
p303
aVEPL
p304
aV12
p305
aV1036
p306
aV-
aV1
aV-
aV-
aV0.4
p307
aV73.4
p308
aV1.2
p309
aV-
aV6.87
p310
aa(lp311
V2016/2017
p312
aVEverton
p313
aVEPL
p314
aV26
p315
aV2317
p316
aV4
aV3
aV3
aV-
aV0.7
p317
aV77.9
p318
aV0.8
p319
aV2
aV7.12
p320
aa(lp321
V2015/2016
p322
aVEverton
p323
aVEPL
p324
aV27(1)
p325
aV2386
p326
aV1
aV3
aV4
aV-
aV1
aV84.1
p327
aV0.5
p328
aV-
aV6.90
p329
aa(lp330
V2014/2015
p331
aVEverton
p332
aVUEL
p333
aV5
aV450
p334
aV2
aV-
aV-
aV-
aV0.6
p335
aV77
p336
aV0.6
p337
aV-
aV7.18
p338
aa(lp339
V2014/2015
p340
aVEverton
p341
aVEPL
p342
aV34(1)
p343
aV3065
p344
aV3
aV2
aV5
aV-
aV0.5
p345
aV84.5
p346
aV0.6
p347
aV-
aV6.92
p348
aa(lp349
V2016
p350
aVIreland
p351
aVUEC
p352
aV4
aV360
p353
aV-
aV1
aV1
aV-
aV0.3
p354
aV68.3
p355
aV1.3
p356
aV-
aV6.54
p357
aa(lp358
V2013/2014
p359
aVEverton
p360
aVEPL
p361
aV36
p362
aV3229
p363
aV6
aV2
aV3
aV-
aV0.8
p364
aV88.5
p365
aV0.4
p366
aV1
aV7.32
p367
aa(lp368
V2012/2013
p369
aVEverton
p370
aVEPL
p371
aV24(2)
p372
aV2163
p373
aV-
aV5
aV4
aV-
aV0.4
p374
aV80.5
p375
aV0.6
p376
aV-
aV7.12
p377
aa(lp378
V2011/2012
p379
aVEverton
p380
aVEPL
p381
aV14(4)
p382
aV1133
p383
aV-
aV-
aV2
aV-
aV0.8
p384
aV82.6
p385
aV0.2
p386
aV-
aV6.47
p387
aa(lp388
V2010/2011
p389
aVEverton
p390
aVEPL
p391
aV25(9)
p392
aV2259
p393
aV4
aV1
aV4
aV1
aV1.2
p394
aV78
p395
aV0.4
p396
aV1
aV6.74
p397
aa(lp398
V2009/2010
p399
aVEverton
p400
aVEPL
p401
aV0(3)
p402
aV106
p403
aV-
aV1
aV-
aV-
aV0.3
p404
aV48.6
p405
aV-
aV-
aV6.85
p406
aa(lp407
VTotal / Average
p408
aV
aV
aV242
p409
aV19821
p410
aV21
p411
aV19
p412
aV27
p413
aV1
aV0.7
p414
aV81.2
p415
aV0.6
p416
aV4
aV6.95
p417
aasS'sumary_data'
p418
(lp419
(lp420
a(lp421
V2018/2019
p422
aVEverton
p423
aVEPL
p424
aV13
p425
aV1137
p426
aV1
aV-
aV1
aV-
aV0.5
p427
aV80.2
p428
aV1.8
p429
aV-
aV6.80
p430
aa(lp431
V2018/2019
p432
aVIreland
p433
aVUNL
p434
aV2
aV180
p435
aV-
aV-
aV-
aV-
aV-
aV78.6
p436
aV1
aV-
aV6.67
p437
aa(lp438
V2017/2018
p439
aVEverton
p440
aVEPL
p441
aV12
p442
aV1036
p443
aV-
aV1
aV-
aV-
aV0.4
p444
aV73.4
p445
aV1.2
p446
aV-
aV6.87
p447
aa(lp448
V2016/2017
p449
aVEverton
p450
aVEPL
p451
aV26
p452
aV2317
p453
aV4
aV3
aV3
aV-
aV0.7
p454
aV77.9
p455
aV0.8
p456
aV2
aV7.12
p457
aa(lp458
V2015/2016
p459
aVEverton
p460
aVEPL
p461
aV27(1)
p462
aV2386
p463
aV1
aV3
aV4
aV-
aV1
aV84.1
p464
aV0.5
p465
aV-
aV6.90
p466
aa(lp467
V2014/2015
p468
aVEverton
p469
aVUEL
p470
aV5
aV450
p471
aV2
aV-
aV-
aV-
aV0.6
p472
aV77
p473
aV0.6
p474
aV-
aV7.18
p475
aa(lp476
V2014/2015
p477
aVEverton
p478
aVEPL
p479
aV34(1)
p480
aV3065
p481
aV3
aV2
aV5
aV-
aV0.5
p482
aV84.5
p483
aV0.6
p484
aV-
aV6.92
p485
aa(lp486
V2016
p487
aVIreland
p488
aVUEC
p489
aV4
aV360
p490
aV-
aV1
aV1
aV-
aV0.3
p491
aV68.3
p492
aV1.3
p493
aV-
aV6.54
p494
aa(lp495
V2013/2014
p496
aVEverton
p497
aVEPL
p498
aV36
p499
aV3229
p500
aV6
aV2
aV3
aV-
aV0.8
p501
aV88.5
p502
aV0.4
p503
aV1
aV7.32
p504
aa(lp505
V2012/2013
p506
aVEverton
p507
aVEPL
p508
aV24(2)
p509
aV2163
p510
aV-
aV5
aV4
aV-
aV0.4
p511
aV80.5
p512
aV0.6
p513
aV-
aV7.12
p514
aa(lp515
V2011/2012
p516
aVEverton
p517
aVEPL
p518
aV14(4)
p519
aV1133
p520
aV-
aV-
aV2
aV-
aV0.8
p521
aV82.6
p522
aV0.2
p523
aV-
aV6.47
p524
aa(lp525
V2010/2011
p526
aVEverton
p527
aVEPL
p528
aV25(9)
p529
aV2259
p530
aV4
aV1
aV4
aV1
aV1.2
p531
aV78
p532
aV0.4
p533
aV1
aV6.74
p534
aa(lp535
V2009/2010
p536
aVEverton
p537
aVEPL
p538
aV0(3)
p539
aV106
p540
aV-
aV1
aV-
aV-
aV0.3
p541
aV48.6
p542
aV-
aV-
aV6.85
p543
aa(lp544
VTotal / Average
p545
aV
aV
aV242
p546
aV19821
p547
aV21
p548
aV19
p549
aV27
p550
aV1
aV0.7
p551
aV81.2
p552
aV0.6
p553
aV4
aV6.95
p554
aasS'id'
p555
V31826
p556
sb.