(i__main__
Player
p1
(dp2
S'name'
p3
VYerry Mina 
p4
sS'offensive_data'
p5
(lp6
(lp7
a(lp8
V2018/2019
p9
aVEverton
p10
aVEPL
p11
aV6(1)
p12
aV541
p13
aV-
aV-
aV2
aV-
aV0.3
p14
aV85.9
p15
aV2.7
p16
aV-
aV6.62
p17
aa(lp18
V2017/2018
p19
aVBarcelona
p20
aVSLL
p21
aV4(1)
p22
aV370
p23
aV-
aV1
aV2
aV-
aV0.6
p24
aV92.6
p25
aV2.2
p26
aV-
aV6.89
p27
aa(lp28
V2017
p29
aVPalmeiras
p30
aVBSA
p31
aV15
p32
aV1324
p33
aV2
aV1
aV5
aV-
aV0.8
p34
aV87.3
p35
aV3.4
p36
aV1
aV7.19
p37
aa(lp38
V2016
p39
aVPalmeiras
p40
aVBSA
p41
aV13
p42
aV990
p43
aV4
aV1
aV4
aV-
aV1.1
p44
aV72.7
p45
aV2.5
p46
aV2
aV7.29
p47
aa(lp48
V2018
p49
aVColombia
p50
aVWC
p51
aV3
aV300
p52
aV3
aV-
aV-
aV-
aV1
aV89.2
p53
aV4.7
p54
aV1
aV8.35
p55
aa(lp56
VTotal / Average
p57
aV
aV
aV43
p58
aV3525
p59
aV9
aV3
aV13
p60
aV0
aV0.8
p61
aV83.4
p62
aV3
aV4
aV7.17
p63
aasS'url'
p64
S'https://www.whoscored.com/Players/318432/History/'
p65
sS'passing_data'
p66
(lp67
(lp68
a(lp69
V2018/2019
p70
aVEverton
p71
aVEPL
p72
aV6(1)
p73
aV541
p74
aV-
aV-
aV2
aV-
aV0.3
p75
aV85.9
p76
aV2.7
p77
aV-
aV6.62
p78
aa(lp79
V2017/2018
p80
aVBarcelona
p81
aVSLL
p82
aV4(1)
p83
aV370
p84
aV-
aV1
aV2
aV-
aV0.6
p85
aV92.6
p86
aV2.2
p87
aV-
aV6.89
p88
aa(lp89
V2017
p90
aVPalmeiras
p91
aVBSA
p92
aV15
p93
aV1324
p94
aV2
aV1
aV5
aV-
aV0.8
p95
aV87.3
p96
aV3.4
p97
aV1
aV7.19
p98
aa(lp99
V2016
p100
aVPalmeiras
p101
aVBSA
p102
aV13
p103
aV990
p104
aV4
aV1
aV4
aV-
aV1.1
p105
aV72.7
p106
aV2.5
p107
aV2
aV7.29
p108
aa(lp109
V2018
p110
aVColombia
p111
aVWC
p112
aV3
aV300
p113
aV3
aV-
aV-
aV-
aV1
aV89.2
p114
aV4.7
p115
aV1
aV8.35
p116
aa(lp117
VTotal / Average
p118
aV
aV
aV43
p119
aV3525
p120
aV9
aV3
aV13
p121
aV0
aV0.8
p122
aV83.4
p123
aV3
aV4
aV7.17
p124
aasS'defensive_data'
p125
(lp126
(lp127
a(lp128
V2018/2019
p129
aVEverton
p130
aVEPL
p131
aV6(1)
p132
aV541
p133
aV-
aV-
aV2
aV-
aV0.3
p134
aV85.9
p135
aV2.7
p136
aV-
aV6.62
p137
aa(lp138
V2017/2018
p139
aVBarcelona
p140
aVSLL
p141
aV4(1)
p142
aV370
p143
aV-
aV1
aV2
aV-
aV0.6
p144
aV92.6
p145
aV2.2
p146
aV-
aV6.89
p147
aa(lp148
V2017
p149
aVPalmeiras
p150
aVBSA
p151
aV15
p152
aV1324
p153
aV2
aV1
aV5
aV-
aV0.8
p154
aV87.3
p155
aV3.4
p156
aV1
aV7.19
p157
aa(lp158
V2016
p159
aVPalmeiras
p160
aVBSA
p161
aV13
p162
aV990
p163
aV4
aV1
aV4
aV-
aV1.1
p164
aV72.7
p165
aV2.5
p166
aV2
aV7.29
p167
aa(lp168
V2018
p169
aVColombia
p170
aVWC
p171
aV3
aV300
p172
aV3
aV-
aV-
aV-
aV1
aV89.2
p173
aV4.7
p174
aV1
aV8.35
p175
aa(lp176
VTotal / Average
p177
aV
aV
aV43
p178
aV3525
p179
aV9
aV3
aV13
p180
aV0
aV0.8
p181
aV83.4
p182
aV3
aV4
aV7.17
p183
aasS'sumary_data'
p184
(lp185
(lp186
a(lp187
V2018/2019
p188
aVEverton
p189
aVEPL
p190
aV6(1)
p191
aV541
p192
aV-
aV-
aV2
aV-
aV0.3
p193
aV85.9
p194
aV2.7
p195
aV-
aV6.62
p196
aa(lp197
V2017/2018
p198
aVBarcelona
p199
aVSLL
p200
aV4(1)
p201
aV370
p202
aV-
aV1
aV2
aV-
aV0.6
p203
aV92.6
p204
aV2.2
p205
aV-
aV6.89
p206
aa(lp207
V2017
p208
aVPalmeiras
p209
aVBSA
p210
aV15
p211
aV1324
p212
aV2
aV1
aV5
aV-
aV0.8
p213
aV87.3
p214
aV3.4
p215
aV1
aV7.19
p216
aa(lp217
V2016
p218
aVPalmeiras
p219
aVBSA
p220
aV13
p221
aV990
p222
aV4
aV1
aV4
aV-
aV1.1
p223
aV72.7
p224
aV2.5
p225
aV2
aV7.29
p226
aa(lp227
V2018
p228
aVColombia
p229
aVWC
p230
aV3
aV300
p231
aV3
aV-
aV-
aV-
aV1
aV89.2
p232
aV4.7
p233
aV1
aV8.35
p234
aa(lp235
VTotal / Average
p236
aV
aV
aV43
p237
aV3525
p238
aV9
aV3
aV13
p239
aV0
aV0.8
p240
aV83.4
p241
aV3
aV4
aV7.17
p242
aasS'id'
p243
V318432
p244
sb.