(i__main__
Player
p1
(dp2
S'name'
p3
VTrent Alexander-Arnold 
p4
sS'offensive_data'
p5
(lp6
(lp7
a(lp8
V2018/2019
p9
aVLiverpool
p10
aVEPL
p11
aV12(1)
p12
aV1145
p13
aV1
aV2
aV3
aV-
aV1.2
p14
aV77.1
p15
aV0.4
p16
aV-
aV7.12
p17
aa(lp18
V2018/2019
p19
aVLiverpool
p20
aVUCL
p21
aV5
aV406
p22
aV-
aV-
aV-
aV-
aV1.4
p23
aV75.7
p24
aV0.6
p25
aV1
aV7.02
p26
aa(lp27
V2018/2019
p28
aVEngland
p29
aVUNL
p30
aV0(1)
p31
aV5
aV-
aV-
aV-
aV-
aV-
aV66.7
p32
aV-
aV-
aV5.91
p33
aa(lp34
V2017/2018
p35
aVLiverpool
p36
aVUCL
p37
aV9(1)
p38
aV821
p39
aV1
aV1
aV2
aV-
aV0.8
p40
aV77
p41
aV0.2
p42
aV-
aV7.07
p43
aa(lp44
V2017/2018
p45
aVLiverpool
p46
aVEPL
p47
aV18(1)
p48
aV1576
p49
aV1
aV1
aV3
aV-
aV0.6
p50
aV77.3
p51
aV0.3
p52
aV-
aV7.02
p53
aa(lp54
V2016/2017
p55
aVLiverpool
p56
aVEPL
p57
aV2(5)
p58
aV166
p59
aV-
aV-
aV-
aV-
aV0.4
p60
aV64.8
p61
aV-
aV-
aV6.20
p62
aa(lp63
V2018
p64
aVEngland
p65
aVWC
p66
aV1
aV79
p67
aV-
aV-
aV-
aV-
aV1
aV88.5
p68
aV2
aV-
aV6.66
p69
aa(lp70
VTotal / Average
p71
aV
aV
aV56
p72
aV4198
p73
aV3
aV4
aV8
aV0
aV0.8
p74
aV75.5
p75
aV0.3
p76
aV1
aV6.92
p77
aasS'url'
p78
S'https://www.whoscored.com/Players/318871/History/'
p79
sS'passing_data'
p80
(lp81
(lp82
a(lp83
V2018/2019
p84
aVLiverpool
p85
aVEPL
p86
aV12(1)
p87
aV1145
p88
aV1
aV2
aV3
aV-
aV1.2
p89
aV77.1
p90
aV0.4
p91
aV-
aV7.12
p92
aa(lp93
V2018/2019
p94
aVLiverpool
p95
aVUCL
p96
aV5
aV406
p97
aV-
aV-
aV-
aV-
aV1.4
p98
aV75.7
p99
aV0.6
p100
aV1
aV7.02
p101
aa(lp102
V2018/2019
p103
aVEngland
p104
aVUNL
p105
aV0(1)
p106
aV5
aV-
aV-
aV-
aV-
aV-
aV66.7
p107
aV-
aV-
aV5.91
p108
aa(lp109
V2017/2018
p110
aVLiverpool
p111
aVUCL
p112
aV9(1)
p113
aV821
p114
aV1
aV1
aV2
aV-
aV0.8
p115
aV77
p116
aV0.2
p117
aV-
aV7.07
p118
aa(lp119
V2017/2018
p120
aVLiverpool
p121
aVEPL
p122
aV18(1)
p123
aV1576
p124
aV1
aV1
aV3
aV-
aV0.6
p125
aV77.3
p126
aV0.3
p127
aV-
aV7.02
p128
aa(lp129
V2016/2017
p130
aVLiverpool
p131
aVEPL
p132
aV2(5)
p133
aV166
p134
aV-
aV-
aV-
aV-
aV0.4
p135
aV64.8
p136
aV-
aV-
aV6.20
p137
aa(lp138
V2018
p139
aVEngland
p140
aVWC
p141
aV1
aV79
p142
aV-
aV-
aV-
aV-
aV1
aV88.5
p143
aV2
aV-
aV6.66
p144
aa(lp145
VTotal / Average
p146
aV
aV
aV56
p147
aV4198
p148
aV3
aV4
aV8
aV0
aV0.8
p149
aV75.5
p150
aV0.3
p151
aV1
aV6.92
p152
aasS'defensive_data'
p153
(lp154
(lp155
a(lp156
V2018/2019
p157
aVLiverpool
p158
aVEPL
p159
aV12(1)
p160
aV1145
p161
aV1
aV2
aV3
aV-
aV1.2
p162
aV77.1
p163
aV0.4
p164
aV-
aV7.12
p165
aa(lp166
V2018/2019
p167
aVLiverpool
p168
aVUCL
p169
aV5
aV406
p170
aV-
aV-
aV-
aV-
aV1.4
p171
aV75.7
p172
aV0.6
p173
aV1
aV7.02
p174
aa(lp175
V2018/2019
p176
aVEngland
p177
aVUNL
p178
aV0(1)
p179
aV5
aV-
aV-
aV-
aV-
aV-
aV66.7
p180
aV-
aV-
aV5.91
p181
aa(lp182
V2017/2018
p183
aVLiverpool
p184
aVUCL
p185
aV9(1)
p186
aV821
p187
aV1
aV1
aV2
aV-
aV0.8
p188
aV77
p189
aV0.2
p190
aV-
aV7.07
p191
aa(lp192
V2017/2018
p193
aVLiverpool
p194
aVEPL
p195
aV18(1)
p196
aV1576
p197
aV1
aV1
aV3
aV-
aV0.6
p198
aV77.3
p199
aV0.3
p200
aV-
aV7.02
p201
aa(lp202
V2016/2017
p203
aVLiverpool
p204
aVEPL
p205
aV2(5)
p206
aV166
p207
aV-
aV-
aV-
aV-
aV0.4
p208
aV64.8
p209
aV-
aV-
aV6.20
p210
aa(lp211
V2018
p212
aVEngland
p213
aVWC
p214
aV1
aV79
p215
aV-
aV-
aV-
aV-
aV1
aV88.5
p216
aV2
aV-
aV6.66
p217
aa(lp218
VTotal / Average
p219
aV
aV
aV56
p220
aV4198
p221
aV3
aV4
aV8
aV0
aV0.8
p222
aV75.5
p223
aV0.3
p224
aV1
aV6.92
p225
aasS'sumary_data'
p226
(lp227
(lp228
a(lp229
V2018/2019
p230
aVLiverpool
p231
aVEPL
p232
aV12(1)
p233
aV1145
p234
aV1
aV2
aV3
aV-
aV1.2
p235
aV77.1
p236
aV0.4
p237
aV-
aV7.12
p238
aa(lp239
V2018/2019
p240
aVLiverpool
p241
aVUCL
p242
aV5
aV406
p243
aV-
aV-
aV-
aV-
aV1.4
p244
aV75.7
p245
aV0.6
p246
aV1
aV7.02
p247
aa(lp248
V2018/2019
p249
aVEngland
p250
aVUNL
p251
aV0(1)
p252
aV5
aV-
aV-
aV-
aV-
aV-
aV66.7
p253
aV-
aV-
aV5.91
p254
aa(lp255
V2017/2018
p256
aVLiverpool
p257
aVUCL
p258
aV9(1)
p259
aV821
p260
aV1
aV1
aV2
aV-
aV0.8
p261
aV77
p262
aV0.2
p263
aV-
aV7.07
p264
aa(lp265
V2017/2018
p266
aVLiverpool
p267
aVEPL
p268
aV18(1)
p269
aV1576
p270
aV1
aV1
aV3
aV-
aV0.6
p271
aV77.3
p272
aV0.3
p273
aV-
aV7.02
p274
aa(lp275
V2016/2017
p276
aVLiverpool
p277
aVEPL
p278
aV2(5)
p279
aV166
p280
aV-
aV-
aV-
aV-
aV0.4
p281
aV64.8
p282
aV-
aV-
aV6.20
p283
aa(lp284
V2018
p285
aVEngland
p286
aVWC
p287
aV1
aV79
p288
aV-
aV-
aV-
aV-
aV1
aV88.5
p289
aV2
aV-
aV6.66
p290
aa(lp291
VTotal / Average
p292
aV
aV
aV56
p293
aV4198
p294
aV3
aV4
aV8
aV0
aV0.8
p295
aV75.5
p296
aV0.3
p297
aV1
aV6.92
p298
aasS'id'
p299
V318871
p300
sb.