(i__main__
Player
p1
(dp2
S'name'
p3
VRyan Sessegnon 
p4
sS'offensive_data'
p5
(lp6
(lp7
a(lp8
V2018/2019
p9
aVFulham
p10
aVEPL
p11
aV14(2)
p12
aV1233
p13
aV1
aV3
aV-
aV-
aV0.9
p14
aV70.5
p15
aV0.6
p16
aV-
aV6.55
p17
aa(lp18
V2017/2018
p19
aVFulham
p20
aVEC
p21
aV48(1)
p22
aV4297
p23
aV16
p24
aV8
aV2
aV-
aV1.3
p25
aV75
p26
aV1
aV4
aV7.04
p27
aa(lp28
V2016/2017
p29
aVFulham
p30
aVEC
p31
aV17(9)
p32
aV1622
p33
aV5
aV3
aV-
aV-
aV1.1
p34
aV81.8
p35
aV0.7
p36
aV3
aV6.78
p37
aa(lp38
VTotal / Average
p39
aV
aV
aV91
p40
aV7152
p41
aV22
p42
aV14
p43
aV2
aV0
aV1.2
p44
aV76.1
p45
aV0.8
p46
aV7
aV6.88
p47
aasS'url'
p48
S'https://www.whoscored.com/Players/322611/History/'
p49
sS'passing_data'
p50
(lp51
(lp52
a(lp53
V2018/2019
p54
aVFulham
p55
aVEPL
p56
aV14(2)
p57
aV1233
p58
aV1
aV3
aV-
aV-
aV0.9
p59
aV70.5
p60
aV0.6
p61
aV-
aV6.55
p62
aa(lp63
V2017/2018
p64
aVFulham
p65
aVEC
p66
aV48(1)
p67
aV4297
p68
aV16
p69
aV8
aV2
aV-
aV1.3
p70
aV75
p71
aV1
aV4
aV7.04
p72
aa(lp73
V2016/2017
p74
aVFulham
p75
aVEC
p76
aV17(9)
p77
aV1622
p78
aV5
aV3
aV-
aV-
aV1.1
p79
aV81.8
p80
aV0.7
p81
aV3
aV6.78
p82
aa(lp83
VTotal / Average
p84
aV
aV
aV91
p85
aV7152
p86
aV22
p87
aV14
p88
aV2
aV0
aV1.2
p89
aV76.1
p90
aV0.8
p91
aV7
aV6.88
p92
aasS'defensive_data'
p93
(lp94
(lp95
a(lp96
V2018/2019
p97
aVFulham
p98
aVEPL
p99
aV14(2)
p100
aV1233
p101
aV1
aV3
aV-
aV-
aV0.9
p102
aV70.5
p103
aV0.6
p104
aV-
aV6.55
p105
aa(lp106
V2017/2018
p107
aVFulham
p108
aVEC
p109
aV48(1)
p110
aV4297
p111
aV16
p112
aV8
aV2
aV-
aV1.3
p113
aV75
p114
aV1
aV4
aV7.04
p115
aa(lp116
V2016/2017
p117
aVFulham
p118
aVEC
p119
aV17(9)
p120
aV1622
p121
aV5
aV3
aV-
aV-
aV1.1
p122
aV81.8
p123
aV0.7
p124
aV3
aV6.78
p125
aa(lp126
VTotal / Average
p127
aV
aV
aV91
p128
aV7152
p129
aV22
p130
aV14
p131
aV2
aV0
aV1.2
p132
aV76.1
p133
aV0.8
p134
aV7
aV6.88
p135
aasS'sumary_data'
p136
(lp137
(lp138
a(lp139
V2018/2019
p140
aVFulham
p141
aVEPL
p142
aV14(2)
p143
aV1233
p144
aV1
aV3
aV-
aV-
aV0.9
p145
aV70.5
p146
aV0.6
p147
aV-
aV6.55
p148
aa(lp149
V2017/2018
p150
aVFulham
p151
aVEC
p152
aV48(1)
p153
aV4297
p154
aV16
p155
aV8
aV2
aV-
aV1.3
p156
aV75
p157
aV1
aV4
aV7.04
p158
aa(lp159
V2016/2017
p160
aVFulham
p161
aVEC
p162
aV17(9)
p163
aV1622
p164
aV5
aV3
aV-
aV-
aV1.1
p165
aV81.8
p166
aV0.7
p167
aV3
aV6.78
p168
aa(lp169
VTotal / Average
p170
aV
aV
aV91
p171
aV7152
p172
aV22
p173
aV14
p174
aV2
aV0
aV1.2
p175
aV76.1
p176
aV0.8
p177
aV7
aV6.88
p178
aasS'id'
p179
V322611
p180
sb.