(i__main__
Player
p1
(dp2
S'name'
p3
VAdama Diakhaby 
p4
sS'offensive_data'
p5
(lp6
(lp7
a(lp8
V2018/2019
p9
aVHuddersfield
p10
aVEPL
p11
aV2(5)
p12
aV232
p13
aV-
aV-
aV-
aV-
aV-
aV71.9
p14
aV0.4
p15
aV-
aV6.02
p16
aa(lp17
V2017/2018
p18
aVMonaco
p19
aVUCL
p20
aV3(2)
p21
aV228
p22
aV-
aV-
aV2
aV-
aV1.2
p23
aV69.6
p24
aV2
aV-
aV6.37
p25
aa(lp26
V2017/2018
p27
aVMonaco
p28
aVFL1
p29
aV10(12)
p30
aV852
p31
aV2
aV3
aV2
aV1
aV0.5
p32
aV72.6
p33
aV0.7
p34
aV1
aV6.41
p35
aa(lp36
V2016/2017
p37
aVRennes
p38
aVFL1
p39
aV3(22)
p40
aV711
p41
aV4
aV-
aV2
aV-
aV1
aV69.3
p42
aV1
aV-
aV6.54
p43
aa(lp44
VTotal / Average
p45
aV
aV
aV59
p46
aV2023
p47
aV6
aV3
aV6
aV1
aV0.7
p48
aV70.9
p49
aV0.9
p50
aV1
aV6.42
p51
aasS'url'
p52
S'https://www.whoscored.com/Players/322750/History/'
p53
sS'passing_data'
p54
(lp55
(lp56
a(lp57
V2018/2019
p58
aVHuddersfield
p59
aVEPL
p60
aV2(5)
p61
aV232
p62
aV-
aV-
aV-
aV-
aV-
aV71.9
p63
aV0.4
p64
aV-
aV6.02
p65
aa(lp66
V2017/2018
p67
aVMonaco
p68
aVUCL
p69
aV3(2)
p70
aV228
p71
aV-
aV-
aV2
aV-
aV1.2
p72
aV69.6
p73
aV2
aV-
aV6.37
p74
aa(lp75
V2017/2018
p76
aVMonaco
p77
aVFL1
p78
aV10(12)
p79
aV852
p80
aV2
aV3
aV2
aV1
aV0.5
p81
aV72.6
p82
aV0.7
p83
aV1
aV6.41
p84
aa(lp85
V2016/2017
p86
aVRennes
p87
aVFL1
p88
aV3(22)
p89
aV711
p90
aV4
aV-
aV2
aV-
aV1
aV69.3
p91
aV1
aV-
aV6.54
p92
aa(lp93
VTotal / Average
p94
aV
aV
aV59
p95
aV2023
p96
aV6
aV3
aV6
aV1
aV0.7
p97
aV70.9
p98
aV0.9
p99
aV1
aV6.42
p100
aasS'defensive_data'
p101
(lp102
(lp103
a(lp104
V2018/2019
p105
aVHuddersfield
p106
aVEPL
p107
aV2(5)
p108
aV232
p109
aV-
aV-
aV-
aV-
aV-
aV71.9
p110
aV0.4
p111
aV-
aV6.02
p112
aa(lp113
V2017/2018
p114
aVMonaco
p115
aVUCL
p116
aV3(2)
p117
aV228
p118
aV-
aV-
aV2
aV-
aV1.2
p119
aV69.6
p120
aV2
aV-
aV6.37
p121
aa(lp122
V2017/2018
p123
aVMonaco
p124
aVFL1
p125
aV10(12)
p126
aV852
p127
aV2
aV3
aV2
aV1
aV0.5
p128
aV72.6
p129
aV0.7
p130
aV1
aV6.41
p131
aa(lp132
V2016/2017
p133
aVRennes
p134
aVFL1
p135
aV3(22)
p136
aV711
p137
aV4
aV-
aV2
aV-
aV1
aV69.3
p138
aV1
aV-
aV6.54
p139
aa(lp140
VTotal / Average
p141
aV
aV
aV59
p142
aV2023
p143
aV6
aV3
aV6
aV1
aV0.7
p144
aV70.9
p145
aV0.9
p146
aV1
aV6.42
p147
aasS'sumary_data'
p148
(lp149
(lp150
a(lp151
V2018/2019
p152
aVHuddersfield
p153
aVEPL
p154
aV2(5)
p155
aV232
p156
aV-
aV-
aV-
aV-
aV-
aV71.9
p157
aV0.4
p158
aV-
aV6.02
p159
aa(lp160
V2017/2018
p161
aVMonaco
p162
aVUCL
p163
aV3(2)
p164
aV228
p165
aV-
aV-
aV2
aV-
aV1.2
p166
aV69.6
p167
aV2
aV-
aV6.37
p168
aa(lp169
V2017/2018
p170
aVMonaco
p171
aVFL1
p172
aV10(12)
p173
aV852
p174
aV2
aV3
aV2
aV1
aV0.5
p175
aV72.6
p176
aV0.7
p177
aV1
aV6.41
p178
aa(lp179
V2016/2017
p180
aVRennes
p181
aVFL1
p182
aV3(22)
p183
aV711
p184
aV4
aV-
aV2
aV-
aV1
aV69.3
p185
aV1
aV-
aV6.54
p186
aa(lp187
VTotal / Average
p188
aV
aV
aV59
p189
aV2023
p190
aV6
aV3
aV6
aV1
aV0.7
p191
aV70.9
p192
aV0.9
p193
aV1
aV6.42
p194
aasS'id'
p195
V322750
p196
sb.