(i__main__
Player
p1
(dp2
S'name'
p3
VDaryl Janmaat 
p4
sS'offensive_data'
p5
(lp6
(lp7
a(lp8
V2018/2019
p9
aVWatford
p10
aVEPL
p11
aV6
aV522
p12
aV-
aV1
aV2
aV-
aV0.5
p13
aV71.5
p14
aV1.7
p15
aV-
aV7.13
p16
aa(lp17
V2018/2019
p18
aVNetherlands
p19
aVUNL
p20
aV0(1)
p21
aV8
aV-
aV-
aV-
aV-
aV-
aV100
p22
aV-
aV-
aV6.11
p23
aa(lp24
V2017/2018
p25
aVWatford
p26
aVEPL
p27
aV21(2)
p28
aV1822
p29
aV3
aV-
aV3
aV-
aV1
aV75.9
p30
aV1.2
p31
aV1
aV6.76
p32
aa(lp33
V2016/2017
p34
aVNewcastle Uni..
p35
aVEC
p36
aV2
aV173
p37
aV-
aV-
aV1
aV-
aV0.5
p38
aV87.7
p39
aV1
aV-
aV6.55
p40
aa(lp41
V2016/2017
p42
aVWatford
p43
aVEPL
p44
aV18(9)
p45
aV1613
p46
aV2
aV1
aV2
aV-
aV1
aV73.8
p47
aV0.8
p48
aV-
aV6.55
p49
aa(lp50
V2015/2016
p51
aVNewcastle Uni..
p52
aVEPL
p53
aV32
p54
aV2755
p55
aV2
aV4
aV5
aV1
aV0.6
p56
aV73.8
p57
aV0.8
p58
aV1
aV6.85
p59
aa(lp60
V2014/2015
p61
aVNewcastle Uni..
p62
aVEPL
p63
aV37
p64
aV3255
p65
aV1
aV6
aV6
aV1
aV0.9
p66
aV74.4
p67
aV0.9
p68
aV3
aV6.90
p69
aa(lp70
V2013/2014
p71
aVFeyenoord
p72
aVNE
p73
aV30
p74
aV2641
p75
aV2
aV5
aV2
aV-
aV0.9
p76
aV81.7
p77
aV1
aV1
aV7.22
p78
aa(lp79
V2014
p80
aVNetherlands
p81
aVWC
p82
aV3(2)
p83
aV366
p84
aV-
aV2
aV-
aV-
aV-
aV75.9
p85
aV0.8
p86
aV-
aV7.33
p87
aa(lp88
VTotal / Average
p89
aV
aV
aV163
p90
aV13155
p91
aV10
p92
aV19
p93
aV21
p94
aV2
aV0.8
p95
aV76
p96
aV0.9
p97
aV6
aV6.89
p98
aasS'url'
p99
S'https://www.whoscored.com/Players/32323/History/'
p100
sS'passing_data'
p101
(lp102
(lp103
a(lp104
V2018/2019
p105
aVWatford
p106
aVEPL
p107
aV6
aV522
p108
aV-
aV1
aV2
aV-
aV0.5
p109
aV71.5
p110
aV1.7
p111
aV-
aV7.13
p112
aa(lp113
V2018/2019
p114
aVNetherlands
p115
aVUNL
p116
aV0(1)
p117
aV8
aV-
aV-
aV-
aV-
aV-
aV100
p118
aV-
aV-
aV6.11
p119
aa(lp120
V2017/2018
p121
aVWatford
p122
aVEPL
p123
aV21(2)
p124
aV1822
p125
aV3
aV-
aV3
aV-
aV1
aV75.9
p126
aV1.2
p127
aV1
aV6.76
p128
aa(lp129
V2016/2017
p130
aVNewcastle Uni..
p131
aVEC
p132
aV2
aV173
p133
aV-
aV-
aV1
aV-
aV0.5
p134
aV87.7
p135
aV1
aV-
aV6.55
p136
aa(lp137
V2016/2017
p138
aVWatford
p139
aVEPL
p140
aV18(9)
p141
aV1613
p142
aV2
aV1
aV2
aV-
aV1
aV73.8
p143
aV0.8
p144
aV-
aV6.55
p145
aa(lp146
V2015/2016
p147
aVNewcastle Uni..
p148
aVEPL
p149
aV32
p150
aV2755
p151
aV2
aV4
aV5
aV1
aV0.6
p152
aV73.8
p153
aV0.8
p154
aV1
aV6.85
p155
aa(lp156
V2014/2015
p157
aVNewcastle Uni..
p158
aVEPL
p159
aV37
p160
aV3255
p161
aV1
aV6
aV6
aV1
aV0.9
p162
aV74.4
p163
aV0.9
p164
aV3
aV6.90
p165
aa(lp166
V2013/2014
p167
aVFeyenoord
p168
aVNE
p169
aV30
p170
aV2641
p171
aV2
aV5
aV2
aV-
aV0.9
p172
aV81.7
p173
aV1
aV1
aV7.22
p174
aa(lp175
V2014
p176
aVNetherlands
p177
aVWC
p178
aV3(2)
p179
aV366
p180
aV-
aV2
aV-
aV-
aV-
aV75.9
p181
aV0.8
p182
aV-
aV7.33
p183
aa(lp184
VTotal / Average
p185
aV
aV
aV163
p186
aV13155
p187
aV10
p188
aV19
p189
aV21
p190
aV2
aV0.8
p191
aV76
p192
aV0.9
p193
aV6
aV6.89
p194
aasS'defensive_data'
p195
(lp196
(lp197
a(lp198
V2018/2019
p199
aVWatford
p200
aVEPL
p201
aV6
aV522
p202
aV-
aV1
aV2
aV-
aV0.5
p203
aV71.5
p204
aV1.7
p205
aV-
aV7.13
p206
aa(lp207
V2018/2019
p208
aVNetherlands
p209
aVUNL
p210
aV0(1)
p211
aV8
aV-
aV-
aV-
aV-
aV-
aV100
p212
aV-
aV-
aV6.11
p213
aa(lp214
V2017/2018
p215
aVWatford
p216
aVEPL
p217
aV21(2)
p218
aV1822
p219
aV3
aV-
aV3
aV-
aV1
aV75.9
p220
aV1.2
p221
aV1
aV6.76
p222
aa(lp223
V2016/2017
p224
aVNewcastle Uni..
p225
aVEC
p226
aV2
aV173
p227
aV-
aV-
aV1
aV-
aV0.5
p228
aV87.7
p229
aV1
aV-
aV6.55
p230
aa(lp231
V2016/2017
p232
aVWatford
p233
aVEPL
p234
aV18(9)
p235
aV1613
p236
aV2
aV1
aV2
aV-
aV1
aV73.8
p237
aV0.8
p238
aV-
aV6.55
p239
aa(lp240
V2015/2016
p241
aVNewcastle Uni..
p242
aVEPL
p243
aV32
p244
aV2755
p245
aV2
aV4
aV5
aV1
aV0.6
p246
aV73.8
p247
aV0.8
p248
aV1
aV6.85
p249
aa(lp250
V2014/2015
p251
aVNewcastle Uni..
p252
aVEPL
p253
aV37
p254
aV3255
p255
aV1
aV6
aV6
aV1
aV0.9
p256
aV74.4
p257
aV0.9
p258
aV3
aV6.90
p259
aa(lp260
V2013/2014
p261
aVFeyenoord
p262
aVNE
p263
aV30
p264
aV2641
p265
aV2
aV5
aV2
aV-
aV0.9
p266
aV81.7
p267
aV1
aV1
aV7.22
p268
aa(lp269
V2014
p270
aVNetherlands
p271
aVWC
p272
aV3(2)
p273
aV366
p274
aV-
aV2
aV-
aV-
aV-
aV75.9
p275
aV0.8
p276
aV-
aV7.33
p277
aa(lp278
VTotal / Average
p279
aV
aV
aV163
p280
aV13155
p281
aV10
p282
aV19
p283
aV21
p284
aV2
aV0.8
p285
aV76
p286
aV0.9
p287
aV6
aV6.89
p288
aasS'sumary_data'
p289
(lp290
(lp291
a(lp292
V2018/2019
p293
aVWatford
p294
aVEPL
p295
aV6
aV522
p296
aV-
aV1
aV2
aV-
aV0.5
p297
aV71.5
p298
aV1.7
p299
aV-
aV7.13
p300
aa(lp301
V2018/2019
p302
aVNetherlands
p303
aVUNL
p304
aV0(1)
p305
aV8
aV-
aV-
aV-
aV-
aV-
aV100
p306
aV-
aV-
aV6.11
p307
aa(lp308
V2017/2018
p309
aVWatford
p310
aVEPL
p311
aV21(2)
p312
aV1822
p313
aV3
aV-
aV3
aV-
aV1
aV75.9
p314
aV1.2
p315
aV1
aV6.76
p316
aa(lp317
V2016/2017
p318
aVNewcastle Uni..
p319
aVEC
p320
aV2
aV173
p321
aV-
aV-
aV1
aV-
aV0.5
p322
aV87.7
p323
aV1
aV-
aV6.55
p324
aa(lp325
V2016/2017
p326
aVWatford
p327
aVEPL
p328
aV18(9)
p329
aV1613
p330
aV2
aV1
aV2
aV-
aV1
aV73.8
p331
aV0.8
p332
aV-
aV6.55
p333
aa(lp334
V2015/2016
p335
aVNewcastle Uni..
p336
aVEPL
p337
aV32
p338
aV2755
p339
aV2
aV4
aV5
aV1
aV0.6
p340
aV73.8
p341
aV0.8
p342
aV1
aV6.85
p343
aa(lp344
V2014/2015
p345
aVNewcastle Uni..
p346
aVEPL
p347
aV37
p348
aV3255
p349
aV1
aV6
aV6
aV1
aV0.9
p350
aV74.4
p351
aV0.9
p352
aV3
aV6.90
p353
aa(lp354
V2013/2014
p355
aVFeyenoord
p356
aVNE
p357
aV30
p358
aV2641
p359
aV2
aV5
aV2
aV-
aV0.9
p360
aV81.7
p361
aV1
aV1
aV7.22
p362
aa(lp363
V2014
p364
aVNetherlands
p365
aVWC
p366
aV3(2)
p367
aV366
p368
aV-
aV2
aV-
aV-
aV-
aV75.9
p369
aV0.8
p370
aV-
aV7.33
p371
aa(lp372
VTotal / Average
p373
aV
aV
aV163
p374
aV13155
p375
aV10
p376
aV19
p377
aV21
p378
aV2
aV0.8
p379
aV76
p380
aV0.9
p381
aV6
aV6.89
p382
aasS'id'
p383
V32323
p384
sb.