(i__main__
Player
p1
(dp2
S'name'
p3
VDiego Rico 
p4
sS'offensive_data'
p5
(lp6
(lp7
a(lp8
V2018/2019
p9
aVBournemouth
p10
aVEPL
p11
aV3(2)
p12
aV287
p13
aV-
aV-
aV-
aV-
aV0.8
p14
aV75.2
p15
aV0.8
p16
aV-
aV6.61
p17
aa(lp18
V2017/2018
p19
aVLeganes
p20
aVSLL
p21
aV26
p22
aV2229
p23
aV2
aV2
aV8
aV1
aV1
aV70.7
p24
aV1.2
p25
aV1
aV7.13
p26
aa(lp27
V2016/2017
p28
aVLeganes
p29
aVSLL
p30
aV25
p31
aV2222
p32
aV1
aV-
aV6
aV-
aV0.6
p33
aV74.2
p34
aV1.4
p35
aV2
aV7.01
p36
aa(lp37
VTotal / Average
p38
aV
aV
aV56
p39
aV4738
p40
aV3
aV2
aV14
p41
aV1
aV0.8
p42
aV72.6
p43
aV1.3
p44
aV3
aV7.03
p45
aasS'url'
p46
S'https://www.whoscored.com/Players/323352/History/'
p47
sS'passing_data'
p48
(lp49
(lp50
a(lp51
V2018/2019
p52
aVBournemouth
p53
aVEPL
p54
aV3(2)
p55
aV287
p56
aV-
aV-
aV-
aV-
aV0.8
p57
aV75.2
p58
aV0.8
p59
aV-
aV6.61
p60
aa(lp61
V2017/2018
p62
aVLeganes
p63
aVSLL
p64
aV26
p65
aV2229
p66
aV2
aV2
aV8
aV1
aV1
aV70.7
p67
aV1.2
p68
aV1
aV7.13
p69
aa(lp70
V2016/2017
p71
aVLeganes
p72
aVSLL
p73
aV25
p74
aV2222
p75
aV1
aV-
aV6
aV-
aV0.6
p76
aV74.2
p77
aV1.4
p78
aV2
aV7.01
p79
aa(lp80
VTotal / Average
p81
aV
aV
aV56
p82
aV4738
p83
aV3
aV2
aV14
p84
aV1
aV0.8
p85
aV72.6
p86
aV1.3
p87
aV3
aV7.03
p88
aasS'defensive_data'
p89
(lp90
(lp91
a(lp92
V2018/2019
p93
aVBournemouth
p94
aVEPL
p95
aV3(2)
p96
aV287
p97
aV-
aV-
aV-
aV-
aV0.8
p98
aV75.2
p99
aV0.8
p100
aV-
aV6.61
p101
aa(lp102
V2017/2018
p103
aVLeganes
p104
aVSLL
p105
aV26
p106
aV2229
p107
aV2
aV2
aV8
aV1
aV1
aV70.7
p108
aV1.2
p109
aV1
aV7.13
p110
aa(lp111
V2016/2017
p112
aVLeganes
p113
aVSLL
p114
aV25
p115
aV2222
p116
aV1
aV-
aV6
aV-
aV0.6
p117
aV74.2
p118
aV1.4
p119
aV2
aV7.01
p120
aa(lp121
VTotal / Average
p122
aV
aV
aV56
p123
aV4738
p124
aV3
aV2
aV14
p125
aV1
aV0.8
p126
aV72.6
p127
aV1.3
p128
aV3
aV7.03
p129
aasS'sumary_data'
p130
(lp131
(lp132
a(lp133
V2018/2019
p134
aVBournemouth
p135
aVEPL
p136
aV3(2)
p137
aV287
p138
aV-
aV-
aV-
aV-
aV0.8
p139
aV75.2
p140
aV0.8
p141
aV-
aV6.61
p142
aa(lp143
V2017/2018
p144
aVLeganes
p145
aVSLL
p146
aV26
p147
aV2229
p148
aV2
aV2
aV8
aV1
aV1
aV70.7
p149
aV1.2
p150
aV1
aV7.13
p151
aa(lp152
V2016/2017
p153
aVLeganes
p154
aVSLL
p155
aV25
p156
aV2222
p157
aV1
aV-
aV6
aV-
aV0.6
p158
aV74.2
p159
aV1.4
p160
aV2
aV7.01
p161
aa(lp162
VTotal / Average
p163
aV
aV
aV56
p164
aV4738
p165
aV3
aV2
aV14
p166
aV1
aV0.8
p167
aV72.6
p168
aV1.3
p169
aV3
aV7.03
p170
aasS'id'
p171
V323352
p172
sb.