(i__main__
Player
p1
(dp2
S'name'
p3
VYan Valery 
p4
sS'offensive_data'
p5
(lp6
(lp7
a(lp8
V2018/2019
p9
aVSouthampton
p10
aVEPL
p11
aV3
aV226
p12
aV-
aV-
aV1
aV-
aV-
aV67.4
p13
aV0.7
p14
aV-
aV6.23
p15
aa(lp16
VTotal / Average
p17
aV
aV
aV3
aV226
p18
aV0
aV0
aV1
aV0
aV0
aV67.4
p19
aV0.7
p20
aV0
aV6.23
p21
aasS'url'
p22
S'https://www.whoscored.com/Players/323791/History/'
p23
sS'passing_data'
p24
(lp25
(lp26
a(lp27
V2018/2019
p28
aVSouthampton
p29
aVEPL
p30
aV3
aV226
p31
aV-
aV-
aV1
aV-
aV-
aV67.4
p32
aV0.7
p33
aV-
aV6.23
p34
aa(lp35
VTotal / Average
p36
aV
aV
aV3
aV226
p37
aV0
aV0
aV1
aV0
aV0
aV67.4
p38
aV0.7
p39
aV0
aV6.23
p40
aasS'defensive_data'
p41
(lp42
(lp43
a(lp44
V2018/2019
p45
aVSouthampton
p46
aVEPL
p47
aV3
aV226
p48
aV-
aV-
aV1
aV-
aV-
aV67.4
p49
aV0.7
p50
aV-
aV6.23
p51
aa(lp52
VTotal / Average
p53
aV
aV
aV3
aV226
p54
aV0
aV0
aV1
aV0
aV0
aV67.4
p55
aV0.7
p56
aV0
aV6.23
p57
aasS'sumary_data'
p58
(lp59
(lp60
a(lp61
V2018/2019
p62
aVSouthampton
p63
aVEPL
p64
aV3
aV226
p65
aV-
aV-
aV1
aV-
aV-
aV67.4
p66
aV0.7
p67
aV-
aV6.23
p68
aa(lp69
VTotal / Average
p70
aV
aV
aV3
aV226
p71
aV0
aV0
aV1
aV0
aV0
aV67.4
p72
aV0.7
p73
aV0
aV6.23
p74
aasS'id'
p75
V323791
p76
sb.