(i__main__
Player
p1
(dp2
S'name'
p3
VAdrien Silva 
p4
sS'offensive_data'
p5
(lp6
(lp7
a(lp8
V2018/2019
p9
aVLeicester
p10
aVEPL
p11
aV1(1)
p12
aV88
p13
aV-
aV-
aV-
aV-
aV-
aV86.1
p14
aV-
aV-
aV6.20
p15
aa(lp16
V2017/2018
p17
aVSporting CP
p18
aVPLN
p19
aV3
aV224
p20
aV1
aV1
aV1
aV-
aV1.3
p21
aV83.9
p22
aV0.3
p23
aV-
aV7.24
p24
aa(lp25
V2017/2018
p26
aVLeicester
p27
aVEPL
p28
aV9(3)
p29
aV763
p30
aV-
aV1
aV3
aV-
aV0.9
p31
aV81.5
p32
aV0.9
p33
aV-
aV6.40
p34
aa(lp35
V2016/2017
p36
aVSporting CP
p37
aVPLN
p38
aV26(1)
p39
aV2160
p40
aV4
aV2
aV6
aV-
aV1.5
p41
aV84.3
p42
aV0.8
p43
aV2
aV7.11
p44
aa(lp45
V2016/2017
p46
aVSporting CP
p47
aVUCL
p48
aV4(1)
p49
aV375
p50
aV1
aV1
aV2
aV-
aV2
aV89.7
p51
aV1
aV-
aV7.11
p52
aa(lp53
V2018
p54
aVPortugal
p55
aVWC
p56
aV2(1)
p57
aV156
p58
aV-
aV1
aV1
aV-
aV0.7
p59
aV91.6
p60
aV0.3
p61
aV-
aV6.23
p62
aa(lp63
V2015/2016
p64
aVSporting CP
p65
aVUEL
p66
aV4(2)
p67
aV367
p68
aV-
aV-
aV2
aV-
aV0.5
p69
aV86.3
p70
aV1.7
p71
aV-
aV6.86
p72
aa(lp73
V2014/2015
p74
aVSporting CP
p75
aVUCL
p76
aV6
aV531
p77
aV2
aV-
aV1
aV-
aV2.3
p78
aV82.2
p79
aV1.8
p80
aV-
aV7.11
p81
aa(lp82
V2014/2015
p83
aVSporting CP
p84
aVUEL
p85
aV2
aV154
p86
aV-
aV-
aV-
aV-
aV0.5
p87
aV81.4
p88
aV0.5
p89
aV-
aV7.23
p90
aa(lp91
V2016
p92
aVPortugal
p93
aVUEC
p94
aV4
aV327
p95
aV-
aV-
aV1
aV-
aV0.8
p96
aV86.6
p97
aV0.8
p98
aV-
aV6.69
p99
aa(lp100
V2012/2013
p101
aVSporting CP
p102
aVUEL
p103
aV1(1)
p104
aV98
p105
aV-
aV-
aV-
aV-
aV1.5
p106
aV84.2
p107
aV1
aV-
aV6.60
p108
aa(lp109
VTotal / Average
p110
aV
aV
aV72
p111
aV5243
p112
aV8
aV6
aV17
p113
aV0
aV1.3
p114
aV84.6
p115
aV0.9
p116
aV2
aV6.88
p117
aasS'url'
p118
S'https://www.whoscored.com/Players/32598/History/'
p119
sS'passing_data'
p120
(lp121
(lp122
a(lp123
V2018/2019
p124
aVLeicester
p125
aVEPL
p126
aV1(1)
p127
aV88
p128
aV-
aV-
aV-
aV-
aV-
aV86.1
p129
aV-
aV-
aV6.20
p130
aa(lp131
V2017/2018
p132
aVSporting CP
p133
aVPLN
p134
aV3
aV224
p135
aV1
aV1
aV1
aV-
aV1.3
p136
aV83.9
p137
aV0.3
p138
aV-
aV7.24
p139
aa(lp140
V2017/2018
p141
aVLeicester
p142
aVEPL
p143
aV9(3)
p144
aV763
p145
aV-
aV1
aV3
aV-
aV0.9
p146
aV81.5
p147
aV0.9
p148
aV-
aV6.40
p149
aa(lp150
V2016/2017
p151
aVSporting CP
p152
aVPLN
p153
aV26(1)
p154
aV2160
p155
aV4
aV2
aV6
aV-
aV1.5
p156
aV84.3
p157
aV0.8
p158
aV2
aV7.11
p159
aa(lp160
V2016/2017
p161
aVSporting CP
p162
aVUCL
p163
aV4(1)
p164
aV375
p165
aV1
aV1
aV2
aV-
aV2
aV89.7
p166
aV1
aV-
aV7.11
p167
aa(lp168
V2018
p169
aVPortugal
p170
aVWC
p171
aV2(1)
p172
aV156
p173
aV-
aV1
aV1
aV-
aV0.7
p174
aV91.6
p175
aV0.3
p176
aV-
aV6.23
p177
aa(lp178
V2015/2016
p179
aVSporting CP
p180
aVUEL
p181
aV4(2)
p182
aV367
p183
aV-
aV-
aV2
aV-
aV0.5
p184
aV86.3
p185
aV1.7
p186
aV-
aV6.86
p187
aa(lp188
V2014/2015
p189
aVSporting CP
p190
aVUCL
p191
aV6
aV531
p192
aV2
aV-
aV1
aV-
aV2.3
p193
aV82.2
p194
aV1.8
p195
aV-
aV7.11
p196
aa(lp197
V2014/2015
p198
aVSporting CP
p199
aVUEL
p200
aV2
aV154
p201
aV-
aV-
aV-
aV-
aV0.5
p202
aV81.4
p203
aV0.5
p204
aV-
aV7.23
p205
aa(lp206
V2016
p207
aVPortugal
p208
aVUEC
p209
aV4
aV327
p210
aV-
aV-
aV1
aV-
aV0.8
p211
aV86.6
p212
aV0.8
p213
aV-
aV6.69
p214
aa(lp215
V2012/2013
p216
aVSporting CP
p217
aVUEL
p218
aV1(1)
p219
aV98
p220
aV-
aV-
aV-
aV-
aV1.5
p221
aV84.2
p222
aV1
aV-
aV6.60
p223
aa(lp224
VTotal / Average
p225
aV
aV
aV72
p226
aV5243
p227
aV8
aV6
aV17
p228
aV0
aV1.3
p229
aV84.6
p230
aV0.9
p231
aV2
aV6.88
p232
aasS'defensive_data'
p233
(lp234
(lp235
a(lp236
V2018/2019
p237
aVLeicester
p238
aVEPL
p239
aV1(1)
p240
aV88
p241
aV-
aV-
aV-
aV-
aV-
aV86.1
p242
aV-
aV-
aV6.20
p243
aa(lp244
V2017/2018
p245
aVSporting CP
p246
aVPLN
p247
aV3
aV224
p248
aV1
aV1
aV1
aV-
aV1.3
p249
aV83.9
p250
aV0.3
p251
aV-
aV7.24
p252
aa(lp253
V2017/2018
p254
aVLeicester
p255
aVEPL
p256
aV9(3)
p257
aV763
p258
aV-
aV1
aV3
aV-
aV0.9
p259
aV81.5
p260
aV0.9
p261
aV-
aV6.40
p262
aa(lp263
V2016/2017
p264
aVSporting CP
p265
aVPLN
p266
aV26(1)
p267
aV2160
p268
aV4
aV2
aV6
aV-
aV1.5
p269
aV84.3
p270
aV0.8
p271
aV2
aV7.11
p272
aa(lp273
V2016/2017
p274
aVSporting CP
p275
aVUCL
p276
aV4(1)
p277
aV375
p278
aV1
aV1
aV2
aV-
aV2
aV89.7
p279
aV1
aV-
aV7.11
p280
aa(lp281
V2018
p282
aVPortugal
p283
aVWC
p284
aV2(1)
p285
aV156
p286
aV-
aV1
aV1
aV-
aV0.7
p287
aV91.6
p288
aV0.3
p289
aV-
aV6.23
p290
aa(lp291
V2015/2016
p292
aVSporting CP
p293
aVUEL
p294
aV4(2)
p295
aV367
p296
aV-
aV-
aV2
aV-
aV0.5
p297
aV86.3
p298
aV1.7
p299
aV-
aV6.86
p300
aa(lp301
V2014/2015
p302
aVSporting CP
p303
aVUCL
p304
aV6
aV531
p305
aV2
aV-
aV1
aV-
aV2.3
p306
aV82.2
p307
aV1.8
p308
aV-
aV7.11
p309
aa(lp310
V2014/2015
p311
aVSporting CP
p312
aVUEL
p313
aV2
aV154
p314
aV-
aV-
aV-
aV-
aV0.5
p315
aV81.4
p316
aV0.5
p317
aV-
aV7.23
p318
aa(lp319
V2016
p320
aVPortugal
p321
aVUEC
p322
aV4
aV327
p323
aV-
aV-
aV1
aV-
aV0.8
p324
aV86.6
p325
aV0.8
p326
aV-
aV6.69
p327
aa(lp328
V2012/2013
p329
aVSporting CP
p330
aVUEL
p331
aV1(1)
p332
aV98
p333
aV-
aV-
aV-
aV-
aV1.5
p334
aV84.2
p335
aV1
aV-
aV6.60
p336
aa(lp337
VTotal / Average
p338
aV
aV
aV72
p339
aV5243
p340
aV8
aV6
aV17
p341
aV0
aV1.3
p342
aV84.6
p343
aV0.9
p344
aV2
aV6.88
p345
aasS'sumary_data'
p346
(lp347
(lp348
a(lp349
V2018/2019
p350
aVLeicester
p351
aVEPL
p352
aV1(1)
p353
aV88
p354
aV-
aV-
aV-
aV-
aV-
aV86.1
p355
aV-
aV-
aV6.20
p356
aa(lp357
V2017/2018
p358
aVSporting CP
p359
aVPLN
p360
aV3
aV224
p361
aV1
aV1
aV1
aV-
aV1.3
p362
aV83.9
p363
aV0.3
p364
aV-
aV7.24
p365
aa(lp366
V2017/2018
p367
aVLeicester
p368
aVEPL
p369
aV9(3)
p370
aV763
p371
aV-
aV1
aV3
aV-
aV0.9
p372
aV81.5
p373
aV0.9
p374
aV-
aV6.40
p375
aa(lp376
V2016/2017
p377
aVSporting CP
p378
aVPLN
p379
aV26(1)
p380
aV2160
p381
aV4
aV2
aV6
aV-
aV1.5
p382
aV84.3
p383
aV0.8
p384
aV2
aV7.11
p385
aa(lp386
V2016/2017
p387
aVSporting CP
p388
aVUCL
p389
aV4(1)
p390
aV375
p391
aV1
aV1
aV2
aV-
aV2
aV89.7
p392
aV1
aV-
aV7.11
p393
aa(lp394
V2018
p395
aVPortugal
p396
aVWC
p397
aV2(1)
p398
aV156
p399
aV-
aV1
aV1
aV-
aV0.7
p400
aV91.6
p401
aV0.3
p402
aV-
aV6.23
p403
aa(lp404
V2015/2016
p405
aVSporting CP
p406
aVUEL
p407
aV4(2)
p408
aV367
p409
aV-
aV-
aV2
aV-
aV0.5
p410
aV86.3
p411
aV1.7
p412
aV-
aV6.86
p413
aa(lp414
V2014/2015
p415
aVSporting CP
p416
aVUCL
p417
aV6
aV531
p418
aV2
aV-
aV1
aV-
aV2.3
p419
aV82.2
p420
aV1.8
p421
aV-
aV7.11
p422
aa(lp423
V2014/2015
p424
aVSporting CP
p425
aVUEL
p426
aV2
aV154
p427
aV-
aV-
aV-
aV-
aV0.5
p428
aV81.4
p429
aV0.5
p430
aV-
aV7.23
p431
aa(lp432
V2016
p433
aVPortugal
p434
aVUEC
p435
aV4
aV327
p436
aV-
aV-
aV1
aV-
aV0.8
p437
aV86.6
p438
aV0.8
p439
aV-
aV6.69
p440
aa(lp441
V2012/2013
p442
aVSporting CP
p443
aVUEL
p444
aV1(1)
p445
aV98
p446
aV-
aV-
aV-
aV-
aV1.5
p447
aV84.2
p448
aV1
aV-
aV6.60
p449
aa(lp450
VTotal / Average
p451
aV
aV
aV72
p452
aV5243
p453
aV8
aV6
aV17
p454
aV0
aV1.3
p455
aV84.6
p456
aV0.9
p457
aV2
aV6.88
p458
aasS'id'
p459
V32598
p460
sb.