(i__main__
Player
p1
(dp2
S'name'
p3
VWilfred Ndidi 
p4
sS'offensive_data'
p5
(lp6
(lp7
a(lp8
V2018/2019
p9
aVLeicester
p10
aVEPL
p11
aV16(1)
p12
aV1498
p13
aV1
aV-
aV3
aV-
aV1.9
p14
aV77.2
p15
aV4.1
p16
aV1
aV7.21
p17
aa(lp18
V2017/2018
p19
aVLeicester
p20
aVEPL
p21
aV33
p22
aV2899
p23
aV-
aV3
aV6
aV2
aV1.2
p24
aV76.1
p25
aV3.5
p26
aV2
aV7.14
p27
aa(lp28
V2016/2017
p29
aVLeicester
p30
aVUCL
p31
aV4
aV360
p32
aV-
aV-
aV1
aV-
aV0.8
p33
aV77.9
p34
aV4
aV-
aV7.15
p35
aa(lp36
V2016/2017
p37
aVLeicester
p38
aVEPL
p39
aV17
p40
aV1522
p41
aV2
aV1
aV-
aV-
aV1.8
p42
aV75.9
p43
aV3.5
p44
aV2
aV7.26
p45
aa(lp46
V2016/2017
p47
aVGenk
p48
aVUEL
p49
aV6
aV540
p50
aV2
aV-
aV1
aV-
aV1.8
p51
aV79.5
p52
aV3.3
p53
aV2
aV8.19
p54
aa(lp55
V2018
p56
aVNigeria
p57
aVWC
p58
aV3
aV270
p59
aV-
aV-
aV-
aV-
aV1
aV81.2
p60
aV5.7
p61
aV-
aV7.77
p62
aa(lp63
VTotal / Average
p64
aV
aV
aV80
p65
aV7089
p66
aV5
aV4
aV11
p67
aV2
aV1.5
p68
aV76.8
p69
aV3.7
p70
aV7
aV7.28
p71
aasS'url'
p72
S'https://www.whoscored.com/Players/327683/History/'
p73
sS'passing_data'
p74
(lp75
(lp76
a(lp77
V2018/2019
p78
aVLeicester
p79
aVEPL
p80
aV16(1)
p81
aV1498
p82
aV1
aV-
aV3
aV-
aV1.9
p83
aV77.2
p84
aV4.1
p85
aV1
aV7.21
p86
aa(lp87
V2017/2018
p88
aVLeicester
p89
aVEPL
p90
aV33
p91
aV2899
p92
aV-
aV3
aV6
aV2
aV1.2
p93
aV76.1
p94
aV3.5
p95
aV2
aV7.14
p96
aa(lp97
V2016/2017
p98
aVLeicester
p99
aVUCL
p100
aV4
aV360
p101
aV-
aV-
aV1
aV-
aV0.8
p102
aV77.9
p103
aV4
aV-
aV7.15
p104
aa(lp105
V2016/2017
p106
aVLeicester
p107
aVEPL
p108
aV17
p109
aV1522
p110
aV2
aV1
aV-
aV-
aV1.8
p111
aV75.9
p112
aV3.5
p113
aV2
aV7.26
p114
aa(lp115
V2016/2017
p116
aVGenk
p117
aVUEL
p118
aV6
aV540
p119
aV2
aV-
aV1
aV-
aV1.8
p120
aV79.5
p121
aV3.3
p122
aV2
aV8.19
p123
aa(lp124
V2018
p125
aVNigeria
p126
aVWC
p127
aV3
aV270
p128
aV-
aV-
aV-
aV-
aV1
aV81.2
p129
aV5.7
p130
aV-
aV7.77
p131
aa(lp132
VTotal / Average
p133
aV
aV
aV80
p134
aV7089
p135
aV5
aV4
aV11
p136
aV2
aV1.5
p137
aV76.8
p138
aV3.7
p139
aV7
aV7.28
p140
aasS'defensive_data'
p141
(lp142
(lp143
a(lp144
V2018/2019
p145
aVLeicester
p146
aVEPL
p147
aV16(1)
p148
aV1498
p149
aV1
aV-
aV3
aV-
aV1.9
p150
aV77.2
p151
aV4.1
p152
aV1
aV7.21
p153
aa(lp154
V2017/2018
p155
aVLeicester
p156
aVEPL
p157
aV33
p158
aV2899
p159
aV-
aV3
aV6
aV2
aV1.2
p160
aV76.1
p161
aV3.5
p162
aV2
aV7.14
p163
aa(lp164
V2016/2017
p165
aVLeicester
p166
aVUCL
p167
aV4
aV360
p168
aV-
aV-
aV1
aV-
aV0.8
p169
aV77.9
p170
aV4
aV-
aV7.15
p171
aa(lp172
V2016/2017
p173
aVLeicester
p174
aVEPL
p175
aV17
p176
aV1522
p177
aV2
aV1
aV-
aV-
aV1.8
p178
aV75.9
p179
aV3.5
p180
aV2
aV7.26
p181
aa(lp182
V2016/2017
p183
aVGenk
p184
aVUEL
p185
aV6
aV540
p186
aV2
aV-
aV1
aV-
aV1.8
p187
aV79.5
p188
aV3.3
p189
aV2
aV8.19
p190
aa(lp191
V2018
p192
aVNigeria
p193
aVWC
p194
aV3
aV270
p195
aV-
aV-
aV-
aV-
aV1
aV81.2
p196
aV5.7
p197
aV-
aV7.77
p198
aa(lp199
VTotal / Average
p200
aV
aV
aV80
p201
aV7089
p202
aV5
aV4
aV11
p203
aV2
aV1.5
p204
aV76.8
p205
aV3.7
p206
aV7
aV7.28
p207
aasS'sumary_data'
p208
(lp209
(lp210
a(lp211
V2018/2019
p212
aVLeicester
p213
aVEPL
p214
aV16(1)
p215
aV1498
p216
aV1
aV-
aV3
aV-
aV1.9
p217
aV77.2
p218
aV4.1
p219
aV1
aV7.21
p220
aa(lp221
V2017/2018
p222
aVLeicester
p223
aVEPL
p224
aV33
p225
aV2899
p226
aV-
aV3
aV6
aV2
aV1.2
p227
aV76.1
p228
aV3.5
p229
aV2
aV7.14
p230
aa(lp231
V2016/2017
p232
aVLeicester
p233
aVUCL
p234
aV4
aV360
p235
aV-
aV-
aV1
aV-
aV0.8
p236
aV77.9
p237
aV4
aV-
aV7.15
p238
aa(lp239
V2016/2017
p240
aVLeicester
p241
aVEPL
p242
aV17
p243
aV1522
p244
aV2
aV1
aV-
aV-
aV1.8
p245
aV75.9
p246
aV3.5
p247
aV2
aV7.26
p248
aa(lp249
V2016/2017
p250
aVGenk
p251
aVUEL
p252
aV6
aV540
p253
aV2
aV-
aV1
aV-
aV1.8
p254
aV79.5
p255
aV3.3
p256
aV2
aV8.19
p257
aa(lp258
V2018
p259
aVNigeria
p260
aVWC
p261
aV3
aV270
p262
aV-
aV-
aV-
aV-
aV1
aV81.2
p263
aV5.7
p264
aV-
aV7.77
p265
aa(lp266
VTotal / Average
p267
aV
aV
aV80
p268
aV7089
p269
aV5
aV4
aV11
p270
aV2
aV1.5
p271
aV76.8
p272
aV3.7
p273
aV7
aV7.28
p274
aasS'id'
p275
V327683
p276
sb.