(i__main__
Player
p1
(dp2
S'name'
p3
VMatteo Guendouzi 
p4
sS'offensive_data'
p5
(lp6
(lp7
a(lp8
V2018/2019
p9
aVArsenal
p10
aVEPL
p11
aV9(5)
p12
aV826
p13
aV-
aV-
aV3
aV-
aV0.5
p14
aV88.6
p15
aV0.6
p16
aV-
aV6.56
p17
aa(lp18
V2018/2019
p19
aVArsenal
p20
aVUEL
p21
aV4(1)
p22
aV379
p23
aV1
aV-
aV1
aV-
aV1
aV91.1
p24
aV-
aV-
aV6.92
p25
aa(lp26
V2016/2017
p27
aVLorient
p28
aVFL1
p29
aV4(4)
p30
aV417
p31
aV-
aV-
aV2
aV-
aV0.8
p32
aV91.6
p33
aV0.1
p34
aV-
aV6.42
p35
aa(lp36
VTotal / Average
p37
aV
aV
aV27
p38
aV1622
p39
aV1
aV0
aV6
aV0
aV0.7
p40
aV90
p41
aV0.3
p42
aV0
aV6.59
p43
aasS'url'
p44
S'https://www.whoscored.com/Players/328983/History/'
p45
sS'passing_data'
p46
(lp47
(lp48
a(lp49
V2018/2019
p50
aVArsenal
p51
aVEPL
p52
aV9(5)
p53
aV826
p54
aV-
aV-
aV3
aV-
aV0.5
p55
aV88.6
p56
aV0.6
p57
aV-
aV6.56
p58
aa(lp59
V2018/2019
p60
aVArsenal
p61
aVUEL
p62
aV4(1)
p63
aV379
p64
aV1
aV-
aV1
aV-
aV1
aV91.1
p65
aV-
aV-
aV6.92
p66
aa(lp67
V2016/2017
p68
aVLorient
p69
aVFL1
p70
aV4(4)
p71
aV417
p72
aV-
aV-
aV2
aV-
aV0.8
p73
aV91.6
p74
aV0.1
p75
aV-
aV6.42
p76
aa(lp77
VTotal / Average
p78
aV
aV
aV27
p79
aV1622
p80
aV1
aV0
aV6
aV0
aV0.7
p81
aV90
p82
aV0.3
p83
aV0
aV6.59
p84
aasS'defensive_data'
p85
(lp86
(lp87
a(lp88
V2018/2019
p89
aVArsenal
p90
aVEPL
p91
aV9(5)
p92
aV826
p93
aV-
aV-
aV3
aV-
aV0.5
p94
aV88.6
p95
aV0.6
p96
aV-
aV6.56
p97
aa(lp98
V2018/2019
p99
aVArsenal
p100
aVUEL
p101
aV4(1)
p102
aV379
p103
aV1
aV-
aV1
aV-
aV1
aV91.1
p104
aV-
aV-
aV6.92
p105
aa(lp106
V2016/2017
p107
aVLorient
p108
aVFL1
p109
aV4(4)
p110
aV417
p111
aV-
aV-
aV2
aV-
aV0.8
p112
aV91.6
p113
aV0.1
p114
aV-
aV6.42
p115
aa(lp116
VTotal / Average
p117
aV
aV
aV27
p118
aV1622
p119
aV1
aV0
aV6
aV0
aV0.7
p120
aV90
p121
aV0.3
p122
aV0
aV6.59
p123
aasS'sumary_data'
p124
(lp125
(lp126
a(lp127
V2018/2019
p128
aVArsenal
p129
aVEPL
p130
aV9(5)
p131
aV826
p132
aV-
aV-
aV3
aV-
aV0.5
p133
aV88.6
p134
aV0.6
p135
aV-
aV6.56
p136
aa(lp137
V2018/2019
p138
aVArsenal
p139
aVUEL
p140
aV4(1)
p141
aV379
p142
aV1
aV-
aV1
aV-
aV1
aV91.1
p143
aV-
aV-
aV6.92
p144
aa(lp145
V2016/2017
p146
aVLorient
p147
aVFL1
p148
aV4(4)
p149
aV417
p150
aV-
aV-
aV2
aV-
aV0.8
p151
aV91.6
p152
aV0.1
p153
aV-
aV6.42
p154
aa(lp155
VTotal / Average
p156
aV
aV
aV27
p157
aV1622
p158
aV1
aV0
aV6
aV0
aV0.7
p159
aV90
p160
aV0.3
p161
aV0
aV6.59
p162
aasS'id'
p163
V328983
p164
sb.