(i__main__
Player
p1
(dp2
S'name'
p3
VLuke Amos 
p4
sS'offensive_data'
p5
(lp6
(lp7
a(lp8
V2018/2019
p9
aVTottenham
p10
aVEPL
p11
aV0(1)
p12
aV2
aV-
aV-
aV-
aV-
aV-
aV33.3
p13
aV1
aV-
aV6.13
p14
aa(lp15
VTotal / Average
p16
aV
aV
aV1
aV2
aV0
aV0
aV0
aV0
aV0
aV33.3
p17
aV1
aV0
aV6.13
p18
aasS'url'
p19
S'https://www.whoscored.com/Players/329492/History/'
p20
sS'passing_data'
p21
(lp22
(lp23
a(lp24
V2018/2019
p25
aVTottenham
p26
aVEPL
p27
aV0(1)
p28
aV2
aV-
aV-
aV-
aV-
aV-
aV33.3
p29
aV1
aV-
aV6.13
p30
aa(lp31
VTotal / Average
p32
aV
aV
aV1
aV2
aV0
aV0
aV0
aV0
aV0
aV33.3
p33
aV1
aV0
aV6.13
p34
aasS'defensive_data'
p35
(lp36
(lp37
a(lp38
V2018/2019
p39
aVTottenham
p40
aVEPL
p41
aV0(1)
p42
aV2
aV-
aV-
aV-
aV-
aV-
aV33.3
p43
aV1
aV-
aV6.13
p44
aa(lp45
VTotal / Average
p46
aV
aV
aV1
aV2
aV0
aV0
aV0
aV0
aV0
aV33.3
p47
aV1
aV0
aV6.13
p48
aasS'sumary_data'
p49
(lp50
(lp51
a(lp52
V2018/2019
p53
aVTottenham
p54
aVEPL
p55
aV0(1)
p56
aV2
aV-
aV-
aV-
aV-
aV-
aV33.3
p57
aV1
aV-
aV6.13
p58
aa(lp59
VTotal / Average
p60
aV
aV
aV1
aV2
aV0
aV0
aV0
aV0
aV0
aV33.3
p61
aV1
aV0
aV6.13
p62
aasS'id'
p63
V329492
p64
sb.