(i__main__
Player
p1
(dp2
S'name'
p3
VVictor Moses 
p4
sS'offensive_data'
p5
(lp6
(lp7
a(lp8
V2018/2019
p9
aVChelsea
p10
aVEPL
p11
aV0(2)
p12
aV26
p13
aV-
aV-
aV-
aV-
aV-
aV76.9
p14
aV-
aV-
aV5.96
p15
aa(lp16
V2018/2019
p17
aVChelsea
p18
aVUEL
p19
aV0(2)
p20
aV49
p21
aV-
aV-
aV-
aV-
aV0.5
p22
aV92.9
p23
aV-
aV-
aV6.33
p24
aa(lp25
V2017/2018
p26
aVChelsea
p27
aVUCL
p28
aV4
aV337
p29
aV-
aV-
aV-
aV-
aV0.8
p30
aV75.7
p31
aV0.5
p32
aV-
aV6.65
p33
aa(lp34
V2017/2018
p35
aVChelsea
p36
aVEPL
p37
aV25(3)
p38
aV2119
p39
aV3
aV3
aV3
aV-
aV1.3
p40
aV76.6
p41
aV1
aV1
aV6.90
p42
aa(lp43
V2016/2017
p44
aVChelsea
p45
aVEPL
p46
aV29(5)
p47
aV2498
p48
aV3
aV2
aV4
aV-
aV1.3
p49
aV79.2
p50
aV1
aV-
aV7.22
p51
aa(lp52
V2018
p53
aVNigeria
p54
aVWC
p55
aV3
aV270
p56
aV1
aV1
aV-
aV-
aV2.3
p57
aV72.9
p58
aV0.3
p59
aV-
aV7.03
p60
aa(lp61
V2015/2016
p62
aVWest Ham
p63
aVEPL
p64
aV13(8)
p65
aV982
p66
aV1
aV2
aV-
aV-
aV1
aV80
p67
aV0.3
p68
aV-
aV6.52
p69
aa(lp70
V2014/2015
p71
aVStoke
p72
aVEPL
p73
aV19
p74
aV1455
p75
aV3
aV3
aV3
aV-
aV2.2
p76
aV81.5
p77
aV0.8
p78
aV3
aV7.45
p79
aa(lp80
V2013/2014
p81
aVLiverpool
p82
aVEPL
p83
aV6(13)
p84
aV644
p85
aV1
aV-
aV1
aV-
aV0.6
p86
aV86.6
p87
aV0.1
p88
aV1
aV6.35
p89
aa(lp90
V2014
p91
aVNigeria
p92
aVWC
p93
aV2
aV141
p94
aV-
aV-
aV-
aV-
aV1
aV66.7
p95
aV0.5
p96
aV-
aV6.44
p97
aa(lp98
V2012/2013
p99
aVChelsea
p100
aVUEL
p101
aV5(1)
p102
aV426
p103
aV4
aV-
aV-
aV-
aV2.2
p104
aV83.2
p105
aV1
aV1
aV7.72
p106
aa(lp107
V2012/2013
p108
aVChelsea
p109
aVUCL
p110
aV2(2)
p111
aV196
p112
aV1
aV-
aV-
aV-
aV1.8
p113
aV88.3
p114
aV0.3
p115
aV-
aV6.67
p116
aa(lp117
V2012/2013
p118
aVWigan
p119
aVEPL
p120
aV1
aV90
p121
aV-
aV-
aV-
aV-
aV2
aV90.3
p122
aV-
aV-
aV6.45
p123
aa(lp124
V2012/2013
p125
aVChelsea
p126
aVEPL
p127
aV12(11)
p128
aV1125
p129
aV1
aV1
aV-
aV-
aV1.1
p130
aV81.9
p131
aV0.4
p132
aV1
aV6.56
p133
aa(lp134
V2011/2012
p135
aVWigan
p136
aVEPL
p137
aV36(2)
p138
aV3217
p139
aV6
aV1
aV4
aV-
aV2.7
p140
aV81.2
p141
aV0.2
p142
aV3
aV6.91
p143
aa(lp144
V2010/2011
p145
aVWigan
p146
aVEPL
p147
aV8(13)
p148
aV812
p149
aV1
aV3
aV1
aV-
aV1.1
p150
aV73.2
p151
aV0.3
p152
aV-
aV6.58
p153
aa(lp154
V2009/2010
p155
aVWigan
p156
aVEPL
p157
aV2(12)
p158
aV432
p159
aV1
aV3
aV-
aV-
aV1
aV79.3
p160
aV0.4
p161
aV-
aV6.51
p162
aa(lp163
VTotal / Average
p164
aV
aV
aV241
p165
aV14819
p166
aV26
p167
aV19
p168
aV16
p169
aV0
aV1.5
p170
aV79.9
p171
aV0.5
p172
aV10
p173
aV6.83
p174
aasS'url'
p175
S'https://www.whoscored.com/Players/33064/History/'
p176
sS'passing_data'
p177
(lp178
(lp179
a(lp180
V2018/2019
p181
aVChelsea
p182
aVEPL
p183
aV0(2)
p184
aV26
p185
aV-
aV-
aV-
aV-
aV-
aV76.9
p186
aV-
aV-
aV5.96
p187
aa(lp188
V2018/2019
p189
aVChelsea
p190
aVUEL
p191
aV0(2)
p192
aV49
p193
aV-
aV-
aV-
aV-
aV0.5
p194
aV92.9
p195
aV-
aV-
aV6.33
p196
aa(lp197
V2017/2018
p198
aVChelsea
p199
aVUCL
p200
aV4
aV337
p201
aV-
aV-
aV-
aV-
aV0.8
p202
aV75.7
p203
aV0.5
p204
aV-
aV6.65
p205
aa(lp206
V2017/2018
p207
aVChelsea
p208
aVEPL
p209
aV25(3)
p210
aV2119
p211
aV3
aV3
aV3
aV-
aV1.3
p212
aV76.6
p213
aV1
aV1
aV6.90
p214
aa(lp215
V2016/2017
p216
aVChelsea
p217
aVEPL
p218
aV29(5)
p219
aV2498
p220
aV3
aV2
aV4
aV-
aV1.3
p221
aV79.2
p222
aV1
aV-
aV7.22
p223
aa(lp224
V2018
p225
aVNigeria
p226
aVWC
p227
aV3
aV270
p228
aV1
aV1
aV-
aV-
aV2.3
p229
aV72.9
p230
aV0.3
p231
aV-
aV7.03
p232
aa(lp233
V2015/2016
p234
aVWest Ham
p235
aVEPL
p236
aV13(8)
p237
aV982
p238
aV1
aV2
aV-
aV-
aV1
aV80
p239
aV0.3
p240
aV-
aV6.52
p241
aa(lp242
V2014/2015
p243
aVStoke
p244
aVEPL
p245
aV19
p246
aV1455
p247
aV3
aV3
aV3
aV-
aV2.2
p248
aV81.5
p249
aV0.8
p250
aV3
aV7.45
p251
aa(lp252
V2013/2014
p253
aVLiverpool
p254
aVEPL
p255
aV6(13)
p256
aV644
p257
aV1
aV-
aV1
aV-
aV0.6
p258
aV86.6
p259
aV0.1
p260
aV1
aV6.35
p261
aa(lp262
V2014
p263
aVNigeria
p264
aVWC
p265
aV2
aV141
p266
aV-
aV-
aV-
aV-
aV1
aV66.7
p267
aV0.5
p268
aV-
aV6.44
p269
aa(lp270
V2012/2013
p271
aVChelsea
p272
aVUEL
p273
aV5(1)
p274
aV426
p275
aV4
aV-
aV-
aV-
aV2.2
p276
aV83.2
p277
aV1
aV1
aV7.72
p278
aa(lp279
V2012/2013
p280
aVChelsea
p281
aVUCL
p282
aV2(2)
p283
aV196
p284
aV1
aV-
aV-
aV-
aV1.8
p285
aV88.3
p286
aV0.3
p287
aV-
aV6.67
p288
aa(lp289
V2012/2013
p290
aVWigan
p291
aVEPL
p292
aV1
aV90
p293
aV-
aV-
aV-
aV-
aV2
aV90.3
p294
aV-
aV-
aV6.45
p295
aa(lp296
V2012/2013
p297
aVChelsea
p298
aVEPL
p299
aV12(11)
p300
aV1125
p301
aV1
aV1
aV-
aV-
aV1.1
p302
aV81.9
p303
aV0.4
p304
aV1
aV6.56
p305
aa(lp306
V2011/2012
p307
aVWigan
p308
aVEPL
p309
aV36(2)
p310
aV3217
p311
aV6
aV1
aV4
aV-
aV2.7
p312
aV81.2
p313
aV0.2
p314
aV3
aV6.91
p315
aa(lp316
V2010/2011
p317
aVWigan
p318
aVEPL
p319
aV8(13)
p320
aV812
p321
aV1
aV3
aV1
aV-
aV1.1
p322
aV73.2
p323
aV0.3
p324
aV-
aV6.58
p325
aa(lp326
V2009/2010
p327
aVWigan
p328
aVEPL
p329
aV2(12)
p330
aV432
p331
aV1
aV3
aV-
aV-
aV1
aV79.3
p332
aV0.4
p333
aV-
aV6.51
p334
aa(lp335
VTotal / Average
p336
aV
aV
aV241
p337
aV14819
p338
aV26
p339
aV19
p340
aV16
p341
aV0
aV1.5
p342
aV79.9
p343
aV0.5
p344
aV10
p345
aV6.83
p346
aasS'defensive_data'
p347
(lp348
(lp349
a(lp350
V2018/2019
p351
aVChelsea
p352
aVEPL
p353
aV0(2)
p354
aV26
p355
aV-
aV-
aV-
aV-
aV-
aV76.9
p356
aV-
aV-
aV5.96
p357
aa(lp358
V2018/2019
p359
aVChelsea
p360
aVUEL
p361
aV0(2)
p362
aV49
p363
aV-
aV-
aV-
aV-
aV0.5
p364
aV92.9
p365
aV-
aV-
aV6.33
p366
aa(lp367
V2017/2018
p368
aVChelsea
p369
aVUCL
p370
aV4
aV337
p371
aV-
aV-
aV-
aV-
aV0.8
p372
aV75.7
p373
aV0.5
p374
aV-
aV6.65
p375
aa(lp376
V2017/2018
p377
aVChelsea
p378
aVEPL
p379
aV25(3)
p380
aV2119
p381
aV3
aV3
aV3
aV-
aV1.3
p382
aV76.6
p383
aV1
aV1
aV6.90
p384
aa(lp385
V2016/2017
p386
aVChelsea
p387
aVEPL
p388
aV29(5)
p389
aV2498
p390
aV3
aV2
aV4
aV-
aV1.3
p391
aV79.2
p392
aV1
aV-
aV7.22
p393
aa(lp394
V2018
p395
aVNigeria
p396
aVWC
p397
aV3
aV270
p398
aV1
aV1
aV-
aV-
aV2.3
p399
aV72.9
p400
aV0.3
p401
aV-
aV7.03
p402
aa(lp403
V2015/2016
p404
aVWest Ham
p405
aVEPL
p406
aV13(8)
p407
aV982
p408
aV1
aV2
aV-
aV-
aV1
aV80
p409
aV0.3
p410
aV-
aV6.52
p411
aa(lp412
V2014/2015
p413
aVStoke
p414
aVEPL
p415
aV19
p416
aV1455
p417
aV3
aV3
aV3
aV-
aV2.2
p418
aV81.5
p419
aV0.8
p420
aV3
aV7.45
p421
aa(lp422
V2013/2014
p423
aVLiverpool
p424
aVEPL
p425
aV6(13)
p426
aV644
p427
aV1
aV-
aV1
aV-
aV0.6
p428
aV86.6
p429
aV0.1
p430
aV1
aV6.35
p431
aa(lp432
V2014
p433
aVNigeria
p434
aVWC
p435
aV2
aV141
p436
aV-
aV-
aV-
aV-
aV1
aV66.7
p437
aV0.5
p438
aV-
aV6.44
p439
aa(lp440
V2012/2013
p441
aVChelsea
p442
aVUEL
p443
aV5(1)
p444
aV426
p445
aV4
aV-
aV-
aV-
aV2.2
p446
aV83.2
p447
aV1
aV1
aV7.72
p448
aa(lp449
V2012/2013
p450
aVChelsea
p451
aVUCL
p452
aV2(2)
p453
aV196
p454
aV1
aV-
aV-
aV-
aV1.8
p455
aV88.3
p456
aV0.3
p457
aV-
aV6.67
p458
aa(lp459
V2012/2013
p460
aVWigan
p461
aVEPL
p462
aV1
aV90
p463
aV-
aV-
aV-
aV-
aV2
aV90.3
p464
aV-
aV-
aV6.45
p465
aa(lp466
V2012/2013
p467
aVChelsea
p468
aVEPL
p469
aV12(11)
p470
aV1125
p471
aV1
aV1
aV-
aV-
aV1.1
p472
aV81.9
p473
aV0.4
p474
aV1
aV6.56
p475
aa(lp476
V2011/2012
p477
aVWigan
p478
aVEPL
p479
aV36(2)
p480
aV3217
p481
aV6
aV1
aV4
aV-
aV2.7
p482
aV81.2
p483
aV0.2
p484
aV3
aV6.91
p485
aa(lp486
V2010/2011
p487
aVWigan
p488
aVEPL
p489
aV8(13)
p490
aV812
p491
aV1
aV3
aV1
aV-
aV1.1
p492
aV73.2
p493
aV0.3
p494
aV-
aV6.58
p495
aa(lp496
V2009/2010
p497
aVWigan
p498
aVEPL
p499
aV2(12)
p500
aV432
p501
aV1
aV3
aV-
aV-
aV1
aV79.3
p502
aV0.4
p503
aV-
aV6.51
p504
aa(lp505
VTotal / Average
p506
aV
aV
aV241
p507
aV14819
p508
aV26
p509
aV19
p510
aV16
p511
aV0
aV1.5
p512
aV79.9
p513
aV0.5
p514
aV10
p515
aV6.83
p516
aasS'sumary_data'
p517
(lp518
(lp519
a(lp520
V2018/2019
p521
aVChelsea
p522
aVEPL
p523
aV0(2)
p524
aV26
p525
aV-
aV-
aV-
aV-
aV-
aV76.9
p526
aV-
aV-
aV5.96
p527
aa(lp528
V2018/2019
p529
aVChelsea
p530
aVUEL
p531
aV0(2)
p532
aV49
p533
aV-
aV-
aV-
aV-
aV0.5
p534
aV92.9
p535
aV-
aV-
aV6.33
p536
aa(lp537
V2017/2018
p538
aVChelsea
p539
aVUCL
p540
aV4
aV337
p541
aV-
aV-
aV-
aV-
aV0.8
p542
aV75.7
p543
aV0.5
p544
aV-
aV6.65
p545
aa(lp546
V2017/2018
p547
aVChelsea
p548
aVEPL
p549
aV25(3)
p550
aV2119
p551
aV3
aV3
aV3
aV-
aV1.3
p552
aV76.6
p553
aV1
aV1
aV6.90
p554
aa(lp555
V2016/2017
p556
aVChelsea
p557
aVEPL
p558
aV29(5)
p559
aV2498
p560
aV3
aV2
aV4
aV-
aV1.3
p561
aV79.2
p562
aV1
aV-
aV7.22
p563
aa(lp564
V2018
p565
aVNigeria
p566
aVWC
p567
aV3
aV270
p568
aV1
aV1
aV-
aV-
aV2.3
p569
aV72.9
p570
aV0.3
p571
aV-
aV7.03
p572
aa(lp573
V2015/2016
p574
aVWest Ham
p575
aVEPL
p576
aV13(8)
p577
aV982
p578
aV1
aV2
aV-
aV-
aV1
aV80
p579
aV0.3
p580
aV-
aV6.52
p581
aa(lp582
V2014/2015
p583
aVStoke
p584
aVEPL
p585
aV19
p586
aV1455
p587
aV3
aV3
aV3
aV-
aV2.2
p588
aV81.5
p589
aV0.8
p590
aV3
aV7.45
p591
aa(lp592
V2013/2014
p593
aVLiverpool
p594
aVEPL
p595
aV6(13)
p596
aV644
p597
aV1
aV-
aV1
aV-
aV0.6
p598
aV86.6
p599
aV0.1
p600
aV1
aV6.35
p601
aa(lp602
V2014
p603
aVNigeria
p604
aVWC
p605
aV2
aV141
p606
aV-
aV-
aV-
aV-
aV1
aV66.7
p607
aV0.5
p608
aV-
aV6.44
p609
aa(lp610
V2012/2013
p611
aVChelsea
p612
aVUEL
p613
aV5(1)
p614
aV426
p615
aV4
aV-
aV-
aV-
aV2.2
p616
aV83.2
p617
aV1
aV1
aV7.72
p618
aa(lp619
V2012/2013
p620
aVChelsea
p621
aVUCL
p622
aV2(2)
p623
aV196
p624
aV1
aV-
aV-
aV-
aV1.8
p625
aV88.3
p626
aV0.3
p627
aV-
aV6.67
p628
aa(lp629
V2012/2013
p630
aVWigan
p631
aVEPL
p632
aV1
aV90
p633
aV-
aV-
aV-
aV-
aV2
aV90.3
p634
aV-
aV-
aV6.45
p635
aa(lp636
V2012/2013
p637
aVChelsea
p638
aVEPL
p639
aV12(11)
p640
aV1125
p641
aV1
aV1
aV-
aV-
aV1.1
p642
aV81.9
p643
aV0.4
p644
aV1
aV6.56
p645
aa(lp646
V2011/2012
p647
aVWigan
p648
aVEPL
p649
aV36(2)
p650
aV3217
p651
aV6
aV1
aV4
aV-
aV2.7
p652
aV81.2
p653
aV0.2
p654
aV3
aV6.91
p655
aa(lp656
V2010/2011
p657
aVWigan
p658
aVEPL
p659
aV8(13)
p660
aV812
p661
aV1
aV3
aV1
aV-
aV1.1
p662
aV73.2
p663
aV0.3
p664
aV-
aV6.58
p665
aa(lp666
V2009/2010
p667
aVWigan
p668
aVEPL
p669
aV2(12)
p670
aV432
p671
aV1
aV3
aV-
aV-
aV1
aV79.3
p672
aV0.4
p673
aV-
aV6.51
p674
aa(lp675
VTotal / Average
p676
aV
aV
aV241
p677
aV14819
p678
aV26
p679
aV19
p680
aV16
p681
aV0
aV1.5
p682
aV79.9
p683
aV0.5
p684
aV10
p685
aV6.83
p686
aasS'id'
p687
V33064
p688
sb.