(i__main__
Player
p1
(dp2
S'name'
p3
VPhil Foden 
p4
sS'offensive_data'
p5
(lp6
(lp7
a(lp8
V2018/2019
p9
aVManchester Ci..
p10
aVEPL
p11
aV0(8)
p12
aV93
p13
aV-
aV-
aV-
aV-
aV0.4
p14
aV90.1
p15
aV-
aV-
aV6.23
p16
aa(lp17
V2018/2019
p18
aVManchester Ci..
p19
aVUCL
p20
aV1(2)
p21
aV94
p22
aV-
aV-
aV-
aV-
aV1.7
p23
aV84.8
p24
aV0.3
p25
aV-
aV6.47
p26
aa(lp27
V2017/2018
p28
aVManchester Ci..
p29
aVUCL
p30
aV2(1)
p31
aV195
p32
aV-
aV-
aV-
aV-
aV0.3
p33
aV89.2
p34
aV0.3
p35
aV-
aV6.34
p36
aa(lp37
V2017/2018
p38
aVManchester Ci..
p39
aVEPL
p40
aV0(5)
p41
aV45
p42
aV-
aV1
aV-
aV-
aV-
aV90.9
p43
aV-
aV-
aV6.30
p44
aa(lp45
VTotal / Average
p46
aV
aV
aV19
p47
aV427
p48
aV0
aV1
aV0
aV0
aV0.5
p49
aV89.3
p50
aV0.1
p51
aV0
aV6.30
p52
aasS'url'
p53
S'https://www.whoscored.com/Players/331254/History/'
p54
sS'passing_data'
p55
(lp56
(lp57
a(lp58
V2018/2019
p59
aVManchester Ci..
p60
aVEPL
p61
aV0(8)
p62
aV93
p63
aV-
aV-
aV-
aV-
aV0.4
p64
aV90.1
p65
aV-
aV-
aV6.23
p66
aa(lp67
V2018/2019
p68
aVManchester Ci..
p69
aVUCL
p70
aV1(2)
p71
aV94
p72
aV-
aV-
aV-
aV-
aV1.7
p73
aV84.8
p74
aV0.3
p75
aV-
aV6.47
p76
aa(lp77
V2017/2018
p78
aVManchester Ci..
p79
aVUCL
p80
aV2(1)
p81
aV195
p82
aV-
aV-
aV-
aV-
aV0.3
p83
aV89.2
p84
aV0.3
p85
aV-
aV6.34
p86
aa(lp87
V2017/2018
p88
aVManchester Ci..
p89
aVEPL
p90
aV0(5)
p91
aV45
p92
aV-
aV1
aV-
aV-
aV-
aV90.9
p93
aV-
aV-
aV6.30
p94
aa(lp95
VTotal / Average
p96
aV
aV
aV19
p97
aV427
p98
aV0
aV1
aV0
aV0
aV0.5
p99
aV89.3
p100
aV0.1
p101
aV0
aV6.30
p102
aasS'defensive_data'
p103
(lp104
(lp105
a(lp106
V2018/2019
p107
aVManchester Ci..
p108
aVEPL
p109
aV0(8)
p110
aV93
p111
aV-
aV-
aV-
aV-
aV0.4
p112
aV90.1
p113
aV-
aV-
aV6.23
p114
aa(lp115
V2018/2019
p116
aVManchester Ci..
p117
aVUCL
p118
aV1(2)
p119
aV94
p120
aV-
aV-
aV-
aV-
aV1.7
p121
aV84.8
p122
aV0.3
p123
aV-
aV6.47
p124
aa(lp125
V2017/2018
p126
aVManchester Ci..
p127
aVUCL
p128
aV2(1)
p129
aV195
p130
aV-
aV-
aV-
aV-
aV0.3
p131
aV89.2
p132
aV0.3
p133
aV-
aV6.34
p134
aa(lp135
V2017/2018
p136
aVManchester Ci..
p137
aVEPL
p138
aV0(5)
p139
aV45
p140
aV-
aV1
aV-
aV-
aV-
aV90.9
p141
aV-
aV-
aV6.30
p142
aa(lp143
VTotal / Average
p144
aV
aV
aV19
p145
aV427
p146
aV0
aV1
aV0
aV0
aV0.5
p147
aV89.3
p148
aV0.1
p149
aV0
aV6.30
p150
aasS'sumary_data'
p151
(lp152
(lp153
a(lp154
V2018/2019
p155
aVManchester Ci..
p156
aVEPL
p157
aV0(8)
p158
aV93
p159
aV-
aV-
aV-
aV-
aV0.4
p160
aV90.1
p161
aV-
aV-
aV6.23
p162
aa(lp163
V2018/2019
p164
aVManchester Ci..
p165
aVUCL
p166
aV1(2)
p167
aV94
p168
aV-
aV-
aV-
aV-
aV1.7
p169
aV84.8
p170
aV0.3
p171
aV-
aV6.47
p172
aa(lp173
V2017/2018
p174
aVManchester Ci..
p175
aVUCL
p176
aV2(1)
p177
aV195
p178
aV-
aV-
aV-
aV-
aV0.3
p179
aV89.2
p180
aV0.3
p181
aV-
aV6.34
p182
aa(lp183
V2017/2018
p184
aVManchester Ci..
p185
aVEPL
p186
aV0(5)
p187
aV45
p188
aV-
aV1
aV-
aV-
aV-
aV90.9
p189
aV-
aV-
aV6.30
p190
aa(lp191
VTotal / Average
p192
aV
aV
aV19
p193
aV427
p194
aV0
aV1
aV0
aV0
aV0.5
p195
aV89.3
p196
aV0.1
p197
aV0
aV6.30
p198
aasS'id'
p199
V331254
p200
sb.