(i__main__
Player
p1
(dp2
S'name'
p3
VDomingos Quina 
p4
sS'offensive_data'
p5
(lp6
(lp7
a(lp8
V2018/2019
p9
aVWatford
p10
aVEPL
p11
aV2(1)
p12
aV218
p13
aV1
aV-
aV-
aV-
aV1.3
p14
aV85.5
p15
aV0.3
p16
aV-
aV6.85
p17
aa(lp18
VTotal / Average
p19
aV
aV
aV3
aV218
p20
aV1
aV0
aV0
aV0
aV1.3
p21
aV85.5
p22
aV0.3
p23
aV0
aV6.85
p24
aasS'url'
p25
S'https://www.whoscored.com/Players/331582/History/'
p26
sS'passing_data'
p27
(lp28
(lp29
a(lp30
V2018/2019
p31
aVWatford
p32
aVEPL
p33
aV2(1)
p34
aV218
p35
aV1
aV-
aV-
aV-
aV1.3
p36
aV85.5
p37
aV0.3
p38
aV-
aV6.85
p39
aa(lp40
VTotal / Average
p41
aV
aV
aV3
aV218
p42
aV1
aV0
aV0
aV0
aV1.3
p43
aV85.5
p44
aV0.3
p45
aV0
aV6.85
p46
aasS'defensive_data'
p47
(lp48
(lp49
a(lp50
V2018/2019
p51
aVWatford
p52
aVEPL
p53
aV2(1)
p54
aV218
p55
aV1
aV-
aV-
aV-
aV1.3
p56
aV85.5
p57
aV0.3
p58
aV-
aV6.85
p59
aa(lp60
VTotal / Average
p61
aV
aV
aV3
aV218
p62
aV1
aV0
aV0
aV0
aV1.3
p63
aV85.5
p64
aV0.3
p65
aV0
aV6.85
p66
aasS'sumary_data'
p67
(lp68
(lp69
a(lp70
V2018/2019
p71
aVWatford
p72
aVEPL
p73
aV2(1)
p74
aV218
p75
aV1
aV-
aV-
aV-
aV1.3
p76
aV85.5
p77
aV0.3
p78
aV-
aV6.85
p79
aa(lp80
VTotal / Average
p81
aV
aV
aV3
aV218
p82
aV1
aV0
aV0
aV0
aV1.3
p83
aV85.5
p84
aV0.3
p85
aV0
aV6.85
p86
aasS'id'
p87
V331582
p88
sb.