(i__main__
Player
p1
(dp2
S'name'
p3
VAaron Wan-Bissaka 
p4
sS'offensive_data'
p5
(lp6
(lp7
a(lp8
V2018/2019
p9
aVCrystal Palac..
p10
aVEPL
p11
aV16
p12
aV1425
p13
aV-
aV1
aV1
aV1
aV0.3
p14
aV71.8
p15
aV1.4
p16
aV2
aV7.27
p17
aa(lp18
V2017/2018
p19
aVCrystal Palac..
p20
aVEPL
p21
aV7
aV628
p22
aV-
aV-
aV1
aV-
aV-
aV72.9
p23
aV1.3
p24
aV-
aV7.52
p25
aa(lp26
VTotal / Average
p27
aV
aV
aV23
p28
aV2053
p29
aV0
aV1
aV2
aV1
aV0.2
p30
aV72.1
p31
aV1.4
p32
aV2
aV7.35
p33
aasS'url'
p34
S'https://www.whoscored.com/Players/331924/History/'
p35
sS'passing_data'
p36
(lp37
(lp38
a(lp39
V2018/2019
p40
aVCrystal Palac..
p41
aVEPL
p42
aV16
p43
aV1425
p44
aV-
aV1
aV1
aV1
aV0.3
p45
aV71.8
p46
aV1.4
p47
aV2
aV7.27
p48
aa(lp49
V2017/2018
p50
aVCrystal Palac..
p51
aVEPL
p52
aV7
aV628
p53
aV-
aV-
aV1
aV-
aV-
aV72.9
p54
aV1.3
p55
aV-
aV7.52
p56
aa(lp57
VTotal / Average
p58
aV
aV
aV23
p59
aV2053
p60
aV0
aV1
aV2
aV1
aV0.2
p61
aV72.1
p62
aV1.4
p63
aV2
aV7.35
p64
aasS'defensive_data'
p65
(lp66
(lp67
a(lp68
V2018/2019
p69
aVCrystal Palac..
p70
aVEPL
p71
aV16
p72
aV1425
p73
aV-
aV1
aV1
aV1
aV0.3
p74
aV71.8
p75
aV1.4
p76
aV2
aV7.27
p77
aa(lp78
V2017/2018
p79
aVCrystal Palac..
p80
aVEPL
p81
aV7
aV628
p82
aV-
aV-
aV1
aV-
aV-
aV72.9
p83
aV1.3
p84
aV-
aV7.52
p85
aa(lp86
VTotal / Average
p87
aV
aV
aV23
p88
aV2053
p89
aV0
aV1
aV2
aV1
aV0.2
p90
aV72.1
p91
aV1.4
p92
aV2
aV7.35
p93
aasS'sumary_data'
p94
(lp95
(lp96
a(lp97
V2018/2019
p98
aVCrystal Palac..
p99
aVEPL
p100
aV16
p101
aV1425
p102
aV-
aV1
aV1
aV1
aV0.3
p103
aV71.8
p104
aV1.4
p105
aV2
aV7.27
p106
aa(lp107
V2017/2018
p108
aVCrystal Palac..
p109
aVEPL
p110
aV7
aV628
p111
aV-
aV-
aV1
aV-
aV-
aV72.9
p112
aV1.3
p113
aV-
aV7.52
p114
aa(lp115
VTotal / Average
p116
aV
aV
aV23
p117
aV2053
p118
aV0
aV1
aV2
aV1
aV0.2
p119
aV72.1
p120
aV1.4
p121
aV2
aV7.35
p122
aasS'id'
p123
V331924
p124
sb.