(i__main__
Player
p1
(dp2
S'name'
p3
VDeclan Rice 
p4
sS'offensive_data'
p5
(lp6
(lp7
a(lp8
V2018/2019
p9
aVWest Ham
p10
aVEPL
p11
aV14
p12
aV1216
p13
aV-
aV-
aV1
aV-
aV0.4
p14
aV84.9
p15
aV1.9
p16
aV-
aV6.93
p17
aa(lp18
V2017/2018
p19
aVWest Ham
p20
aVEPL
p21
aV15(11)
p22
aV1424
p23
aV-
aV-
aV1
aV-
aV0.2
p24
aV78.6
p25
aV1.2
p26
aV-
aV6.49
p27
aa(lp28
V2016/2017
p29
aVWest Ham
p30
aVEPL
p31
aV0(1)
p32
aV1
aV-
aV-
aV-
aV-
aV-
aV100
p33
aV-
aV-
aV6.00
p34
aa(lp35
VTotal / Average
p36
aV
aV
aV41
p37
aV2641
p38
aV0
aV0
aV2
aV0
aV0.3
p39
aV81.3
p40
aV1.4
p41
aV0
aV6.63
p42
aasS'url'
p43
S'https://www.whoscored.com/Players/332325/History/'
p44
sS'passing_data'
p45
(lp46
(lp47
a(lp48
V2018/2019
p49
aVWest Ham
p50
aVEPL
p51
aV14
p52
aV1216
p53
aV-
aV-
aV1
aV-
aV0.4
p54
aV84.9
p55
aV1.9
p56
aV-
aV6.93
p57
aa(lp58
V2017/2018
p59
aVWest Ham
p60
aVEPL
p61
aV15(11)
p62
aV1424
p63
aV-
aV-
aV1
aV-
aV0.2
p64
aV78.6
p65
aV1.2
p66
aV-
aV6.49
p67
aa(lp68
V2016/2017
p69
aVWest Ham
p70
aVEPL
p71
aV0(1)
p72
aV1
aV-
aV-
aV-
aV-
aV-
aV100
p73
aV-
aV-
aV6.00
p74
aa(lp75
VTotal / Average
p76
aV
aV
aV41
p77
aV2641
p78
aV0
aV0
aV2
aV0
aV0.3
p79
aV81.3
p80
aV1.4
p81
aV0
aV6.63
p82
aasS'defensive_data'
p83
(lp84
(lp85
a(lp86
V2018/2019
p87
aVWest Ham
p88
aVEPL
p89
aV14
p90
aV1216
p91
aV-
aV-
aV1
aV-
aV0.4
p92
aV84.9
p93
aV1.9
p94
aV-
aV6.93
p95
aa(lp96
V2017/2018
p97
aVWest Ham
p98
aVEPL
p99
aV15(11)
p100
aV1424
p101
aV-
aV-
aV1
aV-
aV0.2
p102
aV78.6
p103
aV1.2
p104
aV-
aV6.49
p105
aa(lp106
V2016/2017
p107
aVWest Ham
p108
aVEPL
p109
aV0(1)
p110
aV1
aV-
aV-
aV-
aV-
aV-
aV100
p111
aV-
aV-
aV6.00
p112
aa(lp113
VTotal / Average
p114
aV
aV
aV41
p115
aV2641
p116
aV0
aV0
aV2
aV0
aV0.3
p117
aV81.3
p118
aV1.4
p119
aV0
aV6.63
p120
aasS'sumary_data'
p121
(lp122
(lp123
a(lp124
V2018/2019
p125
aVWest Ham
p126
aVEPL
p127
aV14
p128
aV1216
p129
aV-
aV-
aV1
aV-
aV0.4
p130
aV84.9
p131
aV1.9
p132
aV-
aV6.93
p133
aa(lp134
V2017/2018
p135
aVWest Ham
p136
aVEPL
p137
aV15(11)
p138
aV1424
p139
aV-
aV-
aV1
aV-
aV0.2
p140
aV78.6
p141
aV1.2
p142
aV-
aV6.49
p143
aa(lp144
V2016/2017
p145
aVWest Ham
p146
aVEPL
p147
aV0(1)
p148
aV1
aV-
aV-
aV-
aV-
aV-
aV100
p149
aV-
aV-
aV6.00
p150
aa(lp151
VTotal / Average
p152
aV
aV
aV41
p153
aV2641
p154
aV0
aV0
aV2
aV0
aV0.3
p155
aV81.3
p156
aV1.4
p157
aV0
aV6.63
p158
aasS'id'
p159
V332325
p160
sb.