(i__main__
Player
p1
(dp2
S'name'
p3
VMorgan Gibbs-White 
p4
sS'offensive_data'
p5
(lp6
(lp7
a(lp8
V2018/2019
p9
aVWolverhampton..
p10
aVEPL
p11
aV2(9)
p12
aV304
p13
aV-
aV1
aV1
aV-
aV0.4
p14
aV83.9
p15
aV0.4
p16
aV-
aV6.29
p17
aa(lp18
V2017/2018
p19
aVWolverhampton..
p20
aVEC
p21
aV1(12)
p22
aV241
p23
aV-
aV-
aV-
aV-
aV0.2
p24
aV88.1
p25
aV0.2
p26
aV-
aV6.25
p27
aa(lp28
V2016/2017
p29
aVWolverhampton..
p30
aVEC
p31
aV2(5)
p32
aV198
p33
aV-
aV-
aV-
aV-
aV0.1
p34
aV65.7
p35
aV0.1
p36
aV-
aV6.12
p37
aa(lp38
VTotal / Average
p39
aV
aV
aV31
p40
aV743
p41
aV0
aV1
aV1
aV0
aV0.2
p42
aV81.5
p43
aV0.3
p44
aV0
aV6.24
p45
aasS'url'
p46
S'https://www.whoscored.com/Players/332867/History/'
p47
sS'passing_data'
p48
(lp49
(lp50
a(lp51
V2018/2019
p52
aVWolverhampton..
p53
aVEPL
p54
aV2(9)
p55
aV304
p56
aV-
aV1
aV1
aV-
aV0.4
p57
aV83.9
p58
aV0.4
p59
aV-
aV6.29
p60
aa(lp61
V2017/2018
p62
aVWolverhampton..
p63
aVEC
p64
aV1(12)
p65
aV241
p66
aV-
aV-
aV-
aV-
aV0.2
p67
aV88.1
p68
aV0.2
p69
aV-
aV6.25
p70
aa(lp71
V2016/2017
p72
aVWolverhampton..
p73
aVEC
p74
aV2(5)
p75
aV198
p76
aV-
aV-
aV-
aV-
aV0.1
p77
aV65.7
p78
aV0.1
p79
aV-
aV6.12
p80
aa(lp81
VTotal / Average
p82
aV
aV
aV31
p83
aV743
p84
aV0
aV1
aV1
aV0
aV0.2
p85
aV81.5
p86
aV0.3
p87
aV0
aV6.24
p88
aasS'defensive_data'
p89
(lp90
(lp91
a(lp92
V2018/2019
p93
aVWolverhampton..
p94
aVEPL
p95
aV2(9)
p96
aV304
p97
aV-
aV1
aV1
aV-
aV0.4
p98
aV83.9
p99
aV0.4
p100
aV-
aV6.29
p101
aa(lp102
V2017/2018
p103
aVWolverhampton..
p104
aVEC
p105
aV1(12)
p106
aV241
p107
aV-
aV-
aV-
aV-
aV0.2
p108
aV88.1
p109
aV0.2
p110
aV-
aV6.25
p111
aa(lp112
V2016/2017
p113
aVWolverhampton..
p114
aVEC
p115
aV2(5)
p116
aV198
p117
aV-
aV-
aV-
aV-
aV0.1
p118
aV65.7
p119
aV0.1
p120
aV-
aV6.12
p121
aa(lp122
VTotal / Average
p123
aV
aV
aV31
p124
aV743
p125
aV0
aV1
aV1
aV0
aV0.2
p126
aV81.5
p127
aV0.3
p128
aV0
aV6.24
p129
aasS'sumary_data'
p130
(lp131
(lp132
a(lp133
V2018/2019
p134
aVWolverhampton..
p135
aVEPL
p136
aV2(9)
p137
aV304
p138
aV-
aV1
aV1
aV-
aV0.4
p139
aV83.9
p140
aV0.4
p141
aV-
aV6.29
p142
aa(lp143
V2017/2018
p144
aVWolverhampton..
p145
aVEC
p146
aV1(12)
p147
aV241
p148
aV-
aV-
aV-
aV-
aV0.2
p149
aV88.1
p150
aV0.2
p151
aV-
aV6.25
p152
aa(lp153
V2016/2017
p154
aVWolverhampton..
p155
aVEC
p156
aV2(5)
p157
aV198
p158
aV-
aV-
aV-
aV-
aV0.1
p159
aV65.7
p160
aV0.1
p161
aV-
aV6.12
p162
aa(lp163
VTotal / Average
p164
aV
aV
aV31
p165
aV743
p166
aV0
aV1
aV1
aV0
aV0.2
p167
aV81.5
p168
aV0.3
p169
aV0
aV6.24
p170
aasS'id'
p171
V332867
p172
sb.