(i__main__
Player
p1
(dp2
S'name'
p3
VBeram Kayal 
p4
sS'offensive_data'
p5
(lp6
(lp7
a(lp8
V2018/2019
p9
aVBrighton
p10
aVEPL
p11
aV7(3)
p12
aV689
p13
aV1
aV1
aV4
aV-
aV0.3
p14
aV69.6
p15
aV1.2
p16
aV1
aV6.77
p17
aa(lp18
V2018/2019
p19
aVIsrael
p20
aVUNL
p21
aV4
aV334
p22
aV1
aV-
aV-
aV-
aV1.5
p23
aV81.6
p24
aV1
aV-
aV6.88
p25
aa(lp26
V2017/2018
p27
aVBrighton
p28
aVEPL
p29
aV8(11)
p30
aV740
p31
aV-
aV-
aV2
aV-
aV0.2
p32
aV78.9
p33
aV0.4
p34
aV-
aV6.26
p35
aa(lp36
V2016/2017
p37
aVBrighton
p38
aVEC
p39
aV17(3)
p40
aV1390
p41
aV-
aV1
aV1
aV-
aV0.7
p42
aV80.6
p43
aV0.8
p44
aV-
aV6.94
p45
aa(lp46
V2015/2016
p47
aVBrighton
p48
aVEC
p49
aV45
p50
aV3977
p51
aV2
aV7
aV11
p52
aV-
aV1.5
p53
aV81.4
p54
aV0.9
p55
aV2
aV7.16
p56
aa(lp57
V2014/2015
p58
aVCeltic
p59
aVUEL
p60
aV0(3)
p61
aV34
p62
aV-
aV-
aV-
aV-
aV0.3
p63
aV94.4
p64
aV0.3
p65
aV-
aV6.14
p66
aa(lp67
V2014/2015
p68
aVBrighton
p69
aVEC
p70
aV17(1)
p71
aV1379
p72
aV1
aV-
aV4
aV-
aV1.2
p73
aV81.7
p74
aV0.9
p75
aV1
aV7.17
p76
aa(lp77
V2013/2014
p78
aVCeltic
p79
aVUCL
p80
aV3(1)
p81
aV200
p82
aV1
aV-
aV-
aV-
aV1.5
p83
aV79.6
p84
aV0.3
p85
aV1
aV6.77
p86
aa(lp87
V2012/2013
p88
aVCeltic
p89
aVUCL
p90
aV2(4)
p91
aV245
p92
aV-
aV-
aV1
aV-
aV0.7
p93
aV78
p94
aV0.3
p95
aV-
aV6.38
p96
aa(lp97
V2009/2010
p98
aVMaccabi Haifa
p99
aVUCL
p100
aV4
aV339
p101
aV-
aV-
aV-
aV1
aV1.5
p102
aV75.2
p103
aV0.8
p104
aV-
aV6.81
p105
aa(lp106
VTotal / Average
p107
aV
aV
aV133
p108
aV9327
p109
aV6
aV9
aV23
p110
aV1
aV1
aV80
p111
aV0.8
p112
aV5
aV6.88
p113
aasS'url'
p114
S'https://www.whoscored.com/Players/33318/History/'
p115
sS'passing_data'
p116
(lp117
(lp118
a(lp119
V2018/2019
p120
aVBrighton
p121
aVEPL
p122
aV7(3)
p123
aV689
p124
aV1
aV1
aV4
aV-
aV0.3
p125
aV69.6
p126
aV1.2
p127
aV1
aV6.77
p128
aa(lp129
V2018/2019
p130
aVIsrael
p131
aVUNL
p132
aV4
aV334
p133
aV1
aV-
aV-
aV-
aV1.5
p134
aV81.6
p135
aV1
aV-
aV6.88
p136
aa(lp137
V2017/2018
p138
aVBrighton
p139
aVEPL
p140
aV8(11)
p141
aV740
p142
aV-
aV-
aV2
aV-
aV0.2
p143
aV78.9
p144
aV0.4
p145
aV-
aV6.26
p146
aa(lp147
V2016/2017
p148
aVBrighton
p149
aVEC
p150
aV17(3)
p151
aV1390
p152
aV-
aV1
aV1
aV-
aV0.7
p153
aV80.6
p154
aV0.8
p155
aV-
aV6.94
p156
aa(lp157
V2015/2016
p158
aVBrighton
p159
aVEC
p160
aV45
p161
aV3977
p162
aV2
aV7
aV11
p163
aV-
aV1.5
p164
aV81.4
p165
aV0.9
p166
aV2
aV7.16
p167
aa(lp168
V2014/2015
p169
aVCeltic
p170
aVUEL
p171
aV0(3)
p172
aV34
p173
aV-
aV-
aV-
aV-
aV0.3
p174
aV94.4
p175
aV0.3
p176
aV-
aV6.14
p177
aa(lp178
V2014/2015
p179
aVBrighton
p180
aVEC
p181
aV17(1)
p182
aV1379
p183
aV1
aV-
aV4
aV-
aV1.2
p184
aV81.7
p185
aV0.9
p186
aV1
aV7.17
p187
aa(lp188
V2013/2014
p189
aVCeltic
p190
aVUCL
p191
aV3(1)
p192
aV200
p193
aV1
aV-
aV-
aV-
aV1.5
p194
aV79.6
p195
aV0.3
p196
aV1
aV6.77
p197
aa(lp198
V2012/2013
p199
aVCeltic
p200
aVUCL
p201
aV2(4)
p202
aV245
p203
aV-
aV-
aV1
aV-
aV0.7
p204
aV78
p205
aV0.3
p206
aV-
aV6.38
p207
aa(lp208
V2009/2010
p209
aVMaccabi Haifa
p210
aVUCL
p211
aV4
aV339
p212
aV-
aV-
aV-
aV1
aV1.5
p213
aV75.2
p214
aV0.8
p215
aV-
aV6.81
p216
aa(lp217
VTotal / Average
p218
aV
aV
aV133
p219
aV9327
p220
aV6
aV9
aV23
p221
aV1
aV1
aV80
p222
aV0.8
p223
aV5
aV6.88
p224
aasS'defensive_data'
p225
(lp226
(lp227
a(lp228
V2018/2019
p229
aVBrighton
p230
aVEPL
p231
aV7(3)
p232
aV689
p233
aV1
aV1
aV4
aV-
aV0.3
p234
aV69.6
p235
aV1.2
p236
aV1
aV6.77
p237
aa(lp238
V2018/2019
p239
aVIsrael
p240
aVUNL
p241
aV4
aV334
p242
aV1
aV-
aV-
aV-
aV1.5
p243
aV81.6
p244
aV1
aV-
aV6.88
p245
aa(lp246
V2017/2018
p247
aVBrighton
p248
aVEPL
p249
aV8(11)
p250
aV740
p251
aV-
aV-
aV2
aV-
aV0.2
p252
aV78.9
p253
aV0.4
p254
aV-
aV6.26
p255
aa(lp256
V2016/2017
p257
aVBrighton
p258
aVEC
p259
aV17(3)
p260
aV1390
p261
aV-
aV1
aV1
aV-
aV0.7
p262
aV80.6
p263
aV0.8
p264
aV-
aV6.94
p265
aa(lp266
V2015/2016
p267
aVBrighton
p268
aVEC
p269
aV45
p270
aV3977
p271
aV2
aV7
aV11
p272
aV-
aV1.5
p273
aV81.4
p274
aV0.9
p275
aV2
aV7.16
p276
aa(lp277
V2014/2015
p278
aVCeltic
p279
aVUEL
p280
aV0(3)
p281
aV34
p282
aV-
aV-
aV-
aV-
aV0.3
p283
aV94.4
p284
aV0.3
p285
aV-
aV6.14
p286
aa(lp287
V2014/2015
p288
aVBrighton
p289
aVEC
p290
aV17(1)
p291
aV1379
p292
aV1
aV-
aV4
aV-
aV1.2
p293
aV81.7
p294
aV0.9
p295
aV1
aV7.17
p296
aa(lp297
V2013/2014
p298
aVCeltic
p299
aVUCL
p300
aV3(1)
p301
aV200
p302
aV1
aV-
aV-
aV-
aV1.5
p303
aV79.6
p304
aV0.3
p305
aV1
aV6.77
p306
aa(lp307
V2012/2013
p308
aVCeltic
p309
aVUCL
p310
aV2(4)
p311
aV245
p312
aV-
aV-
aV1
aV-
aV0.7
p313
aV78
p314
aV0.3
p315
aV-
aV6.38
p316
aa(lp317
V2009/2010
p318
aVMaccabi Haifa
p319
aVUCL
p320
aV4
aV339
p321
aV-
aV-
aV-
aV1
aV1.5
p322
aV75.2
p323
aV0.8
p324
aV-
aV6.81
p325
aa(lp326
VTotal / Average
p327
aV
aV
aV133
p328
aV9327
p329
aV6
aV9
aV23
p330
aV1
aV1
aV80
p331
aV0.8
p332
aV5
aV6.88
p333
aasS'sumary_data'
p334
(lp335
(lp336
a(lp337
V2018/2019
p338
aVBrighton
p339
aVEPL
p340
aV7(3)
p341
aV689
p342
aV1
aV1
aV4
aV-
aV0.3
p343
aV69.6
p344
aV1.2
p345
aV1
aV6.77
p346
aa(lp347
V2018/2019
p348
aVIsrael
p349
aVUNL
p350
aV4
aV334
p351
aV1
aV-
aV-
aV-
aV1.5
p352
aV81.6
p353
aV1
aV-
aV6.88
p354
aa(lp355
V2017/2018
p356
aVBrighton
p357
aVEPL
p358
aV8(11)
p359
aV740
p360
aV-
aV-
aV2
aV-
aV0.2
p361
aV78.9
p362
aV0.4
p363
aV-
aV6.26
p364
aa(lp365
V2016/2017
p366
aVBrighton
p367
aVEC
p368
aV17(3)
p369
aV1390
p370
aV-
aV1
aV1
aV-
aV0.7
p371
aV80.6
p372
aV0.8
p373
aV-
aV6.94
p374
aa(lp375
V2015/2016
p376
aVBrighton
p377
aVEC
p378
aV45
p379
aV3977
p380
aV2
aV7
aV11
p381
aV-
aV1.5
p382
aV81.4
p383
aV0.9
p384
aV2
aV7.16
p385
aa(lp386
V2014/2015
p387
aVCeltic
p388
aVUEL
p389
aV0(3)
p390
aV34
p391
aV-
aV-
aV-
aV-
aV0.3
p392
aV94.4
p393
aV0.3
p394
aV-
aV6.14
p395
aa(lp396
V2014/2015
p397
aVBrighton
p398
aVEC
p399
aV17(1)
p400
aV1379
p401
aV1
aV-
aV4
aV-
aV1.2
p402
aV81.7
p403
aV0.9
p404
aV1
aV7.17
p405
aa(lp406
V2013/2014
p407
aVCeltic
p408
aVUCL
p409
aV3(1)
p410
aV200
p411
aV1
aV-
aV-
aV-
aV1.5
p412
aV79.6
p413
aV0.3
p414
aV1
aV6.77
p415
aa(lp416
V2012/2013
p417
aVCeltic
p418
aVUCL
p419
aV2(4)
p420
aV245
p421
aV-
aV-
aV1
aV-
aV0.7
p422
aV78
p423
aV0.3
p424
aV-
aV6.38
p425
aa(lp426
V2009/2010
p427
aVMaccabi Haifa
p428
aVUCL
p429
aV4
aV339
p430
aV-
aV-
aV-
aV1
aV1.5
p431
aV75.2
p432
aV0.8
p433
aV-
aV6.81
p434
aa(lp435
VTotal / Average
p436
aV
aV
aV133
p437
aV9327
p438
aV6
aV9
aV23
p439
aV1
aV1
aV80
p440
aV0.8
p441
aV5
aV6.88
p442
aasS'id'
p443
V33318
p444
sb.