(i__main__
Player
p1
(dp2
S'name'
p3
VAbdelhamid Sabiri 
p4
sS'offensive_data'
p5
(lp6
(lp7
a(lp8
V2018/2019
p9
aVHuddersfield
p10
aVEPL
p11
aV1(1)
p12
aV50
p13
aV-
aV-
aV-
aV-
aV-
aV87.5
p14
aV-
aV-
aV6.16
p15
aa(lp16
V2017/2018
p17
aVHuddersfield
p18
aVEPL
p19
aV2(3)
p20
aV221
p21
aV-
aV1
aV1
aV-
aV1
aV67.3
p22
aV2.8
p23
aV-
aV6.30
p24
aa(lp25
V2016/2017
p26
aVNuernberg
p27
aVGB2
p28
aV7(2)
p29
aV620
p30
aV5
aV-
aV2
aV-
aV2.8
p31
aV65.6
p32
aV3.7
p33
aV3
aV7.37
p34
aa(lp35
VTotal / Average
p36
aV
aV
aV16
p37
aV891
p38
aV5
aV1
aV3
aV0
aV1.9
p39
aV68.9
p40
aV2.9
p41
aV3
aV6.88
p42
aasS'url'
p43
S'https://www.whoscored.com/Players/333255/History/'
p44
sS'passing_data'
p45
(lp46
(lp47
a(lp48
V2018/2019
p49
aVHuddersfield
p50
aVEPL
p51
aV1(1)
p52
aV50
p53
aV-
aV-
aV-
aV-
aV-
aV87.5
p54
aV-
aV-
aV6.16
p55
aa(lp56
V2017/2018
p57
aVHuddersfield
p58
aVEPL
p59
aV2(3)
p60
aV221
p61
aV-
aV1
aV1
aV-
aV1
aV67.3
p62
aV2.8
p63
aV-
aV6.30
p64
aa(lp65
V2016/2017
p66
aVNuernberg
p67
aVGB2
p68
aV7(2)
p69
aV620
p70
aV5
aV-
aV2
aV-
aV2.8
p71
aV65.6
p72
aV3.7
p73
aV3
aV7.37
p74
aa(lp75
VTotal / Average
p76
aV
aV
aV16
p77
aV891
p78
aV5
aV1
aV3
aV0
aV1.9
p79
aV68.9
p80
aV2.9
p81
aV3
aV6.88
p82
aasS'defensive_data'
p83
(lp84
(lp85
a(lp86
V2018/2019
p87
aVHuddersfield
p88
aVEPL
p89
aV1(1)
p90
aV50
p91
aV-
aV-
aV-
aV-
aV-
aV87.5
p92
aV-
aV-
aV6.16
p93
aa(lp94
V2017/2018
p95
aVHuddersfield
p96
aVEPL
p97
aV2(3)
p98
aV221
p99
aV-
aV1
aV1
aV-
aV1
aV67.3
p100
aV2.8
p101
aV-
aV6.30
p102
aa(lp103
V2016/2017
p104
aVNuernberg
p105
aVGB2
p106
aV7(2)
p107
aV620
p108
aV5
aV-
aV2
aV-
aV2.8
p109
aV65.6
p110
aV3.7
p111
aV3
aV7.37
p112
aa(lp113
VTotal / Average
p114
aV
aV
aV16
p115
aV891
p116
aV5
aV1
aV3
aV0
aV1.9
p117
aV68.9
p118
aV2.9
p119
aV3
aV6.88
p120
aasS'sumary_data'
p121
(lp122
(lp123
a(lp124
V2018/2019
p125
aVHuddersfield
p126
aVEPL
p127
aV1(1)
p128
aV50
p129
aV-
aV-
aV-
aV-
aV-
aV87.5
p130
aV-
aV-
aV6.16
p131
aa(lp132
V2017/2018
p133
aVHuddersfield
p134
aVEPL
p135
aV2(3)
p136
aV221
p137
aV-
aV1
aV1
aV-
aV1
aV67.3
p138
aV2.8
p139
aV-
aV6.30
p140
aa(lp141
V2016/2017
p142
aVNuernberg
p143
aVGB2
p144
aV7(2)
p145
aV620
p146
aV5
aV-
aV2
aV-
aV2.8
p147
aV65.6
p148
aV3.7
p149
aV3
aV7.37
p150
aa(lp151
VTotal / Average
p152
aV
aV
aV16
p153
aV891
p154
aV5
aV1
aV3
aV0
aV1.9
p155
aV68.9
p156
aV2.9
p157
aV3
aV6.88
p158
aasS'id'
p159
V333255
p160
sb.