(i__main__
Player
p1
(dp2
S'name'
p3
VAshley Barnes 
p4
sS'offensive_data'
p5
(lp6
(lp7
a(lp8
V2018/2019
p9
aVBurnley
p10
aVEPL
p11
aV5(11)
p12
aV552
p13
aV2
aV-
aV1
aV-
aV0.9
p14
aV61.8
p15
aV1.4
p16
aV-
aV6.27
p17
aa(lp18
V2017/2018
p19
aVBurnley
p20
aVEPL
p21
aV21(15)
p22
aV2159
p23
aV9
aV-
aV10
p24
aV-
aV1.7
p25
aV60.8
p26
aV2.5
p27
aV1
aV6.57
p28
aa(lp29
V2016/2017
p30
aVBurnley
p31
aVEPL
p32
aV20(8)
p33
aV1779
p34
aV6
aV2
aV6
aV1
aV1.6
p35
aV55
p36
aV3.6
p37
aV-
aV6.62
p38
aa(lp39
V2015/2016
p40
aVBurnley
p41
aVEC
p42
aV1(7)
p43
aV193
p44
aV-
aV-
aV1
aV-
aV0.5
p45
aV50
p46
aV1.9
p47
aV-
aV6.24
p48
aa(lp49
V2014/2015
p50
aVBurnley
p51
aVEPL
p52
aV28(7)
p53
aV2428
p54
aV5
aV2
aV4
aV1
aV1.9
p55
aV63.1
p56
aV4.1
p57
aV1
aV6.71
p58
aa(lp59
V2013/2014
p60
aVBrighton
p61
aVEC
p62
aV17(5)
p63
aV1525
p64
aV5
aV1
aV3
aV-
aV2.5
p65
aV65.1
p66
aV1.9
p67
aV-
aV6.62
p68
aa(lp69
V2013/2014
p70
aVBurnley
p71
aVEC
p72
aV11(10)
p73
aV1104
p74
aV3
aV1
aV1
aV-
aV1.5
p75
aV59.6
p76
aV1.9
p77
aV-
aV6.48
p78
aa(lp79
VTotal / Average
p80
aV
aV
aV166
p81
aV9740
p82
aV30
p83
aV6
aV26
p84
aV2
aV1.7
p85
aV60.3
p86
aV2.7
p87
aV2
aV6.56
p88
aasS'url'
p89
S'https://www.whoscored.com/Players/33386/History/'
p90
sS'passing_data'
p91
(lp92
(lp93
a(lp94
V2018/2019
p95
aVBurnley
p96
aVEPL
p97
aV5(11)
p98
aV552
p99
aV2
aV-
aV1
aV-
aV0.9
p100
aV61.8
p101
aV1.4
p102
aV-
aV6.27
p103
aa(lp104
V2017/2018
p105
aVBurnley
p106
aVEPL
p107
aV21(15)
p108
aV2159
p109
aV9
aV-
aV10
p110
aV-
aV1.7
p111
aV60.8
p112
aV2.5
p113
aV1
aV6.57
p114
aa(lp115
V2016/2017
p116
aVBurnley
p117
aVEPL
p118
aV20(8)
p119
aV1779
p120
aV6
aV2
aV6
aV1
aV1.6
p121
aV55
p122
aV3.6
p123
aV-
aV6.62
p124
aa(lp125
V2015/2016
p126
aVBurnley
p127
aVEC
p128
aV1(7)
p129
aV193
p130
aV-
aV-
aV1
aV-
aV0.5
p131
aV50
p132
aV1.9
p133
aV-
aV6.24
p134
aa(lp135
V2014/2015
p136
aVBurnley
p137
aVEPL
p138
aV28(7)
p139
aV2428
p140
aV5
aV2
aV4
aV1
aV1.9
p141
aV63.1
p142
aV4.1
p143
aV1
aV6.71
p144
aa(lp145
V2013/2014
p146
aVBrighton
p147
aVEC
p148
aV17(5)
p149
aV1525
p150
aV5
aV1
aV3
aV-
aV2.5
p151
aV65.1
p152
aV1.9
p153
aV-
aV6.62
p154
aa(lp155
V2013/2014
p156
aVBurnley
p157
aVEC
p158
aV11(10)
p159
aV1104
p160
aV3
aV1
aV1
aV-
aV1.5
p161
aV59.6
p162
aV1.9
p163
aV-
aV6.48
p164
aa(lp165
VTotal / Average
p166
aV
aV
aV166
p167
aV9740
p168
aV30
p169
aV6
aV26
p170
aV2
aV1.7
p171
aV60.3
p172
aV2.7
p173
aV2
aV6.56
p174
aasS'defensive_data'
p175
(lp176
(lp177
a(lp178
V2018/2019
p179
aVBurnley
p180
aVEPL
p181
aV5(11)
p182
aV552
p183
aV2
aV-
aV1
aV-
aV0.9
p184
aV61.8
p185
aV1.4
p186
aV-
aV6.27
p187
aa(lp188
V2017/2018
p189
aVBurnley
p190
aVEPL
p191
aV21(15)
p192
aV2159
p193
aV9
aV-
aV10
p194
aV-
aV1.7
p195
aV60.8
p196
aV2.5
p197
aV1
aV6.57
p198
aa(lp199
V2016/2017
p200
aVBurnley
p201
aVEPL
p202
aV20(8)
p203
aV1779
p204
aV6
aV2
aV6
aV1
aV1.6
p205
aV55
p206
aV3.6
p207
aV-
aV6.62
p208
aa(lp209
V2015/2016
p210
aVBurnley
p211
aVEC
p212
aV1(7)
p213
aV193
p214
aV-
aV-
aV1
aV-
aV0.5
p215
aV50
p216
aV1.9
p217
aV-
aV6.24
p218
aa(lp219
V2014/2015
p220
aVBurnley
p221
aVEPL
p222
aV28(7)
p223
aV2428
p224
aV5
aV2
aV4
aV1
aV1.9
p225
aV63.1
p226
aV4.1
p227
aV1
aV6.71
p228
aa(lp229
V2013/2014
p230
aVBrighton
p231
aVEC
p232
aV17(5)
p233
aV1525
p234
aV5
aV1
aV3
aV-
aV2.5
p235
aV65.1
p236
aV1.9
p237
aV-
aV6.62
p238
aa(lp239
V2013/2014
p240
aVBurnley
p241
aVEC
p242
aV11(10)
p243
aV1104
p244
aV3
aV1
aV1
aV-
aV1.5
p245
aV59.6
p246
aV1.9
p247
aV-
aV6.48
p248
aa(lp249
VTotal / Average
p250
aV
aV
aV166
p251
aV9740
p252
aV30
p253
aV6
aV26
p254
aV2
aV1.7
p255
aV60.3
p256
aV2.7
p257
aV2
aV6.56
p258
aasS'sumary_data'
p259
(lp260
(lp261
a(lp262
V2018/2019
p263
aVBurnley
p264
aVEPL
p265
aV5(11)
p266
aV552
p267
aV2
aV-
aV1
aV-
aV0.9
p268
aV61.8
p269
aV1.4
p270
aV-
aV6.27
p271
aa(lp272
V2017/2018
p273
aVBurnley
p274
aVEPL
p275
aV21(15)
p276
aV2159
p277
aV9
aV-
aV10
p278
aV-
aV1.7
p279
aV60.8
p280
aV2.5
p281
aV1
aV6.57
p282
aa(lp283
V2016/2017
p284
aVBurnley
p285
aVEPL
p286
aV20(8)
p287
aV1779
p288
aV6
aV2
aV6
aV1
aV1.6
p289
aV55
p290
aV3.6
p291
aV-
aV6.62
p292
aa(lp293
V2015/2016
p294
aVBurnley
p295
aVEC
p296
aV1(7)
p297
aV193
p298
aV-
aV-
aV1
aV-
aV0.5
p299
aV50
p300
aV1.9
p301
aV-
aV6.24
p302
aa(lp303
V2014/2015
p304
aVBurnley
p305
aVEPL
p306
aV28(7)
p307
aV2428
p308
aV5
aV2
aV4
aV1
aV1.9
p309
aV63.1
p310
aV4.1
p311
aV1
aV6.71
p312
aa(lp313
V2013/2014
p314
aVBrighton
p315
aVEC
p316
aV17(5)
p317
aV1525
p318
aV5
aV1
aV3
aV-
aV2.5
p319
aV65.1
p320
aV1.9
p321
aV-
aV6.62
p322
aa(lp323
V2013/2014
p324
aVBurnley
p325
aVEC
p326
aV11(10)
p327
aV1104
p328
aV3
aV1
aV1
aV-
aV1.5
p329
aV59.6
p330
aV1.9
p331
aV-
aV6.48
p332
aa(lp333
VTotal / Average
p334
aV
aV
aV166
p335
aV9740
p336
aV30
p337
aV6
aV26
p338
aV2
aV1.7
p339
aV60.3
p340
aV2.7
p341
aV2
aV6.56
p342
aasS'id'
p343
V33386
p344
sb.