(i__main__
Player
p1
(dp2
S'name'
p3
VEden Hazard 
p4
sS'offensive_data'
p5
(lp6
(lp7
a(lp8
V2018/2019
p9
aVChelsea
p10
aVEPL
p11
aV13(3)
p12
aV1226
p13
aV8
aV9
aV2
aV-
aV2.7
p14
aV84.6
p15
aV0.9
p16
aV7
aV7.91
p17
aa(lp18
V2018/2019
p19
aVChelsea
p20
aVUEL
p21
aV1(1)
p22
aV98
p23
aV-
aV-
aV-
aV-
aV1
aV88.1
p24
aV-
aV-
aV7.53
p25
aa(lp26
V2018/2019
p27
aVBelgium
p28
aVUNL
p29
aV4
aV344
p30
aV1
aV-
aV-
aV-
aV2.5
p31
aV82.8
p32
aV0.5
p33
aV-
aV7.38
p34
aa(lp35
V2017/2018
p36
aVChelsea
p37
aVUCL
p38
aV7(1)
p39
aV611
p40
aV3
aV3
aV-
aV-
aV2.8
p41
aV77.6
p42
aV0.5
p43
aV2
aV7.72
p44
aa(lp45
V2017/2018
p46
aVChelsea
p47
aVEPL
p48
aV28(6)
p49
aV2433
p50
aV12
p51
aV4
aV2
aV-
aV2.1
p52
aV83.6
p53
aV0.2
p54
aV9
aV7.69
p55
aa(lp56
V2016/2017
p57
aVChelsea
p58
aVEPL
p59
aV36
p60
aV3007
p61
aV16
p62
aV5
aV3
aV-
aV2.1
p63
aV84.2
p64
aV0.6
p65
aV13
p66
aV7.81
p67
aa(lp68
V2018
p69
aVBelgium
p70
aVWC
p71
aV6
aV518
p72
aV3
aV2
aV1
aV-
aV2.8
p73
aV81.7
p74
aV1
aV4
aV8.51
p75
aa(lp76
V2015/2016
p77
aVChelsea
p78
aVUCL
p79
aV6(2)
p80
aV526
p81
aV-
aV1
aV-
aV-
aV1.9
p82
aV84.6
p83
aV0.3
p84
aV-
aV7.10
p85
aa(lp86
V2015/2016
p87
aVChelsea
p88
aVEPL
p89
aV25(6)
p90
aV2192
p91
aV4
aV3
aV2
aV-
aV1.2
p92
aV86
p93
aV0.4
p94
aV5
aV7.11
p95
aa(lp96
V2014/2015
p97
aVChelsea
p98
aVUCL
p99
aV7
aV654
p100
aV3
aV2
aV1
aV-
aV2.3
p101
aV82
p102
aV0.1
p103
aV2
aV8.40
p104
aa(lp105
V2014/2015
p106
aVChelsea
p107
aVEPL
p108
aV38
p109
aV3379
p110
aV14
p111
aV9
aV2
aV-
aV2.1
p112
aV86.8
p113
aV0.4
p114
aV10
p115
aV7.96
p116
aa(lp117
V2016
p118
aVBelgium
p119
aVUEC
p120
aV5
aV441
p121
aV1
aV4
aV-
aV-
aV2.4
p122
aV88.5
p123
aV0.2
p124
aV1
aV7.92
p125
aa(lp126
V2013/2014
p127
aVChelsea
p128
aVUCL
p129
aV8(1)
p130
aV682
p131
aV2
aV-
aV-
aV-
aV1.4
p132
aV86.2
p133
aV0.3
p134
aV1
aV7.41
p135
aa(lp136
V2013/2014
p137
aVChelsea
p138
aVEPL
p139
aV32(3)
p140
aV2898
p141
aV14
p142
aV7
aV2
aV-
aV2.1
p143
aV83.4
p144
aV0.5
p145
aV6
aV7.68
p146
aa(lp147
V2014
p148
aVBelgium
p149
aVWC
p150
aV4(1)
p151
aV368
p152
aV-
aV2
aV1
aV-
aV1.4
p153
aV82
p154
aV-
aV2
aV7.44
p155
aa(lp156
V2012/2013
p157
aVChelsea
p158
aVUEL
p159
aV5(2)
p160
aV449
p161
aV1
aV1
aV-
aV-
aV1.3
p162
aV77.9
p163
aV0.6
p164
aV-
aV7.31
p165
aa(lp166
V2012/2013
p167
aVChelsea
p168
aVUCL
p169
aV4(2)
p170
aV457
p171
aV-
aV2
aV-
aV-
aV1.8
p172
aV81.7
p173
aV0.8
p174
aV-
aV7.39
p175
aa(lp176
V2012/2013
p177
aVChelsea
p178
aVEPL
p179
aV31(3)
p180
aV2640
p181
aV9
aV11
p182
aV2
aV-
aV1.9
p183
aV85.1
p184
aV0.2
p185
aV5
aV7.33
p186
aa(lp187
V2011/2012
p188
aVLille
p189
aVUCL
p190
aV6
aV540
p191
aV-
aV1
aV1
aV-
aV2.5
p192
aV82.9
p193
aV0.5
p194
aV1
aV7.48
p195
aa(lp196
V2011/2012
p197
aVLille
p198
aVFL1
p199
aV35(3)
p200
aV3212
p201
aV20
p202
aV16
p203
aV2
aV-
aV2.8
p204
aV81.9
p205
aV0.1
p206
aV10
p207
aV7.80
p208
aa(lp209
V2010/2011
p210
aVLille
p211
aVFL1
p212
aV35(3)
p213
aV3085
p214
aV7
aV10
p215
aV2
aV-
aV1
aV80.4
p216
aV0.3
p217
aV7
aV7.47
p218
aa(lp219
V2009/2010
p220
aVLille
p221
aVFL1
p222
aV31(6)
p223
aV2696
p224
aV5
aV8
aV3
aV-
aV1.4
p225
aV77.3
p226
aV0.2
p227
aV3
aV7.20
p228
aa(lp229
VTotal / Average
p230
aV
aV
aV410
p231
aV32456
p232
aV123
p233
aV100
p234
aV26
p235
aV0
aV1.9
p236
aV83.1
p237
aV0.4
p238
aV88
p239
aV7.59
p240
aasS'url'
p241
S'https://www.whoscored.com/Players/33404/History/'
p242
sS'passing_data'
p243
(lp244
(lp245
a(lp246
V2018/2019
p247
aVChelsea
p248
aVEPL
p249
aV13(3)
p250
aV1226
p251
aV8
aV9
aV2
aV-
aV2.7
p252
aV84.6
p253
aV0.9
p254
aV7
aV7.91
p255
aa(lp256
V2018/2019
p257
aVChelsea
p258
aVUEL
p259
aV1(1)
p260
aV98
p261
aV-
aV-
aV-
aV-
aV1
aV88.1
p262
aV-
aV-
aV7.53
p263
aa(lp264
V2018/2019
p265
aVBelgium
p266
aVUNL
p267
aV4
aV344
p268
aV1
aV-
aV-
aV-
aV2.5
p269
aV82.8
p270
aV0.5
p271
aV-
aV7.38
p272
aa(lp273
V2017/2018
p274
aVChelsea
p275
aVUCL
p276
aV7(1)
p277
aV611
p278
aV3
aV3
aV-
aV-
aV2.8
p279
aV77.6
p280
aV0.5
p281
aV2
aV7.72
p282
aa(lp283
V2017/2018
p284
aVChelsea
p285
aVEPL
p286
aV28(6)
p287
aV2433
p288
aV12
p289
aV4
aV2
aV-
aV2.1
p290
aV83.6
p291
aV0.2
p292
aV9
aV7.69
p293
aa(lp294
V2016/2017
p295
aVChelsea
p296
aVEPL
p297
aV36
p298
aV3007
p299
aV16
p300
aV5
aV3
aV-
aV2.1
p301
aV84.2
p302
aV0.6
p303
aV13
p304
aV7.81
p305
aa(lp306
V2018
p307
aVBelgium
p308
aVWC
p309
aV6
aV518
p310
aV3
aV2
aV1
aV-
aV2.8
p311
aV81.7
p312
aV1
aV4
aV8.51
p313
aa(lp314
V2015/2016
p315
aVChelsea
p316
aVUCL
p317
aV6(2)
p318
aV526
p319
aV-
aV1
aV-
aV-
aV1.9
p320
aV84.6
p321
aV0.3
p322
aV-
aV7.10
p323
aa(lp324
V2015/2016
p325
aVChelsea
p326
aVEPL
p327
aV25(6)
p328
aV2192
p329
aV4
aV3
aV2
aV-
aV1.2
p330
aV86
p331
aV0.4
p332
aV5
aV7.11
p333
aa(lp334
V2014/2015
p335
aVChelsea
p336
aVUCL
p337
aV7
aV654
p338
aV3
aV2
aV1
aV-
aV2.3
p339
aV82
p340
aV0.1
p341
aV2
aV8.40
p342
aa(lp343
V2014/2015
p344
aVChelsea
p345
aVEPL
p346
aV38
p347
aV3379
p348
aV14
p349
aV9
aV2
aV-
aV2.1
p350
aV86.8
p351
aV0.4
p352
aV10
p353
aV7.96
p354
aa(lp355
V2016
p356
aVBelgium
p357
aVUEC
p358
aV5
aV441
p359
aV1
aV4
aV-
aV-
aV2.4
p360
aV88.5
p361
aV0.2
p362
aV1
aV7.92
p363
aa(lp364
V2013/2014
p365
aVChelsea
p366
aVUCL
p367
aV8(1)
p368
aV682
p369
aV2
aV-
aV-
aV-
aV1.4
p370
aV86.2
p371
aV0.3
p372
aV1
aV7.41
p373
aa(lp374
V2013/2014
p375
aVChelsea
p376
aVEPL
p377
aV32(3)
p378
aV2898
p379
aV14
p380
aV7
aV2
aV-
aV2.1
p381
aV83.4
p382
aV0.5
p383
aV6
aV7.68
p384
aa(lp385
V2014
p386
aVBelgium
p387
aVWC
p388
aV4(1)
p389
aV368
p390
aV-
aV2
aV1
aV-
aV1.4
p391
aV82
p392
aV-
aV2
aV7.44
p393
aa(lp394
V2012/2013
p395
aVChelsea
p396
aVUEL
p397
aV5(2)
p398
aV449
p399
aV1
aV1
aV-
aV-
aV1.3
p400
aV77.9
p401
aV0.6
p402
aV-
aV7.31
p403
aa(lp404
V2012/2013
p405
aVChelsea
p406
aVUCL
p407
aV4(2)
p408
aV457
p409
aV-
aV2
aV-
aV-
aV1.8
p410
aV81.7
p411
aV0.8
p412
aV-
aV7.39
p413
aa(lp414
V2012/2013
p415
aVChelsea
p416
aVEPL
p417
aV31(3)
p418
aV2640
p419
aV9
aV11
p420
aV2
aV-
aV1.9
p421
aV85.1
p422
aV0.2
p423
aV5
aV7.33
p424
aa(lp425
V2011/2012
p426
aVLille
p427
aVUCL
p428
aV6
aV540
p429
aV-
aV1
aV1
aV-
aV2.5
p430
aV82.9
p431
aV0.5
p432
aV1
aV7.48
p433
aa(lp434
V2011/2012
p435
aVLille
p436
aVFL1
p437
aV35(3)
p438
aV3212
p439
aV20
p440
aV16
p441
aV2
aV-
aV2.8
p442
aV81.9
p443
aV0.1
p444
aV10
p445
aV7.80
p446
aa(lp447
V2010/2011
p448
aVLille
p449
aVFL1
p450
aV35(3)
p451
aV3085
p452
aV7
aV10
p453
aV2
aV-
aV1
aV80.4
p454
aV0.3
p455
aV7
aV7.47
p456
aa(lp457
V2009/2010
p458
aVLille
p459
aVFL1
p460
aV31(6)
p461
aV2696
p462
aV5
aV8
aV3
aV-
aV1.4
p463
aV77.3
p464
aV0.2
p465
aV3
aV7.20
p466
aa(lp467
VTotal / Average
p468
aV
aV
aV410
p469
aV32456
p470
aV123
p471
aV100
p472
aV26
p473
aV0
aV1.9
p474
aV83.1
p475
aV0.4
p476
aV88
p477
aV7.59
p478
aasS'defensive_data'
p479
(lp480
(lp481
a(lp482
V2018/2019
p483
aVChelsea
p484
aVEPL
p485
aV13(3)
p486
aV1226
p487
aV8
aV9
aV2
aV-
aV2.7
p488
aV84.6
p489
aV0.9
p490
aV7
aV7.91
p491
aa(lp492
V2018/2019
p493
aVChelsea
p494
aVUEL
p495
aV1(1)
p496
aV98
p497
aV-
aV-
aV-
aV-
aV1
aV88.1
p498
aV-
aV-
aV7.53
p499
aa(lp500
V2018/2019
p501
aVBelgium
p502
aVUNL
p503
aV4
aV344
p504
aV1
aV-
aV-
aV-
aV2.5
p505
aV82.8
p506
aV0.5
p507
aV-
aV7.38
p508
aa(lp509
V2017/2018
p510
aVChelsea
p511
aVUCL
p512
aV7(1)
p513
aV611
p514
aV3
aV3
aV-
aV-
aV2.8
p515
aV77.6
p516
aV0.5
p517
aV2
aV7.72
p518
aa(lp519
V2017/2018
p520
aVChelsea
p521
aVEPL
p522
aV28(6)
p523
aV2433
p524
aV12
p525
aV4
aV2
aV-
aV2.1
p526
aV83.6
p527
aV0.2
p528
aV9
aV7.69
p529
aa(lp530
V2016/2017
p531
aVChelsea
p532
aVEPL
p533
aV36
p534
aV3007
p535
aV16
p536
aV5
aV3
aV-
aV2.1
p537
aV84.2
p538
aV0.6
p539
aV13
p540
aV7.81
p541
aa(lp542
V2018
p543
aVBelgium
p544
aVWC
p545
aV6
aV518
p546
aV3
aV2
aV1
aV-
aV2.8
p547
aV81.7
p548
aV1
aV4
aV8.51
p549
aa(lp550
V2015/2016
p551
aVChelsea
p552
aVUCL
p553
aV6(2)
p554
aV526
p555
aV-
aV1
aV-
aV-
aV1.9
p556
aV84.6
p557
aV0.3
p558
aV-
aV7.10
p559
aa(lp560
V2015/2016
p561
aVChelsea
p562
aVEPL
p563
aV25(6)
p564
aV2192
p565
aV4
aV3
aV2
aV-
aV1.2
p566
aV86
p567
aV0.4
p568
aV5
aV7.11
p569
aa(lp570
V2014/2015
p571
aVChelsea
p572
aVUCL
p573
aV7
aV654
p574
aV3
aV2
aV1
aV-
aV2.3
p575
aV82
p576
aV0.1
p577
aV2
aV8.40
p578
aa(lp579
V2014/2015
p580
aVChelsea
p581
aVEPL
p582
aV38
p583
aV3379
p584
aV14
p585
aV9
aV2
aV-
aV2.1
p586
aV86.8
p587
aV0.4
p588
aV10
p589
aV7.96
p590
aa(lp591
V2016
p592
aVBelgium
p593
aVUEC
p594
aV5
aV441
p595
aV1
aV4
aV-
aV-
aV2.4
p596
aV88.5
p597
aV0.2
p598
aV1
aV7.92
p599
aa(lp600
V2013/2014
p601
aVChelsea
p602
aVUCL
p603
aV8(1)
p604
aV682
p605
aV2
aV-
aV-
aV-
aV1.4
p606
aV86.2
p607
aV0.3
p608
aV1
aV7.41
p609
aa(lp610
V2013/2014
p611
aVChelsea
p612
aVEPL
p613
aV32(3)
p614
aV2898
p615
aV14
p616
aV7
aV2
aV-
aV2.1
p617
aV83.4
p618
aV0.5
p619
aV6
aV7.68
p620
aa(lp621
V2014
p622
aVBelgium
p623
aVWC
p624
aV4(1)
p625
aV368
p626
aV-
aV2
aV1
aV-
aV1.4
p627
aV82
p628
aV-
aV2
aV7.44
p629
aa(lp630
V2012/2013
p631
aVChelsea
p632
aVUEL
p633
aV5(2)
p634
aV449
p635
aV1
aV1
aV-
aV-
aV1.3
p636
aV77.9
p637
aV0.6
p638
aV-
aV7.31
p639
aa(lp640
V2012/2013
p641
aVChelsea
p642
aVUCL
p643
aV4(2)
p644
aV457
p645
aV-
aV2
aV-
aV-
aV1.8
p646
aV81.7
p647
aV0.8
p648
aV-
aV7.39
p649
aa(lp650
V2012/2013
p651
aVChelsea
p652
aVEPL
p653
aV31(3)
p654
aV2640
p655
aV9
aV11
p656
aV2
aV-
aV1.9
p657
aV85.1
p658
aV0.2
p659
aV5
aV7.33
p660
aa(lp661
V2011/2012
p662
aVLille
p663
aVUCL
p664
aV6
aV540
p665
aV-
aV1
aV1
aV-
aV2.5
p666
aV82.9
p667
aV0.5
p668
aV1
aV7.48
p669
aa(lp670
V2011/2012
p671
aVLille
p672
aVFL1
p673
aV35(3)
p674
aV3212
p675
aV20
p676
aV16
p677
aV2
aV-
aV2.8
p678
aV81.9
p679
aV0.1
p680
aV10
p681
aV7.80
p682
aa(lp683
V2010/2011
p684
aVLille
p685
aVFL1
p686
aV35(3)
p687
aV3085
p688
aV7
aV10
p689
aV2
aV-
aV1
aV80.4
p690
aV0.3
p691
aV7
aV7.47
p692
aa(lp693
V2009/2010
p694
aVLille
p695
aVFL1
p696
aV31(6)
p697
aV2696
p698
aV5
aV8
aV3
aV-
aV1.4
p699
aV77.3
p700
aV0.2
p701
aV3
aV7.20
p702
aa(lp703
VTotal / Average
p704
aV
aV
aV410
p705
aV32456
p706
aV123
p707
aV100
p708
aV26
p709
aV0
aV1.9
p710
aV83.1
p711
aV0.4
p712
aV88
p713
aV7.59
p714
aasS'sumary_data'
p715
(lp716
(lp717
a(lp718
V2018/2019
p719
aVChelsea
p720
aVEPL
p721
aV13(3)
p722
aV1226
p723
aV8
aV9
aV2
aV-
aV2.7
p724
aV84.6
p725
aV0.9
p726
aV7
aV7.91
p727
aa(lp728
V2018/2019
p729
aVChelsea
p730
aVUEL
p731
aV1(1)
p732
aV98
p733
aV-
aV-
aV-
aV-
aV1
aV88.1
p734
aV-
aV-
aV7.53
p735
aa(lp736
V2018/2019
p737
aVBelgium
p738
aVUNL
p739
aV4
aV344
p740
aV1
aV-
aV-
aV-
aV2.5
p741
aV82.8
p742
aV0.5
p743
aV-
aV7.38
p744
aa(lp745
V2017/2018
p746
aVChelsea
p747
aVUCL
p748
aV7(1)
p749
aV611
p750
aV3
aV3
aV-
aV-
aV2.8
p751
aV77.6
p752
aV0.5
p753
aV2
aV7.72
p754
aa(lp755
V2017/2018
p756
aVChelsea
p757
aVEPL
p758
aV28(6)
p759
aV2433
p760
aV12
p761
aV4
aV2
aV-
aV2.1
p762
aV83.6
p763
aV0.2
p764
aV9
aV7.69
p765
aa(lp766
V2016/2017
p767
aVChelsea
p768
aVEPL
p769
aV36
p770
aV3007
p771
aV16
p772
aV5
aV3
aV-
aV2.1
p773
aV84.2
p774
aV0.6
p775
aV13
p776
aV7.81
p777
aa(lp778
V2018
p779
aVBelgium
p780
aVWC
p781
aV6
aV518
p782
aV3
aV2
aV1
aV-
aV2.8
p783
aV81.7
p784
aV1
aV4
aV8.51
p785
aa(lp786
V2015/2016
p787
aVChelsea
p788
aVUCL
p789
aV6(2)
p790
aV526
p791
aV-
aV1
aV-
aV-
aV1.9
p792
aV84.6
p793
aV0.3
p794
aV-
aV7.10
p795
aa(lp796
V2015/2016
p797
aVChelsea
p798
aVEPL
p799
aV25(6)
p800
aV2192
p801
aV4
aV3
aV2
aV-
aV1.2
p802
aV86
p803
aV0.4
p804
aV5
aV7.11
p805
aa(lp806
V2014/2015
p807
aVChelsea
p808
aVUCL
p809
aV7
aV654
p810
aV3
aV2
aV1
aV-
aV2.3
p811
aV82
p812
aV0.1
p813
aV2
aV8.40
p814
aa(lp815
V2014/2015
p816
aVChelsea
p817
aVEPL
p818
aV38
p819
aV3379
p820
aV14
p821
aV9
aV2
aV-
aV2.1
p822
aV86.8
p823
aV0.4
p824
aV10
p825
aV7.96
p826
aa(lp827
V2016
p828
aVBelgium
p829
aVUEC
p830
aV5
aV441
p831
aV1
aV4
aV-
aV-
aV2.4
p832
aV88.5
p833
aV0.2
p834
aV1
aV7.92
p835
aa(lp836
V2013/2014
p837
aVChelsea
p838
aVUCL
p839
aV8(1)
p840
aV682
p841
aV2
aV-
aV-
aV-
aV1.4
p842
aV86.2
p843
aV0.3
p844
aV1
aV7.41
p845
aa(lp846
V2013/2014
p847
aVChelsea
p848
aVEPL
p849
aV32(3)
p850
aV2898
p851
aV14
p852
aV7
aV2
aV-
aV2.1
p853
aV83.4
p854
aV0.5
p855
aV6
aV7.68
p856
aa(lp857
V2014
p858
aVBelgium
p859
aVWC
p860
aV4(1)
p861
aV368
p862
aV-
aV2
aV1
aV-
aV1.4
p863
aV82
p864
aV-
aV2
aV7.44
p865
aa(lp866
V2012/2013
p867
aVChelsea
p868
aVUEL
p869
aV5(2)
p870
aV449
p871
aV1
aV1
aV-
aV-
aV1.3
p872
aV77.9
p873
aV0.6
p874
aV-
aV7.31
p875
aa(lp876
V2012/2013
p877
aVChelsea
p878
aVUCL
p879
aV4(2)
p880
aV457
p881
aV-
aV2
aV-
aV-
aV1.8
p882
aV81.7
p883
aV0.8
p884
aV-
aV7.39
p885
aa(lp886
V2012/2013
p887
aVChelsea
p888
aVEPL
p889
aV31(3)
p890
aV2640
p891
aV9
aV11
p892
aV2
aV-
aV1.9
p893
aV85.1
p894
aV0.2
p895
aV5
aV7.33
p896
aa(lp897
V2011/2012
p898
aVLille
p899
aVUCL
p900
aV6
aV540
p901
aV-
aV1
aV1
aV-
aV2.5
p902
aV82.9
p903
aV0.5
p904
aV1
aV7.48
p905
aa(lp906
V2011/2012
p907
aVLille
p908
aVFL1
p909
aV35(3)
p910
aV3212
p911
aV20
p912
aV16
p913
aV2
aV-
aV2.8
p914
aV81.9
p915
aV0.1
p916
aV10
p917
aV7.80
p918
aa(lp919
V2010/2011
p920
aVLille
p921
aVFL1
p922
aV35(3)
p923
aV3085
p924
aV7
aV10
p925
aV2
aV-
aV1
aV80.4
p926
aV0.3
p927
aV7
aV7.47
p928
aa(lp929
V2009/2010
p930
aVLille
p931
aVFL1
p932
aV31(6)
p933
aV2696
p934
aV5
aV8
aV3
aV-
aV1.4
p935
aV77.3
p936
aV0.2
p937
aV3
aV7.20
p938
aa(lp939
VTotal / Average
p940
aV
aV
aV410
p941
aV32456
p942
aV123
p943
aV100
p944
aV26
p945
aV0
aV1.9
p946
aV83.1
p947
aV0.4
p948
aV88
p949
aV7.59
p950
aasS'id'
p951
V33404
p952
sb.