(i__main__
Player
p1
(dp2
S'name'
p3
VJuan Foyth 
p4
sS'offensive_data'
p5
(lp6
(lp7
a(lp8
V2018/2019
p9
aVTottenham
p10
aVEPL
p11
aV5
aV450
p12
aV1
aV-
aV1
aV-
aV0.4
p13
aV84.7
p14
aV2
aV1
aV6.85
p15
aa(lp16
V2017/2018
p17
aVTottenham
p18
aVUCL
p19
aV1
aV90
p20
aV-
aV-
aV-
aV-
aV1
aV91.6
p21
aV5
aV-
aV7.55
p22
aa(lp23
V2016/2017
p24
aVEstudiantes
p25
aVAPD
p26
aV7
aV630
p27
aV-
aV-
aV-
aV-
aV-
aV79.4
p28
aV1.7
p29
aV2
aV7.37
p30
aa(lp31
VTotal / Average
p32
aV
aV
aV13
p33
aV1170
p34
aV1
aV0
aV1
aV0
aV0.2
p35
aV82.4
p36
aV2.1
p37
aV3
aV7.19
p38
aasS'url'
p39
S'https://www.whoscored.com/Players/335107/History/'
p40
sS'passing_data'
p41
(lp42
(lp43
a(lp44
V2018/2019
p45
aVTottenham
p46
aVEPL
p47
aV5
aV450
p48
aV1
aV-
aV1
aV-
aV0.4
p49
aV84.7
p50
aV2
aV1
aV6.85
p51
aa(lp52
V2017/2018
p53
aVTottenham
p54
aVUCL
p55
aV1
aV90
p56
aV-
aV-
aV-
aV-
aV1
aV91.6
p57
aV5
aV-
aV7.55
p58
aa(lp59
V2016/2017
p60
aVEstudiantes
p61
aVAPD
p62
aV7
aV630
p63
aV-
aV-
aV-
aV-
aV-
aV79.4
p64
aV1.7
p65
aV2
aV7.37
p66
aa(lp67
VTotal / Average
p68
aV
aV
aV13
p69
aV1170
p70
aV1
aV0
aV1
aV0
aV0.2
p71
aV82.4
p72
aV2.1
p73
aV3
aV7.19
p74
aasS'defensive_data'
p75
(lp76
(lp77
a(lp78
V2018/2019
p79
aVTottenham
p80
aVEPL
p81
aV5
aV450
p82
aV1
aV-
aV1
aV-
aV0.4
p83
aV84.7
p84
aV2
aV1
aV6.85
p85
aa(lp86
V2017/2018
p87
aVTottenham
p88
aVUCL
p89
aV1
aV90
p90
aV-
aV-
aV-
aV-
aV1
aV91.6
p91
aV5
aV-
aV7.55
p92
aa(lp93
V2016/2017
p94
aVEstudiantes
p95
aVAPD
p96
aV7
aV630
p97
aV-
aV-
aV-
aV-
aV-
aV79.4
p98
aV1.7
p99
aV2
aV7.37
p100
aa(lp101
VTotal / Average
p102
aV
aV
aV13
p103
aV1170
p104
aV1
aV0
aV1
aV0
aV0.2
p105
aV82.4
p106
aV2.1
p107
aV3
aV7.19
p108
aasS'sumary_data'
p109
(lp110
(lp111
a(lp112
V2018/2019
p113
aVTottenham
p114
aVEPL
p115
aV5
aV450
p116
aV1
aV-
aV1
aV-
aV0.4
p117
aV84.7
p118
aV2
aV1
aV6.85
p119
aa(lp120
V2017/2018
p121
aVTottenham
p122
aVUCL
p123
aV1
aV90
p124
aV-
aV-
aV-
aV-
aV1
aV91.6
p125
aV5
aV-
aV7.55
p126
aa(lp127
V2016/2017
p128
aVEstudiantes
p129
aVAPD
p130
aV7
aV630
p131
aV-
aV-
aV-
aV-
aV-
aV79.4
p132
aV1.7
p133
aV2
aV7.37
p134
aa(lp135
VTotal / Average
p136
aV
aV
aV13
p137
aV1170
p138
aV1
aV0
aV1
aV0
aV0.2
p139
aV82.4
p140
aV2.1
p141
aV3
aV7.19
p142
aasS'id'
p143
V335107
p144
sb.