(i__main__
Player
p1
(dp2
S'name'
p3
VGeorginio Wijnaldum 
p4
sS'offensive_data'
p5
(lp6
(lp7
a(lp8
V2018/2019
p9
aVLiverpool
p10
aVEPL
p11
aV15(1)
p12
aV1354
p13
aV1
aV-
aV1
aV-
aV1
aV91.6
p14
aV0.6
p15
aV-
aV6.83
p16
aa(lp17
V2018/2019
p18
aVLiverpool
p19
aVUCL
p20
aV6
aV516
p21
aV-
aV-
aV1
aV-
aV1.5
p22
aV87.2
p23
aV0.7
p24
aV-
aV6.44
p25
aa(lp26
V2018/2019
p27
aVNetherlands
p28
aVUNL
p29
aV4
aV329
p30
aV2
aV-
aV2
aV-
aV2
aV92.1
p31
aV-
aV-
aV6.76
p32
aa(lp33
V2017/2018
p34
aVLiverpool
p35
aVUCL
p36
aV9(3)
p37
aV850
p38
aV1
aV2
aV-
aV-
aV1
aV84.4
p39
aV1
aV-
aV6.91
p40
aa(lp41
V2017/2018
p42
aVLiverpool
p43
aVEPL
p44
aV27(6)
p45
aV2387
p46
aV1
aV2
aV1
aV-
aV1.2
p47
aV89.9
p48
aV0.5
p49
aV-
aV6.79
p50
aa(lp51
V2016/2017
p52
aVLiverpool
p53
aVEPL
p54
aV33(3)
p55
aV2978
p56
aV6
aV9
aV2
aV-
aV1.7
p57
aV87.3
p58
aV1.1
p59
aV-
aV6.95
p60
aa(lp61
V2015/2016
p62
aVNewcastle Uni..
p63
aVEPL
p64
aV36(2)
p65
aV3169
p66
aV11
p67
aV5
aV1
aV-
aV1.4
p68
aV84.8
p69
aV0.7
p70
aV2
aV6.91
p71
aa(lp72
V2014/2015
p73
aVPSV Eindhoven
p74
aVUEL
p75
aV6(1)
p76
aV549
p77
aV2
aV-
aV1
aV-
aV1.9
p78
aV80.9
p79
aV0.3
p80
aV-
aV6.79
p81
aa(lp82
V2014/2015
p83
aVPSV Eindhoven
p84
aVNE
p85
aV32(1)
p86
aV2878
p87
aV14
p88
aV3
aV-
aV-
aV2.5
p89
aV84.4
p90
aV0.6
p91
aV2
aV7.47
p92
aa(lp93
V2013/2014
p94
aVPSV Eindhoven
p95
aVNE
p96
aV9(2)
p97
aV876
p98
aV4
aV-
aV1
aV-
aV2.3
p99
aV86.1
p100
aV1
aV-
aV7.08
p101
aa(lp102
V2014
p103
aVNetherlands
p104
aVWC
p105
aV5(2)
p106
aV552
p107
aV1
aV-
aV-
aV-
aV0.7
p108
aV87.7
p109
aV1.6
p110
aV-
aV6.92
p111
aa(lp112
V2013
p113
aVNetherlands U..
p114
aVIEU
p115
aV3
aV248
p116
aV2
aV-
aV-
aV-
aV2
aV75.6
p117
aV1
aV-
aV7.42
p118
aa(lp119
V2012/2013
p120
aVPSV Eindhoven
p121
aVUEL
p122
aV4
aV360
p123
aV1
aV-
aV2
aV-
aV2
aV83.7
p124
aV0.8
p125
aV-
aV6.64
p126
aa(lp127
VTotal / Average
p128
aV
aV
aV210
p129
aV17046
p130
aV46
p131
aV21
p132
aV12
p133
aV0
aV1.6
p134
aV86.6
p135
aV0.7
p136
aV4
aV6.97
p137
aasS'url'
p138
S'https://www.whoscored.com/Players/33568/History/'
p139
sS'passing_data'
p140
(lp141
(lp142
a(lp143
V2018/2019
p144
aVLiverpool
p145
aVEPL
p146
aV15(1)
p147
aV1354
p148
aV1
aV-
aV1
aV-
aV1
aV91.6
p149
aV0.6
p150
aV-
aV6.83
p151
aa(lp152
V2018/2019
p153
aVLiverpool
p154
aVUCL
p155
aV6
aV516
p156
aV-
aV-
aV1
aV-
aV1.5
p157
aV87.2
p158
aV0.7
p159
aV-
aV6.44
p160
aa(lp161
V2018/2019
p162
aVNetherlands
p163
aVUNL
p164
aV4
aV329
p165
aV2
aV-
aV2
aV-
aV2
aV92.1
p166
aV-
aV-
aV6.76
p167
aa(lp168
V2017/2018
p169
aVLiverpool
p170
aVUCL
p171
aV9(3)
p172
aV850
p173
aV1
aV2
aV-
aV-
aV1
aV84.4
p174
aV1
aV-
aV6.91
p175
aa(lp176
V2017/2018
p177
aVLiverpool
p178
aVEPL
p179
aV27(6)
p180
aV2387
p181
aV1
aV2
aV1
aV-
aV1.2
p182
aV89.9
p183
aV0.5
p184
aV-
aV6.79
p185
aa(lp186
V2016/2017
p187
aVLiverpool
p188
aVEPL
p189
aV33(3)
p190
aV2978
p191
aV6
aV9
aV2
aV-
aV1.7
p192
aV87.3
p193
aV1.1
p194
aV-
aV6.95
p195
aa(lp196
V2015/2016
p197
aVNewcastle Uni..
p198
aVEPL
p199
aV36(2)
p200
aV3169
p201
aV11
p202
aV5
aV1
aV-
aV1.4
p203
aV84.8
p204
aV0.7
p205
aV2
aV6.91
p206
aa(lp207
V2014/2015
p208
aVPSV Eindhoven
p209
aVUEL
p210
aV6(1)
p211
aV549
p212
aV2
aV-
aV1
aV-
aV1.9
p213
aV80.9
p214
aV0.3
p215
aV-
aV6.79
p216
aa(lp217
V2014/2015
p218
aVPSV Eindhoven
p219
aVNE
p220
aV32(1)
p221
aV2878
p222
aV14
p223
aV3
aV-
aV-
aV2.5
p224
aV84.4
p225
aV0.6
p226
aV2
aV7.47
p227
aa(lp228
V2013/2014
p229
aVPSV Eindhoven
p230
aVNE
p231
aV9(2)
p232
aV876
p233
aV4
aV-
aV1
aV-
aV2.3
p234
aV86.1
p235
aV1
aV-
aV7.08
p236
aa(lp237
V2014
p238
aVNetherlands
p239
aVWC
p240
aV5(2)
p241
aV552
p242
aV1
aV-
aV-
aV-
aV0.7
p243
aV87.7
p244
aV1.6
p245
aV-
aV6.92
p246
aa(lp247
V2013
p248
aVNetherlands U..
p249
aVIEU
p250
aV3
aV248
p251
aV2
aV-
aV-
aV-
aV2
aV75.6
p252
aV1
aV-
aV7.42
p253
aa(lp254
V2012/2013
p255
aVPSV Eindhoven
p256
aVUEL
p257
aV4
aV360
p258
aV1
aV-
aV2
aV-
aV2
aV83.7
p259
aV0.8
p260
aV-
aV6.64
p261
aa(lp262
VTotal / Average
p263
aV
aV
aV210
p264
aV17046
p265
aV46
p266
aV21
p267
aV12
p268
aV0
aV1.6
p269
aV86.6
p270
aV0.7
p271
aV4
aV6.97
p272
aasS'defensive_data'
p273
(lp274
(lp275
a(lp276
V2018/2019
p277
aVLiverpool
p278
aVEPL
p279
aV15(1)
p280
aV1354
p281
aV1
aV-
aV1
aV-
aV1
aV91.6
p282
aV0.6
p283
aV-
aV6.83
p284
aa(lp285
V2018/2019
p286
aVLiverpool
p287
aVUCL
p288
aV6
aV516
p289
aV-
aV-
aV1
aV-
aV1.5
p290
aV87.2
p291
aV0.7
p292
aV-
aV6.44
p293
aa(lp294
V2018/2019
p295
aVNetherlands
p296
aVUNL
p297
aV4
aV329
p298
aV2
aV-
aV2
aV-
aV2
aV92.1
p299
aV-
aV-
aV6.76
p300
aa(lp301
V2017/2018
p302
aVLiverpool
p303
aVUCL
p304
aV9(3)
p305
aV850
p306
aV1
aV2
aV-
aV-
aV1
aV84.4
p307
aV1
aV-
aV6.91
p308
aa(lp309
V2017/2018
p310
aVLiverpool
p311
aVEPL
p312
aV27(6)
p313
aV2387
p314
aV1
aV2
aV1
aV-
aV1.2
p315
aV89.9
p316
aV0.5
p317
aV-
aV6.79
p318
aa(lp319
V2016/2017
p320
aVLiverpool
p321
aVEPL
p322
aV33(3)
p323
aV2978
p324
aV6
aV9
aV2
aV-
aV1.7
p325
aV87.3
p326
aV1.1
p327
aV-
aV6.95
p328
aa(lp329
V2015/2016
p330
aVNewcastle Uni..
p331
aVEPL
p332
aV36(2)
p333
aV3169
p334
aV11
p335
aV5
aV1
aV-
aV1.4
p336
aV84.8
p337
aV0.7
p338
aV2
aV6.91
p339
aa(lp340
V2014/2015
p341
aVPSV Eindhoven
p342
aVUEL
p343
aV6(1)
p344
aV549
p345
aV2
aV-
aV1
aV-
aV1.9
p346
aV80.9
p347
aV0.3
p348
aV-
aV6.79
p349
aa(lp350
V2014/2015
p351
aVPSV Eindhoven
p352
aVNE
p353
aV32(1)
p354
aV2878
p355
aV14
p356
aV3
aV-
aV-
aV2.5
p357
aV84.4
p358
aV0.6
p359
aV2
aV7.47
p360
aa(lp361
V2013/2014
p362
aVPSV Eindhoven
p363
aVNE
p364
aV9(2)
p365
aV876
p366
aV4
aV-
aV1
aV-
aV2.3
p367
aV86.1
p368
aV1
aV-
aV7.08
p369
aa(lp370
V2014
p371
aVNetherlands
p372
aVWC
p373
aV5(2)
p374
aV552
p375
aV1
aV-
aV-
aV-
aV0.7
p376
aV87.7
p377
aV1.6
p378
aV-
aV6.92
p379
aa(lp380
V2013
p381
aVNetherlands U..
p382
aVIEU
p383
aV3
aV248
p384
aV2
aV-
aV-
aV-
aV2
aV75.6
p385
aV1
aV-
aV7.42
p386
aa(lp387
V2012/2013
p388
aVPSV Eindhoven
p389
aVUEL
p390
aV4
aV360
p391
aV1
aV-
aV2
aV-
aV2
aV83.7
p392
aV0.8
p393
aV-
aV6.64
p394
aa(lp395
VTotal / Average
p396
aV
aV
aV210
p397
aV17046
p398
aV46
p399
aV21
p400
aV12
p401
aV0
aV1.6
p402
aV86.6
p403
aV0.7
p404
aV4
aV6.97
p405
aasS'sumary_data'
p406
(lp407
(lp408
a(lp409
V2018/2019
p410
aVLiverpool
p411
aVEPL
p412
aV15(1)
p413
aV1354
p414
aV1
aV-
aV1
aV-
aV1
aV91.6
p415
aV0.6
p416
aV-
aV6.83
p417
aa(lp418
V2018/2019
p419
aVLiverpool
p420
aVUCL
p421
aV6
aV516
p422
aV-
aV-
aV1
aV-
aV1.5
p423
aV87.2
p424
aV0.7
p425
aV-
aV6.44
p426
aa(lp427
V2018/2019
p428
aVNetherlands
p429
aVUNL
p430
aV4
aV329
p431
aV2
aV-
aV2
aV-
aV2
aV92.1
p432
aV-
aV-
aV6.76
p433
aa(lp434
V2017/2018
p435
aVLiverpool
p436
aVUCL
p437
aV9(3)
p438
aV850
p439
aV1
aV2
aV-
aV-
aV1
aV84.4
p440
aV1
aV-
aV6.91
p441
aa(lp442
V2017/2018
p443
aVLiverpool
p444
aVEPL
p445
aV27(6)
p446
aV2387
p447
aV1
aV2
aV1
aV-
aV1.2
p448
aV89.9
p449
aV0.5
p450
aV-
aV6.79
p451
aa(lp452
V2016/2017
p453
aVLiverpool
p454
aVEPL
p455
aV33(3)
p456
aV2978
p457
aV6
aV9
aV2
aV-
aV1.7
p458
aV87.3
p459
aV1.1
p460
aV-
aV6.95
p461
aa(lp462
V2015/2016
p463
aVNewcastle Uni..
p464
aVEPL
p465
aV36(2)
p466
aV3169
p467
aV11
p468
aV5
aV1
aV-
aV1.4
p469
aV84.8
p470
aV0.7
p471
aV2
aV6.91
p472
aa(lp473
V2014/2015
p474
aVPSV Eindhoven
p475
aVUEL
p476
aV6(1)
p477
aV549
p478
aV2
aV-
aV1
aV-
aV1.9
p479
aV80.9
p480
aV0.3
p481
aV-
aV6.79
p482
aa(lp483
V2014/2015
p484
aVPSV Eindhoven
p485
aVNE
p486
aV32(1)
p487
aV2878
p488
aV14
p489
aV3
aV-
aV-
aV2.5
p490
aV84.4
p491
aV0.6
p492
aV2
aV7.47
p493
aa(lp494
V2013/2014
p495
aVPSV Eindhoven
p496
aVNE
p497
aV9(2)
p498
aV876
p499
aV4
aV-
aV1
aV-
aV2.3
p500
aV86.1
p501
aV1
aV-
aV7.08
p502
aa(lp503
V2014
p504
aVNetherlands
p505
aVWC
p506
aV5(2)
p507
aV552
p508
aV1
aV-
aV-
aV-
aV0.7
p509
aV87.7
p510
aV1.6
p511
aV-
aV6.92
p512
aa(lp513
V2013
p514
aVNetherlands U..
p515
aVIEU
p516
aV3
aV248
p517
aV2
aV-
aV-
aV-
aV2
aV75.6
p518
aV1
aV-
aV7.42
p519
aa(lp520
V2012/2013
p521
aVPSV Eindhoven
p522
aVUEL
p523
aV4
aV360
p524
aV1
aV-
aV2
aV-
aV2
aV83.7
p525
aV0.8
p526
aV-
aV6.64
p527
aa(lp528
VTotal / Average
p529
aV
aV
aV210
p530
aV17046
p531
aV46
p532
aV21
p533
aV12
p534
aV0
aV1.6
p535
aV86.6
p536
aV0.7
p537
aV4
aV6.97
p538
aasS'id'
p539
V33568
p540
sb.