(i__main__
Player
p1
(dp2
S'name'
p3
VEtienne Capoue 
p4
sS'offensive_data'
p5
(lp6
(lp7
a(lp8
V2018/2019
p9
aVWatford
p10
aVEPL
p11
aV13
p12
aV1170
p13
aV1
aV2
aV5
aV1
aV0.8
p14
aV83.2
p15
aV2.2
p16
aV1
aV7.13
p17
aa(lp18
V2017/2018
p19
aVWatford
p20
aVEPL
p21
aV18(5)
p22
aV1542
p23
aV1
aV-
aV3
aV-
aV1
aV82.4
p24
aV1.8
p25
aV-
aV6.74
p26
aa(lp27
V2016/2017
p28
aVWatford
p29
aVEPL
p30
aV37
p31
aV3213
p32
aV7
aV1
aV5
aV-
aV1.4
p33
aV82.9
p34
aV0.9
p35
aV2
aV6.85
p36
aa(lp37
V2015/2016
p38
aVWatford
p39
aVEPL
p40
aV33
p41
aV2822
p42
aV-
aV1
aV7
aV-
aV1.1
p43
aV79.2
p44
aV1.1
p45
aV1
aV7.01
p46
aa(lp47
V2014/2015
p48
aVTottenham
p49
aVUEL
p50
aV1(2)
p51
aV122
p52
aV-
aV1
aV-
aV-
aV-
aV90.1
p53
aV0.3
p54
aV-
aV6.78
p55
aa(lp56
V2014/2015
p57
aVTottenham
p58
aVEPL
p59
aV11(1)
p60
aV901
p61
aV-
aV-
aV2
aV-
aV0.6
p62
aV87.4
p63
aV0.8
p64
aV1
aV6.92
p65
aa(lp66
V2013/2014
p67
aVTottenham
p68
aVUEL
p69
aV4
aV329
p70
aV-
aV-
aV1
aV-
aV0.8
p71
aV85.2
p72
aV1.8
p73
aV-
aV7.22
p74
aa(lp75
V2013/2014
p76
aVTottenham
p77
aVEPL
p78
aV8(4)
p79
aV687
p80
aV1
aV-
aV1
aV-
aV0.5
p81
aV84.2
p82
aV0.9
p83
aV-
aV6.93
p84
aa(lp85
V2012/2013
p86
aVToulouse
p87
aVFL1
p88
aV34
p89
aV3016
p90
aV7
aV3
aV7
aV1
aV1.3
p91
aV81
p92
aV3.4
p93
aV7
aV7.53
p94
aa(lp95
V2011/2012
p96
aVToulouse
p97
aVFL1
p98
aV31(2)
p99
aV2819
p100
aV3
aV4
aV6
aV1
aV1.5
p101
aV76.7
p102
aV2
aV5
aV7.39
p103
aa(lp104
V2010/2011
p105
aVToulouse
p106
aVFL1
p107
aV37
p108
aV3330
p109
aV2
aV-
aV5
aV-
aV0.7
p110
aV78
p111
aV1.7
p112
aV2
aV7.25
p113
aa(lp114
V2009/2010
p115
aVToulouse
p116
aVFL1
p117
aV30(3)
p118
aV2746
p119
aV-
aV-
aV13
p120
aV-
aV0.8
p121
aV77.2
p122
aV1.4
p123
aV-
aV7.00
p124
aa(lp125
VTotal / Average
p126
aV
aV
aV274
p127
aV22697
p128
aV22
p129
aV12
p130
aV55
p131
aV3
aV1
aV80.4
p132
aV1.7
p133
aV19
p134
aV7.10
p135
aasS'url'
p136
S'https://www.whoscored.com/Players/33590/History/'
p137
sS'passing_data'
p138
(lp139
(lp140
a(lp141
V2018/2019
p142
aVWatford
p143
aVEPL
p144
aV13
p145
aV1170
p146
aV1
aV2
aV5
aV1
aV0.8
p147
aV83.2
p148
aV2.2
p149
aV1
aV7.13
p150
aa(lp151
V2017/2018
p152
aVWatford
p153
aVEPL
p154
aV18(5)
p155
aV1542
p156
aV1
aV-
aV3
aV-
aV1
aV82.4
p157
aV1.8
p158
aV-
aV6.74
p159
aa(lp160
V2016/2017
p161
aVWatford
p162
aVEPL
p163
aV37
p164
aV3213
p165
aV7
aV1
aV5
aV-
aV1.4
p166
aV82.9
p167
aV0.9
p168
aV2
aV6.85
p169
aa(lp170
V2015/2016
p171
aVWatford
p172
aVEPL
p173
aV33
p174
aV2822
p175
aV-
aV1
aV7
aV-
aV1.1
p176
aV79.2
p177
aV1.1
p178
aV1
aV7.01
p179
aa(lp180
V2014/2015
p181
aVTottenham
p182
aVUEL
p183
aV1(2)
p184
aV122
p185
aV-
aV1
aV-
aV-
aV-
aV90.1
p186
aV0.3
p187
aV-
aV6.78
p188
aa(lp189
V2014/2015
p190
aVTottenham
p191
aVEPL
p192
aV11(1)
p193
aV901
p194
aV-
aV-
aV2
aV-
aV0.6
p195
aV87.4
p196
aV0.8
p197
aV1
aV6.92
p198
aa(lp199
V2013/2014
p200
aVTottenham
p201
aVUEL
p202
aV4
aV329
p203
aV-
aV-
aV1
aV-
aV0.8
p204
aV85.2
p205
aV1.8
p206
aV-
aV7.22
p207
aa(lp208
V2013/2014
p209
aVTottenham
p210
aVEPL
p211
aV8(4)
p212
aV687
p213
aV1
aV-
aV1
aV-
aV0.5
p214
aV84.2
p215
aV0.9
p216
aV-
aV6.93
p217
aa(lp218
V2012/2013
p219
aVToulouse
p220
aVFL1
p221
aV34
p222
aV3016
p223
aV7
aV3
aV7
aV1
aV1.3
p224
aV81
p225
aV3.4
p226
aV7
aV7.53
p227
aa(lp228
V2011/2012
p229
aVToulouse
p230
aVFL1
p231
aV31(2)
p232
aV2819
p233
aV3
aV4
aV6
aV1
aV1.5
p234
aV76.7
p235
aV2
aV5
aV7.39
p236
aa(lp237
V2010/2011
p238
aVToulouse
p239
aVFL1
p240
aV37
p241
aV3330
p242
aV2
aV-
aV5
aV-
aV0.7
p243
aV78
p244
aV1.7
p245
aV2
aV7.25
p246
aa(lp247
V2009/2010
p248
aVToulouse
p249
aVFL1
p250
aV30(3)
p251
aV2746
p252
aV-
aV-
aV13
p253
aV-
aV0.8
p254
aV77.2
p255
aV1.4
p256
aV-
aV7.00
p257
aa(lp258
VTotal / Average
p259
aV
aV
aV274
p260
aV22697
p261
aV22
p262
aV12
p263
aV55
p264
aV3
aV1
aV80.4
p265
aV1.7
p266
aV19
p267
aV7.10
p268
aasS'defensive_data'
p269
(lp270
(lp271
a(lp272
V2018/2019
p273
aVWatford
p274
aVEPL
p275
aV13
p276
aV1170
p277
aV1
aV2
aV5
aV1
aV0.8
p278
aV83.2
p279
aV2.2
p280
aV1
aV7.13
p281
aa(lp282
V2017/2018
p283
aVWatford
p284
aVEPL
p285
aV18(5)
p286
aV1542
p287
aV1
aV-
aV3
aV-
aV1
aV82.4
p288
aV1.8
p289
aV-
aV6.74
p290
aa(lp291
V2016/2017
p292
aVWatford
p293
aVEPL
p294
aV37
p295
aV3213
p296
aV7
aV1
aV5
aV-
aV1.4
p297
aV82.9
p298
aV0.9
p299
aV2
aV6.85
p300
aa(lp301
V2015/2016
p302
aVWatford
p303
aVEPL
p304
aV33
p305
aV2822
p306
aV-
aV1
aV7
aV-
aV1.1
p307
aV79.2
p308
aV1.1
p309
aV1
aV7.01
p310
aa(lp311
V2014/2015
p312
aVTottenham
p313
aVUEL
p314
aV1(2)
p315
aV122
p316
aV-
aV1
aV-
aV-
aV-
aV90.1
p317
aV0.3
p318
aV-
aV6.78
p319
aa(lp320
V2014/2015
p321
aVTottenham
p322
aVEPL
p323
aV11(1)
p324
aV901
p325
aV-
aV-
aV2
aV-
aV0.6
p326
aV87.4
p327
aV0.8
p328
aV1
aV6.92
p329
aa(lp330
V2013/2014
p331
aVTottenham
p332
aVUEL
p333
aV4
aV329
p334
aV-
aV-
aV1
aV-
aV0.8
p335
aV85.2
p336
aV1.8
p337
aV-
aV7.22
p338
aa(lp339
V2013/2014
p340
aVTottenham
p341
aVEPL
p342
aV8(4)
p343
aV687
p344
aV1
aV-
aV1
aV-
aV0.5
p345
aV84.2
p346
aV0.9
p347
aV-
aV6.93
p348
aa(lp349
V2012/2013
p350
aVToulouse
p351
aVFL1
p352
aV34
p353
aV3016
p354
aV7
aV3
aV7
aV1
aV1.3
p355
aV81
p356
aV3.4
p357
aV7
aV7.53
p358
aa(lp359
V2011/2012
p360
aVToulouse
p361
aVFL1
p362
aV31(2)
p363
aV2819
p364
aV3
aV4
aV6
aV1
aV1.5
p365
aV76.7
p366
aV2
aV5
aV7.39
p367
aa(lp368
V2010/2011
p369
aVToulouse
p370
aVFL1
p371
aV37
p372
aV3330
p373
aV2
aV-
aV5
aV-
aV0.7
p374
aV78
p375
aV1.7
p376
aV2
aV7.25
p377
aa(lp378
V2009/2010
p379
aVToulouse
p380
aVFL1
p381
aV30(3)
p382
aV2746
p383
aV-
aV-
aV13
p384
aV-
aV0.8
p385
aV77.2
p386
aV1.4
p387
aV-
aV7.00
p388
aa(lp389
VTotal / Average
p390
aV
aV
aV274
p391
aV22697
p392
aV22
p393
aV12
p394
aV55
p395
aV3
aV1
aV80.4
p396
aV1.7
p397
aV19
p398
aV7.10
p399
aasS'sumary_data'
p400
(lp401
(lp402
a(lp403
V2018/2019
p404
aVWatford
p405
aVEPL
p406
aV13
p407
aV1170
p408
aV1
aV2
aV5
aV1
aV0.8
p409
aV83.2
p410
aV2.2
p411
aV1
aV7.13
p412
aa(lp413
V2017/2018
p414
aVWatford
p415
aVEPL
p416
aV18(5)
p417
aV1542
p418
aV1
aV-
aV3
aV-
aV1
aV82.4
p419
aV1.8
p420
aV-
aV6.74
p421
aa(lp422
V2016/2017
p423
aVWatford
p424
aVEPL
p425
aV37
p426
aV3213
p427
aV7
aV1
aV5
aV-
aV1.4
p428
aV82.9
p429
aV0.9
p430
aV2
aV6.85
p431
aa(lp432
V2015/2016
p433
aVWatford
p434
aVEPL
p435
aV33
p436
aV2822
p437
aV-
aV1
aV7
aV-
aV1.1
p438
aV79.2
p439
aV1.1
p440
aV1
aV7.01
p441
aa(lp442
V2014/2015
p443
aVTottenham
p444
aVUEL
p445
aV1(2)
p446
aV122
p447
aV-
aV1
aV-
aV-
aV-
aV90.1
p448
aV0.3
p449
aV-
aV6.78
p450
aa(lp451
V2014/2015
p452
aVTottenham
p453
aVEPL
p454
aV11(1)
p455
aV901
p456
aV-
aV-
aV2
aV-
aV0.6
p457
aV87.4
p458
aV0.8
p459
aV1
aV6.92
p460
aa(lp461
V2013/2014
p462
aVTottenham
p463
aVUEL
p464
aV4
aV329
p465
aV-
aV-
aV1
aV-
aV0.8
p466
aV85.2
p467
aV1.8
p468
aV-
aV7.22
p469
aa(lp470
V2013/2014
p471
aVTottenham
p472
aVEPL
p473
aV8(4)
p474
aV687
p475
aV1
aV-
aV1
aV-
aV0.5
p476
aV84.2
p477
aV0.9
p478
aV-
aV6.93
p479
aa(lp480
V2012/2013
p481
aVToulouse
p482
aVFL1
p483
aV34
p484
aV3016
p485
aV7
aV3
aV7
aV1
aV1.3
p486
aV81
p487
aV3.4
p488
aV7
aV7.53
p489
aa(lp490
V2011/2012
p491
aVToulouse
p492
aVFL1
p493
aV31(2)
p494
aV2819
p495
aV3
aV4
aV6
aV1
aV1.5
p496
aV76.7
p497
aV2
aV5
aV7.39
p498
aa(lp499
V2010/2011
p500
aVToulouse
p501
aVFL1
p502
aV37
p503
aV3330
p504
aV2
aV-
aV5
aV-
aV0.7
p505
aV78
p506
aV1.7
p507
aV2
aV7.25
p508
aa(lp509
V2009/2010
p510
aVToulouse
p511
aVFL1
p512
aV30(3)
p513
aV2746
p514
aV-
aV-
aV13
p515
aV-
aV0.8
p516
aV77.2
p517
aV1.4
p518
aV-
aV7.00
p519
aa(lp520
VTotal / Average
p521
aV
aV
aV274
p522
aV22697
p523
aV22
p524
aV12
p525
aV55
p526
aV3
aV1
aV80.4
p527
aV1.7
p528
aV19
p529
aV7.10
p530
aasS'id'
p531
V33590
p532
sb.