(i__main__
Player
p1
(dp2
S'name'
p3
VScott McTominay 
p4
sS'offensive_data'
p5
(lp6
(lp7
a(lp8
V2018/2019
p9
aVManchester Un..
p10
aVEPL
p11
aV3(3)
p12
aV252
p13
aV-
aV-
aV-
aV-
aV0.5
p14
aV84.8
p15
aV1.2
p16
aV-
aV6.15
p17
aa(lp18
V2018/2019
p19
aVScotland
p20
aVUNL
p21
aV0(3)
p22
aV43
p23
aV-
aV-
aV-
aV-
aV0.7
p24
aV83.3
p25
aV1
aV-
aV6.34
p26
aa(lp27
V2017/2018
p28
aVManchester Un..
p29
aVUCL
p30
aV2(2)
p31
aV205
p32
aV-
aV-
aV1
aV-
aV0.8
p33
aV88.9
p34
aV1.5
p35
aV-
aV6.66
p36
aa(lp37
V2017/2018
p38
aVManchester Un..
p39
aVEPL
p40
aV7(6)
p41
aV630
p42
aV-
aV-
aV2
aV-
aV0.1
p43
aV88
p44
aV0.9
p45
aV-
aV6.48
p46
aa(lp47
V2016/2017
p48
aVManchester Un..
p49
aVEPL
p50
aV1(1)
p51
aV96
p52
aV-
aV-
aV1
aV-
aV0.5
p53
aV91.2
p54
aV0.5
p55
aV-
aV6.60
p56
aa(lp57
VTotal / Average
p58
aV
aV
aV28
p59
aV1226
p60
aV0
aV0
aV4
aV0
aV0.4
p61
aV87.2
p62
aV1
aV0
aV6.43
p63
aasS'url'
p64
S'https://www.whoscored.com/Players/336915/History/'
p65
sS'passing_data'
p66
(lp67
(lp68
a(lp69
V2018/2019
p70
aVManchester Un..
p71
aVEPL
p72
aV3(3)
p73
aV252
p74
aV-
aV-
aV-
aV-
aV0.5
p75
aV84.8
p76
aV1.2
p77
aV-
aV6.15
p78
aa(lp79
V2018/2019
p80
aVScotland
p81
aVUNL
p82
aV0(3)
p83
aV43
p84
aV-
aV-
aV-
aV-
aV0.7
p85
aV83.3
p86
aV1
aV-
aV6.34
p87
aa(lp88
V2017/2018
p89
aVManchester Un..
p90
aVUCL
p91
aV2(2)
p92
aV205
p93
aV-
aV-
aV1
aV-
aV0.8
p94
aV88.9
p95
aV1.5
p96
aV-
aV6.66
p97
aa(lp98
V2017/2018
p99
aVManchester Un..
p100
aVEPL
p101
aV7(6)
p102
aV630
p103
aV-
aV-
aV2
aV-
aV0.1
p104
aV88
p105
aV0.9
p106
aV-
aV6.48
p107
aa(lp108
V2016/2017
p109
aVManchester Un..
p110
aVEPL
p111
aV1(1)
p112
aV96
p113
aV-
aV-
aV1
aV-
aV0.5
p114
aV91.2
p115
aV0.5
p116
aV-
aV6.60
p117
aa(lp118
VTotal / Average
p119
aV
aV
aV28
p120
aV1226
p121
aV0
aV0
aV4
aV0
aV0.4
p122
aV87.2
p123
aV1
aV0
aV6.43
p124
aasS'defensive_data'
p125
(lp126
(lp127
a(lp128
V2018/2019
p129
aVManchester Un..
p130
aVEPL
p131
aV3(3)
p132
aV252
p133
aV-
aV-
aV-
aV-
aV0.5
p134
aV84.8
p135
aV1.2
p136
aV-
aV6.15
p137
aa(lp138
V2018/2019
p139
aVScotland
p140
aVUNL
p141
aV0(3)
p142
aV43
p143
aV-
aV-
aV-
aV-
aV0.7
p144
aV83.3
p145
aV1
aV-
aV6.34
p146
aa(lp147
V2017/2018
p148
aVManchester Un..
p149
aVUCL
p150
aV2(2)
p151
aV205
p152
aV-
aV-
aV1
aV-
aV0.8
p153
aV88.9
p154
aV1.5
p155
aV-
aV6.66
p156
aa(lp157
V2017/2018
p158
aVManchester Un..
p159
aVEPL
p160
aV7(6)
p161
aV630
p162
aV-
aV-
aV2
aV-
aV0.1
p163
aV88
p164
aV0.9
p165
aV-
aV6.48
p166
aa(lp167
V2016/2017
p168
aVManchester Un..
p169
aVEPL
p170
aV1(1)
p171
aV96
p172
aV-
aV-
aV1
aV-
aV0.5
p173
aV91.2
p174
aV0.5
p175
aV-
aV6.60
p176
aa(lp177
VTotal / Average
p178
aV
aV
aV28
p179
aV1226
p180
aV0
aV0
aV4
aV0
aV0.4
p181
aV87.2
p182
aV1
aV0
aV6.43
p183
aasS'sumary_data'
p184
(lp185
(lp186
a(lp187
V2018/2019
p188
aVManchester Un..
p189
aVEPL
p190
aV3(3)
p191
aV252
p192
aV-
aV-
aV-
aV-
aV0.5
p193
aV84.8
p194
aV1.2
p195
aV-
aV6.15
p196
aa(lp197
V2018/2019
p198
aVScotland
p199
aVUNL
p200
aV0(3)
p201
aV43
p202
aV-
aV-
aV-
aV-
aV0.7
p203
aV83.3
p204
aV1
aV-
aV6.34
p205
aa(lp206
V2017/2018
p207
aVManchester Un..
p208
aVUCL
p209
aV2(2)
p210
aV205
p211
aV-
aV-
aV1
aV-
aV0.8
p212
aV88.9
p213
aV1.5
p214
aV-
aV6.66
p215
aa(lp216
V2017/2018
p217
aVManchester Un..
p218
aVEPL
p219
aV7(6)
p220
aV630
p221
aV-
aV-
aV2
aV-
aV0.1
p222
aV88
p223
aV0.9
p224
aV-
aV6.48
p225
aa(lp226
V2016/2017
p227
aVManchester Un..
p228
aVEPL
p229
aV1(1)
p230
aV96
p231
aV-
aV-
aV1
aV-
aV0.5
p232
aV91.2
p233
aV0.5
p234
aV-
aV6.60
p235
aa(lp236
VTotal / Average
p237
aV
aV
aV28
p238
aV1226
p239
aV0
aV0
aV4
aV0
aV0.4
p240
aV87.2
p241
aV1
aV0
aV6.43
p242
aasS'id'
p243
V336915
p244
sb.