(i__main__
Player
p1
(dp2
S'name'
p3
VVicente Guaita 
p4
sS'offensive_data'
p5
(lp6
(lp7
a(lp8
V2018/2019
p9
aVCrystal Palac..
p10
aVEPL
p11
aV1
aV90
p12
aV-
aV-
aV1
aV-
aV-
aV42.9
p13
aV-
aV-
aV7.04
p14
aa(lp15
V2017/2018
p16
aVGetafe
p17
aVSLL
p18
aV33
p19
aV2970
p20
aV-
aV-
aV1
aV-
aV-
aV38.9
p21
aV0.4
p22
aV3
aV6.82
p23
aa(lp24
V2015/2016
p25
aVGetafe
p26
aVSLL
p27
aV38
p28
aV3420
p29
aV-
aV-
aV2
aV-
aV-
aV44.2
p30
aV0.5
p31
aV-
aV6.62
p32
aa(lp33
V2014/2015
p34
aVGetafe
p35
aVSLL
p36
aV29
p37
aV2610
p38
aV-
aV-
aV1
aV-
aV-
aV47.1
p39
aV0.7
p40
aV-
aV6.56
p41
aa(lp42
V2013/2014
p43
aVValencia
p44
aVSLL
p45
aV11(2)
p46
aV1136
p47
aV-
aV-
aV1
aV-
aV-
aV52.1
p48
aV0.6
p49
aV-
aV6.63
p50
aa(lp51
V2013/2014
p52
aVValencia
p53
aVUEL
p54
aV7
aV660
p55
aV-
aV-
aV1
aV-
aV-
aV67.4
p56
aV-
aV-
aV6.39
p57
aa(lp58
V2012/2013
p59
aVValencia
p60
aVSLL
p61
aV14
p62
aV1260
p63
aV-
aV-
aV1
aV-
aV-
aV56.3
p64
aV0.8
p65
aV1
aV7.02
p66
aa(lp67
V2012/2013
p68
aVValencia
p69
aVUCL
p70
aV6
aV540
p71
aV-
aV-
aV2
aV-
aV-
aV69.3
p72
aV0.2
p73
aV1
aV7.05
p74
aa(lp75
V2011/2012
p76
aVValencia
p77
aVSLL
p78
aV26
p79
aV2340
p80
aV-
aV-
aV1
aV-
aV-
aV58.6
p81
aV0.3
p82
aV2
aV7.02
p83
aa(lp84
V2010/2011
p85
aVValencia
p86
aVSLL
p87
aV19(2)
p88
aV1793
p89
aV-
aV-
aV2
aV-
aV-
aV58.5
p90
aV-
aV-
aV6.93
p91
aa(lp92
V2010/2011
p93
aVValencia
p94
aVUCL
p95
aV3(1)
p96
aV337
p97
aV-
aV-
aV-
aV-
aV-
aV53.8
p98
aV0.3
p99
aV1
aV6.94
p100
aa(lp101
VTotal / Average
p102
aV
aV
aV192
p103
aV17156
p104
aV0
aV0
aV13
p105
aV0
aV0
aV50.5
p106
aV0.4
p107
aV8
aV6.78
p108
aasS'url'
p109
S'https://www.whoscored.com/Players/33866/History/'
p110
sS'passing_data'
p111
(lp112
(lp113
a(lp114
V2018/2019
p115
aVCrystal Palac..
p116
aVEPL
p117
aV1
aV90
p118
aV-
aV-
aV1
aV-
aV-
aV42.9
p119
aV-
aV-
aV7.04
p120
aa(lp121
V2017/2018
p122
aVGetafe
p123
aVSLL
p124
aV33
p125
aV2970
p126
aV-
aV-
aV1
aV-
aV-
aV38.9
p127
aV0.4
p128
aV3
aV6.82
p129
aa(lp130
V2015/2016
p131
aVGetafe
p132
aVSLL
p133
aV38
p134
aV3420
p135
aV-
aV-
aV2
aV-
aV-
aV44.2
p136
aV0.5
p137
aV-
aV6.62
p138
aa(lp139
V2014/2015
p140
aVGetafe
p141
aVSLL
p142
aV29
p143
aV2610
p144
aV-
aV-
aV1
aV-
aV-
aV47.1
p145
aV0.7
p146
aV-
aV6.56
p147
aa(lp148
V2013/2014
p149
aVValencia
p150
aVSLL
p151
aV11(2)
p152
aV1136
p153
aV-
aV-
aV1
aV-
aV-
aV52.1
p154
aV0.6
p155
aV-
aV6.63
p156
aa(lp157
V2013/2014
p158
aVValencia
p159
aVUEL
p160
aV7
aV660
p161
aV-
aV-
aV1
aV-
aV-
aV67.4
p162
aV-
aV-
aV6.39
p163
aa(lp164
V2012/2013
p165
aVValencia
p166
aVSLL
p167
aV14
p168
aV1260
p169
aV-
aV-
aV1
aV-
aV-
aV56.3
p170
aV0.8
p171
aV1
aV7.02
p172
aa(lp173
V2012/2013
p174
aVValencia
p175
aVUCL
p176
aV6
aV540
p177
aV-
aV-
aV2
aV-
aV-
aV69.3
p178
aV0.2
p179
aV1
aV7.05
p180
aa(lp181
V2011/2012
p182
aVValencia
p183
aVSLL
p184
aV26
p185
aV2340
p186
aV-
aV-
aV1
aV-
aV-
aV58.6
p187
aV0.3
p188
aV2
aV7.02
p189
aa(lp190
V2010/2011
p191
aVValencia
p192
aVSLL
p193
aV19(2)
p194
aV1793
p195
aV-
aV-
aV2
aV-
aV-
aV58.5
p196
aV-
aV-
aV6.93
p197
aa(lp198
V2010/2011
p199
aVValencia
p200
aVUCL
p201
aV3(1)
p202
aV337
p203
aV-
aV-
aV-
aV-
aV-
aV53.8
p204
aV0.3
p205
aV1
aV6.94
p206
aa(lp207
VTotal / Average
p208
aV
aV
aV192
p209
aV17156
p210
aV0
aV0
aV13
p211
aV0
aV0
aV50.5
p212
aV0.4
p213
aV8
aV6.78
p214
aasS'defensive_data'
p215
(lp216
(lp217
a(lp218
V2018/2019
p219
aVCrystal Palac..
p220
aVEPL
p221
aV1
aV90
p222
aV-
aV-
aV1
aV-
aV-
aV42.9
p223
aV-
aV-
aV7.04
p224
aa(lp225
V2017/2018
p226
aVGetafe
p227
aVSLL
p228
aV33
p229
aV2970
p230
aV-
aV-
aV1
aV-
aV-
aV38.9
p231
aV0.4
p232
aV3
aV6.82
p233
aa(lp234
V2015/2016
p235
aVGetafe
p236
aVSLL
p237
aV38
p238
aV3420
p239
aV-
aV-
aV2
aV-
aV-
aV44.2
p240
aV0.5
p241
aV-
aV6.62
p242
aa(lp243
V2014/2015
p244
aVGetafe
p245
aVSLL
p246
aV29
p247
aV2610
p248
aV-
aV-
aV1
aV-
aV-
aV47.1
p249
aV0.7
p250
aV-
aV6.56
p251
aa(lp252
V2013/2014
p253
aVValencia
p254
aVSLL
p255
aV11(2)
p256
aV1136
p257
aV-
aV-
aV1
aV-
aV-
aV52.1
p258
aV0.6
p259
aV-
aV6.63
p260
aa(lp261
V2013/2014
p262
aVValencia
p263
aVUEL
p264
aV7
aV660
p265
aV-
aV-
aV1
aV-
aV-
aV67.4
p266
aV-
aV-
aV6.39
p267
aa(lp268
V2012/2013
p269
aVValencia
p270
aVSLL
p271
aV14
p272
aV1260
p273
aV-
aV-
aV1
aV-
aV-
aV56.3
p274
aV0.8
p275
aV1
aV7.02
p276
aa(lp277
V2012/2013
p278
aVValencia
p279
aVUCL
p280
aV6
aV540
p281
aV-
aV-
aV2
aV-
aV-
aV69.3
p282
aV0.2
p283
aV1
aV7.05
p284
aa(lp285
V2011/2012
p286
aVValencia
p287
aVSLL
p288
aV26
p289
aV2340
p290
aV-
aV-
aV1
aV-
aV-
aV58.6
p291
aV0.3
p292
aV2
aV7.02
p293
aa(lp294
V2010/2011
p295
aVValencia
p296
aVSLL
p297
aV19(2)
p298
aV1793
p299
aV-
aV-
aV2
aV-
aV-
aV58.5
p300
aV-
aV-
aV6.93
p301
aa(lp302
V2010/2011
p303
aVValencia
p304
aVUCL
p305
aV3(1)
p306
aV337
p307
aV-
aV-
aV-
aV-
aV-
aV53.8
p308
aV0.3
p309
aV1
aV6.94
p310
aa(lp311
VTotal / Average
p312
aV
aV
aV192
p313
aV17156
p314
aV0
aV0
aV13
p315
aV0
aV0
aV50.5
p316
aV0.4
p317
aV8
aV6.78
p318
aasS'sumary_data'
p319
(lp320
(lp321
a(lp322
V2018/2019
p323
aVCrystal Palac..
p324
aVEPL
p325
aV1
aV90
p326
aV-
aV-
aV1
aV-
aV-
aV42.9
p327
aV-
aV-
aV7.04
p328
aa(lp329
V2017/2018
p330
aVGetafe
p331
aVSLL
p332
aV33
p333
aV2970
p334
aV-
aV-
aV1
aV-
aV-
aV38.9
p335
aV0.4
p336
aV3
aV6.82
p337
aa(lp338
V2015/2016
p339
aVGetafe
p340
aVSLL
p341
aV38
p342
aV3420
p343
aV-
aV-
aV2
aV-
aV-
aV44.2
p344
aV0.5
p345
aV-
aV6.62
p346
aa(lp347
V2014/2015
p348
aVGetafe
p349
aVSLL
p350
aV29
p351
aV2610
p352
aV-
aV-
aV1
aV-
aV-
aV47.1
p353
aV0.7
p354
aV-
aV6.56
p355
aa(lp356
V2013/2014
p357
aVValencia
p358
aVSLL
p359
aV11(2)
p360
aV1136
p361
aV-
aV-
aV1
aV-
aV-
aV52.1
p362
aV0.6
p363
aV-
aV6.63
p364
aa(lp365
V2013/2014
p366
aVValencia
p367
aVUEL
p368
aV7
aV660
p369
aV-
aV-
aV1
aV-
aV-
aV67.4
p370
aV-
aV-
aV6.39
p371
aa(lp372
V2012/2013
p373
aVValencia
p374
aVSLL
p375
aV14
p376
aV1260
p377
aV-
aV-
aV1
aV-
aV-
aV56.3
p378
aV0.8
p379
aV1
aV7.02
p380
aa(lp381
V2012/2013
p382
aVValencia
p383
aVUCL
p384
aV6
aV540
p385
aV-
aV-
aV2
aV-
aV-
aV69.3
p386
aV0.2
p387
aV1
aV7.05
p388
aa(lp389
V2011/2012
p390
aVValencia
p391
aVSLL
p392
aV26
p393
aV2340
p394
aV-
aV-
aV1
aV-
aV-
aV58.6
p395
aV0.3
p396
aV2
aV7.02
p397
aa(lp398
V2010/2011
p399
aVValencia
p400
aVSLL
p401
aV19(2)
p402
aV1793
p403
aV-
aV-
aV2
aV-
aV-
aV58.5
p404
aV-
aV-
aV6.93
p405
aa(lp406
V2010/2011
p407
aVValencia
p408
aVUCL
p409
aV3(1)
p410
aV337
p411
aV-
aV-
aV-
aV-
aV-
aV53.8
p412
aV0.3
p413
aV1
aV6.94
p414
aa(lp415
VTotal / Average
p416
aV
aV
aV192
p417
aV17156
p418
aV0
aV0
aV13
p419
aV0
aV0
aV50.5
p420
aV0.4
p421
aV8
aV6.78
p422
aasS'id'
p423
V33866
p424
sb.