(i__main__
Player
p1
(dp2
S'name'
p3
VJames Tomkins 
p4
sS'offensive_data'
p5
(lp6
(lp7
a(lp8
V2018/2019
p9
aVCrystal Palac..
p10
aVEPL
p11
aV14
p12
aV1230
p13
aV-
aV1
aV5
aV-
aV0.7
p14
aV86
p15
aV3.1
p16
aV-
aV6.78
p17
aa(lp18
V2017/2018
p19
aVCrystal Palac..
p20
aVEPL
p21
aV27(1)
p22
aV2388
p23
aV3
aV-
aV8
aV-
aV0.8
p24
aV81.8
p25
aV4.1
p26
aV3
aV7.31
p27
aa(lp28
V2016/2017
p29
aVCrystal Palac..
p30
aVEPL
p31
aV23(1)
p32
aV1978
p33
aV3
aV-
aV4
aV-
aV0.6
p34
aV76.9
p35
aV2.4
p36
aV-
aV6.76
p37
aa(lp38
V2015/2016
p39
aVWest Ham
p40
aVEPL
p41
aV23(2)
p42
aV1965
p43
aV-
aV-
aV4
aV-
aV0.4
p44
aV79.5
p45
aV1.4
p46
aV1
aV6.89
p47
aa(lp48
V2014/2015
p49
aVWest Ham
p50
aVEPL
p51
aV20(2)
p52
aV1852
p53
aV1
aV3
aV6
aV-
aV0.8
p54
aV75.3
p55
aV4.6
p56
aV2
aV7.40
p57
aa(lp58
V2013/2014
p59
aVWest Ham
p60
aVEPL
p61
aV31
p62
aV2601
p63
aV-
aV-
aV5
aV1
aV0.4
p64
aV73.7
p65
aV4
aV1
aV7.17
p66
aa(lp67
V2012/2013
p68
aVWest Ham
p69
aVEPL
p70
aV18(8)
p71
aV1730
p72
aV1
aV1
aV5
aV-
aV0.8
p73
aV75.1
p74
aV2.7
p75
aV1
aV6.84
p76
aa(lp77
V2010/2011
p78
aVWest Ham
p79
aVEPL
p80
aV18(1)
p81
aV1582
p82
aV1
aV1
aV3
aV-
aV0.7
p83
aV79
p84
aV2.9
p85
aV2
aV7.34
p86
aa(lp87
V2009/2010
p88
aVWest Ham
p89
aVEPL
p90
aV22(1)
p91
aV1997
p92
aV-
aV-
aV-
aV-
aV0.7
p93
aV80.8
p94
aV3.3
p95
aV-
aV7.05
p96
aa(lp97
VTotal / Average
p98
aV
aV
aV212
p99
aV17323
p100
aV9
aV6
aV40
p101
aV1
aV0.6
p102
aV78.2
p103
aV3.2
p104
aV10
p105
aV7.07
p106
aasS'url'
p107
S'https://www.whoscored.com/Players/33930/History/'
p108
sS'passing_data'
p109
(lp110
(lp111
a(lp112
V2018/2019
p113
aVCrystal Palac..
p114
aVEPL
p115
aV14
p116
aV1230
p117
aV-
aV1
aV5
aV-
aV0.7
p118
aV86
p119
aV3.1
p120
aV-
aV6.78
p121
aa(lp122
V2017/2018
p123
aVCrystal Palac..
p124
aVEPL
p125
aV27(1)
p126
aV2388
p127
aV3
aV-
aV8
aV-
aV0.8
p128
aV81.8
p129
aV4.1
p130
aV3
aV7.31
p131
aa(lp132
V2016/2017
p133
aVCrystal Palac..
p134
aVEPL
p135
aV23(1)
p136
aV1978
p137
aV3
aV-
aV4
aV-
aV0.6
p138
aV76.9
p139
aV2.4
p140
aV-
aV6.76
p141
aa(lp142
V2015/2016
p143
aVWest Ham
p144
aVEPL
p145
aV23(2)
p146
aV1965
p147
aV-
aV-
aV4
aV-
aV0.4
p148
aV79.5
p149
aV1.4
p150
aV1
aV6.89
p151
aa(lp152
V2014/2015
p153
aVWest Ham
p154
aVEPL
p155
aV20(2)
p156
aV1852
p157
aV1
aV3
aV6
aV-
aV0.8
p158
aV75.3
p159
aV4.6
p160
aV2
aV7.40
p161
aa(lp162
V2013/2014
p163
aVWest Ham
p164
aVEPL
p165
aV31
p166
aV2601
p167
aV-
aV-
aV5
aV1
aV0.4
p168
aV73.7
p169
aV4
aV1
aV7.17
p170
aa(lp171
V2012/2013
p172
aVWest Ham
p173
aVEPL
p174
aV18(8)
p175
aV1730
p176
aV1
aV1
aV5
aV-
aV0.8
p177
aV75.1
p178
aV2.7
p179
aV1
aV6.84
p180
aa(lp181
V2010/2011
p182
aVWest Ham
p183
aVEPL
p184
aV18(1)
p185
aV1582
p186
aV1
aV1
aV3
aV-
aV0.7
p187
aV79
p188
aV2.9
p189
aV2
aV7.34
p190
aa(lp191
V2009/2010
p192
aVWest Ham
p193
aVEPL
p194
aV22(1)
p195
aV1997
p196
aV-
aV-
aV-
aV-
aV0.7
p197
aV80.8
p198
aV3.3
p199
aV-
aV7.05
p200
aa(lp201
VTotal / Average
p202
aV
aV
aV212
p203
aV17323
p204
aV9
aV6
aV40
p205
aV1
aV0.6
p206
aV78.2
p207
aV3.2
p208
aV10
p209
aV7.07
p210
aasS'defensive_data'
p211
(lp212
(lp213
a(lp214
V2018/2019
p215
aVCrystal Palac..
p216
aVEPL
p217
aV14
p218
aV1230
p219
aV-
aV1
aV5
aV-
aV0.7
p220
aV86
p221
aV3.1
p222
aV-
aV6.78
p223
aa(lp224
V2017/2018
p225
aVCrystal Palac..
p226
aVEPL
p227
aV27(1)
p228
aV2388
p229
aV3
aV-
aV8
aV-
aV0.8
p230
aV81.8
p231
aV4.1
p232
aV3
aV7.31
p233
aa(lp234
V2016/2017
p235
aVCrystal Palac..
p236
aVEPL
p237
aV23(1)
p238
aV1978
p239
aV3
aV-
aV4
aV-
aV0.6
p240
aV76.9
p241
aV2.4
p242
aV-
aV6.76
p243
aa(lp244
V2015/2016
p245
aVWest Ham
p246
aVEPL
p247
aV23(2)
p248
aV1965
p249
aV-
aV-
aV4
aV-
aV0.4
p250
aV79.5
p251
aV1.4
p252
aV1
aV6.89
p253
aa(lp254
V2014/2015
p255
aVWest Ham
p256
aVEPL
p257
aV20(2)
p258
aV1852
p259
aV1
aV3
aV6
aV-
aV0.8
p260
aV75.3
p261
aV4.6
p262
aV2
aV7.40
p263
aa(lp264
V2013/2014
p265
aVWest Ham
p266
aVEPL
p267
aV31
p268
aV2601
p269
aV-
aV-
aV5
aV1
aV0.4
p270
aV73.7
p271
aV4
aV1
aV7.17
p272
aa(lp273
V2012/2013
p274
aVWest Ham
p275
aVEPL
p276
aV18(8)
p277
aV1730
p278
aV1
aV1
aV5
aV-
aV0.8
p279
aV75.1
p280
aV2.7
p281
aV1
aV6.84
p282
aa(lp283
V2010/2011
p284
aVWest Ham
p285
aVEPL
p286
aV18(1)
p287
aV1582
p288
aV1
aV1
aV3
aV-
aV0.7
p289
aV79
p290
aV2.9
p291
aV2
aV7.34
p292
aa(lp293
V2009/2010
p294
aVWest Ham
p295
aVEPL
p296
aV22(1)
p297
aV1997
p298
aV-
aV-
aV-
aV-
aV0.7
p299
aV80.8
p300
aV3.3
p301
aV-
aV7.05
p302
aa(lp303
VTotal / Average
p304
aV
aV
aV212
p305
aV17323
p306
aV9
aV6
aV40
p307
aV1
aV0.6
p308
aV78.2
p309
aV3.2
p310
aV10
p311
aV7.07
p312
aasS'sumary_data'
p313
(lp314
(lp315
a(lp316
V2018/2019
p317
aVCrystal Palac..
p318
aVEPL
p319
aV14
p320
aV1230
p321
aV-
aV1
aV5
aV-
aV0.7
p322
aV86
p323
aV3.1
p324
aV-
aV6.78
p325
aa(lp326
V2017/2018
p327
aVCrystal Palac..
p328
aVEPL
p329
aV27(1)
p330
aV2388
p331
aV3
aV-
aV8
aV-
aV0.8
p332
aV81.8
p333
aV4.1
p334
aV3
aV7.31
p335
aa(lp336
V2016/2017
p337
aVCrystal Palac..
p338
aVEPL
p339
aV23(1)
p340
aV1978
p341
aV3
aV-
aV4
aV-
aV0.6
p342
aV76.9
p343
aV2.4
p344
aV-
aV6.76
p345
aa(lp346
V2015/2016
p347
aVWest Ham
p348
aVEPL
p349
aV23(2)
p350
aV1965
p351
aV-
aV-
aV4
aV-
aV0.4
p352
aV79.5
p353
aV1.4
p354
aV1
aV6.89
p355
aa(lp356
V2014/2015
p357
aVWest Ham
p358
aVEPL
p359
aV20(2)
p360
aV1852
p361
aV1
aV3
aV6
aV-
aV0.8
p362
aV75.3
p363
aV4.6
p364
aV2
aV7.40
p365
aa(lp366
V2013/2014
p367
aVWest Ham
p368
aVEPL
p369
aV31
p370
aV2601
p371
aV-
aV-
aV5
aV1
aV0.4
p372
aV73.7
p373
aV4
aV1
aV7.17
p374
aa(lp375
V2012/2013
p376
aVWest Ham
p377
aVEPL
p378
aV18(8)
p379
aV1730
p380
aV1
aV1
aV5
aV-
aV0.8
p381
aV75.1
p382
aV2.7
p383
aV1
aV6.84
p384
aa(lp385
V2010/2011
p386
aVWest Ham
p387
aVEPL
p388
aV18(1)
p389
aV1582
p390
aV1
aV1
aV3
aV-
aV0.7
p391
aV79
p392
aV2.9
p393
aV2
aV7.34
p394
aa(lp395
V2009/2010
p396
aVWest Ham
p397
aVEPL
p398
aV22(1)
p399
aV1997
p400
aV-
aV-
aV-
aV-
aV0.7
p401
aV80.8
p402
aV3.3
p403
aV-
aV7.05
p404
aa(lp405
VTotal / Average
p406
aV
aV
aV212
p407
aV17323
p408
aV9
aV6
aV40
p409
aV1
aV0.6
p410
aV78.2
p411
aV3.2
p412
aV10
p413
aV7.07
p414
aasS'id'
p415
V33930
p416
sb.