(i__main__
Player
p1
(dp2
S'name'
p3
VVicente Iborra 
p4
sS'offensive_data'
p5
(lp6
(lp7
a(lp8
V2018/2019
p9
aVLeicester
p10
aVEPL
p11
aV3(5)
p12
aV226
p13
aV-
aV-
aV-
aV-
aV0.3
p14
aV86.4
p15
aV1
aV-
aV6.20
p16
aa(lp17
V2017/2018
p18
aVLeicester
p19
aVEPL
p20
aV17(2)
p21
aV1417
p22
aV3
aV-
aV-
aV-
aV0.7
p23
aV81.4
p24
aV1.7
p25
aV1
aV6.85
p26
aa(lp27
V2016/2017
p28
aVSevilla
p29
aVSLL
p30
aV12(19)
p31
aV1473
p32
aV7
aV2
aV9
aV-
aV1
aV82.1
p33
aV2.1
p34
aV3
aV6.80
p35
aa(lp36
V2016/2017
p37
aVSevilla
p38
aVUCL
p39
aV4(3)
p40
aV419
p41
aV-
aV-
aV2
aV-
aV0.6
p42
aV81.3
p43
aV2.4
p44
aV-
aV6.49
p45
aa(lp46
V2015/2016
p47
aVSevilla
p48
aVSLL
p49
aV21(8)
p50
aV1741
p51
aV7
aV2
aV8
aV1
aV1.1
p52
aV67
p53
aV2.6
p54
aV-
aV6.72
p55
aa(lp56
V2015/2016
p57
aVSevilla
p58
aVUEL
p59
aV3(4)
p60
aV264
p61
aV1
aV-
aV-
aV-
aV0.9
p62
aV76.3
p63
aV1.7
p64
aV-
aV6.62
p65
aa(lp66
V2015/2016
p67
aVSevilla
p68
aVUCL
p69
aV2(1)
p70
aV160
p71
aV-
aV-
aV1
aV-
aV1
aV76.5
p72
aV1.7
p73
aV-
aV6.17
p74
aa(lp75
V2014/2015
p76
aVSevilla
p77
aVSLL
p78
aV24(2)
p79
aV2026
p80
aV7
aV1
aV7
aV-
aV1.5
p81
aV74.2
p82
aV4.6
p83
aV3
aV7.32
p84
aa(lp85
V2014/2015
p86
aVSevilla
p87
aVUEL
p88
aV7(4)
p89
aV682
p90
aV2
aV1
aV2
aV-
aV1.4
p91
aV60.3
p92
aV4.4
p93
aV-
aV7.00
p94
aa(lp95
V2013/2014
p96
aVSevilla
p97
aVSLL
p98
aV25(2)
p99
aV2121
p100
aV3
aV2
aV10
p101
aV1
aV0.9
p102
aV77
p103
aV3.9
p104
aV2
aV7.15
p105
aa(lp106
V2013/2014
p107
aVSevilla
p108
aVUEL
p109
aV6(4)
p110
aV595
p111
aV1
aV-
aV3
aV-
aV0.5
p112
aV85.9
p113
aV3.5
p114
aV-
aV6.90
p115
aa(lp116
V2012/2013
p117
aVLevante
p118
aVSLL
p119
aV35
p120
aV3063
p121
aV4
aV-
aV12
p122
aV1
aV1
aV74
p123
aV2.5
p124
aV2
aV7.06
p125
aa(lp126
V2012/2013
p127
aVLevante
p128
aVUEL
p129
aV10
p130
aV923
p131
aV2
aV1
aV-
aV-
aV0.7
p132
aV78.8
p133
aV1.9
p134
aV1
aV7.58
p135
aa(lp136
V2011/2012
p137
aVLevante
p138
aVSLL
p139
aV28(5)
p140
aV2328
p141
aV-
aV1
aV9
aV1
aV0.5
p142
aV74.8
p143
aV1.2
p144
aV1
aV7.12
p145
aa(lp146
V2010/2011
p147
aVLevante
p148
aVSLL
p149
aV14(2)
p150
aV1260
p151
aV-
aV-
aV9
aV-
aV1
aV77.9
p152
aV2.3
p153
aV1
aV7.04
p154
aa(lp155
VTotal / Average
p156
aV
aV
aV272
p157
aV18698
p158
aV37
p159
aV10
p160
aV72
p161
aV4
aV0.9
p162
aV76
p163
aV2.6
p164
aV14
p165
aV6.97
p166
aasS'url'
p167
S'https://www.whoscored.com/Players/34052/History/'
p168
sS'passing_data'
p169
(lp170
(lp171
a(lp172
V2018/2019
p173
aVLeicester
p174
aVEPL
p175
aV3(5)
p176
aV226
p177
aV-
aV-
aV-
aV-
aV0.3
p178
aV86.4
p179
aV1
aV-
aV6.20
p180
aa(lp181
V2017/2018
p182
aVLeicester
p183
aVEPL
p184
aV17(2)
p185
aV1417
p186
aV3
aV-
aV-
aV-
aV0.7
p187
aV81.4
p188
aV1.7
p189
aV1
aV6.85
p190
aa(lp191
V2016/2017
p192
aVSevilla
p193
aVSLL
p194
aV12(19)
p195
aV1473
p196
aV7
aV2
aV9
aV-
aV1
aV82.1
p197
aV2.1
p198
aV3
aV6.80
p199
aa(lp200
V2016/2017
p201
aVSevilla
p202
aVUCL
p203
aV4(3)
p204
aV419
p205
aV-
aV-
aV2
aV-
aV0.6
p206
aV81.3
p207
aV2.4
p208
aV-
aV6.49
p209
aa(lp210
V2015/2016
p211
aVSevilla
p212
aVSLL
p213
aV21(8)
p214
aV1741
p215
aV7
aV2
aV8
aV1
aV1.1
p216
aV67
p217
aV2.6
p218
aV-
aV6.72
p219
aa(lp220
V2015/2016
p221
aVSevilla
p222
aVUEL
p223
aV3(4)
p224
aV264
p225
aV1
aV-
aV-
aV-
aV0.9
p226
aV76.3
p227
aV1.7
p228
aV-
aV6.62
p229
aa(lp230
V2015/2016
p231
aVSevilla
p232
aVUCL
p233
aV2(1)
p234
aV160
p235
aV-
aV-
aV1
aV-
aV1
aV76.5
p236
aV1.7
p237
aV-
aV6.17
p238
aa(lp239
V2014/2015
p240
aVSevilla
p241
aVSLL
p242
aV24(2)
p243
aV2026
p244
aV7
aV1
aV7
aV-
aV1.5
p245
aV74.2
p246
aV4.6
p247
aV3
aV7.32
p248
aa(lp249
V2014/2015
p250
aVSevilla
p251
aVUEL
p252
aV7(4)
p253
aV682
p254
aV2
aV1
aV2
aV-
aV1.4
p255
aV60.3
p256
aV4.4
p257
aV-
aV7.00
p258
aa(lp259
V2013/2014
p260
aVSevilla
p261
aVSLL
p262
aV25(2)
p263
aV2121
p264
aV3
aV2
aV10
p265
aV1
aV0.9
p266
aV77
p267
aV3.9
p268
aV2
aV7.15
p269
aa(lp270
V2013/2014
p271
aVSevilla
p272
aVUEL
p273
aV6(4)
p274
aV595
p275
aV1
aV-
aV3
aV-
aV0.5
p276
aV85.9
p277
aV3.5
p278
aV-
aV6.90
p279
aa(lp280
V2012/2013
p281
aVLevante
p282
aVSLL
p283
aV35
p284
aV3063
p285
aV4
aV-
aV12
p286
aV1
aV1
aV74
p287
aV2.5
p288
aV2
aV7.06
p289
aa(lp290
V2012/2013
p291
aVLevante
p292
aVUEL
p293
aV10
p294
aV923
p295
aV2
aV1
aV-
aV-
aV0.7
p296
aV78.8
p297
aV1.9
p298
aV1
aV7.58
p299
aa(lp300
V2011/2012
p301
aVLevante
p302
aVSLL
p303
aV28(5)
p304
aV2328
p305
aV-
aV1
aV9
aV1
aV0.5
p306
aV74.8
p307
aV1.2
p308
aV1
aV7.12
p309
aa(lp310
V2010/2011
p311
aVLevante
p312
aVSLL
p313
aV14(2)
p314
aV1260
p315
aV-
aV-
aV9
aV-
aV1
aV77.9
p316
aV2.3
p317
aV1
aV7.04
p318
aa(lp319
VTotal / Average
p320
aV
aV
aV272
p321
aV18698
p322
aV37
p323
aV10
p324
aV72
p325
aV4
aV0.9
p326
aV76
p327
aV2.6
p328
aV14
p329
aV6.97
p330
aasS'defensive_data'
p331
(lp332
(lp333
a(lp334
V2018/2019
p335
aVLeicester
p336
aVEPL
p337
aV3(5)
p338
aV226
p339
aV-
aV-
aV-
aV-
aV0.3
p340
aV86.4
p341
aV1
aV-
aV6.20
p342
aa(lp343
V2017/2018
p344
aVLeicester
p345
aVEPL
p346
aV17(2)
p347
aV1417
p348
aV3
aV-
aV-
aV-
aV0.7
p349
aV81.4
p350
aV1.7
p351
aV1
aV6.85
p352
aa(lp353
V2016/2017
p354
aVSevilla
p355
aVSLL
p356
aV12(19)
p357
aV1473
p358
aV7
aV2
aV9
aV-
aV1
aV82.1
p359
aV2.1
p360
aV3
aV6.80
p361
aa(lp362
V2016/2017
p363
aVSevilla
p364
aVUCL
p365
aV4(3)
p366
aV419
p367
aV-
aV-
aV2
aV-
aV0.6
p368
aV81.3
p369
aV2.4
p370
aV-
aV6.49
p371
aa(lp372
V2015/2016
p373
aVSevilla
p374
aVSLL
p375
aV21(8)
p376
aV1741
p377
aV7
aV2
aV8
aV1
aV1.1
p378
aV67
p379
aV2.6
p380
aV-
aV6.72
p381
aa(lp382
V2015/2016
p383
aVSevilla
p384
aVUEL
p385
aV3(4)
p386
aV264
p387
aV1
aV-
aV-
aV-
aV0.9
p388
aV76.3
p389
aV1.7
p390
aV-
aV6.62
p391
aa(lp392
V2015/2016
p393
aVSevilla
p394
aVUCL
p395
aV2(1)
p396
aV160
p397
aV-
aV-
aV1
aV-
aV1
aV76.5
p398
aV1.7
p399
aV-
aV6.17
p400
aa(lp401
V2014/2015
p402
aVSevilla
p403
aVSLL
p404
aV24(2)
p405
aV2026
p406
aV7
aV1
aV7
aV-
aV1.5
p407
aV74.2
p408
aV4.6
p409
aV3
aV7.32
p410
aa(lp411
V2014/2015
p412
aVSevilla
p413
aVUEL
p414
aV7(4)
p415
aV682
p416
aV2
aV1
aV2
aV-
aV1.4
p417
aV60.3
p418
aV4.4
p419
aV-
aV7.00
p420
aa(lp421
V2013/2014
p422
aVSevilla
p423
aVSLL
p424
aV25(2)
p425
aV2121
p426
aV3
aV2
aV10
p427
aV1
aV0.9
p428
aV77
p429
aV3.9
p430
aV2
aV7.15
p431
aa(lp432
V2013/2014
p433
aVSevilla
p434
aVUEL
p435
aV6(4)
p436
aV595
p437
aV1
aV-
aV3
aV-
aV0.5
p438
aV85.9
p439
aV3.5
p440
aV-
aV6.90
p441
aa(lp442
V2012/2013
p443
aVLevante
p444
aVSLL
p445
aV35
p446
aV3063
p447
aV4
aV-
aV12
p448
aV1
aV1
aV74
p449
aV2.5
p450
aV2
aV7.06
p451
aa(lp452
V2012/2013
p453
aVLevante
p454
aVUEL
p455
aV10
p456
aV923
p457
aV2
aV1
aV-
aV-
aV0.7
p458
aV78.8
p459
aV1.9
p460
aV1
aV7.58
p461
aa(lp462
V2011/2012
p463
aVLevante
p464
aVSLL
p465
aV28(5)
p466
aV2328
p467
aV-
aV1
aV9
aV1
aV0.5
p468
aV74.8
p469
aV1.2
p470
aV1
aV7.12
p471
aa(lp472
V2010/2011
p473
aVLevante
p474
aVSLL
p475
aV14(2)
p476
aV1260
p477
aV-
aV-
aV9
aV-
aV1
aV77.9
p478
aV2.3
p479
aV1
aV7.04
p480
aa(lp481
VTotal / Average
p482
aV
aV
aV272
p483
aV18698
p484
aV37
p485
aV10
p486
aV72
p487
aV4
aV0.9
p488
aV76
p489
aV2.6
p490
aV14
p491
aV6.97
p492
aasS'sumary_data'
p493
(lp494
(lp495
a(lp496
V2018/2019
p497
aVLeicester
p498
aVEPL
p499
aV3(5)
p500
aV226
p501
aV-
aV-
aV-
aV-
aV0.3
p502
aV86.4
p503
aV1
aV-
aV6.20
p504
aa(lp505
V2017/2018
p506
aVLeicester
p507
aVEPL
p508
aV17(2)
p509
aV1417
p510
aV3
aV-
aV-
aV-
aV0.7
p511
aV81.4
p512
aV1.7
p513
aV1
aV6.85
p514
aa(lp515
V2016/2017
p516
aVSevilla
p517
aVSLL
p518
aV12(19)
p519
aV1473
p520
aV7
aV2
aV9
aV-
aV1
aV82.1
p521
aV2.1
p522
aV3
aV6.80
p523
aa(lp524
V2016/2017
p525
aVSevilla
p526
aVUCL
p527
aV4(3)
p528
aV419
p529
aV-
aV-
aV2
aV-
aV0.6
p530
aV81.3
p531
aV2.4
p532
aV-
aV6.49
p533
aa(lp534
V2015/2016
p535
aVSevilla
p536
aVSLL
p537
aV21(8)
p538
aV1741
p539
aV7
aV2
aV8
aV1
aV1.1
p540
aV67
p541
aV2.6
p542
aV-
aV6.72
p543
aa(lp544
V2015/2016
p545
aVSevilla
p546
aVUEL
p547
aV3(4)
p548
aV264
p549
aV1
aV-
aV-
aV-
aV0.9
p550
aV76.3
p551
aV1.7
p552
aV-
aV6.62
p553
aa(lp554
V2015/2016
p555
aVSevilla
p556
aVUCL
p557
aV2(1)
p558
aV160
p559
aV-
aV-
aV1
aV-
aV1
aV76.5
p560
aV1.7
p561
aV-
aV6.17
p562
aa(lp563
V2014/2015
p564
aVSevilla
p565
aVSLL
p566
aV24(2)
p567
aV2026
p568
aV7
aV1
aV7
aV-
aV1.5
p569
aV74.2
p570
aV4.6
p571
aV3
aV7.32
p572
aa(lp573
V2014/2015
p574
aVSevilla
p575
aVUEL
p576
aV7(4)
p577
aV682
p578
aV2
aV1
aV2
aV-
aV1.4
p579
aV60.3
p580
aV4.4
p581
aV-
aV7.00
p582
aa(lp583
V2013/2014
p584
aVSevilla
p585
aVSLL
p586
aV25(2)
p587
aV2121
p588
aV3
aV2
aV10
p589
aV1
aV0.9
p590
aV77
p591
aV3.9
p592
aV2
aV7.15
p593
aa(lp594
V2013/2014
p595
aVSevilla
p596
aVUEL
p597
aV6(4)
p598
aV595
p599
aV1
aV-
aV3
aV-
aV0.5
p600
aV85.9
p601
aV3.5
p602
aV-
aV6.90
p603
aa(lp604
V2012/2013
p605
aVLevante
p606
aVSLL
p607
aV35
p608
aV3063
p609
aV4
aV-
aV12
p610
aV1
aV1
aV74
p611
aV2.5
p612
aV2
aV7.06
p613
aa(lp614
V2012/2013
p615
aVLevante
p616
aVUEL
p617
aV10
p618
aV923
p619
aV2
aV1
aV-
aV-
aV0.7
p620
aV78.8
p621
aV1.9
p622
aV1
aV7.58
p623
aa(lp624
V2011/2012
p625
aVLevante
p626
aVSLL
p627
aV28(5)
p628
aV2328
p629
aV-
aV1
aV9
aV1
aV0.5
p630
aV74.8
p631
aV1.2
p632
aV1
aV7.12
p633
aa(lp634
V2010/2011
p635
aVLevante
p636
aVSLL
p637
aV14(2)
p638
aV1260
p639
aV-
aV-
aV9
aV-
aV1
aV77.9
p640
aV2.3
p641
aV1
aV7.04
p642
aa(lp643
VTotal / Average
p644
aV
aV
aV272
p645
aV18698
p646
aV37
p647
aV10
p648
aV72
p649
aV4
aV0.9
p650
aV76
p651
aV2.6
p652
aV14
p653
aV6.97
p654
aasS'id'
p655
V34052
p656
sb.