(i__main__
Player
p1
(dp2
S'name'
p3
VEddie Nketiah 
p4
sS'offensive_data'
p5
(lp6
(lp7
a(lp8
V2018/2019
p9
aVArsenal
p10
aVEPL
p11
aV0(1)
p12
aV1
aV-
aV-
aV-
aV-
aV-
aV-
aV-
aV-
aV6.00
p13
aa(lp14
V2018/2019
p15
aVArsenal
p16
aVUEL
p17
aV2
aV180
p18
aV-
aV-
aV-
aV-
aV2
aV81.6
p19
aV0.5
p20
aV-
aV7.49
p21
aa(lp22
V2017/2018
p23
aVArsenal
p24
aVUEL
p25
aV0(5)
p26
aV49
p27
aV-
aV-
aV-
aV-
aV-
aV87
p28
aV0.2
p29
aV-
aV6.09
p30
aa(lp31
V2017/2018
p32
aVArsenal
p33
aVEPL
p34
aV0(3)
p35
aV17
p36
aV-
aV-
aV-
aV-
aV0.3
p37
aV85.7
p38
aV-
aV-
aV6.05
p39
aa(lp40
VTotal / Average
p41
aV
aV
aV11
p42
aV247
p43
aV0
aV0
aV0
aV0
aV0.5
p44
aV77.7
p45
aV0.2
p46
aV0
aV6.32
p47
aasS'url'
p48
S'https://www.whoscored.com/Players/345845/History/'
p49
sS'passing_data'
p50
(lp51
(lp52
a(lp53
V2018/2019
p54
aVArsenal
p55
aVEPL
p56
aV0(1)
p57
aV1
aV-
aV-
aV-
aV-
aV-
aV-
aV-
aV-
aV6.00
p58
aa(lp59
V2018/2019
p60
aVArsenal
p61
aVUEL
p62
aV2
aV180
p63
aV-
aV-
aV-
aV-
aV2
aV81.6
p64
aV0.5
p65
aV-
aV7.49
p66
aa(lp67
V2017/2018
p68
aVArsenal
p69
aVUEL
p70
aV0(5)
p71
aV49
p72
aV-
aV-
aV-
aV-
aV-
aV87
p73
aV0.2
p74
aV-
aV6.09
p75
aa(lp76
V2017/2018
p77
aVArsenal
p78
aVEPL
p79
aV0(3)
p80
aV17
p81
aV-
aV-
aV-
aV-
aV0.3
p82
aV85.7
p83
aV-
aV-
aV6.05
p84
aa(lp85
VTotal / Average
p86
aV
aV
aV11
p87
aV247
p88
aV0
aV0
aV0
aV0
aV0.5
p89
aV77.7
p90
aV0.2
p91
aV0
aV6.32
p92
aasS'defensive_data'
p93
(lp94
(lp95
a(lp96
V2018/2019
p97
aVArsenal
p98
aVEPL
p99
aV0(1)
p100
aV1
aV-
aV-
aV-
aV-
aV-
aV-
aV-
aV-
aV6.00
p101
aa(lp102
V2018/2019
p103
aVArsenal
p104
aVUEL
p105
aV2
aV180
p106
aV-
aV-
aV-
aV-
aV2
aV81.6
p107
aV0.5
p108
aV-
aV7.49
p109
aa(lp110
V2017/2018
p111
aVArsenal
p112
aVUEL
p113
aV0(5)
p114
aV49
p115
aV-
aV-
aV-
aV-
aV-
aV87
p116
aV0.2
p117
aV-
aV6.09
p118
aa(lp119
V2017/2018
p120
aVArsenal
p121
aVEPL
p122
aV0(3)
p123
aV17
p124
aV-
aV-
aV-
aV-
aV0.3
p125
aV85.7
p126
aV-
aV-
aV6.05
p127
aa(lp128
VTotal / Average
p129
aV
aV
aV11
p130
aV247
p131
aV0
aV0
aV0
aV0
aV0.5
p132
aV77.7
p133
aV0.2
p134
aV0
aV6.32
p135
aasS'sumary_data'
p136
(lp137
(lp138
a(lp139
V2018/2019
p140
aVArsenal
p141
aVEPL
p142
aV0(1)
p143
aV1
aV-
aV-
aV-
aV-
aV-
aV-
aV-
aV-
aV6.00
p144
aa(lp145
V2018/2019
p146
aVArsenal
p147
aVUEL
p148
aV2
aV180
p149
aV-
aV-
aV-
aV-
aV2
aV81.6
p150
aV0.5
p151
aV-
aV7.49
p152
aa(lp153
V2017/2018
p154
aVArsenal
p155
aVUEL
p156
aV0(5)
p157
aV49
p158
aV-
aV-
aV-
aV-
aV-
aV87
p159
aV0.2
p160
aV-
aV6.09
p161
aa(lp162
V2017/2018
p163
aVArsenal
p164
aVEPL
p165
aV0(3)
p166
aV17
p167
aV-
aV-
aV-
aV-
aV0.3
p168
aV85.7
p169
aV-
aV-
aV6.05
p170
aa(lp171
VTotal / Average
p172
aV
aV
aV11
p173
aV247
p174
aV0
aV0
aV0
aV0
aV0.5
p175
aV77.7
p176
aV0.2
p177
aV0
aV6.32
p178
aasS'id'
p179
V345845
p180
sb.