(i__main__
Player
p1
(dp2
S'name'
p3
VMarko Arnautovic 
p4
sS'offensive_data'
p5
(lp6
(lp7
a(lp8
V2018/2019
p9
aVWest Ham
p10
aVEPL
p11
aV13
p12
aV1014
p13
aV5
aV2
aV3
aV-
aV2.8
p14
aV73.6
p15
aV0.8
p16
aV1
aV6.97
p17
aa(lp18
V2018/2019
p19
aVAustria
p20
aVUNL
p21
aV3(1)
p22
aV289
p23
aV1
aV1
aV-
aV-
aV2.5
p24
aV73.7
p25
aV0.5
p26
aV-
aV6.71
p27
aa(lp28
V2017/2018
p29
aVWest Ham
p30
aVEPL
p31
aV28(3)
p32
aV2323
p33
aV11
p34
aV6
aV5
aV1
aV2.3
p35
aV71.6
p36
aV0.7
p37
aV5
aV7.07
p38
aa(lp39
V2016/2017
p40
aVStoke
p41
aVEPL
p42
aV32
p43
aV2725
p44
aV6
aV5
aV9
aV1
aV1.9
p45
aV75.4
p46
aV0.4
p47
aV1
aV6.84
p48
aa(lp49
V2015/2016
p50
aVStoke
p51
aVEPL
p52
aV33(1)
p53
aV2820
p54
aV11
p55
aV6
aV2
aV-
aV2.1
p56
aV79.5
p57
aV0.2
p58
aV2
aV7.05
p59
aa(lp60
V2014/2015
p61
aVStoke
p62
aVEPL
p63
aV20(9)
p64
aV1918
p65
aV1
aV5
aV2
aV-
aV1.5
p66
aV79.8
p67
aV0.4
p68
aV1
aV6.75
p69
aa(lp70
V2016
p71
aVAustria
p72
aVUEC
p73
aV3
aV270
p74
aV-
aV-
aV-
aV-
aV1.3
p75
aV75.5
p76
aV0.3
p77
aV-
aV6.39
p78
aa(lp79
V2013/2014
p80
aVWerder Bremen
p81
aVGB
p82
aV1(1)
p83
aV90
p84
aV-
aV-
aV-
aV-
aV1
aV66.7
p85
aV2
aV-
aV5.99
p86
aa(lp87
V2013/2014
p88
aVStoke
p89
aVEPL
p90
aV27(3)
p91
aV2257
p92
aV4
aV7
aV3
aV-
aV2.4
p93
aV80.3
p94
aV0.5
p95
aV2
aV7.02
p96
aa(lp97
V2012/2013
p98
aVWerder Bremen
p99
aVGB
p100
aV21(5)
p101
aV1968
p102
aV5
aV6
aV8
aV1
aV2.6
p103
aV74.9
p104
aV1.2
p105
aV1
aV6.92
p106
aa(lp107
V2011/2012
p108
aVWerder Bremen
p109
aVGB
p110
aV10(9)
p111
aV978
p112
aV6
aV-
aV-
aV1
aV2.2
p113
aV76
p114
aV0.1
p115
aV-
aV6.72
p116
aa(lp117
V2010/2011
p118
aVWerder Bremen
p119
aVGB
p120
aV15(10)
p121
aV1561
p122
aV3
aV3
aV4
aV-
aV2.1
p123
aV76.1
p124
aV0.1
p125
aV1
aV6.59
p126
aa(lp127
V2010/2011
p128
aVWerder Bremen
p129
aVUCL
p130
aV3(2)
p131
aV332
p132
aV2
aV-
aV-
aV-
aV2.4
p133
aV79.5
p134
aV0.6
p135
aV1
aV7.08
p136
aa(lp137
V2009/2010
p138
aVInter
p139
aVISA
p140
aV0(3)
p141
aV57
p142
aV-
aV-
aV-
aV-
aV1.3
p143
aV80
p144
aV-
aV-
aV6.18
p145
aa(lp146
VTotal / Average
p147
aV
aV
aV256
p148
aV18602
p149
aV55
p150
aV41
p151
aV36
p152
aV4
aV2.1
p153
aV76.6
p154
aV0.5
p155
aV15
p156
aV6.87
p157
aasS'url'
p158
S'https://www.whoscored.com/Players/34693/History/'
p159
sS'passing_data'
p160
(lp161
(lp162
a(lp163
V2018/2019
p164
aVWest Ham
p165
aVEPL
p166
aV13
p167
aV1014
p168
aV5
aV2
aV3
aV-
aV2.8
p169
aV73.6
p170
aV0.8
p171
aV1
aV6.97
p172
aa(lp173
V2018/2019
p174
aVAustria
p175
aVUNL
p176
aV3(1)
p177
aV289
p178
aV1
aV1
aV-
aV-
aV2.5
p179
aV73.7
p180
aV0.5
p181
aV-
aV6.71
p182
aa(lp183
V2017/2018
p184
aVWest Ham
p185
aVEPL
p186
aV28(3)
p187
aV2323
p188
aV11
p189
aV6
aV5
aV1
aV2.3
p190
aV71.6
p191
aV0.7
p192
aV5
aV7.07
p193
aa(lp194
V2016/2017
p195
aVStoke
p196
aVEPL
p197
aV32
p198
aV2725
p199
aV6
aV5
aV9
aV1
aV1.9
p200
aV75.4
p201
aV0.4
p202
aV1
aV6.84
p203
aa(lp204
V2015/2016
p205
aVStoke
p206
aVEPL
p207
aV33(1)
p208
aV2820
p209
aV11
p210
aV6
aV2
aV-
aV2.1
p211
aV79.5
p212
aV0.2
p213
aV2
aV7.05
p214
aa(lp215
V2014/2015
p216
aVStoke
p217
aVEPL
p218
aV20(9)
p219
aV1918
p220
aV1
aV5
aV2
aV-
aV1.5
p221
aV79.8
p222
aV0.4
p223
aV1
aV6.75
p224
aa(lp225
V2016
p226
aVAustria
p227
aVUEC
p228
aV3
aV270
p229
aV-
aV-
aV-
aV-
aV1.3
p230
aV75.5
p231
aV0.3
p232
aV-
aV6.39
p233
aa(lp234
V2013/2014
p235
aVWerder Bremen
p236
aVGB
p237
aV1(1)
p238
aV90
p239
aV-
aV-
aV-
aV-
aV1
aV66.7
p240
aV2
aV-
aV5.99
p241
aa(lp242
V2013/2014
p243
aVStoke
p244
aVEPL
p245
aV27(3)
p246
aV2257
p247
aV4
aV7
aV3
aV-
aV2.4
p248
aV80.3
p249
aV0.5
p250
aV2
aV7.02
p251
aa(lp252
V2012/2013
p253
aVWerder Bremen
p254
aVGB
p255
aV21(5)
p256
aV1968
p257
aV5
aV6
aV8
aV1
aV2.6
p258
aV74.9
p259
aV1.2
p260
aV1
aV6.92
p261
aa(lp262
V2011/2012
p263
aVWerder Bremen
p264
aVGB
p265
aV10(9)
p266
aV978
p267
aV6
aV-
aV-
aV1
aV2.2
p268
aV76
p269
aV0.1
p270
aV-
aV6.72
p271
aa(lp272
V2010/2011
p273
aVWerder Bremen
p274
aVGB
p275
aV15(10)
p276
aV1561
p277
aV3
aV3
aV4
aV-
aV2.1
p278
aV76.1
p279
aV0.1
p280
aV1
aV6.59
p281
aa(lp282
V2010/2011
p283
aVWerder Bremen
p284
aVUCL
p285
aV3(2)
p286
aV332
p287
aV2
aV-
aV-
aV-
aV2.4
p288
aV79.5
p289
aV0.6
p290
aV1
aV7.08
p291
aa(lp292
V2009/2010
p293
aVInter
p294
aVISA
p295
aV0(3)
p296
aV57
p297
aV-
aV-
aV-
aV-
aV1.3
p298
aV80
p299
aV-
aV-
aV6.18
p300
aa(lp301
VTotal / Average
p302
aV
aV
aV256
p303
aV18602
p304
aV55
p305
aV41
p306
aV36
p307
aV4
aV2.1
p308
aV76.6
p309
aV0.5
p310
aV15
p311
aV6.87
p312
aasS'defensive_data'
p313
(lp314
(lp315
a(lp316
V2018/2019
p317
aVWest Ham
p318
aVEPL
p319
aV13
p320
aV1014
p321
aV5
aV2
aV3
aV-
aV2.8
p322
aV73.6
p323
aV0.8
p324
aV1
aV6.97
p325
aa(lp326
V2018/2019
p327
aVAustria
p328
aVUNL
p329
aV3(1)
p330
aV289
p331
aV1
aV1
aV-
aV-
aV2.5
p332
aV73.7
p333
aV0.5
p334
aV-
aV6.71
p335
aa(lp336
V2017/2018
p337
aVWest Ham
p338
aVEPL
p339
aV28(3)
p340
aV2323
p341
aV11
p342
aV6
aV5
aV1
aV2.3
p343
aV71.6
p344
aV0.7
p345
aV5
aV7.07
p346
aa(lp347
V2016/2017
p348
aVStoke
p349
aVEPL
p350
aV32
p351
aV2725
p352
aV6
aV5
aV9
aV1
aV1.9
p353
aV75.4
p354
aV0.4
p355
aV1
aV6.84
p356
aa(lp357
V2015/2016
p358
aVStoke
p359
aVEPL
p360
aV33(1)
p361
aV2820
p362
aV11
p363
aV6
aV2
aV-
aV2.1
p364
aV79.5
p365
aV0.2
p366
aV2
aV7.05
p367
aa(lp368
V2014/2015
p369
aVStoke
p370
aVEPL
p371
aV20(9)
p372
aV1918
p373
aV1
aV5
aV2
aV-
aV1.5
p374
aV79.8
p375
aV0.4
p376
aV1
aV6.75
p377
aa(lp378
V2016
p379
aVAustria
p380
aVUEC
p381
aV3
aV270
p382
aV-
aV-
aV-
aV-
aV1.3
p383
aV75.5
p384
aV0.3
p385
aV-
aV6.39
p386
aa(lp387
V2013/2014
p388
aVWerder Bremen
p389
aVGB
p390
aV1(1)
p391
aV90
p392
aV-
aV-
aV-
aV-
aV1
aV66.7
p393
aV2
aV-
aV5.99
p394
aa(lp395
V2013/2014
p396
aVStoke
p397
aVEPL
p398
aV27(3)
p399
aV2257
p400
aV4
aV7
aV3
aV-
aV2.4
p401
aV80.3
p402
aV0.5
p403
aV2
aV7.02
p404
aa(lp405
V2012/2013
p406
aVWerder Bremen
p407
aVGB
p408
aV21(5)
p409
aV1968
p410
aV5
aV6
aV8
aV1
aV2.6
p411
aV74.9
p412
aV1.2
p413
aV1
aV6.92
p414
aa(lp415
V2011/2012
p416
aVWerder Bremen
p417
aVGB
p418
aV10(9)
p419
aV978
p420
aV6
aV-
aV-
aV1
aV2.2
p421
aV76
p422
aV0.1
p423
aV-
aV6.72
p424
aa(lp425
V2010/2011
p426
aVWerder Bremen
p427
aVGB
p428
aV15(10)
p429
aV1561
p430
aV3
aV3
aV4
aV-
aV2.1
p431
aV76.1
p432
aV0.1
p433
aV1
aV6.59
p434
aa(lp435
V2010/2011
p436
aVWerder Bremen
p437
aVUCL
p438
aV3(2)
p439
aV332
p440
aV2
aV-
aV-
aV-
aV2.4
p441
aV79.5
p442
aV0.6
p443
aV1
aV7.08
p444
aa(lp445
V2009/2010
p446
aVInter
p447
aVISA
p448
aV0(3)
p449
aV57
p450
aV-
aV-
aV-
aV-
aV1.3
p451
aV80
p452
aV-
aV-
aV6.18
p453
aa(lp454
VTotal / Average
p455
aV
aV
aV256
p456
aV18602
p457
aV55
p458
aV41
p459
aV36
p460
aV4
aV2.1
p461
aV76.6
p462
aV0.5
p463
aV15
p464
aV6.87
p465
aasS'sumary_data'
p466
(lp467
(lp468
a(lp469
V2018/2019
p470
aVWest Ham
p471
aVEPL
p472
aV13
p473
aV1014
p474
aV5
aV2
aV3
aV-
aV2.8
p475
aV73.6
p476
aV0.8
p477
aV1
aV6.97
p478
aa(lp479
V2018/2019
p480
aVAustria
p481
aVUNL
p482
aV3(1)
p483
aV289
p484
aV1
aV1
aV-
aV-
aV2.5
p485
aV73.7
p486
aV0.5
p487
aV-
aV6.71
p488
aa(lp489
V2017/2018
p490
aVWest Ham
p491
aVEPL
p492
aV28(3)
p493
aV2323
p494
aV11
p495
aV6
aV5
aV1
aV2.3
p496
aV71.6
p497
aV0.7
p498
aV5
aV7.07
p499
aa(lp500
V2016/2017
p501
aVStoke
p502
aVEPL
p503
aV32
p504
aV2725
p505
aV6
aV5
aV9
aV1
aV1.9
p506
aV75.4
p507
aV0.4
p508
aV1
aV6.84
p509
aa(lp510
V2015/2016
p511
aVStoke
p512
aVEPL
p513
aV33(1)
p514
aV2820
p515
aV11
p516
aV6
aV2
aV-
aV2.1
p517
aV79.5
p518
aV0.2
p519
aV2
aV7.05
p520
aa(lp521
V2014/2015
p522
aVStoke
p523
aVEPL
p524
aV20(9)
p525
aV1918
p526
aV1
aV5
aV2
aV-
aV1.5
p527
aV79.8
p528
aV0.4
p529
aV1
aV6.75
p530
aa(lp531
V2016
p532
aVAustria
p533
aVUEC
p534
aV3
aV270
p535
aV-
aV-
aV-
aV-
aV1.3
p536
aV75.5
p537
aV0.3
p538
aV-
aV6.39
p539
aa(lp540
V2013/2014
p541
aVWerder Bremen
p542
aVGB
p543
aV1(1)
p544
aV90
p545
aV-
aV-
aV-
aV-
aV1
aV66.7
p546
aV2
aV-
aV5.99
p547
aa(lp548
V2013/2014
p549
aVStoke
p550
aVEPL
p551
aV27(3)
p552
aV2257
p553
aV4
aV7
aV3
aV-
aV2.4
p554
aV80.3
p555
aV0.5
p556
aV2
aV7.02
p557
aa(lp558
V2012/2013
p559
aVWerder Bremen
p560
aVGB
p561
aV21(5)
p562
aV1968
p563
aV5
aV6
aV8
aV1
aV2.6
p564
aV74.9
p565
aV1.2
p566
aV1
aV6.92
p567
aa(lp568
V2011/2012
p569
aVWerder Bremen
p570
aVGB
p571
aV10(9)
p572
aV978
p573
aV6
aV-
aV-
aV1
aV2.2
p574
aV76
p575
aV0.1
p576
aV-
aV6.72
p577
aa(lp578
V2010/2011
p579
aVWerder Bremen
p580
aVGB
p581
aV15(10)
p582
aV1561
p583
aV3
aV3
aV4
aV-
aV2.1
p584
aV76.1
p585
aV0.1
p586
aV1
aV6.59
p587
aa(lp588
V2010/2011
p589
aVWerder Bremen
p590
aVUCL
p591
aV3(2)
p592
aV332
p593
aV2
aV-
aV-
aV-
aV2.4
p594
aV79.5
p595
aV0.6
p596
aV1
aV7.08
p597
aa(lp598
V2009/2010
p599
aVInter
p600
aVISA
p601
aV0(3)
p602
aV57
p603
aV-
aV-
aV-
aV-
aV1.3
p604
aV80
p605
aV-
aV-
aV6.18
p606
aa(lp607
VTotal / Average
p608
aV
aV
aV256
p609
aV18602
p610
aV55
p611
aV41
p612
aV36
p613
aV4
aV2.1
p614
aV76.6
p615
aV0.5
p616
aV15
p617
aV6.87
p618
aasS'id'
p619
V34693
p620
sb.