(i__main__
Player
p1
(dp2
S'name'
p3
VChicharito 
p4
sS'offensive_data'
p5
(lp6
(lp7
a(lp8
V2018/2019
p9
aVWest Ham
p10
aVEPL
p11
aV6(7)
p12
aV647
p13
aV4
aV1
aV-
aV-
aV1.4
p14
aV72.3
p15
aV0.5
p16
aV-
aV6.66
p17
aa(lp18
V2017/2018
p19
aVWest Ham
p20
aVEPL
p21
aV16(12)
p22
aV1544
p23
aV8
aV-
aV3
aV-
aV1
aV73.2
p24
aV0.5
p25
aV1
aV6.58
p26
aa(lp27
V2016/2017
p28
aVBayer Leverku..
p29
aVGB
p30
aV20(6)
p31
aV1815
p32
aV11
p33
aV3
aV1
aV-
aV2
aV73.4
p34
aV1.3
p35
aV2
aV6.89
p36
aa(lp37
V2016/2017
p38
aVBayer Leverku..
p39
aVUCL
p40
aV8
aV653
p41
aV1
aV-
aV1
aV-
aV3.1
p42
aV72.2
p43
aV1.1
p44
aV-
aV6.78
p45
aa(lp46
V2018
p47
aVMexico
p48
aVWC
p49
aV4
aV330
p50
aV1
aV1
aV-
aV-
aV1.8
p51
aV76.4
p52
aV0.8
p53
aV-
aV6.81
p54
aa(lp55
V2015/2016
p56
aVBayer Leverku..
p57
aVGB
p58
aV25(3)
p59
aV2174
p60
aV17
p61
aV2
aV6
aV-
aV2.3
p62
aV74.2
p63
aV1.2
p64
aV-
aV7.10
p65
aa(lp66
V2015/2016
p67
aVBayer Leverku..
p68
aVUEL
p69
aV3
aV270
p70
aV-
aV1
aV1
aV-
aV1.3
p71
aV80
p72
aV1.7
p73
aV-
aV6.74
p74
aa(lp75
V2015/2016
p76
aVBayer Leverku..
p77
aVUCL
p78
aV6
aV487
p79
aV5
aV-
aV-
aV-
aV3.8
p80
aV65.4
p81
aV1.3
p82
aV-
aV7.32
p83
aa(lp84
V2015/2016
p85
aVManchester Un..
p86
aVEPL
p87
aV0(1)
p88
aV23
p89
aV-
aV-
aV-
aV-
aV1
aV85.7
p90
aV-
aV-
aV6.45
p91
aa(lp92
V2014/2015
p93
aVReal Madrid
p94
aVSLL
p95
aV7(16)
p96
aV859
p97
aV7
aV4
aV2
aV-
aV1.3
p98
aV82.2
p99
aV0.3
p100
aV-
aV6.79
p101
aa(lp102
V2014/2015
p103
aVReal Madrid
p104
aVUCL
p105
aV3(5)
p106
aV320
p107
aV1
aV-
aV-
aV-
aV2.1
p108
aV80
p109
aV0.6
p110
aV-
aV6.51
p111
aa(lp112
V2014/2015
p113
aVManchester Un..
p114
aVEPL
p115
aV1
aV46
p116
aV-
aV-
aV-
aV-
aV-
aV90
p117
aV-
aV-
aV6.19
p118
aa(lp119
V2013/2014
p120
aVManchester Un..
p121
aVUCL
p122
aV2(3)
p123
aV170
p124
aV-
aV-
aV-
aV-
aV0.2
p125
aV78.6
p126
aV-
aV-
aV6.03
p127
aa(lp128
V2013/2014
p129
aVManchester Un..
p130
aVEPL
p131
aV6(18)
p132
aV840
p133
aV4
aV2
aV2
aV-
aV0.9
p134
aV86.2
p135
aV0.2
p136
aV-
aV6.39
p137
aa(lp138
V2014
p139
aVMexico
p140
aVWC
p141
aV0(4)
p142
aV76
p143
aV1
aV-
aV-
aV-
aV0.8
p144
aV65
p145
aV0.5
p146
aV-
aV6.17
p147
aa(lp148
V2013
p149
aVMexico
p150
aVICC
p151
aV3
aV270
p152
aV3
aV-
aV-
aV-
aV3.3
p153
aV81.1
p154
aV1
aV1
aV7.21
p155
aa(lp156
V2012/2013
p157
aVManchester Un..
p158
aVUCL
p159
aV5(1)
p160
aV442
p161
aV3
aV-
aV-
aV-
aV2.3
p162
aV83.3
p163
aV0.2
p164
aV-
aV6.84
p165
aa(lp166
V2012/2013
p167
aVManchester Un..
p168
aVEPL
p169
aV9(13)
p170
aV949
p171
aV10
p172
aV3
aV1
aV-
aV2
aV82.1
p173
aV0.2
p174
aV-
aV6.81
p175
aa(lp176
V2011/2012
p177
aVManchester Un..
p178
aVUCL
p179
aV1(3)
p180
aV200
p181
aV-
aV-
aV-
aV-
aV1.5
p182
aV90
p183
aV1
aV-
aV6.40
p184
aa(lp185
V2011/2012
p186
aVManchester Un..
p187
aVEPL
p188
aV18(10)
p189
aV1477
p190
aV10
p191
aV2
aV-
aV-
aV1.7
p192
aV82.7
p193
aV0.1
p194
aV-
aV6.69
p195
aa(lp196
V2010/2011
p197
aVManchester Un..
p198
aVUCL
p199
aV6(3)
p200
aV550
p201
aV4
aV1
aV1
aV-
aV1.9
p202
aV79.1
p203
aV0.4
p204
aV1
aV6.86
p205
aa(lp206
V2010/2011
p207
aVManchester Un..
p208
aVEPL
p209
aV15(12)
p210
aV1482
p211
aV13
p212
aV1
aV5
aV-
aV2
aV82.1
p213
aV0.4
p214
aV-
aV6.68
p215
aa(lp216
VTotal / Average
p217
aV
aV
aV281
p218
aV15624
p219
aV103
p220
aV21
p221
aV23
p222
aV0
aV1.7
p223
aV78.5
p224
aV0.6
p225
aV5
aV6.73
p226
aasS'url'
p227
S'https://www.whoscored.com/Players/35003/History/'
p228
sS'passing_data'
p229
(lp230
(lp231
a(lp232
V2018/2019
p233
aVWest Ham
p234
aVEPL
p235
aV6(7)
p236
aV647
p237
aV4
aV1
aV-
aV-
aV1.4
p238
aV72.3
p239
aV0.5
p240
aV-
aV6.66
p241
aa(lp242
V2017/2018
p243
aVWest Ham
p244
aVEPL
p245
aV16(12)
p246
aV1544
p247
aV8
aV-
aV3
aV-
aV1
aV73.2
p248
aV0.5
p249
aV1
aV6.58
p250
aa(lp251
V2016/2017
p252
aVBayer Leverku..
p253
aVGB
p254
aV20(6)
p255
aV1815
p256
aV11
p257
aV3
aV1
aV-
aV2
aV73.4
p258
aV1.3
p259
aV2
aV6.89
p260
aa(lp261
V2016/2017
p262
aVBayer Leverku..
p263
aVUCL
p264
aV8
aV653
p265
aV1
aV-
aV1
aV-
aV3.1
p266
aV72.2
p267
aV1.1
p268
aV-
aV6.78
p269
aa(lp270
V2018
p271
aVMexico
p272
aVWC
p273
aV4
aV330
p274
aV1
aV1
aV-
aV-
aV1.8
p275
aV76.4
p276
aV0.8
p277
aV-
aV6.81
p278
aa(lp279
V2015/2016
p280
aVBayer Leverku..
p281
aVGB
p282
aV25(3)
p283
aV2174
p284
aV17
p285
aV2
aV6
aV-
aV2.3
p286
aV74.2
p287
aV1.2
p288
aV-
aV7.10
p289
aa(lp290
V2015/2016
p291
aVBayer Leverku..
p292
aVUEL
p293
aV3
aV270
p294
aV-
aV1
aV1
aV-
aV1.3
p295
aV80
p296
aV1.7
p297
aV-
aV6.74
p298
aa(lp299
V2015/2016
p300
aVBayer Leverku..
p301
aVUCL
p302
aV6
aV487
p303
aV5
aV-
aV-
aV-
aV3.8
p304
aV65.4
p305
aV1.3
p306
aV-
aV7.32
p307
aa(lp308
V2015/2016
p309
aVManchester Un..
p310
aVEPL
p311
aV0(1)
p312
aV23
p313
aV-
aV-
aV-
aV-
aV1
aV85.7
p314
aV-
aV-
aV6.45
p315
aa(lp316
V2014/2015
p317
aVReal Madrid
p318
aVSLL
p319
aV7(16)
p320
aV859
p321
aV7
aV4
aV2
aV-
aV1.3
p322
aV82.2
p323
aV0.3
p324
aV-
aV6.79
p325
aa(lp326
V2014/2015
p327
aVReal Madrid
p328
aVUCL
p329
aV3(5)
p330
aV320
p331
aV1
aV-
aV-
aV-
aV2.1
p332
aV80
p333
aV0.6
p334
aV-
aV6.51
p335
aa(lp336
V2014/2015
p337
aVManchester Un..
p338
aVEPL
p339
aV1
aV46
p340
aV-
aV-
aV-
aV-
aV-
aV90
p341
aV-
aV-
aV6.19
p342
aa(lp343
V2013/2014
p344
aVManchester Un..
p345
aVUCL
p346
aV2(3)
p347
aV170
p348
aV-
aV-
aV-
aV-
aV0.2
p349
aV78.6
p350
aV-
aV-
aV6.03
p351
aa(lp352
V2013/2014
p353
aVManchester Un..
p354
aVEPL
p355
aV6(18)
p356
aV840
p357
aV4
aV2
aV2
aV-
aV0.9
p358
aV86.2
p359
aV0.2
p360
aV-
aV6.39
p361
aa(lp362
V2014
p363
aVMexico
p364
aVWC
p365
aV0(4)
p366
aV76
p367
aV1
aV-
aV-
aV-
aV0.8
p368
aV65
p369
aV0.5
p370
aV-
aV6.17
p371
aa(lp372
V2013
p373
aVMexico
p374
aVICC
p375
aV3
aV270
p376
aV3
aV-
aV-
aV-
aV3.3
p377
aV81.1
p378
aV1
aV1
aV7.21
p379
aa(lp380
V2012/2013
p381
aVManchester Un..
p382
aVUCL
p383
aV5(1)
p384
aV442
p385
aV3
aV-
aV-
aV-
aV2.3
p386
aV83.3
p387
aV0.2
p388
aV-
aV6.84
p389
aa(lp390
V2012/2013
p391
aVManchester Un..
p392
aVEPL
p393
aV9(13)
p394
aV949
p395
aV10
p396
aV3
aV1
aV-
aV2
aV82.1
p397
aV0.2
p398
aV-
aV6.81
p399
aa(lp400
V2011/2012
p401
aVManchester Un..
p402
aVUCL
p403
aV1(3)
p404
aV200
p405
aV-
aV-
aV-
aV-
aV1.5
p406
aV90
p407
aV1
aV-
aV6.40
p408
aa(lp409
V2011/2012
p410
aVManchester Un..
p411
aVEPL
p412
aV18(10)
p413
aV1477
p414
aV10
p415
aV2
aV-
aV-
aV1.7
p416
aV82.7
p417
aV0.1
p418
aV-
aV6.69
p419
aa(lp420
V2010/2011
p421
aVManchester Un..
p422
aVUCL
p423
aV6(3)
p424
aV550
p425
aV4
aV1
aV1
aV-
aV1.9
p426
aV79.1
p427
aV0.4
p428
aV1
aV6.86
p429
aa(lp430
V2010/2011
p431
aVManchester Un..
p432
aVEPL
p433
aV15(12)
p434
aV1482
p435
aV13
p436
aV1
aV5
aV-
aV2
aV82.1
p437
aV0.4
p438
aV-
aV6.68
p439
aa(lp440
VTotal / Average
p441
aV
aV
aV281
p442
aV15624
p443
aV103
p444
aV21
p445
aV23
p446
aV0
aV1.7
p447
aV78.5
p448
aV0.6
p449
aV5
aV6.73
p450
aasS'defensive_data'
p451
(lp452
(lp453
a(lp454
V2018/2019
p455
aVWest Ham
p456
aVEPL
p457
aV6(7)
p458
aV647
p459
aV4
aV1
aV-
aV-
aV1.4
p460
aV72.3
p461
aV0.5
p462
aV-
aV6.66
p463
aa(lp464
V2017/2018
p465
aVWest Ham
p466
aVEPL
p467
aV16(12)
p468
aV1544
p469
aV8
aV-
aV3
aV-
aV1
aV73.2
p470
aV0.5
p471
aV1
aV6.58
p472
aa(lp473
V2016/2017
p474
aVBayer Leverku..
p475
aVGB
p476
aV20(6)
p477
aV1815
p478
aV11
p479
aV3
aV1
aV-
aV2
aV73.4
p480
aV1.3
p481
aV2
aV6.89
p482
aa(lp483
V2016/2017
p484
aVBayer Leverku..
p485
aVUCL
p486
aV8
aV653
p487
aV1
aV-
aV1
aV-
aV3.1
p488
aV72.2
p489
aV1.1
p490
aV-
aV6.78
p491
aa(lp492
V2018
p493
aVMexico
p494
aVWC
p495
aV4
aV330
p496
aV1
aV1
aV-
aV-
aV1.8
p497
aV76.4
p498
aV0.8
p499
aV-
aV6.81
p500
aa(lp501
V2015/2016
p502
aVBayer Leverku..
p503
aVGB
p504
aV25(3)
p505
aV2174
p506
aV17
p507
aV2
aV6
aV-
aV2.3
p508
aV74.2
p509
aV1.2
p510
aV-
aV7.10
p511
aa(lp512
V2015/2016
p513
aVBayer Leverku..
p514
aVUEL
p515
aV3
aV270
p516
aV-
aV1
aV1
aV-
aV1.3
p517
aV80
p518
aV1.7
p519
aV-
aV6.74
p520
aa(lp521
V2015/2016
p522
aVBayer Leverku..
p523
aVUCL
p524
aV6
aV487
p525
aV5
aV-
aV-
aV-
aV3.8
p526
aV65.4
p527
aV1.3
p528
aV-
aV7.32
p529
aa(lp530
V2015/2016
p531
aVManchester Un..
p532
aVEPL
p533
aV0(1)
p534
aV23
p535
aV-
aV-
aV-
aV-
aV1
aV85.7
p536
aV-
aV-
aV6.45
p537
aa(lp538
V2014/2015
p539
aVReal Madrid
p540
aVSLL
p541
aV7(16)
p542
aV859
p543
aV7
aV4
aV2
aV-
aV1.3
p544
aV82.2
p545
aV0.3
p546
aV-
aV6.79
p547
aa(lp548
V2014/2015
p549
aVReal Madrid
p550
aVUCL
p551
aV3(5)
p552
aV320
p553
aV1
aV-
aV-
aV-
aV2.1
p554
aV80
p555
aV0.6
p556
aV-
aV6.51
p557
aa(lp558
V2014/2015
p559
aVManchester Un..
p560
aVEPL
p561
aV1
aV46
p562
aV-
aV-
aV-
aV-
aV-
aV90
p563
aV-
aV-
aV6.19
p564
aa(lp565
V2013/2014
p566
aVManchester Un..
p567
aVUCL
p568
aV2(3)
p569
aV170
p570
aV-
aV-
aV-
aV-
aV0.2
p571
aV78.6
p572
aV-
aV-
aV6.03
p573
aa(lp574
V2013/2014
p575
aVManchester Un..
p576
aVEPL
p577
aV6(18)
p578
aV840
p579
aV4
aV2
aV2
aV-
aV0.9
p580
aV86.2
p581
aV0.2
p582
aV-
aV6.39
p583
aa(lp584
V2014
p585
aVMexico
p586
aVWC
p587
aV0(4)
p588
aV76
p589
aV1
aV-
aV-
aV-
aV0.8
p590
aV65
p591
aV0.5
p592
aV-
aV6.17
p593
aa(lp594
V2013
p595
aVMexico
p596
aVICC
p597
aV3
aV270
p598
aV3
aV-
aV-
aV-
aV3.3
p599
aV81.1
p600
aV1
aV1
aV7.21
p601
aa(lp602
V2012/2013
p603
aVManchester Un..
p604
aVUCL
p605
aV5(1)
p606
aV442
p607
aV3
aV-
aV-
aV-
aV2.3
p608
aV83.3
p609
aV0.2
p610
aV-
aV6.84
p611
aa(lp612
V2012/2013
p613
aVManchester Un..
p614
aVEPL
p615
aV9(13)
p616
aV949
p617
aV10
p618
aV3
aV1
aV-
aV2
aV82.1
p619
aV0.2
p620
aV-
aV6.81
p621
aa(lp622
V2011/2012
p623
aVManchester Un..
p624
aVUCL
p625
aV1(3)
p626
aV200
p627
aV-
aV-
aV-
aV-
aV1.5
p628
aV90
p629
aV1
aV-
aV6.40
p630
aa(lp631
V2011/2012
p632
aVManchester Un..
p633
aVEPL
p634
aV18(10)
p635
aV1477
p636
aV10
p637
aV2
aV-
aV-
aV1.7
p638
aV82.7
p639
aV0.1
p640
aV-
aV6.69
p641
aa(lp642
V2010/2011
p643
aVManchester Un..
p644
aVUCL
p645
aV6(3)
p646
aV550
p647
aV4
aV1
aV1
aV-
aV1.9
p648
aV79.1
p649
aV0.4
p650
aV1
aV6.86
p651
aa(lp652
V2010/2011
p653
aVManchester Un..
p654
aVEPL
p655
aV15(12)
p656
aV1482
p657
aV13
p658
aV1
aV5
aV-
aV2
aV82.1
p659
aV0.4
p660
aV-
aV6.68
p661
aa(lp662
VTotal / Average
p663
aV
aV
aV281
p664
aV15624
p665
aV103
p666
aV21
p667
aV23
p668
aV0
aV1.7
p669
aV78.5
p670
aV0.6
p671
aV5
aV6.73
p672
aasS'sumary_data'
p673
(lp674
(lp675
a(lp676
V2018/2019
p677
aVWest Ham
p678
aVEPL
p679
aV6(7)
p680
aV647
p681
aV4
aV1
aV-
aV-
aV1.4
p682
aV72.3
p683
aV0.5
p684
aV-
aV6.66
p685
aa(lp686
V2017/2018
p687
aVWest Ham
p688
aVEPL
p689
aV16(12)
p690
aV1544
p691
aV8
aV-
aV3
aV-
aV1
aV73.2
p692
aV0.5
p693
aV1
aV6.58
p694
aa(lp695
V2016/2017
p696
aVBayer Leverku..
p697
aVGB
p698
aV20(6)
p699
aV1815
p700
aV11
p701
aV3
aV1
aV-
aV2
aV73.4
p702
aV1.3
p703
aV2
aV6.89
p704
aa(lp705
V2016/2017
p706
aVBayer Leverku..
p707
aVUCL
p708
aV8
aV653
p709
aV1
aV-
aV1
aV-
aV3.1
p710
aV72.2
p711
aV1.1
p712
aV-
aV6.78
p713
aa(lp714
V2018
p715
aVMexico
p716
aVWC
p717
aV4
aV330
p718
aV1
aV1
aV-
aV-
aV1.8
p719
aV76.4
p720
aV0.8
p721
aV-
aV6.81
p722
aa(lp723
V2015/2016
p724
aVBayer Leverku..
p725
aVGB
p726
aV25(3)
p727
aV2174
p728
aV17
p729
aV2
aV6
aV-
aV2.3
p730
aV74.2
p731
aV1.2
p732
aV-
aV7.10
p733
aa(lp734
V2015/2016
p735
aVBayer Leverku..
p736
aVUEL
p737
aV3
aV270
p738
aV-
aV1
aV1
aV-
aV1.3
p739
aV80
p740
aV1.7
p741
aV-
aV6.74
p742
aa(lp743
V2015/2016
p744
aVBayer Leverku..
p745
aVUCL
p746
aV6
aV487
p747
aV5
aV-
aV-
aV-
aV3.8
p748
aV65.4
p749
aV1.3
p750
aV-
aV7.32
p751
aa(lp752
V2015/2016
p753
aVManchester Un..
p754
aVEPL
p755
aV0(1)
p756
aV23
p757
aV-
aV-
aV-
aV-
aV1
aV85.7
p758
aV-
aV-
aV6.45
p759
aa(lp760
V2014/2015
p761
aVReal Madrid
p762
aVSLL
p763
aV7(16)
p764
aV859
p765
aV7
aV4
aV2
aV-
aV1.3
p766
aV82.2
p767
aV0.3
p768
aV-
aV6.79
p769
aa(lp770
V2014/2015
p771
aVReal Madrid
p772
aVUCL
p773
aV3(5)
p774
aV320
p775
aV1
aV-
aV-
aV-
aV2.1
p776
aV80
p777
aV0.6
p778
aV-
aV6.51
p779
aa(lp780
V2014/2015
p781
aVManchester Un..
p782
aVEPL
p783
aV1
aV46
p784
aV-
aV-
aV-
aV-
aV-
aV90
p785
aV-
aV-
aV6.19
p786
aa(lp787
V2013/2014
p788
aVManchester Un..
p789
aVUCL
p790
aV2(3)
p791
aV170
p792
aV-
aV-
aV-
aV-
aV0.2
p793
aV78.6
p794
aV-
aV-
aV6.03
p795
aa(lp796
V2013/2014
p797
aVManchester Un..
p798
aVEPL
p799
aV6(18)
p800
aV840
p801
aV4
aV2
aV2
aV-
aV0.9
p802
aV86.2
p803
aV0.2
p804
aV-
aV6.39
p805
aa(lp806
V2014
p807
aVMexico
p808
aVWC
p809
aV0(4)
p810
aV76
p811
aV1
aV-
aV-
aV-
aV0.8
p812
aV65
p813
aV0.5
p814
aV-
aV6.17
p815
aa(lp816
V2013
p817
aVMexico
p818
aVICC
p819
aV3
aV270
p820
aV3
aV-
aV-
aV-
aV3.3
p821
aV81.1
p822
aV1
aV1
aV7.21
p823
aa(lp824
V2012/2013
p825
aVManchester Un..
p826
aVUCL
p827
aV5(1)
p828
aV442
p829
aV3
aV-
aV-
aV-
aV2.3
p830
aV83.3
p831
aV0.2
p832
aV-
aV6.84
p833
aa(lp834
V2012/2013
p835
aVManchester Un..
p836
aVEPL
p837
aV9(13)
p838
aV949
p839
aV10
p840
aV3
aV1
aV-
aV2
aV82.1
p841
aV0.2
p842
aV-
aV6.81
p843
aa(lp844
V2011/2012
p845
aVManchester Un..
p846
aVUCL
p847
aV1(3)
p848
aV200
p849
aV-
aV-
aV-
aV-
aV1.5
p850
aV90
p851
aV1
aV-
aV6.40
p852
aa(lp853
V2011/2012
p854
aVManchester Un..
p855
aVEPL
p856
aV18(10)
p857
aV1477
p858
aV10
p859
aV2
aV-
aV-
aV1.7
p860
aV82.7
p861
aV0.1
p862
aV-
aV6.69
p863
aa(lp864
V2010/2011
p865
aVManchester Un..
p866
aVUCL
p867
aV6(3)
p868
aV550
p869
aV4
aV1
aV1
aV-
aV1.9
p870
aV79.1
p871
aV0.4
p872
aV1
aV6.86
p873
aa(lp874
V2010/2011
p875
aVManchester Un..
p876
aVEPL
p877
aV15(12)
p878
aV1482
p879
aV13
p880
aV1
aV5
aV-
aV2
aV82.1
p881
aV0.4
p882
aV-
aV6.68
p883
aa(lp884
VTotal / Average
p885
aV
aV
aV281
p886
aV15624
p887
aV103
p888
aV21
p889
aV23
p890
aV0
aV1.7
p891
aV78.5
p892
aV0.6
p893
aV5
aV6.73
p894
aasS'id'
p895
V35003
p896
sb.