(i__main__
Player
p1
(dp2
S'name'
p3
VMichael Obafemi 
p4
sS'offensive_data'
p5
(lp6
(lp7
a(lp8
V2018/2019
p9
aVSouthampton
p10
aVEPL
p11
aV1(3)
p12
aV91
p13
aV-
aV1
aV1
aV-
aV1
aV76.9
p14
aV-
aV-
aV6.31
p15
aa(lp16
V2018/2019
p17
aVIreland
p18
aVUNL
p19
aV0(1)
p20
aV10
p21
aV-
aV-
aV-
aV-
aV-
aV50
p22
aV-
aV-
aV5.91
p23
aa(lp24
V2017/2018
p25
aVSouthampton
p26
aVEPL
p27
aV0(1)
p28
aV8
aV-
aV-
aV-
aV-
aV1
aV100
p29
aV-
aV-
aV5.82
p30
aa(lp31
VTotal / Average
p32
aV
aV
aV6
aV109
p33
aV0
aV1
aV1
aV0
aV0.8
p34
aV76.3
p35
aV0
aV0
aV6.16
p36
aasS'url'
p37
S'https://www.whoscored.com/Players/351355/History/'
p38
sS'passing_data'
p39
(lp40
(lp41
a(lp42
V2018/2019
p43
aVSouthampton
p44
aVEPL
p45
aV1(3)
p46
aV91
p47
aV-
aV1
aV1
aV-
aV1
aV76.9
p48
aV-
aV-
aV6.31
p49
aa(lp50
V2018/2019
p51
aVIreland
p52
aVUNL
p53
aV0(1)
p54
aV10
p55
aV-
aV-
aV-
aV-
aV-
aV50
p56
aV-
aV-
aV5.91
p57
aa(lp58
V2017/2018
p59
aVSouthampton
p60
aVEPL
p61
aV0(1)
p62
aV8
aV-
aV-
aV-
aV-
aV1
aV100
p63
aV-
aV-
aV5.82
p64
aa(lp65
VTotal / Average
p66
aV
aV
aV6
aV109
p67
aV0
aV1
aV1
aV0
aV0.8
p68
aV76.3
p69
aV0
aV0
aV6.16
p70
aasS'defensive_data'
p71
(lp72
(lp73
a(lp74
V2018/2019
p75
aVSouthampton
p76
aVEPL
p77
aV1(3)
p78
aV91
p79
aV-
aV1
aV1
aV-
aV1
aV76.9
p80
aV-
aV-
aV6.31
p81
aa(lp82
V2018/2019
p83
aVIreland
p84
aVUNL
p85
aV0(1)
p86
aV10
p87
aV-
aV-
aV-
aV-
aV-
aV50
p88
aV-
aV-
aV5.91
p89
aa(lp90
V2017/2018
p91
aVSouthampton
p92
aVEPL
p93
aV0(1)
p94
aV8
aV-
aV-
aV-
aV-
aV1
aV100
p95
aV-
aV-
aV5.82
p96
aa(lp97
VTotal / Average
p98
aV
aV
aV6
aV109
p99
aV0
aV1
aV1
aV0
aV0.8
p100
aV76.3
p101
aV0
aV0
aV6.16
p102
aasS'sumary_data'
p103
(lp104
(lp105
a(lp106
V2018/2019
p107
aVSouthampton
p108
aVEPL
p109
aV1(3)
p110
aV91
p111
aV-
aV1
aV1
aV-
aV1
aV76.9
p112
aV-
aV-
aV6.31
p113
aa(lp114
V2018/2019
p115
aVIreland
p116
aVUNL
p117
aV0(1)
p118
aV10
p119
aV-
aV-
aV-
aV-
aV-
aV50
p120
aV-
aV-
aV5.91
p121
aa(lp122
V2017/2018
p123
aVSouthampton
p124
aVEPL
p125
aV0(1)
p126
aV8
aV-
aV-
aV-
aV-
aV1
aV100
p127
aV-
aV-
aV5.82
p128
aa(lp129
VTotal / Average
p130
aV
aV
aV6
aV109
p131
aV0
aV1
aV1
aV0
aV0.8
p132
aV76.3
p133
aV0
aV0
aV6.16
p134
aasS'id'
p135
V351355
p136
sb.