(i__main__
Player
p1
(dp2
S'name'
p3
VDiogo Dalot 
p4
sS'offensive_data'
p5
(lp6
(lp7
a(lp8
V2018/2019
p9
aVManchester Un..
p10
aVEPL
p11
aV3(1)
p12
aV244
p13
aV-
aV-
aV2
aV-
aV0.3
p14
aV70.9
p15
aV1.8
p16
aV-
aV6.67
p17
aa(lp18
V2018/2019
p19
aVManchester Un..
p20
aVUCL
p21
aV1
aV90
p22
aV-
aV-
aV-
aV-
aV-
aV84.8
p23
aV1
aV-
aV7.49
p24
aa(lp25
V2017/2018
p26
aVFC Porto
p27
aVPLN
p28
aV4(2)
p29
aV408
p30
aV-
aV1
aV-
aV-
aV0.2
p31
aV73.3
p32
aV1.5
p33
aV-
aV6.82
p34
aa(lp35
V2017/2018
p36
aVFC Porto
p37
aVUCL
p38
aV1
aV90
p39
aV-
aV-
aV1
aV-
aV-
aV75.6
p40
aV4
aV-
aV7.55
p41
aa(lp42
VTotal / Average
p43
aV
aV
aV12
p44
aV832
p45
aV0
aV1
aV3
aV0
aV0.2
p46
aV73.7
p47
aV1.8
p48
aV0
aV6.89
p49
aasS'url'
p50
S'https://www.whoscored.com/Players/353418/History/'
p51
sS'passing_data'
p52
(lp53
(lp54
a(lp55
V2018/2019
p56
aVManchester Un..
p57
aVEPL
p58
aV3(1)
p59
aV244
p60
aV-
aV-
aV2
aV-
aV0.3
p61
aV70.9
p62
aV1.8
p63
aV-
aV6.67
p64
aa(lp65
V2018/2019
p66
aVManchester Un..
p67
aVUCL
p68
aV1
aV90
p69
aV-
aV-
aV-
aV-
aV-
aV84.8
p70
aV1
aV-
aV7.49
p71
aa(lp72
V2017/2018
p73
aVFC Porto
p74
aVPLN
p75
aV4(2)
p76
aV408
p77
aV-
aV1
aV-
aV-
aV0.2
p78
aV73.3
p79
aV1.5
p80
aV-
aV6.82
p81
aa(lp82
V2017/2018
p83
aVFC Porto
p84
aVUCL
p85
aV1
aV90
p86
aV-
aV-
aV1
aV-
aV-
aV75.6
p87
aV4
aV-
aV7.55
p88
aa(lp89
VTotal / Average
p90
aV
aV
aV12
p91
aV832
p92
aV0
aV1
aV3
aV0
aV0.2
p93
aV73.7
p94
aV1.8
p95
aV0
aV6.89
p96
aasS'defensive_data'
p97
(lp98
(lp99
a(lp100
V2018/2019
p101
aVManchester Un..
p102
aVEPL
p103
aV3(1)
p104
aV244
p105
aV-
aV-
aV2
aV-
aV0.3
p106
aV70.9
p107
aV1.8
p108
aV-
aV6.67
p109
aa(lp110
V2018/2019
p111
aVManchester Un..
p112
aVUCL
p113
aV1
aV90
p114
aV-
aV-
aV-
aV-
aV-
aV84.8
p115
aV1
aV-
aV7.49
p116
aa(lp117
V2017/2018
p118
aVFC Porto
p119
aVPLN
p120
aV4(2)
p121
aV408
p122
aV-
aV1
aV-
aV-
aV0.2
p123
aV73.3
p124
aV1.5
p125
aV-
aV6.82
p126
aa(lp127
V2017/2018
p128
aVFC Porto
p129
aVUCL
p130
aV1
aV90
p131
aV-
aV-
aV1
aV-
aV-
aV75.6
p132
aV4
aV-
aV7.55
p133
aa(lp134
VTotal / Average
p135
aV
aV
aV12
p136
aV832
p137
aV0
aV1
aV3
aV0
aV0.2
p138
aV73.7
p139
aV1.8
p140
aV0
aV6.89
p141
aasS'sumary_data'
p142
(lp143
(lp144
a(lp145
V2018/2019
p146
aVManchester Un..
p147
aVEPL
p148
aV3(1)
p149
aV244
p150
aV-
aV-
aV2
aV-
aV0.3
p151
aV70.9
p152
aV1.8
p153
aV-
aV6.67
p154
aa(lp155
V2018/2019
p156
aVManchester Un..
p157
aVUCL
p158
aV1
aV90
p159
aV-
aV-
aV-
aV-
aV-
aV84.8
p160
aV1
aV-
aV7.49
p161
aa(lp162
V2017/2018
p163
aVFC Porto
p164
aVPLN
p165
aV4(2)
p166
aV408
p167
aV-
aV1
aV-
aV-
aV0.2
p168
aV73.3
p169
aV1.5
p170
aV-
aV6.82
p171
aa(lp172
V2017/2018
p173
aVFC Porto
p174
aVUCL
p175
aV1
aV90
p176
aV-
aV-
aV1
aV-
aV-
aV75.6
p177
aV4
aV-
aV7.55
p178
aa(lp179
VTotal / Average
p180
aV
aV
aV12
p181
aV832
p182
aV0
aV1
aV3
aV0
aV0.2
p183
aV73.7
p184
aV1.8
p185
aV0
aV6.89
p186
aasS'id'
p187
V353418
p188
sb.