(i__main__
Player
p1
(dp2
S'name'
p3
VDavid Junior Hoilett 
p4
sS'offensive_data'
p5
(lp6
(lp7
a(lp8
V2018/2019
p9
aVCardiff
p10
aVEPL
p11
aV10(4)
p12
aV922
p13
aV2
aV-
aV2
aV-
aV1.1
p14
aV70.7
p15
aV0.7
p16
aV-
aV6.42
p17
aa(lp18
V2017/2018
p19
aVCardiff
p20
aVEC
p21
aV44(2)
p22
aV3808
p23
aV9
aV11
p24
aV2
aV-
aV2
aV69.9
p25
aV1
aV7
aV7.28
p26
aa(lp27
V2016/2017
p28
aVCardiff
p29
aVEC
p30
aV29(4)
p31
aV2422
p32
aV2
aV4
aV4
aV-
aV1.6
p33
aV70.5
p34
aV0.8
p35
aV-
aV6.63
p36
aa(lp37
V2015/2016
p38
aVQueens Park R..
p39
aVEC
p40
aV24(5)
p41
aV1996
p42
aV6
aV2
aV3
aV-
aV2
aV71.9
p43
aV1.3
p44
aV2
aV6.94
p45
aa(lp46
V2014/2015
p47
aVQueens Park R..
p48
aVEPL
p49
aV9(13)
p50
aV880
p51
aV-
aV-
aV2
aV-
aV1.1
p52
aV79.4
p53
aV0.3
p54
aV-
aV6.24
p55
aa(lp56
V2013/2014
p57
aVQueens Park R..
p58
aVEC
p59
aV26(12)
p60
aV2398
p61
aV4
aV5
aV3
aV-
aV1.9
p62
aV80.5
p63
aV0.4
p64
aV1
aV6.94
p65
aa(lp66
V2012/2013
p67
aVQueens Park R..
p68
aVEPL
p69
aV15(11)
p70
aV1450
p71
aV2
aV1
aV1
aV-
aV1.3
p72
aV75.4
p73
aV0.5
p74
aV1
aV6.51
p75
aa(lp76
V2011/2012
p77
aVBlackburn
p78
aVEPL
p79
aV34
p80
aV2956
p81
aV7
aV5
aV5
aV-
aV1.9
p82
aV79.7
p83
aV0.4
p84
aV3
aV7.03
p85
aa(lp86
V2010/2011
p87
aVBlackburn
p88
aVEPL
p89
aV17(7)
p90
aV1498
p91
aV5
aV1
aV2
aV-
aV1.5
p92
aV76.2
p93
aV0.3
p94
aV3
aV7.02
p95
aa(lp96
V2009/2010
p97
aVBlackburn
p98
aVEPL
p99
aV8(15)
p100
aV942
p101
aV-
aV-
aV-
aV-
aV1.1
p102
aV75
p103
aV0.4
p104
aV-
aV6.46
p105
aa(lp106
VTotal / Average
p107
aV
aV
aV289
p108
aV19272
p109
aV37
p110
aV29
p111
aV24
p112
aV0
aV1.6
p113
aV74.9
p114
aV0.7
p115
aV17
p116
aV6.82
p117
aasS'url'
p118
S'https://www.whoscored.com/Players/35460/History/'
p119
sS'passing_data'
p120
(lp121
(lp122
a(lp123
V2018/2019
p124
aVCardiff
p125
aVEPL
p126
aV10(4)
p127
aV922
p128
aV2
aV-
aV2
aV-
aV1.1
p129
aV70.7
p130
aV0.7
p131
aV-
aV6.42
p132
aa(lp133
V2017/2018
p134
aVCardiff
p135
aVEC
p136
aV44(2)
p137
aV3808
p138
aV9
aV11
p139
aV2
aV-
aV2
aV69.9
p140
aV1
aV7
aV7.28
p141
aa(lp142
V2016/2017
p143
aVCardiff
p144
aVEC
p145
aV29(4)
p146
aV2422
p147
aV2
aV4
aV4
aV-
aV1.6
p148
aV70.5
p149
aV0.8
p150
aV-
aV6.63
p151
aa(lp152
V2015/2016
p153
aVQueens Park R..
p154
aVEC
p155
aV24(5)
p156
aV1996
p157
aV6
aV2
aV3
aV-
aV2
aV71.9
p158
aV1.3
p159
aV2
aV6.94
p160
aa(lp161
V2014/2015
p162
aVQueens Park R..
p163
aVEPL
p164
aV9(13)
p165
aV880
p166
aV-
aV-
aV2
aV-
aV1.1
p167
aV79.4
p168
aV0.3
p169
aV-
aV6.24
p170
aa(lp171
V2013/2014
p172
aVQueens Park R..
p173
aVEC
p174
aV26(12)
p175
aV2398
p176
aV4
aV5
aV3
aV-
aV1.9
p177
aV80.5
p178
aV0.4
p179
aV1
aV6.94
p180
aa(lp181
V2012/2013
p182
aVQueens Park R..
p183
aVEPL
p184
aV15(11)
p185
aV1450
p186
aV2
aV1
aV1
aV-
aV1.3
p187
aV75.4
p188
aV0.5
p189
aV1
aV6.51
p190
aa(lp191
V2011/2012
p192
aVBlackburn
p193
aVEPL
p194
aV34
p195
aV2956
p196
aV7
aV5
aV5
aV-
aV1.9
p197
aV79.7
p198
aV0.4
p199
aV3
aV7.03
p200
aa(lp201
V2010/2011
p202
aVBlackburn
p203
aVEPL
p204
aV17(7)
p205
aV1498
p206
aV5
aV1
aV2
aV-
aV1.5
p207
aV76.2
p208
aV0.3
p209
aV3
aV7.02
p210
aa(lp211
V2009/2010
p212
aVBlackburn
p213
aVEPL
p214
aV8(15)
p215
aV942
p216
aV-
aV-
aV-
aV-
aV1.1
p217
aV75
p218
aV0.4
p219
aV-
aV6.46
p220
aa(lp221
VTotal / Average
p222
aV
aV
aV289
p223
aV19272
p224
aV37
p225
aV29
p226
aV24
p227
aV0
aV1.6
p228
aV74.9
p229
aV0.7
p230
aV17
p231
aV6.82
p232
aasS'defensive_data'
p233
(lp234
(lp235
a(lp236
V2018/2019
p237
aVCardiff
p238
aVEPL
p239
aV10(4)
p240
aV922
p241
aV2
aV-
aV2
aV-
aV1.1
p242
aV70.7
p243
aV0.7
p244
aV-
aV6.42
p245
aa(lp246
V2017/2018
p247
aVCardiff
p248
aVEC
p249
aV44(2)
p250
aV3808
p251
aV9
aV11
p252
aV2
aV-
aV2
aV69.9
p253
aV1
aV7
aV7.28
p254
aa(lp255
V2016/2017
p256
aVCardiff
p257
aVEC
p258
aV29(4)
p259
aV2422
p260
aV2
aV4
aV4
aV-
aV1.6
p261
aV70.5
p262
aV0.8
p263
aV-
aV6.63
p264
aa(lp265
V2015/2016
p266
aVQueens Park R..
p267
aVEC
p268
aV24(5)
p269
aV1996
p270
aV6
aV2
aV3
aV-
aV2
aV71.9
p271
aV1.3
p272
aV2
aV6.94
p273
aa(lp274
V2014/2015
p275
aVQueens Park R..
p276
aVEPL
p277
aV9(13)
p278
aV880
p279
aV-
aV-
aV2
aV-
aV1.1
p280
aV79.4
p281
aV0.3
p282
aV-
aV6.24
p283
aa(lp284
V2013/2014
p285
aVQueens Park R..
p286
aVEC
p287
aV26(12)
p288
aV2398
p289
aV4
aV5
aV3
aV-
aV1.9
p290
aV80.5
p291
aV0.4
p292
aV1
aV6.94
p293
aa(lp294
V2012/2013
p295
aVQueens Park R..
p296
aVEPL
p297
aV15(11)
p298
aV1450
p299
aV2
aV1
aV1
aV-
aV1.3
p300
aV75.4
p301
aV0.5
p302
aV1
aV6.51
p303
aa(lp304
V2011/2012
p305
aVBlackburn
p306
aVEPL
p307
aV34
p308
aV2956
p309
aV7
aV5
aV5
aV-
aV1.9
p310
aV79.7
p311
aV0.4
p312
aV3
aV7.03
p313
aa(lp314
V2010/2011
p315
aVBlackburn
p316
aVEPL
p317
aV17(7)
p318
aV1498
p319
aV5
aV1
aV2
aV-
aV1.5
p320
aV76.2
p321
aV0.3
p322
aV3
aV7.02
p323
aa(lp324
V2009/2010
p325
aVBlackburn
p326
aVEPL
p327
aV8(15)
p328
aV942
p329
aV-
aV-
aV-
aV-
aV1.1
p330
aV75
p331
aV0.4
p332
aV-
aV6.46
p333
aa(lp334
VTotal / Average
p335
aV
aV
aV289
p336
aV19272
p337
aV37
p338
aV29
p339
aV24
p340
aV0
aV1.6
p341
aV74.9
p342
aV0.7
p343
aV17
p344
aV6.82
p345
aasS'sumary_data'
p346
(lp347
(lp348
a(lp349
V2018/2019
p350
aVCardiff
p351
aVEPL
p352
aV10(4)
p353
aV922
p354
aV2
aV-
aV2
aV-
aV1.1
p355
aV70.7
p356
aV0.7
p357
aV-
aV6.42
p358
aa(lp359
V2017/2018
p360
aVCardiff
p361
aVEC
p362
aV44(2)
p363
aV3808
p364
aV9
aV11
p365
aV2
aV-
aV2
aV69.9
p366
aV1
aV7
aV7.28
p367
aa(lp368
V2016/2017
p369
aVCardiff
p370
aVEC
p371
aV29(4)
p372
aV2422
p373
aV2
aV4
aV4
aV-
aV1.6
p374
aV70.5
p375
aV0.8
p376
aV-
aV6.63
p377
aa(lp378
V2015/2016
p379
aVQueens Park R..
p380
aVEC
p381
aV24(5)
p382
aV1996
p383
aV6
aV2
aV3
aV-
aV2
aV71.9
p384
aV1.3
p385
aV2
aV6.94
p386
aa(lp387
V2014/2015
p388
aVQueens Park R..
p389
aVEPL
p390
aV9(13)
p391
aV880
p392
aV-
aV-
aV2
aV-
aV1.1
p393
aV79.4
p394
aV0.3
p395
aV-
aV6.24
p396
aa(lp397
V2013/2014
p398
aVQueens Park R..
p399
aVEC
p400
aV26(12)
p401
aV2398
p402
aV4
aV5
aV3
aV-
aV1.9
p403
aV80.5
p404
aV0.4
p405
aV1
aV6.94
p406
aa(lp407
V2012/2013
p408
aVQueens Park R..
p409
aVEPL
p410
aV15(11)
p411
aV1450
p412
aV2
aV1
aV1
aV-
aV1.3
p413
aV75.4
p414
aV0.5
p415
aV1
aV6.51
p416
aa(lp417
V2011/2012
p418
aVBlackburn
p419
aVEPL
p420
aV34
p421
aV2956
p422
aV7
aV5
aV5
aV-
aV1.9
p423
aV79.7
p424
aV0.4
p425
aV3
aV7.03
p426
aa(lp427
V2010/2011
p428
aVBlackburn
p429
aVEPL
p430
aV17(7)
p431
aV1498
p432
aV5
aV1
aV2
aV-
aV1.5
p433
aV76.2
p434
aV0.3
p435
aV3
aV7.02
p436
aa(lp437
V2009/2010
p438
aVBlackburn
p439
aVEPL
p440
aV8(15)
p441
aV942
p442
aV-
aV-
aV-
aV-
aV1.1
p443
aV75
p444
aV0.4
p445
aV-
aV6.46
p446
aa(lp447
VTotal / Average
p448
aV
aV
aV289
p449
aV19272
p450
aV37
p451
aV29
p452
aV24
p453
aV0
aV1.6
p454
aV74.9
p455
aV0.7
p456
aV17
p457
aV6.82
p458
aasS'id'
p459
V35460
p460
sb.