(i__main__
Player
p1
(dp2
S'name'
p3
VAron Gunnarsson 
p4
sS'offensive_data'
p5
(lp6
(lp7
a(lp8
V2018/2019
p9
aVCardiff
p10
aVEPL
p11
aV9
aV768
p12
aV1
aV-
aV1
aV-
aV0.6
p13
aV71.7
p14
aV1.7
p15
aV-
aV6.63
p16
aa(lp17
V2018/2019
p18
aVIceland
p19
aVUNL
p20
aV1
aV90
p21
aV-
aV-
aV-
aV-
aV-
aV72.9
p22
aV-
aV-
aV6.37
p23
aa(lp24
V2017/2018
p25
aVCardiff
p26
aVEC
p27
aV17(3)
p28
aV1500
p29
aV1
aV1
aV3
aV-
aV0.8
p30
aV65.4
p31
aV1.3
p32
aV1
aV7.02
p33
aa(lp34
V2016/2017
p35
aVCardiff
p36
aVEC
p37
aV40
p38
aV3593
p39
aV3
aV3
aV8
aV-
aV0.9
p40
aV68.6
p41
aV2.1
p42
aV3
aV7.08
p43
aa(lp44
V2018
p45
aVIceland
p46
aVWC
p47
aV3
aV253
p48
aV-
aV-
aV-
aV-
aV0.7
p49
aV76.3
p50
aV1
aV-
aV6.53
p51
aa(lp52
V2015/2016
p53
aVCardiff
p54
aVEC
p55
aV16(12)
p56
aV1529
p57
aV2
aV1
aV3
aV-
aV1
aV77.2
p58
aV1.4
p59
aV1
aV6.75
p60
aa(lp61
V2014/2015
p62
aVCardiff
p63
aVEC
p64
aV43(2)
p65
aV3621
p66
aV4
aV3
aV7
aV-
aV0.9
p67
aV76.6
p68
aV1.7
p69
aV1
aV7.00
p70
aa(lp71
V2016
p72
aVIceland
p73
aVUEC
p74
aV5
aV426
p75
aV-
aV-
aV1
aV-
aV0.4
p76
aV73
p77
aV1.2
p78
aV-
aV6.82
p79
aa(lp80
V2013/2014
p81
aVCardiff
p82
aVEPL
p83
aV17(6)
p84
aV1540
p85
aV1
aV2
aV1
aV-
aV0.8
p86
aV77.6
p87
aV1.2
p88
aV-
aV6.50
p89
aa(lp90
VTotal / Average
p91
aV
aV
aV174
p92
aV13320
p93
aV12
p94
aV10
p95
aV24
p96
aV0
aV0.8
p97
aV73.3
p98
aV1.6
p99
aV6
aV6.88
p100
aasS'url'
p101
S'https://www.whoscored.com/Players/35734/History/'
p102
sS'passing_data'
p103
(lp104
(lp105
a(lp106
V2018/2019
p107
aVCardiff
p108
aVEPL
p109
aV9
aV768
p110
aV1
aV-
aV1
aV-
aV0.6
p111
aV71.7
p112
aV1.7
p113
aV-
aV6.63
p114
aa(lp115
V2018/2019
p116
aVIceland
p117
aVUNL
p118
aV1
aV90
p119
aV-
aV-
aV-
aV-
aV-
aV72.9
p120
aV-
aV-
aV6.37
p121
aa(lp122
V2017/2018
p123
aVCardiff
p124
aVEC
p125
aV17(3)
p126
aV1500
p127
aV1
aV1
aV3
aV-
aV0.8
p128
aV65.4
p129
aV1.3
p130
aV1
aV7.02
p131
aa(lp132
V2016/2017
p133
aVCardiff
p134
aVEC
p135
aV40
p136
aV3593
p137
aV3
aV3
aV8
aV-
aV0.9
p138
aV68.6
p139
aV2.1
p140
aV3
aV7.08
p141
aa(lp142
V2018
p143
aVIceland
p144
aVWC
p145
aV3
aV253
p146
aV-
aV-
aV-
aV-
aV0.7
p147
aV76.3
p148
aV1
aV-
aV6.53
p149
aa(lp150
V2015/2016
p151
aVCardiff
p152
aVEC
p153
aV16(12)
p154
aV1529
p155
aV2
aV1
aV3
aV-
aV1
aV77.2
p156
aV1.4
p157
aV1
aV6.75
p158
aa(lp159
V2014/2015
p160
aVCardiff
p161
aVEC
p162
aV43(2)
p163
aV3621
p164
aV4
aV3
aV7
aV-
aV0.9
p165
aV76.6
p166
aV1.7
p167
aV1
aV7.00
p168
aa(lp169
V2016
p170
aVIceland
p171
aVUEC
p172
aV5
aV426
p173
aV-
aV-
aV1
aV-
aV0.4
p174
aV73
p175
aV1.2
p176
aV-
aV6.82
p177
aa(lp178
V2013/2014
p179
aVCardiff
p180
aVEPL
p181
aV17(6)
p182
aV1540
p183
aV1
aV2
aV1
aV-
aV0.8
p184
aV77.6
p185
aV1.2
p186
aV-
aV6.50
p187
aa(lp188
VTotal / Average
p189
aV
aV
aV174
p190
aV13320
p191
aV12
p192
aV10
p193
aV24
p194
aV0
aV0.8
p195
aV73.3
p196
aV1.6
p197
aV6
aV6.88
p198
aasS'defensive_data'
p199
(lp200
(lp201
a(lp202
V2018/2019
p203
aVCardiff
p204
aVEPL
p205
aV9
aV768
p206
aV1
aV-
aV1
aV-
aV0.6
p207
aV71.7
p208
aV1.7
p209
aV-
aV6.63
p210
aa(lp211
V2018/2019
p212
aVIceland
p213
aVUNL
p214
aV1
aV90
p215
aV-
aV-
aV-
aV-
aV-
aV72.9
p216
aV-
aV-
aV6.37
p217
aa(lp218
V2017/2018
p219
aVCardiff
p220
aVEC
p221
aV17(3)
p222
aV1500
p223
aV1
aV1
aV3
aV-
aV0.8
p224
aV65.4
p225
aV1.3
p226
aV1
aV7.02
p227
aa(lp228
V2016/2017
p229
aVCardiff
p230
aVEC
p231
aV40
p232
aV3593
p233
aV3
aV3
aV8
aV-
aV0.9
p234
aV68.6
p235
aV2.1
p236
aV3
aV7.08
p237
aa(lp238
V2018
p239
aVIceland
p240
aVWC
p241
aV3
aV253
p242
aV-
aV-
aV-
aV-
aV0.7
p243
aV76.3
p244
aV1
aV-
aV6.53
p245
aa(lp246
V2015/2016
p247
aVCardiff
p248
aVEC
p249
aV16(12)
p250
aV1529
p251
aV2
aV1
aV3
aV-
aV1
aV77.2
p252
aV1.4
p253
aV1
aV6.75
p254
aa(lp255
V2014/2015
p256
aVCardiff
p257
aVEC
p258
aV43(2)
p259
aV3621
p260
aV4
aV3
aV7
aV-
aV0.9
p261
aV76.6
p262
aV1.7
p263
aV1
aV7.00
p264
aa(lp265
V2016
p266
aVIceland
p267
aVUEC
p268
aV5
aV426
p269
aV-
aV-
aV1
aV-
aV0.4
p270
aV73
p271
aV1.2
p272
aV-
aV6.82
p273
aa(lp274
V2013/2014
p275
aVCardiff
p276
aVEPL
p277
aV17(6)
p278
aV1540
p279
aV1
aV2
aV1
aV-
aV0.8
p280
aV77.6
p281
aV1.2
p282
aV-
aV6.50
p283
aa(lp284
VTotal / Average
p285
aV
aV
aV174
p286
aV13320
p287
aV12
p288
aV10
p289
aV24
p290
aV0
aV0.8
p291
aV73.3
p292
aV1.6
p293
aV6
aV6.88
p294
aasS'sumary_data'
p295
(lp296
(lp297
a(lp298
V2018/2019
p299
aVCardiff
p300
aVEPL
p301
aV9
aV768
p302
aV1
aV-
aV1
aV-
aV0.6
p303
aV71.7
p304
aV1.7
p305
aV-
aV6.63
p306
aa(lp307
V2018/2019
p308
aVIceland
p309
aVUNL
p310
aV1
aV90
p311
aV-
aV-
aV-
aV-
aV-
aV72.9
p312
aV-
aV-
aV6.37
p313
aa(lp314
V2017/2018
p315
aVCardiff
p316
aVEC
p317
aV17(3)
p318
aV1500
p319
aV1
aV1
aV3
aV-
aV0.8
p320
aV65.4
p321
aV1.3
p322
aV1
aV7.02
p323
aa(lp324
V2016/2017
p325
aVCardiff
p326
aVEC
p327
aV40
p328
aV3593
p329
aV3
aV3
aV8
aV-
aV0.9
p330
aV68.6
p331
aV2.1
p332
aV3
aV7.08
p333
aa(lp334
V2018
p335
aVIceland
p336
aVWC
p337
aV3
aV253
p338
aV-
aV-
aV-
aV-
aV0.7
p339
aV76.3
p340
aV1
aV-
aV6.53
p341
aa(lp342
V2015/2016
p343
aVCardiff
p344
aVEC
p345
aV16(12)
p346
aV1529
p347
aV2
aV1
aV3
aV-
aV1
aV77.2
p348
aV1.4
p349
aV1
aV6.75
p350
aa(lp351
V2014/2015
p352
aVCardiff
p353
aVEC
p354
aV43(2)
p355
aV3621
p356
aV4
aV3
aV7
aV-
aV0.9
p357
aV76.6
p358
aV1.7
p359
aV1
aV7.00
p360
aa(lp361
V2016
p362
aVIceland
p363
aVUEC
p364
aV5
aV426
p365
aV-
aV-
aV1
aV-
aV0.4
p366
aV73
p367
aV1.2
p368
aV-
aV6.82
p369
aa(lp370
V2013/2014
p371
aVCardiff
p372
aVEPL
p373
aV17(6)
p374
aV1540
p375
aV1
aV2
aV1
aV-
aV0.8
p376
aV77.6
p377
aV1.2
p378
aV-
aV6.50
p379
aa(lp380
VTotal / Average
p381
aV
aV
aV174
p382
aV13320
p383
aV12
p384
aV10
p385
aV24
p386
aV0
aV0.8
p387
aV73.3
p388
aV1.6
p389
aV6
aV6.88
p390
aasS'id'
p391
V35734
p392
sb.