(i__main__
Player
p1
(dp2
S'name'
p3
VDwight McNeil 
p4
sS'offensive_data'
p5
(lp6
(lp7
a(lp8
V2018/2019
p9
aVBurnley
p10
aVEPL
p11
aV1
aV80
p12
aV-
aV-
aV1
aV-
aV2
aV83.8
p13
aV3
aV-
aV6.77
p14
aa(lp15
V2017/2018
p16
aVBurnley
p17
aVEPL
p18
aV0(1)
p19
aV1
aV-
aV-
aV-
aV-
aV-
aV100
p20
aV-
aV-
aV6.00
p21
aa(lp22
VTotal / Average
p23
aV
aV
aV2
aV81
p24
aV0
aV0
aV1
aV0
aV1
aV91.9
p25
aV1.5
p26
aV0
aV6.39
p27
aasS'url'
p28
S'https://www.whoscored.com/Players/357427/History/'
p29
sS'passing_data'
p30
(lp31
(lp32
a(lp33
V2018/2019
p34
aVBurnley
p35
aVEPL
p36
aV1
aV80
p37
aV-
aV-
aV1
aV-
aV2
aV83.8
p38
aV3
aV-
aV6.77
p39
aa(lp40
V2017/2018
p41
aVBurnley
p42
aVEPL
p43
aV0(1)
p44
aV1
aV-
aV-
aV-
aV-
aV-
aV100
p45
aV-
aV-
aV6.00
p46
aa(lp47
VTotal / Average
p48
aV
aV
aV2
aV81
p49
aV0
aV0
aV1
aV0
aV1
aV91.9
p50
aV1.5
p51
aV0
aV6.39
p52
aasS'defensive_data'
p53
(lp54
(lp55
a(lp56
V2018/2019
p57
aVBurnley
p58
aVEPL
p59
aV1
aV80
p60
aV-
aV-
aV1
aV-
aV2
aV83.8
p61
aV3
aV-
aV6.77
p62
aa(lp63
V2017/2018
p64
aVBurnley
p65
aVEPL
p66
aV0(1)
p67
aV1
aV-
aV-
aV-
aV-
aV-
aV100
p68
aV-
aV-
aV6.00
p69
aa(lp70
VTotal / Average
p71
aV
aV
aV2
aV81
p72
aV0
aV0
aV1
aV0
aV1
aV91.9
p73
aV1.5
p74
aV0
aV6.39
p75
aasS'sumary_data'
p76
(lp77
(lp78
a(lp79
V2018/2019
p80
aVBurnley
p81
aVEPL
p82
aV1
aV80
p83
aV-
aV-
aV1
aV-
aV2
aV83.8
p84
aV3
aV-
aV6.77
p85
aa(lp86
V2017/2018
p87
aVBurnley
p88
aVEPL
p89
aV0(1)
p90
aV1
aV-
aV-
aV-
aV-
aV-
aV100
p91
aV-
aV-
aV6.00
p92
aa(lp93
VTotal / Average
p94
aV
aV
aV2
aV81
p95
aV0
aV0
aV1
aV0
aV1
aV91.9
p96
aV1.5
p97
aV0
aV6.39
p98
aasS'id'
p99
V357427
p100
sb.