(i__main__
Player
p1
(dp2
S'name'
p3
VOliver Skipp 
p4
sS'offensive_data'
p5
(lp6
(lp7
a(lp8
V2018/2019
p9
aVTottenham
p10
aVEPL
p11
aV1(1)
p12
aV78
p13
aV-
aV-
aV-
aV-
aV0.5
p14
aV82.8
p15
aV2.5
p16
aV-
aV6.49
p17
aa(lp18
VTotal / Average
p19
aV
aV
aV2
aV78
p20
aV0
aV0
aV0
aV0
aV0.5
p21
aV82.8
p22
aV2.5
p23
aV0
aV6.49
p24
aasS'url'
p25
S'https://www.whoscored.com/Players/364215/History/'
p26
sS'passing_data'
p27
(lp28
(lp29
a(lp30
V2018/2019
p31
aVTottenham
p32
aVEPL
p33
aV1(1)
p34
aV78
p35
aV-
aV-
aV-
aV-
aV0.5
p36
aV82.8
p37
aV2.5
p38
aV-
aV6.49
p39
aa(lp40
VTotal / Average
p41
aV
aV
aV2
aV78
p42
aV0
aV0
aV0
aV0
aV0.5
p43
aV82.8
p44
aV2.5
p45
aV0
aV6.49
p46
aasS'defensive_data'
p47
(lp48
(lp49
a(lp50
V2018/2019
p51
aVTottenham
p52
aVEPL
p53
aV1(1)
p54
aV78
p55
aV-
aV-
aV-
aV-
aV0.5
p56
aV82.8
p57
aV2.5
p58
aV-
aV6.49
p59
aa(lp60
VTotal / Average
p61
aV
aV
aV2
aV78
p62
aV0
aV0
aV0
aV0
aV0.5
p63
aV82.8
p64
aV2.5
p65
aV0
aV6.49
p66
aasS'sumary_data'
p67
(lp68
(lp69
a(lp70
V2018/2019
p71
aVTottenham
p72
aVEPL
p73
aV1(1)
p74
aV78
p75
aV-
aV-
aV-
aV-
aV0.5
p76
aV82.8
p77
aV2.5
p78
aV-
aV6.49
p79
aa(lp80
VTotal / Average
p81
aV
aV
aV2
aV78
p82
aV0
aV0
aV0
aV0
aV0.5
p83
aV82.8
p84
aV2.5
p85
aV0
aV6.49
p86
aasS'id'
p87
V364215
p88
sb.