(i__main__
Player
p1
(dp2
S'name'
p3
VTyreke Johnson 
p4
sS'offensive_data'
p5
(lp6
(lp7
a(lp8
V2018/2019
p9
aVSouthampton
p10
aVEPL
p11
aV0(1)
p12
aV1
aV-
aV-
aV-
aV-
aV-
aV-
aV-
aV-
aV6.00
p13
aa(lp14
VTotal / Average
p15
aV
aV
aV1
aV1
aV0
aV0
aV0
aV0
aV0
aV0
aV0
aV0
aV6.00
p16
aasS'url'
p17
S'https://www.whoscored.com/Players/367927/History/'
p18
sS'passing_data'
p19
(lp20
(lp21
a(lp22
V2018/2019
p23
aVSouthampton
p24
aVEPL
p25
aV0(1)
p26
aV1
aV-
aV-
aV-
aV-
aV-
aV-
aV-
aV-
aV6.00
p27
aa(lp28
VTotal / Average
p29
aV
aV
aV1
aV1
aV0
aV0
aV0
aV0
aV0
aV0
aV0
aV0
aV6.00
p30
aasS'defensive_data'
p31
(lp32
(lp33
a(lp34
V2018/2019
p35
aVSouthampton
p36
aVEPL
p37
aV0(1)
p38
aV1
aV-
aV-
aV-
aV-
aV-
aV-
aV-
aV-
aV6.00
p39
aa(lp40
VTotal / Average
p41
aV
aV
aV1
aV1
aV0
aV0
aV0
aV0
aV0
aV0
aV0
aV0
aV6.00
p42
aasS'sumary_data'
p43
(lp44
(lp45
a(lp46
V2018/2019
p47
aVSouthampton
p48
aVEPL
p49
aV0(1)
p50
aV1
aV-
aV-
aV-
aV-
aV-
aV-
aV-
aV-
aV6.00
p51
aa(lp52
VTotal / Average
p53
aV
aV
aV1
aV1
aV0
aV0
aV0
aV0
aV0
aV0
aV0
aV0
aV6.00
p54
aasS'id'
p55
V367927
p56
sb.