(i__main__
Player
p1
(dp2
S'name'
p3
VGary Madine 
p4
sS'offensive_data'
p5
(lp6
(lp7
a(lp8
V2018/2019
p9
aVCardiff
p10
aVEPL
p11
aV0(5)
p12
aV32
p13
aV-
aV-
aV-
aV-
aV-
aV83.3
p14
aV0.6
p15
aV-
aV5.99
p16
aa(lp17
V2017/2018
p18
aVBolton
p19
aVEC
p20
aV28
p21
aV2470
p22
aV10
p23
aV5
aV7
aV-
aV2.7
p24
aV58.2
p25
aV8.8
p26
aV4
aV7.26
p27
aa(lp28
V2017/2018
p29
aVCardiff
p30
aVEC
p31
aV5(8)
p32
aV508
p33
aV-
aV2
aV1
aV-
aV0.8
p34
aV59.7
p35
aV4
aV-
aV6.42
p36
aa(lp37
V2015/2016
p38
aVBolton
p39
aVEC
p40
aV22(10)
p41
aV2245
p42
aV5
aV1
aV2
aV-
aV2.2
p43
aV60.6
p44
aV6
aV1
aV6.69
p45
aa(lp46
V2014/2015
p47
aVSheffield Wed..
p48
aVEC
p49
aV1(9)
p50
aV271
p51
aV-
aV-
aV-
aV-
aV1
aV57.9
p52
aV2.3
p53
aV-
aV6.18
p54
aa(lp55
V2014/2015
p56
aVBlackpool
p57
aVEC
p58
aV14(1)
p59
aV1250
p60
aV3
aV1
aV1
aV-
aV2.4
p61
aV58.2
p62
aV6.8
p63
aV-
aV6.73
p64
aa(lp65
V2013/2014
p66
aVSheffield Wed..
p67
aVEC
p68
aV0(1)
p69
aV13
p70
aV-
aV-
aV-
aV-
aV-
aV25
p71
aV-
aV-
aV5.98
p72
aa(lp73
VTotal / Average
p74
aV
aV
aV104
p75
aV6789
p76
aV18
p77
aV9
aV11
p78
aV0
aV2
aV60
p79
aV6
aV5
aV6.72
p80
aasS'url'
p81
S'https://www.whoscored.com/Players/37050/History/'
p82
sS'passing_data'
p83
(lp84
(lp85
a(lp86
V2018/2019
p87
aVCardiff
p88
aVEPL
p89
aV0(5)
p90
aV32
p91
aV-
aV-
aV-
aV-
aV-
aV83.3
p92
aV0.6
p93
aV-
aV5.99
p94
aa(lp95
V2017/2018
p96
aVBolton
p97
aVEC
p98
aV28
p99
aV2470
p100
aV10
p101
aV5
aV7
aV-
aV2.7
p102
aV58.2
p103
aV8.8
p104
aV4
aV7.26
p105
aa(lp106
V2017/2018
p107
aVCardiff
p108
aVEC
p109
aV5(8)
p110
aV508
p111
aV-
aV2
aV1
aV-
aV0.8
p112
aV59.7
p113
aV4
aV-
aV6.42
p114
aa(lp115
V2015/2016
p116
aVBolton
p117
aVEC
p118
aV22(10)
p119
aV2245
p120
aV5
aV1
aV2
aV-
aV2.2
p121
aV60.6
p122
aV6
aV1
aV6.69
p123
aa(lp124
V2014/2015
p125
aVSheffield Wed..
p126
aVEC
p127
aV1(9)
p128
aV271
p129
aV-
aV-
aV-
aV-
aV1
aV57.9
p130
aV2.3
p131
aV-
aV6.18
p132
aa(lp133
V2014/2015
p134
aVBlackpool
p135
aVEC
p136
aV14(1)
p137
aV1250
p138
aV3
aV1
aV1
aV-
aV2.4
p139
aV58.2
p140
aV6.8
p141
aV-
aV6.73
p142
aa(lp143
V2013/2014
p144
aVSheffield Wed..
p145
aVEC
p146
aV0(1)
p147
aV13
p148
aV-
aV-
aV-
aV-
aV-
aV25
p149
aV-
aV-
aV5.98
p150
aa(lp151
VTotal / Average
p152
aV
aV
aV104
p153
aV6789
p154
aV18
p155
aV9
aV11
p156
aV0
aV2
aV60
p157
aV6
aV5
aV6.72
p158
aasS'defensive_data'
p159
(lp160
(lp161
a(lp162
V2018/2019
p163
aVCardiff
p164
aVEPL
p165
aV0(5)
p166
aV32
p167
aV-
aV-
aV-
aV-
aV-
aV83.3
p168
aV0.6
p169
aV-
aV5.99
p170
aa(lp171
V2017/2018
p172
aVBolton
p173
aVEC
p174
aV28
p175
aV2470
p176
aV10
p177
aV5
aV7
aV-
aV2.7
p178
aV58.2
p179
aV8.8
p180
aV4
aV7.26
p181
aa(lp182
V2017/2018
p183
aVCardiff
p184
aVEC
p185
aV5(8)
p186
aV508
p187
aV-
aV2
aV1
aV-
aV0.8
p188
aV59.7
p189
aV4
aV-
aV6.42
p190
aa(lp191
V2015/2016
p192
aVBolton
p193
aVEC
p194
aV22(10)
p195
aV2245
p196
aV5
aV1
aV2
aV-
aV2.2
p197
aV60.6
p198
aV6
aV1
aV6.69
p199
aa(lp200
V2014/2015
p201
aVSheffield Wed..
p202
aVEC
p203
aV1(9)
p204
aV271
p205
aV-
aV-
aV-
aV-
aV1
aV57.9
p206
aV2.3
p207
aV-
aV6.18
p208
aa(lp209
V2014/2015
p210
aVBlackpool
p211
aVEC
p212
aV14(1)
p213
aV1250
p214
aV3
aV1
aV1
aV-
aV2.4
p215
aV58.2
p216
aV6.8
p217
aV-
aV6.73
p218
aa(lp219
V2013/2014
p220
aVSheffield Wed..
p221
aVEC
p222
aV0(1)
p223
aV13
p224
aV-
aV-
aV-
aV-
aV-
aV25
p225
aV-
aV-
aV5.98
p226
aa(lp227
VTotal / Average
p228
aV
aV
aV104
p229
aV6789
p230
aV18
p231
aV9
aV11
p232
aV0
aV2
aV60
p233
aV6
aV5
aV6.72
p234
aasS'sumary_data'
p235
(lp236
(lp237
a(lp238
V2018/2019
p239
aVCardiff
p240
aVEPL
p241
aV0(5)
p242
aV32
p243
aV-
aV-
aV-
aV-
aV-
aV83.3
p244
aV0.6
p245
aV-
aV5.99
p246
aa(lp247
V2017/2018
p248
aVBolton
p249
aVEC
p250
aV28
p251
aV2470
p252
aV10
p253
aV5
aV7
aV-
aV2.7
p254
aV58.2
p255
aV8.8
p256
aV4
aV7.26
p257
aa(lp258
V2017/2018
p259
aVCardiff
p260
aVEC
p261
aV5(8)
p262
aV508
p263
aV-
aV2
aV1
aV-
aV0.8
p264
aV59.7
p265
aV4
aV-
aV6.42
p266
aa(lp267
V2015/2016
p268
aVBolton
p269
aVEC
p270
aV22(10)
p271
aV2245
p272
aV5
aV1
aV2
aV-
aV2.2
p273
aV60.6
p274
aV6
aV1
aV6.69
p275
aa(lp276
V2014/2015
p277
aVSheffield Wed..
p278
aVEC
p279
aV1(9)
p280
aV271
p281
aV-
aV-
aV-
aV-
aV1
aV57.9
p282
aV2.3
p283
aV-
aV6.18
p284
aa(lp285
V2014/2015
p286
aVBlackpool
p287
aVEC
p288
aV14(1)
p289
aV1250
p290
aV3
aV1
aV1
aV-
aV2.4
p291
aV58.2
p292
aV6.8
p293
aV-
aV6.73
p294
aa(lp295
V2013/2014
p296
aVSheffield Wed..
p297
aVEC
p298
aV0(1)
p299
aV13
p300
aV-
aV-
aV-
aV-
aV-
aV25
p301
aV-
aV-
aV5.98
p302
aa(lp303
VTotal / Average
p304
aV
aV
aV104
p305
aV6789
p306
aV18
p307
aV9
aV11
p308
aV0
aV2
aV60
p309
aV6
aV5
aV6.72
p310
aasS'id'
p311
V37050
p312
sb.