(i__main__
Player
p1
(dp2
S'name'
p3
VMaya Yoshida 
p4
sS'offensive_data'
p5
(lp6
(lp7
a(lp8
V2018/2019
p9
aVSouthampton
p10
aVEPL
p11
aV6
aV540
p12
aV-
aV-
aV-
aV-
aV0.8
p13
aV78.7
p14
aV1.8
p15
aV-
aV6.42
p16
aa(lp17
V2017/2018
p18
aVSouthampton
p19
aVEPL
p20
aV23(1)
p21
aV2051
p22
aV2
aV-
aV2
aV1
aV0.8
p23
aV84.2
p24
aV2.8
p25
aV-
aV6.86
p26
aa(lp27
V2016/2017
p28
aVSouthampton
p29
aVEPL
p30
aV23
p31
aV2070
p32
aV1
aV-
aV2
aV-
aV0.7
p33
aV86
p34
aV3.3
p35
aV-
aV7.03
p36
aa(lp37
V2016/2017
p38
aVSouthampton
p39
aVUEL
p40
aV6
aV540
p41
aV-
aV-
aV-
aV-
aV0.8
p42
aV87.6
p43
aV2.8
p44
aV-
aV7.20
p45
aa(lp46
V2018
p47
aVJapan
p48
aVWC
p49
aV4
aV360
p50
aV-
aV-
aV-
aV-
aV0.5
p51
aV88.6
p52
aV4
aV-
aV6.85
p53
aa(lp54
V2015/2016
p55
aVSouthampton
p56
aVEPL
p57
aV10(10)
p58
aV1016
p59
aV1
aV-
aV-
aV-
aV0.1
p60
aV79.6
p61
aV1.1
p62
aV1
aV6.48
p63
aa(lp64
V2014/2015
p65
aVSouthampton
p66
aVEPL
p67
aV18(4)
p68
aV1691
p69
aV1
aV1
aV3
aV-
aV0.5
p70
aV81.1
p71
aV2.2
p72
aV1
aV6.90
p73
aa(lp74
V2013/2014
p75
aVSouthampton
p76
aVEPL
p77
aV7(1)
p78
aV632
p79
aV1
aV-
aV-
aV-
aV0.4
p80
aV81
p81
aV3.5
p82
aV-
aV6.99
p83
aa(lp84
V2014
p85
aVJapan
p86
aVWC
p87
aV3
aV270
p88
aV-
aV-
aV1
aV-
aV1
aV83
p89
aV4.7
p90
aV-
aV6.93
p91
aa(lp92
V2013
p93
aVJapan
p94
aVICC
p95
aV2(1)
p96
aV205
p97
aV-
aV-
aV-
aV-
aV-
aV80.5
p98
aV1.7
p99
aV-
aV6.15
p100
aa(lp101
V2012/2013
p102
aVSouthampton
p103
aVEPL
p104
aV31(1)
p105
aV2852
p106
aV-
aV-
aV2
aV-
aV0.3
p107
aV76.6
p108
aV2.9
p109
aV-
aV6.95
p110
aa(lp111
VTotal / Average
p112
aV
aV
aV151
p113
aV12227
p114
aV6
aV1
aV10
p115
aV1
aV0.5
p116
aV81.6
p117
aV2.6
p118
aV2
aV6.85
p119
aasS'url'
p120
S'https://www.whoscored.com/Players/37204/History/'
p121
sS'passing_data'
p122
(lp123
(lp124
a(lp125
V2018/2019
p126
aVSouthampton
p127
aVEPL
p128
aV6
aV540
p129
aV-
aV-
aV-
aV-
aV0.8
p130
aV78.7
p131
aV1.8
p132
aV-
aV6.42
p133
aa(lp134
V2017/2018
p135
aVSouthampton
p136
aVEPL
p137
aV23(1)
p138
aV2051
p139
aV2
aV-
aV2
aV1
aV0.8
p140
aV84.2
p141
aV2.8
p142
aV-
aV6.86
p143
aa(lp144
V2016/2017
p145
aVSouthampton
p146
aVEPL
p147
aV23
p148
aV2070
p149
aV1
aV-
aV2
aV-
aV0.7
p150
aV86
p151
aV3.3
p152
aV-
aV7.03
p153
aa(lp154
V2016/2017
p155
aVSouthampton
p156
aVUEL
p157
aV6
aV540
p158
aV-
aV-
aV-
aV-
aV0.8
p159
aV87.6
p160
aV2.8
p161
aV-
aV7.20
p162
aa(lp163
V2018
p164
aVJapan
p165
aVWC
p166
aV4
aV360
p167
aV-
aV-
aV-
aV-
aV0.5
p168
aV88.6
p169
aV4
aV-
aV6.85
p170
aa(lp171
V2015/2016
p172
aVSouthampton
p173
aVEPL
p174
aV10(10)
p175
aV1016
p176
aV1
aV-
aV-
aV-
aV0.1
p177
aV79.6
p178
aV1.1
p179
aV1
aV6.48
p180
aa(lp181
V2014/2015
p182
aVSouthampton
p183
aVEPL
p184
aV18(4)
p185
aV1691
p186
aV1
aV1
aV3
aV-
aV0.5
p187
aV81.1
p188
aV2.2
p189
aV1
aV6.90
p190
aa(lp191
V2013/2014
p192
aVSouthampton
p193
aVEPL
p194
aV7(1)
p195
aV632
p196
aV1
aV-
aV-
aV-
aV0.4
p197
aV81
p198
aV3.5
p199
aV-
aV6.99
p200
aa(lp201
V2014
p202
aVJapan
p203
aVWC
p204
aV3
aV270
p205
aV-
aV-
aV1
aV-
aV1
aV83
p206
aV4.7
p207
aV-
aV6.93
p208
aa(lp209
V2013
p210
aVJapan
p211
aVICC
p212
aV2(1)
p213
aV205
p214
aV-
aV-
aV-
aV-
aV-
aV80.5
p215
aV1.7
p216
aV-
aV6.15
p217
aa(lp218
V2012/2013
p219
aVSouthampton
p220
aVEPL
p221
aV31(1)
p222
aV2852
p223
aV-
aV-
aV2
aV-
aV0.3
p224
aV76.6
p225
aV2.9
p226
aV-
aV6.95
p227
aa(lp228
VTotal / Average
p229
aV
aV
aV151
p230
aV12227
p231
aV6
aV1
aV10
p232
aV1
aV0.5
p233
aV81.6
p234
aV2.6
p235
aV2
aV6.85
p236
aasS'defensive_data'
p237
(lp238
(lp239
a(lp240
V2018/2019
p241
aVSouthampton
p242
aVEPL
p243
aV6
aV540
p244
aV-
aV-
aV-
aV-
aV0.8
p245
aV78.7
p246
aV1.8
p247
aV-
aV6.42
p248
aa(lp249
V2017/2018
p250
aVSouthampton
p251
aVEPL
p252
aV23(1)
p253
aV2051
p254
aV2
aV-
aV2
aV1
aV0.8
p255
aV84.2
p256
aV2.8
p257
aV-
aV6.86
p258
aa(lp259
V2016/2017
p260
aVSouthampton
p261
aVEPL
p262
aV23
p263
aV2070
p264
aV1
aV-
aV2
aV-
aV0.7
p265
aV86
p266
aV3.3
p267
aV-
aV7.03
p268
aa(lp269
V2016/2017
p270
aVSouthampton
p271
aVUEL
p272
aV6
aV540
p273
aV-
aV-
aV-
aV-
aV0.8
p274
aV87.6
p275
aV2.8
p276
aV-
aV7.20
p277
aa(lp278
V2018
p279
aVJapan
p280
aVWC
p281
aV4
aV360
p282
aV-
aV-
aV-
aV-
aV0.5
p283
aV88.6
p284
aV4
aV-
aV6.85
p285
aa(lp286
V2015/2016
p287
aVSouthampton
p288
aVEPL
p289
aV10(10)
p290
aV1016
p291
aV1
aV-
aV-
aV-
aV0.1
p292
aV79.6
p293
aV1.1
p294
aV1
aV6.48
p295
aa(lp296
V2014/2015
p297
aVSouthampton
p298
aVEPL
p299
aV18(4)
p300
aV1691
p301
aV1
aV1
aV3
aV-
aV0.5
p302
aV81.1
p303
aV2.2
p304
aV1
aV6.90
p305
aa(lp306
V2013/2014
p307
aVSouthampton
p308
aVEPL
p309
aV7(1)
p310
aV632
p311
aV1
aV-
aV-
aV-
aV0.4
p312
aV81
p313
aV3.5
p314
aV-
aV6.99
p315
aa(lp316
V2014
p317
aVJapan
p318
aVWC
p319
aV3
aV270
p320
aV-
aV-
aV1
aV-
aV1
aV83
p321
aV4.7
p322
aV-
aV6.93
p323
aa(lp324
V2013
p325
aVJapan
p326
aVICC
p327
aV2(1)
p328
aV205
p329
aV-
aV-
aV-
aV-
aV-
aV80.5
p330
aV1.7
p331
aV-
aV6.15
p332
aa(lp333
V2012/2013
p334
aVSouthampton
p335
aVEPL
p336
aV31(1)
p337
aV2852
p338
aV-
aV-
aV2
aV-
aV0.3
p339
aV76.6
p340
aV2.9
p341
aV-
aV6.95
p342
aa(lp343
VTotal / Average
p344
aV
aV
aV151
p345
aV12227
p346
aV6
aV1
aV10
p347
aV1
aV0.5
p348
aV81.6
p349
aV2.6
p350
aV2
aV6.85
p351
aasS'sumary_data'
p352
(lp353
(lp354
a(lp355
V2018/2019
p356
aVSouthampton
p357
aVEPL
p358
aV6
aV540
p359
aV-
aV-
aV-
aV-
aV0.8
p360
aV78.7
p361
aV1.8
p362
aV-
aV6.42
p363
aa(lp364
V2017/2018
p365
aVSouthampton
p366
aVEPL
p367
aV23(1)
p368
aV2051
p369
aV2
aV-
aV2
aV1
aV0.8
p370
aV84.2
p371
aV2.8
p372
aV-
aV6.86
p373
aa(lp374
V2016/2017
p375
aVSouthampton
p376
aVEPL
p377
aV23
p378
aV2070
p379
aV1
aV-
aV2
aV-
aV0.7
p380
aV86
p381
aV3.3
p382
aV-
aV7.03
p383
aa(lp384
V2016/2017
p385
aVSouthampton
p386
aVUEL
p387
aV6
aV540
p388
aV-
aV-
aV-
aV-
aV0.8
p389
aV87.6
p390
aV2.8
p391
aV-
aV7.20
p392
aa(lp393
V2018
p394
aVJapan
p395
aVWC
p396
aV4
aV360
p397
aV-
aV-
aV-
aV-
aV0.5
p398
aV88.6
p399
aV4
aV-
aV6.85
p400
aa(lp401
V2015/2016
p402
aVSouthampton
p403
aVEPL
p404
aV10(10)
p405
aV1016
p406
aV1
aV-
aV-
aV-
aV0.1
p407
aV79.6
p408
aV1.1
p409
aV1
aV6.48
p410
aa(lp411
V2014/2015
p412
aVSouthampton
p413
aVEPL
p414
aV18(4)
p415
aV1691
p416
aV1
aV1
aV3
aV-
aV0.5
p417
aV81.1
p418
aV2.2
p419
aV1
aV6.90
p420
aa(lp421
V2013/2014
p422
aVSouthampton
p423
aVEPL
p424
aV7(1)
p425
aV632
p426
aV1
aV-
aV-
aV-
aV0.4
p427
aV81
p428
aV3.5
p429
aV-
aV6.99
p430
aa(lp431
V2014
p432
aVJapan
p433
aVWC
p434
aV3
aV270
p435
aV-
aV-
aV1
aV-
aV1
aV83
p436
aV4.7
p437
aV-
aV6.93
p438
aa(lp439
V2013
p440
aVJapan
p441
aVICC
p442
aV2(1)
p443
aV205
p444
aV-
aV-
aV-
aV-
aV-
aV80.5
p445
aV1.7
p446
aV-
aV6.15
p447
aa(lp448
V2012/2013
p449
aVSouthampton
p450
aVEPL
p451
aV31(1)
p452
aV2852
p453
aV-
aV-
aV2
aV-
aV0.3
p454
aV76.6
p455
aV2.9
p456
aV-
aV6.95
p457
aa(lp458
VTotal / Average
p459
aV
aV
aV151
p460
aV12227
p461
aV6
aV1
aV10
p462
aV1
aV0.5
p463
aV81.6
p464
aV2.6
p465
aV2
aV6.85
p466
aasS'id'
p467
V37204
p468
sb.