(i__main__
Player
p1
(dp2
S'name'
p3
VSean Morrison 
p4
sS'offensive_data'
p5
(lp6
(lp7
a(lp8
V2018/2019
p9
aVCardiff
p10
aVEPL
p11
aV17
p12
aV1510
p13
aV-
aV3
aV2
aV-
aV1
aV64.5
p14
aV6.6
p15
aV-
aV6.96
p16
aa(lp17
V2017/2018
p18
aVCardiff
p19
aVEC
p20
aV38(1)
p21
aV3330
p22
aV7
aV1
aV5
aV-
aV1.3
p23
aV55.5
p24
aV7.2
p25
aV6
aV7.56
p26
aa(lp27
V2016/2017
p28
aVCardiff
p29
aVEC
p30
aV43(1)
p31
aV3896
p32
aV4
aV5
aV3
aV-
aV1.4
p33
aV63.8
p34
aV5.9
p35
aV6
aV7.43
p36
aa(lp37
V2015/2016
p38
aVCardiff
p39
aVEC
p40
aV29(1)
p41
aV2546
p42
aV3
aV1
aV5
aV-
aV1
aV68.4
p43
aV5.5
p44
aV2
aV7.28
p45
aa(lp46
V2014/2015
p47
aVCardiff
p48
aVEC
p49
aV41
p50
aV3690
p51
aV6
aV2
aV4
aV-
aV1.2
p52
aV70.8
p53
aV5.2
p54
aV4
aV7.26
p55
aa(lp56
V2014/2015
p57
aVReading
p58
aVEC
p59
aV1
aV90
p60
aV1
aV-
aV-
aV-
aV1
aV66.7
p61
aV6
aV-
aV7.56
p62
aa(lp63
V2013/2014
p64
aVReading
p65
aVEC
p66
aV21
p67
aV1890
p68
aV1
aV-
aV1
aV-
aV0.9
p69
aV69.4
p70
aV5.2
p71
aV2
aV7.26
p72
aa(lp73
V2012/2013
p74
aVReading
p75
aVEPL
p76
aV15(1)
p77
aV1327
p78
aV2
aV-
aV-
aV-
aV0.9
p79
aV65.6
p80
aV4.2
p81
aV1
aV7.03
p82
aa(lp83
VTotal / Average
p84
aV
aV
aV209
p85
aV18279
p86
aV24
p87
aV12
p88
aV20
p89
aV0
aV1.1
p90
aV65.1
p91
aV5.8
p92
aV21
p93
aV7.32
p94
aasS'url'
p95
S'https://www.whoscored.com/Players/37505/History/'
p96
sS'passing_data'
p97
(lp98
(lp99
a(lp100
V2018/2019
p101
aVCardiff
p102
aVEPL
p103
aV17
p104
aV1510
p105
aV-
aV3
aV2
aV-
aV1
aV64.5
p106
aV6.6
p107
aV-
aV6.96
p108
aa(lp109
V2017/2018
p110
aVCardiff
p111
aVEC
p112
aV38(1)
p113
aV3330
p114
aV7
aV1
aV5
aV-
aV1.3
p115
aV55.5
p116
aV7.2
p117
aV6
aV7.56
p118
aa(lp119
V2016/2017
p120
aVCardiff
p121
aVEC
p122
aV43(1)
p123
aV3896
p124
aV4
aV5
aV3
aV-
aV1.4
p125
aV63.8
p126
aV5.9
p127
aV6
aV7.43
p128
aa(lp129
V2015/2016
p130
aVCardiff
p131
aVEC
p132
aV29(1)
p133
aV2546
p134
aV3
aV1
aV5
aV-
aV1
aV68.4
p135
aV5.5
p136
aV2
aV7.28
p137
aa(lp138
V2014/2015
p139
aVCardiff
p140
aVEC
p141
aV41
p142
aV3690
p143
aV6
aV2
aV4
aV-
aV1.2
p144
aV70.8
p145
aV5.2
p146
aV4
aV7.26
p147
aa(lp148
V2014/2015
p149
aVReading
p150
aVEC
p151
aV1
aV90
p152
aV1
aV-
aV-
aV-
aV1
aV66.7
p153
aV6
aV-
aV7.56
p154
aa(lp155
V2013/2014
p156
aVReading
p157
aVEC
p158
aV21
p159
aV1890
p160
aV1
aV-
aV1
aV-
aV0.9
p161
aV69.4
p162
aV5.2
p163
aV2
aV7.26
p164
aa(lp165
V2012/2013
p166
aVReading
p167
aVEPL
p168
aV15(1)
p169
aV1327
p170
aV2
aV-
aV-
aV-
aV0.9
p171
aV65.6
p172
aV4.2
p173
aV1
aV7.03
p174
aa(lp175
VTotal / Average
p176
aV
aV
aV209
p177
aV18279
p178
aV24
p179
aV12
p180
aV20
p181
aV0
aV1.1
p182
aV65.1
p183
aV5.8
p184
aV21
p185
aV7.32
p186
aasS'defensive_data'
p187
(lp188
(lp189
a(lp190
V2018/2019
p191
aVCardiff
p192
aVEPL
p193
aV17
p194
aV1510
p195
aV-
aV3
aV2
aV-
aV1
aV64.5
p196
aV6.6
p197
aV-
aV6.96
p198
aa(lp199
V2017/2018
p200
aVCardiff
p201
aVEC
p202
aV38(1)
p203
aV3330
p204
aV7
aV1
aV5
aV-
aV1.3
p205
aV55.5
p206
aV7.2
p207
aV6
aV7.56
p208
aa(lp209
V2016/2017
p210
aVCardiff
p211
aVEC
p212
aV43(1)
p213
aV3896
p214
aV4
aV5
aV3
aV-
aV1.4
p215
aV63.8
p216
aV5.9
p217
aV6
aV7.43
p218
aa(lp219
V2015/2016
p220
aVCardiff
p221
aVEC
p222
aV29(1)
p223
aV2546
p224
aV3
aV1
aV5
aV-
aV1
aV68.4
p225
aV5.5
p226
aV2
aV7.28
p227
aa(lp228
V2014/2015
p229
aVCardiff
p230
aVEC
p231
aV41
p232
aV3690
p233
aV6
aV2
aV4
aV-
aV1.2
p234
aV70.8
p235
aV5.2
p236
aV4
aV7.26
p237
aa(lp238
V2014/2015
p239
aVReading
p240
aVEC
p241
aV1
aV90
p242
aV1
aV-
aV-
aV-
aV1
aV66.7
p243
aV6
aV-
aV7.56
p244
aa(lp245
V2013/2014
p246
aVReading
p247
aVEC
p248
aV21
p249
aV1890
p250
aV1
aV-
aV1
aV-
aV0.9
p251
aV69.4
p252
aV5.2
p253
aV2
aV7.26
p254
aa(lp255
V2012/2013
p256
aVReading
p257
aVEPL
p258
aV15(1)
p259
aV1327
p260
aV2
aV-
aV-
aV-
aV0.9
p261
aV65.6
p262
aV4.2
p263
aV1
aV7.03
p264
aa(lp265
VTotal / Average
p266
aV
aV
aV209
p267
aV18279
p268
aV24
p269
aV12
p270
aV20
p271
aV0
aV1.1
p272
aV65.1
p273
aV5.8
p274
aV21
p275
aV7.32
p276
aasS'sumary_data'
p277
(lp278
(lp279
a(lp280
V2018/2019
p281
aVCardiff
p282
aVEPL
p283
aV17
p284
aV1510
p285
aV-
aV3
aV2
aV-
aV1
aV64.5
p286
aV6.6
p287
aV-
aV6.96
p288
aa(lp289
V2017/2018
p290
aVCardiff
p291
aVEC
p292
aV38(1)
p293
aV3330
p294
aV7
aV1
aV5
aV-
aV1.3
p295
aV55.5
p296
aV7.2
p297
aV6
aV7.56
p298
aa(lp299
V2016/2017
p300
aVCardiff
p301
aVEC
p302
aV43(1)
p303
aV3896
p304
aV4
aV5
aV3
aV-
aV1.4
p305
aV63.8
p306
aV5.9
p307
aV6
aV7.43
p308
aa(lp309
V2015/2016
p310
aVCardiff
p311
aVEC
p312
aV29(1)
p313
aV2546
p314
aV3
aV1
aV5
aV-
aV1
aV68.4
p315
aV5.5
p316
aV2
aV7.28
p317
aa(lp318
V2014/2015
p319
aVCardiff
p320
aVEC
p321
aV41
p322
aV3690
p323
aV6
aV2
aV4
aV-
aV1.2
p324
aV70.8
p325
aV5.2
p326
aV4
aV7.26
p327
aa(lp328
V2014/2015
p329
aVReading
p330
aVEC
p331
aV1
aV90
p332
aV1
aV-
aV-
aV-
aV1
aV66.7
p333
aV6
aV-
aV7.56
p334
aa(lp335
V2013/2014
p336
aVReading
p337
aVEC
p338
aV21
p339
aV1890
p340
aV1
aV-
aV1
aV-
aV0.9
p341
aV69.4
p342
aV5.2
p343
aV2
aV7.26
p344
aa(lp345
V2012/2013
p346
aVReading
p347
aVEPL
p348
aV15(1)
p349
aV1327
p350
aV2
aV-
aV-
aV-
aV0.9
p351
aV65.6
p352
aV4.2
p353
aV1
aV7.03
p354
aa(lp355
VTotal / Average
p356
aV
aV
aV209
p357
aV18279
p358
aV24
p359
aV12
p360
aV20
p361
aV0
aV1.1
p362
aV65.1
p363
aV5.8
p364
aV21
p365
aV7.32
p366
aasS'id'
p367
V37505
p368
sb.