(i__main__
Player
p1
(dp2
S'name'
p3
VNemanja Matic 
p4
sS'offensive_data'
p5
(lp6
(lp7
a(lp8
V2018/2019
p9
aVManchester Un..
p10
aVEPL
p11
aV14
p12
aV1231
p13
aV-
aV-
aV3
aV1
aV0.4
p14
aV87.5
p15
aV1.8
p16
aV-
aV6.64
p17
aa(lp18
V2018/2019
p19
aVManchester Un..
p20
aVUCL
p21
aV5
aV450
p22
aV-
aV-
aV2
aV-
aV-
aV88.2
p23
aV1.6
p24
aV-
aV6.80
p25
aa(lp26
V2018/2019
p27
aVSerbia
p28
aVUNL
p29
aV2(1)
p30
aV191
p31
aV-
aV-
aV1
aV-
aV0.7
p32
aV90.5
p33
aV1.7
p34
aV-
aV7.22
p35
aa(lp36
V2017/2018
p37
aVManchester Un..
p38
aVUCL
p39
aV6(1)
p40
aV564
p41
aV-
aV-
aV-
aV-
aV0.4
p42
aV89.2
p43
aV1.4
p44
aV1
aV7.29
p45
aa(lp46
V2017/2018
p47
aVManchester Un..
p48
aVEPL
p49
aV35(1)
p50
aV3119
p51
aV1
aV1
aV6
aV-
aV0.5
p52
aV87.7
p53
aV1.6
p54
aV-
aV7.20
p55
aa(lp56
V2016/2017
p57
aVChelsea
p58
aVEPL
p59
aV30(5)
p60
aV2697
p61
aV1
aV7
aV4
aV-
aV0.6
p62
aV87.7
p63
aV1.1
p64
aV1
aV7.01
p65
aa(lp66
V2018
p67
aVSerbia
p68
aVWC
p69
aV3
aV270
p70
aV-
aV-
aV2
aV-
aV1
aV83
p71
aV2.7
p72
aV-
aV6.86
p73
aa(lp74
V2015/2016
p75
aVChelsea
p76
aVUCL
p77
aV4(1)
p78
aV377
p79
aV-
aV-
aV3
aV-
aV0.4
p80
aV84.5
p81
aV0.4
p82
aV-
aV7.31
p83
aa(lp84
V2015/2016
p85
aVChelsea
p86
aVEPL
p87
aV28(5)
p88
aV2421
p89
aV2
aV2
aV4
aV1
aV1
aV88.1
p90
aV1.1
p91
aV-
aV6.98
p92
aa(lp93
V2014/2015
p94
aVChelsea
p95
aVUCL
p96
aV8
aV714
p97
aV2
aV1
aV-
aV-
aV0.5
p98
aV90.2
p99
aV1.6
p100
aV1
aV8.00
p101
aa(lp102
V2014/2015
p103
aVChelsea
p104
aVEPL
p105
aV35(1)
p106
aV3124
p107
aV1
aV3
aV10
p108
aV1
aV0.8
p109
aV86.4
p110
aV2.1
p111
aV6
aV7.50
p112
aa(lp113
V2013/2014
p114
aVBenfica
p115
aVUCL
p116
aV6
aV540
p117
aV1
aV-
aV1
aV-
aV1
aV83.2
p118
aV1.3
p119
aV-
aV6.84
p120
aa(lp121
V2013/2014
p122
aVChelsea
p123
aVEPL
p124
aV15(2)
p125
aV1364
p126
aV-
aV4
aV3
aV-
aV0.8
p127
aV84.8
p128
aV2.8
p129
aV1
aV7.63
p130
aa(lp131
V2012/2013
p132
aVBenfica
p133
aVUEL
p134
aV8
aV720
p135
aV1
aV-
aV1
aV-
aV0.6
p136
aV80.1
p137
aV2.4
p138
aV1
aV7.24
p139
aa(lp140
V2012/2013
p141
aVBenfica
p142
aVUCL
p143
aV5
aV437
p144
aV-
aV-
aV4
aV-
aV1.6
p145
aV76.4
p146
aV2.2
p147
aV-
aV6.81
p148
aa(lp149
V2011/2012
p150
aVBenfica
p151
aVUCL
p152
aV3(4)
p153
aV347
p154
aV-
aV-
aV-
aV-
aV0.3
p155
aV74
p156
aV1.7
p157
aV-
aV6.59
p158
aa(lp159
V2009/2010
p160
aVChelsea
p161
aVEPL
p162
aV0(2)
p163
aV40
p164
aV-
aV-
aV-
aV-
aV0.5
p165
aV76.9
p166
aV0.5
p167
aV-
aV6.47
p168
aa(lp169
VTotal / Average
p170
aV
aV
aV230
p171
aV18606
p172
aV9
aV18
p173
aV44
p174
aV3
aV0.7
p175
aV86.2
p176
aV1.7
p177
aV11
p178
aV7.16
p179
aasS'url'
p180
S'https://www.whoscored.com/Players/38128/History/'
p181
sS'passing_data'
p182
(lp183
(lp184
a(lp185
V2018/2019
p186
aVManchester Un..
p187
aVEPL
p188
aV14
p189
aV1231
p190
aV-
aV-
aV3
aV1
aV0.4
p191
aV87.5
p192
aV1.8
p193
aV-
aV6.64
p194
aa(lp195
V2018/2019
p196
aVManchester Un..
p197
aVUCL
p198
aV5
aV450
p199
aV-
aV-
aV2
aV-
aV-
aV88.2
p200
aV1.6
p201
aV-
aV6.80
p202
aa(lp203
V2018/2019
p204
aVSerbia
p205
aVUNL
p206
aV2(1)
p207
aV191
p208
aV-
aV-
aV1
aV-
aV0.7
p209
aV90.5
p210
aV1.7
p211
aV-
aV7.22
p212
aa(lp213
V2017/2018
p214
aVManchester Un..
p215
aVUCL
p216
aV6(1)
p217
aV564
p218
aV-
aV-
aV-
aV-
aV0.4
p219
aV89.2
p220
aV1.4
p221
aV1
aV7.29
p222
aa(lp223
V2017/2018
p224
aVManchester Un..
p225
aVEPL
p226
aV35(1)
p227
aV3119
p228
aV1
aV1
aV6
aV-
aV0.5
p229
aV87.7
p230
aV1.6
p231
aV-
aV7.20
p232
aa(lp233
V2016/2017
p234
aVChelsea
p235
aVEPL
p236
aV30(5)
p237
aV2697
p238
aV1
aV7
aV4
aV-
aV0.6
p239
aV87.7
p240
aV1.1
p241
aV1
aV7.01
p242
aa(lp243
V2018
p244
aVSerbia
p245
aVWC
p246
aV3
aV270
p247
aV-
aV-
aV2
aV-
aV1
aV83
p248
aV2.7
p249
aV-
aV6.86
p250
aa(lp251
V2015/2016
p252
aVChelsea
p253
aVUCL
p254
aV4(1)
p255
aV377
p256
aV-
aV-
aV3
aV-
aV0.4
p257
aV84.5
p258
aV0.4
p259
aV-
aV7.31
p260
aa(lp261
V2015/2016
p262
aVChelsea
p263
aVEPL
p264
aV28(5)
p265
aV2421
p266
aV2
aV2
aV4
aV1
aV1
aV88.1
p267
aV1.1
p268
aV-
aV6.98
p269
aa(lp270
V2014/2015
p271
aVChelsea
p272
aVUCL
p273
aV8
aV714
p274
aV2
aV1
aV-
aV-
aV0.5
p275
aV90.2
p276
aV1.6
p277
aV1
aV8.00
p278
aa(lp279
V2014/2015
p280
aVChelsea
p281
aVEPL
p282
aV35(1)
p283
aV3124
p284
aV1
aV3
aV10
p285
aV1
aV0.8
p286
aV86.4
p287
aV2.1
p288
aV6
aV7.50
p289
aa(lp290
V2013/2014
p291
aVBenfica
p292
aVUCL
p293
aV6
aV540
p294
aV1
aV-
aV1
aV-
aV1
aV83.2
p295
aV1.3
p296
aV-
aV6.84
p297
aa(lp298
V2013/2014
p299
aVChelsea
p300
aVEPL
p301
aV15(2)
p302
aV1364
p303
aV-
aV4
aV3
aV-
aV0.8
p304
aV84.8
p305
aV2.8
p306
aV1
aV7.63
p307
aa(lp308
V2012/2013
p309
aVBenfica
p310
aVUEL
p311
aV8
aV720
p312
aV1
aV-
aV1
aV-
aV0.6
p313
aV80.1
p314
aV2.4
p315
aV1
aV7.24
p316
aa(lp317
V2012/2013
p318
aVBenfica
p319
aVUCL
p320
aV5
aV437
p321
aV-
aV-
aV4
aV-
aV1.6
p322
aV76.4
p323
aV2.2
p324
aV-
aV6.81
p325
aa(lp326
V2011/2012
p327
aVBenfica
p328
aVUCL
p329
aV3(4)
p330
aV347
p331
aV-
aV-
aV-
aV-
aV0.3
p332
aV74
p333
aV1.7
p334
aV-
aV6.59
p335
aa(lp336
V2009/2010
p337
aVChelsea
p338
aVEPL
p339
aV0(2)
p340
aV40
p341
aV-
aV-
aV-
aV-
aV0.5
p342
aV76.9
p343
aV0.5
p344
aV-
aV6.47
p345
aa(lp346
VTotal / Average
p347
aV
aV
aV230
p348
aV18606
p349
aV9
aV18
p350
aV44
p351
aV3
aV0.7
p352
aV86.2
p353
aV1.7
p354
aV11
p355
aV7.16
p356
aasS'defensive_data'
p357
(lp358
(lp359
a(lp360
V2018/2019
p361
aVManchester Un..
p362
aVEPL
p363
aV14
p364
aV1231
p365
aV-
aV-
aV3
aV1
aV0.4
p366
aV87.5
p367
aV1.8
p368
aV-
aV6.64
p369
aa(lp370
V2018/2019
p371
aVManchester Un..
p372
aVUCL
p373
aV5
aV450
p374
aV-
aV-
aV2
aV-
aV-
aV88.2
p375
aV1.6
p376
aV-
aV6.80
p377
aa(lp378
V2018/2019
p379
aVSerbia
p380
aVUNL
p381
aV2(1)
p382
aV191
p383
aV-
aV-
aV1
aV-
aV0.7
p384
aV90.5
p385
aV1.7
p386
aV-
aV7.22
p387
aa(lp388
V2017/2018
p389
aVManchester Un..
p390
aVUCL
p391
aV6(1)
p392
aV564
p393
aV-
aV-
aV-
aV-
aV0.4
p394
aV89.2
p395
aV1.4
p396
aV1
aV7.29
p397
aa(lp398
V2017/2018
p399
aVManchester Un..
p400
aVEPL
p401
aV35(1)
p402
aV3119
p403
aV1
aV1
aV6
aV-
aV0.5
p404
aV87.7
p405
aV1.6
p406
aV-
aV7.20
p407
aa(lp408
V2016/2017
p409
aVChelsea
p410
aVEPL
p411
aV30(5)
p412
aV2697
p413
aV1
aV7
aV4
aV-
aV0.6
p414
aV87.7
p415
aV1.1
p416
aV1
aV7.01
p417
aa(lp418
V2018
p419
aVSerbia
p420
aVWC
p421
aV3
aV270
p422
aV-
aV-
aV2
aV-
aV1
aV83
p423
aV2.7
p424
aV-
aV6.86
p425
aa(lp426
V2015/2016
p427
aVChelsea
p428
aVUCL
p429
aV4(1)
p430
aV377
p431
aV-
aV-
aV3
aV-
aV0.4
p432
aV84.5
p433
aV0.4
p434
aV-
aV7.31
p435
aa(lp436
V2015/2016
p437
aVChelsea
p438
aVEPL
p439
aV28(5)
p440
aV2421
p441
aV2
aV2
aV4
aV1
aV1
aV88.1
p442
aV1.1
p443
aV-
aV6.98
p444
aa(lp445
V2014/2015
p446
aVChelsea
p447
aVUCL
p448
aV8
aV714
p449
aV2
aV1
aV-
aV-
aV0.5
p450
aV90.2
p451
aV1.6
p452
aV1
aV8.00
p453
aa(lp454
V2014/2015
p455
aVChelsea
p456
aVEPL
p457
aV35(1)
p458
aV3124
p459
aV1
aV3
aV10
p460
aV1
aV0.8
p461
aV86.4
p462
aV2.1
p463
aV6
aV7.50
p464
aa(lp465
V2013/2014
p466
aVBenfica
p467
aVUCL
p468
aV6
aV540
p469
aV1
aV-
aV1
aV-
aV1
aV83.2
p470
aV1.3
p471
aV-
aV6.84
p472
aa(lp473
V2013/2014
p474
aVChelsea
p475
aVEPL
p476
aV15(2)
p477
aV1364
p478
aV-
aV4
aV3
aV-
aV0.8
p479
aV84.8
p480
aV2.8
p481
aV1
aV7.63
p482
aa(lp483
V2012/2013
p484
aVBenfica
p485
aVUEL
p486
aV8
aV720
p487
aV1
aV-
aV1
aV-
aV0.6
p488
aV80.1
p489
aV2.4
p490
aV1
aV7.24
p491
aa(lp492
V2012/2013
p493
aVBenfica
p494
aVUCL
p495
aV5
aV437
p496
aV-
aV-
aV4
aV-
aV1.6
p497
aV76.4
p498
aV2.2
p499
aV-
aV6.81
p500
aa(lp501
V2011/2012
p502
aVBenfica
p503
aVUCL
p504
aV3(4)
p505
aV347
p506
aV-
aV-
aV-
aV-
aV0.3
p507
aV74
p508
aV1.7
p509
aV-
aV6.59
p510
aa(lp511
V2009/2010
p512
aVChelsea
p513
aVEPL
p514
aV0(2)
p515
aV40
p516
aV-
aV-
aV-
aV-
aV0.5
p517
aV76.9
p518
aV0.5
p519
aV-
aV6.47
p520
aa(lp521
VTotal / Average
p522
aV
aV
aV230
p523
aV18606
p524
aV9
aV18
p525
aV44
p526
aV3
aV0.7
p527
aV86.2
p528
aV1.7
p529
aV11
p530
aV7.16
p531
aasS'sumary_data'
p532
(lp533
(lp534
a(lp535
V2018/2019
p536
aVManchester Un..
p537
aVEPL
p538
aV14
p539
aV1231
p540
aV-
aV-
aV3
aV1
aV0.4
p541
aV87.5
p542
aV1.8
p543
aV-
aV6.64
p544
aa(lp545
V2018/2019
p546
aVManchester Un..
p547
aVUCL
p548
aV5
aV450
p549
aV-
aV-
aV2
aV-
aV-
aV88.2
p550
aV1.6
p551
aV-
aV6.80
p552
aa(lp553
V2018/2019
p554
aVSerbia
p555
aVUNL
p556
aV2(1)
p557
aV191
p558
aV-
aV-
aV1
aV-
aV0.7
p559
aV90.5
p560
aV1.7
p561
aV-
aV7.22
p562
aa(lp563
V2017/2018
p564
aVManchester Un..
p565
aVUCL
p566
aV6(1)
p567
aV564
p568
aV-
aV-
aV-
aV-
aV0.4
p569
aV89.2
p570
aV1.4
p571
aV1
aV7.29
p572
aa(lp573
V2017/2018
p574
aVManchester Un..
p575
aVEPL
p576
aV35(1)
p577
aV3119
p578
aV1
aV1
aV6
aV-
aV0.5
p579
aV87.7
p580
aV1.6
p581
aV-
aV7.20
p582
aa(lp583
V2016/2017
p584
aVChelsea
p585
aVEPL
p586
aV30(5)
p587
aV2697
p588
aV1
aV7
aV4
aV-
aV0.6
p589
aV87.7
p590
aV1.1
p591
aV1
aV7.01
p592
aa(lp593
V2018
p594
aVSerbia
p595
aVWC
p596
aV3
aV270
p597
aV-
aV-
aV2
aV-
aV1
aV83
p598
aV2.7
p599
aV-
aV6.86
p600
aa(lp601
V2015/2016
p602
aVChelsea
p603
aVUCL
p604
aV4(1)
p605
aV377
p606
aV-
aV-
aV3
aV-
aV0.4
p607
aV84.5
p608
aV0.4
p609
aV-
aV7.31
p610
aa(lp611
V2015/2016
p612
aVChelsea
p613
aVEPL
p614
aV28(5)
p615
aV2421
p616
aV2
aV2
aV4
aV1
aV1
aV88.1
p617
aV1.1
p618
aV-
aV6.98
p619
aa(lp620
V2014/2015
p621
aVChelsea
p622
aVUCL
p623
aV8
aV714
p624
aV2
aV1
aV-
aV-
aV0.5
p625
aV90.2
p626
aV1.6
p627
aV1
aV8.00
p628
aa(lp629
V2014/2015
p630
aVChelsea
p631
aVEPL
p632
aV35(1)
p633
aV3124
p634
aV1
aV3
aV10
p635
aV1
aV0.8
p636
aV86.4
p637
aV2.1
p638
aV6
aV7.50
p639
aa(lp640
V2013/2014
p641
aVBenfica
p642
aVUCL
p643
aV6
aV540
p644
aV1
aV-
aV1
aV-
aV1
aV83.2
p645
aV1.3
p646
aV-
aV6.84
p647
aa(lp648
V2013/2014
p649
aVChelsea
p650
aVEPL
p651
aV15(2)
p652
aV1364
p653
aV-
aV4
aV3
aV-
aV0.8
p654
aV84.8
p655
aV2.8
p656
aV1
aV7.63
p657
aa(lp658
V2012/2013
p659
aVBenfica
p660
aVUEL
p661
aV8
aV720
p662
aV1
aV-
aV1
aV-
aV0.6
p663
aV80.1
p664
aV2.4
p665
aV1
aV7.24
p666
aa(lp667
V2012/2013
p668
aVBenfica
p669
aVUCL
p670
aV5
aV437
p671
aV-
aV-
aV4
aV-
aV1.6
p672
aV76.4
p673
aV2.2
p674
aV-
aV6.81
p675
aa(lp676
V2011/2012
p677
aVBenfica
p678
aVUCL
p679
aV3(4)
p680
aV347
p681
aV-
aV-
aV-
aV-
aV0.3
p682
aV74
p683
aV1.7
p684
aV-
aV6.59
p685
aa(lp686
V2009/2010
p687
aVChelsea
p688
aVEPL
p689
aV0(2)
p690
aV40
p691
aV-
aV-
aV-
aV-
aV0.5
p692
aV76.9
p693
aV0.5
p694
aV-
aV6.47
p695
aa(lp696
VTotal / Average
p697
aV
aV
aV230
p698
aV18606
p699
aV9
aV18
p700
aV44
p701
aV3
aV0.7
p702
aV86.2
p703
aV1.7
p704
aV11
p705
aV7.16
p706
aasS'id'
p707
V38128
p708
sb.