(i__main__
Player
p1
(dp2
S'name'
p3
VAlex McCarthy 
p4
sS'offensive_data'
p5
(lp6
(lp7
a(lp8
V2018/2019
p9
aVSouthampton
p10
aVEPL
p11
aV17
p12
aV1530
p13
aV-
aV-
aV1
aV-
aV-
aV45.3
p14
aV0.8
p15
aV1
aV6.67
p16
aa(lp17
V2017/2018
p18
aVSouthampton
p19
aVEPL
p20
aV18
p21
aV1620
p22
aV-
aV-
aV2
aV-
aV-
aV38.4
p23
aV0.6
p24
aV-
aV6.53
p25
aa(lp26
V2015/2016
p27
aVCrystal Palac..
p28
aVEPL
p29
aV7
aV630
p30
aV-
aV-
aV-
aV-
aV-
aV41.2
p31
aV-
aV-
aV6.72
p32
aa(lp33
V2014/2015
p34
aVQueens Park R..
p35
aVEPL
p36
aV2(1)
p37
aV236
p38
aV-
aV-
aV-
aV-
aV-
aV44.9
p39
aV-
aV-
aV6.27
p40
aa(lp41
V2013/2014
p42
aVReading
p43
aVEC
p44
aV44
p45
aV3960
p46
aV-
aV-
aV-
aV-
aV-
aV45.6
p47
aV0.3
p48
aV2
aV7.00
p49
aa(lp50
V2012/2013
p51
aVReading
p52
aVEPL
p53
aV13
p54
aV1170
p55
aV-
aV-
aV-
aV-
aV-
aV43.9
p56
aV0.2
p57
aV1
aV7.15
p58
aa(lp59
VTotal / Average
p60
aV
aV
aV102
p61
aV9146
p62
aV0
aV0
aV3
aV0
aV0
aV43.7
p63
aV0.4
p64
aV4
aV6.84
p65
aasS'url'
p66
S'https://www.whoscored.com/Players/38577/History/'
p67
sS'passing_data'
p68
(lp69
(lp70
a(lp71
V2018/2019
p72
aVSouthampton
p73
aVEPL
p74
aV17
p75
aV1530
p76
aV-
aV-
aV1
aV-
aV-
aV45.3
p77
aV0.8
p78
aV1
aV6.67
p79
aa(lp80
V2017/2018
p81
aVSouthampton
p82
aVEPL
p83
aV18
p84
aV1620
p85
aV-
aV-
aV2
aV-
aV-
aV38.4
p86
aV0.6
p87
aV-
aV6.53
p88
aa(lp89
V2015/2016
p90
aVCrystal Palac..
p91
aVEPL
p92
aV7
aV630
p93
aV-
aV-
aV-
aV-
aV-
aV41.2
p94
aV-
aV-
aV6.72
p95
aa(lp96
V2014/2015
p97
aVQueens Park R..
p98
aVEPL
p99
aV2(1)
p100
aV236
p101
aV-
aV-
aV-
aV-
aV-
aV44.9
p102
aV-
aV-
aV6.27
p103
aa(lp104
V2013/2014
p105
aVReading
p106
aVEC
p107
aV44
p108
aV3960
p109
aV-
aV-
aV-
aV-
aV-
aV45.6
p110
aV0.3
p111
aV2
aV7.00
p112
aa(lp113
V2012/2013
p114
aVReading
p115
aVEPL
p116
aV13
p117
aV1170
p118
aV-
aV-
aV-
aV-
aV-
aV43.9
p119
aV0.2
p120
aV1
aV7.15
p121
aa(lp122
VTotal / Average
p123
aV
aV
aV102
p124
aV9146
p125
aV0
aV0
aV3
aV0
aV0
aV43.7
p126
aV0.4
p127
aV4
aV6.84
p128
aasS'defensive_data'
p129
(lp130
(lp131
a(lp132
V2018/2019
p133
aVSouthampton
p134
aVEPL
p135
aV17
p136
aV1530
p137
aV-
aV-
aV1
aV-
aV-
aV45.3
p138
aV0.8
p139
aV1
aV6.67
p140
aa(lp141
V2017/2018
p142
aVSouthampton
p143
aVEPL
p144
aV18
p145
aV1620
p146
aV-
aV-
aV2
aV-
aV-
aV38.4
p147
aV0.6
p148
aV-
aV6.53
p149
aa(lp150
V2015/2016
p151
aVCrystal Palac..
p152
aVEPL
p153
aV7
aV630
p154
aV-
aV-
aV-
aV-
aV-
aV41.2
p155
aV-
aV-
aV6.72
p156
aa(lp157
V2014/2015
p158
aVQueens Park R..
p159
aVEPL
p160
aV2(1)
p161
aV236
p162
aV-
aV-
aV-
aV-
aV-
aV44.9
p163
aV-
aV-
aV6.27
p164
aa(lp165
V2013/2014
p166
aVReading
p167
aVEC
p168
aV44
p169
aV3960
p170
aV-
aV-
aV-
aV-
aV-
aV45.6
p171
aV0.3
p172
aV2
aV7.00
p173
aa(lp174
V2012/2013
p175
aVReading
p176
aVEPL
p177
aV13
p178
aV1170
p179
aV-
aV-
aV-
aV-
aV-
aV43.9
p180
aV0.2
p181
aV1
aV7.15
p182
aa(lp183
VTotal / Average
p184
aV
aV
aV102
p185
aV9146
p186
aV0
aV0
aV3
aV0
aV0
aV43.7
p187
aV0.4
p188
aV4
aV6.84
p189
aasS'sumary_data'
p190
(lp191
(lp192
a(lp193
V2018/2019
p194
aVSouthampton
p195
aVEPL
p196
aV17
p197
aV1530
p198
aV-
aV-
aV1
aV-
aV-
aV45.3
p199
aV0.8
p200
aV1
aV6.67
p201
aa(lp202
V2017/2018
p203
aVSouthampton
p204
aVEPL
p205
aV18
p206
aV1620
p207
aV-
aV-
aV2
aV-
aV-
aV38.4
p208
aV0.6
p209
aV-
aV6.53
p210
aa(lp211
V2015/2016
p212
aVCrystal Palac..
p213
aVEPL
p214
aV7
aV630
p215
aV-
aV-
aV-
aV-
aV-
aV41.2
p216
aV-
aV-
aV6.72
p217
aa(lp218
V2014/2015
p219
aVQueens Park R..
p220
aVEPL
p221
aV2(1)
p222
aV236
p223
aV-
aV-
aV-
aV-
aV-
aV44.9
p224
aV-
aV-
aV6.27
p225
aa(lp226
V2013/2014
p227
aVReading
p228
aVEC
p229
aV44
p230
aV3960
p231
aV-
aV-
aV-
aV-
aV-
aV45.6
p232
aV0.3
p233
aV2
aV7.00
p234
aa(lp235
V2012/2013
p236
aVReading
p237
aVEPL
p238
aV13
p239
aV1170
p240
aV-
aV-
aV-
aV-
aV-
aV43.9
p241
aV0.2
p242
aV1
aV7.15
p243
aa(lp244
VTotal / Average
p245
aV
aV
aV102
p246
aV9146
p247
aV0
aV0
aV3
aV0
aV0
aV43.7
p248
aV0.4
p249
aV4
aV6.84
p250
aasS'id'
p251
V38577
p252
sb.