(i__main__
Player
p1
(dp2
S'name'
p3
VDanny Welbeck 
p4
sS'offensive_data'
p5
(lp6
(lp7
a(lp8
V2018/2019
p9
aVArsenal
p10
aVEPL
p11
aV1(7)
p12
aV148
p13
aV1
aV1
aV-
aV-
aV0.5
p14
aV74.1
p15
aV0.9
p16
aV-
aV6.39
p17
aa(lp18
V2018/2019
p19
aVArsenal
p20
aVUEL
p21
aV4
aV291
p22
aV2
aV-
aV-
aV-
aV2.5
p23
aV81.3
p24
aV0.8
p25
aV-
aV7.00
p26
aa(lp27
V2018/2019
p28
aVEngland
p29
aVUNL
p30
aV0(1)
p31
aV1
aV-
aV-
aV-
aV-
aV1
aV100
p32
aV1
aV-
aV6.00
p33
aa(lp34
V2017/2018
p35
aVArsenal
p36
aVUEL
p37
aV9(1)
p38
aV762
p39
aV3
aV-
aV-
aV-
aV2.1
p40
aV84.8
p41
aV1.6
p42
aV1
aV7.42
p43
aa(lp44
V2017/2018
p45
aVArsenal
p46
aVEPL
p47
aV12(16)
p48
aV1185
p49
aV5
aV2
aV1
aV-
aV1.1
p50
aV79.8
p51
aV0.9
p52
aV2
aV6.52
p53
aa(lp54
V2016/2017
p55
aVArsenal
p56
aVEPL
p57
aV8(8)
p58
aV746
p59
aV2
aV2
aV-
aV-
aV1.2
p60
aV83.9
p61
aV1.1
p62
aV-
aV6.56
p63
aa(lp64
V2018
p65
aVEngland
p66
aVWC
p67
aV0(1)
p68
aV11
p69
aV-
aV-
aV-
aV-
aV2
aV100
p70
aV-
aV-
aV6.14
p71
aa(lp72
V2015/2016
p73
aVArsenal
p74
aVUCL
p75
aV1(1)
p76
aV91
p77
aV-
aV-
aV-
aV-
aV2.5
p78
aV82.4
p79
aV1
aV-
aV6.50
p80
aa(lp81
V2015/2016
p82
aVArsenal
p83
aVEPL
p84
aV7(4)
p85
aV578
p86
aV4
aV2
aV1
aV-
aV1.8
p87
aV76.5
p88
aV0.9
p89
aV1
aV7.06
p90
aa(lp91
V2014/2015
p92
aVArsenal
p93
aVUCL
p94
aV6
aV499
p95
aV3
aV-
aV1
aV-
aV3
aV86.2
p96
aV2.8
p97
aV1
aV7.23
p98
aa(lp99
V2014/2015
p100
aVArsenal
p101
aVEPL
p102
aV18(7)
p103
aV1667
p104
aV4
aV3
aV3
aV-
aV2.3
p105
aV81.9
p106
aV1.5
p107
aV2
aV7.18
p108
aa(lp109
V2014/2015
p110
aVManchester Un..
p111
aVEPL
p112
aV0(2)
p113
aV44
p114
aV-
aV-
aV-
aV-
aV-
aV76.5
p115
aV1
aV-
aV6.40
p116
aa(lp117
V2013/2014
p118
aVManchester Un..
p119
aVUCL
p120
aV4(1)
p121
aV369
p122
aV1
aV-
aV-
aV-
aV0.8
p123
aV77.2
p124
aV2
aV-
aV6.84
p125
aa(lp126
V2013/2014
p127
aVManchester Un..
p128
aVEPL
p129
aV15(10)
p130
aV1461
p131
aV9
aV1
aV2
aV-
aV1.8
p132
aV87.4
p133
aV0.4
p134
aV2
aV6.84
p135
aa(lp136
V2014
p137
aVEngland
p138
aVWC
p139
aV2
aV133
p140
aV-
aV-
aV-
aV-
aV0.5
p141
aV79.6
p142
aV1
aV-
aV6.51
p143
aa(lp144
V2012/2013
p145
aVManchester Un..
p146
aVUCL
p147
aV5(2)
p148
aV406
p149
aV1
aV-
aV-
aV-
aV1.6
p150
aV81.2
p151
aV1.1
p152
aV-
aV6.63
p153
aa(lp154
V2012/2013
p155
aVManchester Un..
p156
aVEPL
p157
aV13(14)
p158
aV1288
p159
aV1
aV4
aV1
aV-
aV1.4
p160
aV86.8
p161
aV0.8
p162
aV-
aV6.71
p163
aa(lp164
V2012
p165
aVEngland
p166
aVUEC
p167
aV4
aV323
p168
aV1
aV-
aV-
aV-
aV1
aV91.1
p169
aV1.5
p170
aV1
aV7.18
p171
aa(lp172
V2011/2012
p173
aVManchester Un..
p174
aVUCL
p175
aV1(1)
p176
aV116
p177
aV2
aV-
aV-
aV-
aV3.5
p178
aV85.1
p179
aV1.5
p180
aV-
aV7.57
p181
aa(lp182
V2011/2012
p183
aVManchester Un..
p184
aVEPL
p185
aV23(7)
p186
aV2018
p187
aV9
aV4
aV3
aV-
aV2.7
p188
aV86.4
p189
aV0.3
p190
aV3
aV7.17
p191
aa(lp192
V2010/2011
p193
aVSunderland
p194
aVEPL
p195
aV21(5)
p196
aV1769
p197
aV6
aV1
aV2
aV-
aV2.1
p198
aV79.4
p199
aV1.2
p200
aV2
aV6.98
p201
aa(lp202
V2009/2010
p203
aVManchester Un..
p204
aVUCL
p205
aV2
aV164
p206
aV-
aV-
aV-
aV-
aV2.5
p207
aV83.1
p208
aV-
aV-
aV6.44
p209
aa(lp210
V2009/2010
p211
aVManchester Un..
p212
aVEPL
p213
aV1(4)
p214
aV137
p215
aV-
aV-
aV-
aV-
aV1.2
p216
aV89.8
p217
aV-
aV-
aV6.21
p218
aa(lp219
VTotal / Average
p220
aV
aV
aV249
p221
aV14207
p222
aV54
p223
aV20
p224
aV14
p225
aV0
aV1.8
p226
aV83.2
p227
aV1
aV15
p228
aV6.87
p229
aasS'url'
p230
S'https://www.whoscored.com/Players/39308/History/'
p231
sS'passing_data'
p232
(lp233
(lp234
a(lp235
V2018/2019
p236
aVArsenal
p237
aVEPL
p238
aV1(7)
p239
aV148
p240
aV1
aV1
aV-
aV-
aV0.5
p241
aV74.1
p242
aV0.9
p243
aV-
aV6.39
p244
aa(lp245
V2018/2019
p246
aVArsenal
p247
aVUEL
p248
aV4
aV291
p249
aV2
aV-
aV-
aV-
aV2.5
p250
aV81.3
p251
aV0.8
p252
aV-
aV7.00
p253
aa(lp254
V2018/2019
p255
aVEngland
p256
aVUNL
p257
aV0(1)
p258
aV1
aV-
aV-
aV-
aV-
aV1
aV100
p259
aV1
aV-
aV6.00
p260
aa(lp261
V2017/2018
p262
aVArsenal
p263
aVUEL
p264
aV9(1)
p265
aV762
p266
aV3
aV-
aV-
aV-
aV2.1
p267
aV84.8
p268
aV1.6
p269
aV1
aV7.42
p270
aa(lp271
V2017/2018
p272
aVArsenal
p273
aVEPL
p274
aV12(16)
p275
aV1185
p276
aV5
aV2
aV1
aV-
aV1.1
p277
aV79.8
p278
aV0.9
p279
aV2
aV6.52
p280
aa(lp281
V2016/2017
p282
aVArsenal
p283
aVEPL
p284
aV8(8)
p285
aV746
p286
aV2
aV2
aV-
aV-
aV1.2
p287
aV83.9
p288
aV1.1
p289
aV-
aV6.56
p290
aa(lp291
V2018
p292
aVEngland
p293
aVWC
p294
aV0(1)
p295
aV11
p296
aV-
aV-
aV-
aV-
aV2
aV100
p297
aV-
aV-
aV6.14
p298
aa(lp299
V2015/2016
p300
aVArsenal
p301
aVUCL
p302
aV1(1)
p303
aV91
p304
aV-
aV-
aV-
aV-
aV2.5
p305
aV82.4
p306
aV1
aV-
aV6.50
p307
aa(lp308
V2015/2016
p309
aVArsenal
p310
aVEPL
p311
aV7(4)
p312
aV578
p313
aV4
aV2
aV1
aV-
aV1.8
p314
aV76.5
p315
aV0.9
p316
aV1
aV7.06
p317
aa(lp318
V2014/2015
p319
aVArsenal
p320
aVUCL
p321
aV6
aV499
p322
aV3
aV-
aV1
aV-
aV3
aV86.2
p323
aV2.8
p324
aV1
aV7.23
p325
aa(lp326
V2014/2015
p327
aVArsenal
p328
aVEPL
p329
aV18(7)
p330
aV1667
p331
aV4
aV3
aV3
aV-
aV2.3
p332
aV81.9
p333
aV1.5
p334
aV2
aV7.18
p335
aa(lp336
V2014/2015
p337
aVManchester Un..
p338
aVEPL
p339
aV0(2)
p340
aV44
p341
aV-
aV-
aV-
aV-
aV-
aV76.5
p342
aV1
aV-
aV6.40
p343
aa(lp344
V2013/2014
p345
aVManchester Un..
p346
aVUCL
p347
aV4(1)
p348
aV369
p349
aV1
aV-
aV-
aV-
aV0.8
p350
aV77.2
p351
aV2
aV-
aV6.84
p352
aa(lp353
V2013/2014
p354
aVManchester Un..
p355
aVEPL
p356
aV15(10)
p357
aV1461
p358
aV9
aV1
aV2
aV-
aV1.8
p359
aV87.4
p360
aV0.4
p361
aV2
aV6.84
p362
aa(lp363
V2014
p364
aVEngland
p365
aVWC
p366
aV2
aV133
p367
aV-
aV-
aV-
aV-
aV0.5
p368
aV79.6
p369
aV1
aV-
aV6.51
p370
aa(lp371
V2012/2013
p372
aVManchester Un..
p373
aVUCL
p374
aV5(2)
p375
aV406
p376
aV1
aV-
aV-
aV-
aV1.6
p377
aV81.2
p378
aV1.1
p379
aV-
aV6.63
p380
aa(lp381
V2012/2013
p382
aVManchester Un..
p383
aVEPL
p384
aV13(14)
p385
aV1288
p386
aV1
aV4
aV1
aV-
aV1.4
p387
aV86.8
p388
aV0.8
p389
aV-
aV6.71
p390
aa(lp391
V2012
p392
aVEngland
p393
aVUEC
p394
aV4
aV323
p395
aV1
aV-
aV-
aV-
aV1
aV91.1
p396
aV1.5
p397
aV1
aV7.18
p398
aa(lp399
V2011/2012
p400
aVManchester Un..
p401
aVUCL
p402
aV1(1)
p403
aV116
p404
aV2
aV-
aV-
aV-
aV3.5
p405
aV85.1
p406
aV1.5
p407
aV-
aV7.57
p408
aa(lp409
V2011/2012
p410
aVManchester Un..
p411
aVEPL
p412
aV23(7)
p413
aV2018
p414
aV9
aV4
aV3
aV-
aV2.7
p415
aV86.4
p416
aV0.3
p417
aV3
aV7.17
p418
aa(lp419
V2010/2011
p420
aVSunderland
p421
aVEPL
p422
aV21(5)
p423
aV1769
p424
aV6
aV1
aV2
aV-
aV2.1
p425
aV79.4
p426
aV1.2
p427
aV2
aV6.98
p428
aa(lp429
V2009/2010
p430
aVManchester Un..
p431
aVUCL
p432
aV2
aV164
p433
aV-
aV-
aV-
aV-
aV2.5
p434
aV83.1
p435
aV-
aV-
aV6.44
p436
aa(lp437
V2009/2010
p438
aVManchester Un..
p439
aVEPL
p440
aV1(4)
p441
aV137
p442
aV-
aV-
aV-
aV-
aV1.2
p443
aV89.8
p444
aV-
aV-
aV6.21
p445
aa(lp446
VTotal / Average
p447
aV
aV
aV249
p448
aV14207
p449
aV54
p450
aV20
p451
aV14
p452
aV0
aV1.8
p453
aV83.2
p454
aV1
aV15
p455
aV6.87
p456
aasS'defensive_data'
p457
(lp458
(lp459
a(lp460
V2018/2019
p461
aVArsenal
p462
aVEPL
p463
aV1(7)
p464
aV148
p465
aV1
aV1
aV-
aV-
aV0.5
p466
aV74.1
p467
aV0.9
p468
aV-
aV6.39
p469
aa(lp470
V2018/2019
p471
aVArsenal
p472
aVUEL
p473
aV4
aV291
p474
aV2
aV-
aV-
aV-
aV2.5
p475
aV81.3
p476
aV0.8
p477
aV-
aV7.00
p478
aa(lp479
V2018/2019
p480
aVEngland
p481
aVUNL
p482
aV0(1)
p483
aV1
aV-
aV-
aV-
aV-
aV1
aV100
p484
aV1
aV-
aV6.00
p485
aa(lp486
V2017/2018
p487
aVArsenal
p488
aVUEL
p489
aV9(1)
p490
aV762
p491
aV3
aV-
aV-
aV-
aV2.1
p492
aV84.8
p493
aV1.6
p494
aV1
aV7.42
p495
aa(lp496
V2017/2018
p497
aVArsenal
p498
aVEPL
p499
aV12(16)
p500
aV1185
p501
aV5
aV2
aV1
aV-
aV1.1
p502
aV79.8
p503
aV0.9
p504
aV2
aV6.52
p505
aa(lp506
V2016/2017
p507
aVArsenal
p508
aVEPL
p509
aV8(8)
p510
aV746
p511
aV2
aV2
aV-
aV-
aV1.2
p512
aV83.9
p513
aV1.1
p514
aV-
aV6.56
p515
aa(lp516
V2018
p517
aVEngland
p518
aVWC
p519
aV0(1)
p520
aV11
p521
aV-
aV-
aV-
aV-
aV2
aV100
p522
aV-
aV-
aV6.14
p523
aa(lp524
V2015/2016
p525
aVArsenal
p526
aVUCL
p527
aV1(1)
p528
aV91
p529
aV-
aV-
aV-
aV-
aV2.5
p530
aV82.4
p531
aV1
aV-
aV6.50
p532
aa(lp533
V2015/2016
p534
aVArsenal
p535
aVEPL
p536
aV7(4)
p537
aV578
p538
aV4
aV2
aV1
aV-
aV1.8
p539
aV76.5
p540
aV0.9
p541
aV1
aV7.06
p542
aa(lp543
V2014/2015
p544
aVArsenal
p545
aVUCL
p546
aV6
aV499
p547
aV3
aV-
aV1
aV-
aV3
aV86.2
p548
aV2.8
p549
aV1
aV7.23
p550
aa(lp551
V2014/2015
p552
aVArsenal
p553
aVEPL
p554
aV18(7)
p555
aV1667
p556
aV4
aV3
aV3
aV-
aV2.3
p557
aV81.9
p558
aV1.5
p559
aV2
aV7.18
p560
aa(lp561
V2014/2015
p562
aVManchester Un..
p563
aVEPL
p564
aV0(2)
p565
aV44
p566
aV-
aV-
aV-
aV-
aV-
aV76.5
p567
aV1
aV-
aV6.40
p568
aa(lp569
V2013/2014
p570
aVManchester Un..
p571
aVUCL
p572
aV4(1)
p573
aV369
p574
aV1
aV-
aV-
aV-
aV0.8
p575
aV77.2
p576
aV2
aV-
aV6.84
p577
aa(lp578
V2013/2014
p579
aVManchester Un..
p580
aVEPL
p581
aV15(10)
p582
aV1461
p583
aV9
aV1
aV2
aV-
aV1.8
p584
aV87.4
p585
aV0.4
p586
aV2
aV6.84
p587
aa(lp588
V2014
p589
aVEngland
p590
aVWC
p591
aV2
aV133
p592
aV-
aV-
aV-
aV-
aV0.5
p593
aV79.6
p594
aV1
aV-
aV6.51
p595
aa(lp596
V2012/2013
p597
aVManchester Un..
p598
aVUCL
p599
aV5(2)
p600
aV406
p601
aV1
aV-
aV-
aV-
aV1.6
p602
aV81.2
p603
aV1.1
p604
aV-
aV6.63
p605
aa(lp606
V2012/2013
p607
aVManchester Un..
p608
aVEPL
p609
aV13(14)
p610
aV1288
p611
aV1
aV4
aV1
aV-
aV1.4
p612
aV86.8
p613
aV0.8
p614
aV-
aV6.71
p615
aa(lp616
V2012
p617
aVEngland
p618
aVUEC
p619
aV4
aV323
p620
aV1
aV-
aV-
aV-
aV1
aV91.1
p621
aV1.5
p622
aV1
aV7.18
p623
aa(lp624
V2011/2012
p625
aVManchester Un..
p626
aVUCL
p627
aV1(1)
p628
aV116
p629
aV2
aV-
aV-
aV-
aV3.5
p630
aV85.1
p631
aV1.5
p632
aV-
aV7.57
p633
aa(lp634
V2011/2012
p635
aVManchester Un..
p636
aVEPL
p637
aV23(7)
p638
aV2018
p639
aV9
aV4
aV3
aV-
aV2.7
p640
aV86.4
p641
aV0.3
p642
aV3
aV7.17
p643
aa(lp644
V2010/2011
p645
aVSunderland
p646
aVEPL
p647
aV21(5)
p648
aV1769
p649
aV6
aV1
aV2
aV-
aV2.1
p650
aV79.4
p651
aV1.2
p652
aV2
aV6.98
p653
aa(lp654
V2009/2010
p655
aVManchester Un..
p656
aVUCL
p657
aV2
aV164
p658
aV-
aV-
aV-
aV-
aV2.5
p659
aV83.1
p660
aV-
aV-
aV6.44
p661
aa(lp662
V2009/2010
p663
aVManchester Un..
p664
aVEPL
p665
aV1(4)
p666
aV137
p667
aV-
aV-
aV-
aV-
aV1.2
p668
aV89.8
p669
aV-
aV-
aV6.21
p670
aa(lp671
VTotal / Average
p672
aV
aV
aV249
p673
aV14207
p674
aV54
p675
aV20
p676
aV14
p677
aV0
aV1.8
p678
aV83.2
p679
aV1
aV15
p680
aV6.87
p681
aasS'sumary_data'
p682
(lp683
(lp684
a(lp685
V2018/2019
p686
aVArsenal
p687
aVEPL
p688
aV1(7)
p689
aV148
p690
aV1
aV1
aV-
aV-
aV0.5
p691
aV74.1
p692
aV0.9
p693
aV-
aV6.39
p694
aa(lp695
V2018/2019
p696
aVArsenal
p697
aVUEL
p698
aV4
aV291
p699
aV2
aV-
aV-
aV-
aV2.5
p700
aV81.3
p701
aV0.8
p702
aV-
aV7.00
p703
aa(lp704
V2018/2019
p705
aVEngland
p706
aVUNL
p707
aV0(1)
p708
aV1
aV-
aV-
aV-
aV-
aV1
aV100
p709
aV1
aV-
aV6.00
p710
aa(lp711
V2017/2018
p712
aVArsenal
p713
aVUEL
p714
aV9(1)
p715
aV762
p716
aV3
aV-
aV-
aV-
aV2.1
p717
aV84.8
p718
aV1.6
p719
aV1
aV7.42
p720
aa(lp721
V2017/2018
p722
aVArsenal
p723
aVEPL
p724
aV12(16)
p725
aV1185
p726
aV5
aV2
aV1
aV-
aV1.1
p727
aV79.8
p728
aV0.9
p729
aV2
aV6.52
p730
aa(lp731
V2016/2017
p732
aVArsenal
p733
aVEPL
p734
aV8(8)
p735
aV746
p736
aV2
aV2
aV-
aV-
aV1.2
p737
aV83.9
p738
aV1.1
p739
aV-
aV6.56
p740
aa(lp741
V2018
p742
aVEngland
p743
aVWC
p744
aV0(1)
p745
aV11
p746
aV-
aV-
aV-
aV-
aV2
aV100
p747
aV-
aV-
aV6.14
p748
aa(lp749
V2015/2016
p750
aVArsenal
p751
aVUCL
p752
aV1(1)
p753
aV91
p754
aV-
aV-
aV-
aV-
aV2.5
p755
aV82.4
p756
aV1
aV-
aV6.50
p757
aa(lp758
V2015/2016
p759
aVArsenal
p760
aVEPL
p761
aV7(4)
p762
aV578
p763
aV4
aV2
aV1
aV-
aV1.8
p764
aV76.5
p765
aV0.9
p766
aV1
aV7.06
p767
aa(lp768
V2014/2015
p769
aVArsenal
p770
aVUCL
p771
aV6
aV499
p772
aV3
aV-
aV1
aV-
aV3
aV86.2
p773
aV2.8
p774
aV1
aV7.23
p775
aa(lp776
V2014/2015
p777
aVArsenal
p778
aVEPL
p779
aV18(7)
p780
aV1667
p781
aV4
aV3
aV3
aV-
aV2.3
p782
aV81.9
p783
aV1.5
p784
aV2
aV7.18
p785
aa(lp786
V2014/2015
p787
aVManchester Un..
p788
aVEPL
p789
aV0(2)
p790
aV44
p791
aV-
aV-
aV-
aV-
aV-
aV76.5
p792
aV1
aV-
aV6.40
p793
aa(lp794
V2013/2014
p795
aVManchester Un..
p796
aVUCL
p797
aV4(1)
p798
aV369
p799
aV1
aV-
aV-
aV-
aV0.8
p800
aV77.2
p801
aV2
aV-
aV6.84
p802
aa(lp803
V2013/2014
p804
aVManchester Un..
p805
aVEPL
p806
aV15(10)
p807
aV1461
p808
aV9
aV1
aV2
aV-
aV1.8
p809
aV87.4
p810
aV0.4
p811
aV2
aV6.84
p812
aa(lp813
V2014
p814
aVEngland
p815
aVWC
p816
aV2
aV133
p817
aV-
aV-
aV-
aV-
aV0.5
p818
aV79.6
p819
aV1
aV-
aV6.51
p820
aa(lp821
V2012/2013
p822
aVManchester Un..
p823
aVUCL
p824
aV5(2)
p825
aV406
p826
aV1
aV-
aV-
aV-
aV1.6
p827
aV81.2
p828
aV1.1
p829
aV-
aV6.63
p830
aa(lp831
V2012/2013
p832
aVManchester Un..
p833
aVEPL
p834
aV13(14)
p835
aV1288
p836
aV1
aV4
aV1
aV-
aV1.4
p837
aV86.8
p838
aV0.8
p839
aV-
aV6.71
p840
aa(lp841
V2012
p842
aVEngland
p843
aVUEC
p844
aV4
aV323
p845
aV1
aV-
aV-
aV-
aV1
aV91.1
p846
aV1.5
p847
aV1
aV7.18
p848
aa(lp849
V2011/2012
p850
aVManchester Un..
p851
aVUCL
p852
aV1(1)
p853
aV116
p854
aV2
aV-
aV-
aV-
aV3.5
p855
aV85.1
p856
aV1.5
p857
aV-
aV7.57
p858
aa(lp859
V2011/2012
p860
aVManchester Un..
p861
aVEPL
p862
aV23(7)
p863
aV2018
p864
aV9
aV4
aV3
aV-
aV2.7
p865
aV86.4
p866
aV0.3
p867
aV3
aV7.17
p868
aa(lp869
V2010/2011
p870
aVSunderland
p871
aVEPL
p872
aV21(5)
p873
aV1769
p874
aV6
aV1
aV2
aV-
aV2.1
p875
aV79.4
p876
aV1.2
p877
aV2
aV6.98
p878
aa(lp879
V2009/2010
p880
aVManchester Un..
p881
aVUCL
p882
aV2
aV164
p883
aV-
aV-
aV-
aV-
aV2.5
p884
aV83.1
p885
aV-
aV-
aV6.44
p886
aa(lp887
V2009/2010
p888
aVManchester Un..
p889
aVEPL
p890
aV1(4)
p891
aV137
p892
aV-
aV-
aV-
aV-
aV1.2
p893
aV89.8
p894
aV-
aV-
aV6.21
p895
aa(lp896
VTotal / Average
p897
aV
aV
aV249
p898
aV14207
p899
aV54
p900
aV20
p901
aV14
p902
aV0
aV1.8
p903
aV83.2
p904
aV1
aV15
p905
aV6.87
p906
aasS'id'
p907
V39308
p908
sb.