(i__main__
Player
p1
(dp2
S'name'
p3
VJonjo Shelvey 
p4
sS'offensive_data'
p5
(lp6
(lp7
a(lp8
V2018/2019
p9
aVNewcastle Uni..
p10
aVEPL
p11
aV8(1)
p12
aV701
p13
aV-
aV1
aV-
aV-
aV1.6
p14
aV68.7
p15
aV0.9
p16
aV-
aV6.93
p17
aa(lp18
V2017/2018
p19
aVNewcastle Uni..
p20
aVEPL
p21
aV25(5)
p22
aV2269
p23
aV1
aV3
aV2
aV2
aV1.4
p24
aV72.4
p25
aV0.7
p26
aV1
aV6.70
p27
aa(lp28
V2016/2017
p29
aVNewcastle Uni..
p30
aVEC
p31
aV38(4)
p32
aV3369
p33
aV5
aV8
aV10
p34
aV1
aV2.2
p35
aV78.5
p36
aV0.7
p37
aV2
aV7.19
p38
aa(lp39
V2015/2016
p40
aVSwansea
p41
aVEPL
p42
aV14(2)
p43
aV1221
p44
aV1
aV2
aV5
aV-
aV2.1
p45
aV83.6
p46
aV0.4
p47
aV1
aV6.90
p48
aa(lp49
V2015/2016
p50
aVNewcastle Uni..
p51
aVEPL
p52
aV11(4)
p53
aV1048
p54
aV-
aV3
aV3
aV-
aV1.5
p55
aV80.1
p56
aV0.3
p57
aV-
aV6.72
p58
aa(lp59
V2014/2015
p60
aVSwansea
p61
aVEPL
p62
aV28(3)
p63
aV2456
p64
aV3
aV5
aV8
aV1
aV2
aV79.1
p65
aV0.4
p66
aV-
aV6.83
p67
aa(lp68
V2013/2014
p69
aVSwansea
p70
aVUEL
p71
aV3(3)
p72
aV309
p73
aV-
aV-
aV1
aV-
aV2
aV86.4
p74
aV0.2
p75
aV-
aV6.66
p76
aa(lp77
V2013/2014
p78
aVSwansea
p79
aVEPL
p80
aV29(3)
p81
aV2476
p82
aV6
aV6
aV4
aV-
aV2.4
p83
aV83
p84
aV0.4
p85
aV2
aV6.94
p86
aa(lp87
V2013
p88
aVEngland U21
p89
aVIEU
p90
aV2(1)
p91
aV189
p92
aV-
aV-
aV-
aV-
aV2
aV77.2
p93
aV-
aV-
aV6.70
p94
aa(lp95
V2012/2013
p96
aVLiverpool
p97
aVUEL
p98
aV4(3)
p99
aV482
p100
aV4
aV1
aV2
aV-
aV1.9
p101
aV87.5
p102
aV0.9
p103
aV-
aV7.19
p104
aa(lp105
V2012/2013
p106
aVLiverpool
p107
aVEPL
p108
aV9(10)
p109
aV918
p110
aV1
aV-
aV3
aV1
aV1.8
p111
aV81.7
p112
aV0.5
p113
aV-
aV6.45
p114
aa(lp115
V2011/2012
p116
aVLiverpool
p117
aVEPL
p118
aV8(5)
p119
aV728
p120
aV1
aV-
aV2
aV-
aV1.5
p121
aV83
p122
aV0.6
p123
aV-
aV6.53
p124
aa(lp125
V2010/2011
p126
aVLiverpool
p127
aVEPL
p128
aV0(15)
p129
aV321
p130
aV-
aV1
aV1
aV-
aV0.5
p131
aV78
p132
aV0.1
p133
aV-
aV6.25
p134
aa(lp135
VTotal / Average
p136
aV
aV
aV238
p137
aV16487
p138
aV22
p139
aV30
p140
aV41
p141
aV5
aV1.8
p142
aV79.4
p143
aV0.5
p144
aV6
aV6.82
p145
aasS'url'
p146
S'https://www.whoscored.com/Players/40027/History/'
p147
sS'passing_data'
p148
(lp149
(lp150
a(lp151
V2018/2019
p152
aVNewcastle Uni..
p153
aVEPL
p154
aV8(1)
p155
aV701
p156
aV-
aV1
aV-
aV-
aV1.6
p157
aV68.7
p158
aV0.9
p159
aV-
aV6.93
p160
aa(lp161
V2017/2018
p162
aVNewcastle Uni..
p163
aVEPL
p164
aV25(5)
p165
aV2269
p166
aV1
aV3
aV2
aV2
aV1.4
p167
aV72.4
p168
aV0.7
p169
aV1
aV6.70
p170
aa(lp171
V2016/2017
p172
aVNewcastle Uni..
p173
aVEC
p174
aV38(4)
p175
aV3369
p176
aV5
aV8
aV10
p177
aV1
aV2.2
p178
aV78.5
p179
aV0.7
p180
aV2
aV7.19
p181
aa(lp182
V2015/2016
p183
aVSwansea
p184
aVEPL
p185
aV14(2)
p186
aV1221
p187
aV1
aV2
aV5
aV-
aV2.1
p188
aV83.6
p189
aV0.4
p190
aV1
aV6.90
p191
aa(lp192
V2015/2016
p193
aVNewcastle Uni..
p194
aVEPL
p195
aV11(4)
p196
aV1048
p197
aV-
aV3
aV3
aV-
aV1.5
p198
aV80.1
p199
aV0.3
p200
aV-
aV6.72
p201
aa(lp202
V2014/2015
p203
aVSwansea
p204
aVEPL
p205
aV28(3)
p206
aV2456
p207
aV3
aV5
aV8
aV1
aV2
aV79.1
p208
aV0.4
p209
aV-
aV6.83
p210
aa(lp211
V2013/2014
p212
aVSwansea
p213
aVUEL
p214
aV3(3)
p215
aV309
p216
aV-
aV-
aV1
aV-
aV2
aV86.4
p217
aV0.2
p218
aV-
aV6.66
p219
aa(lp220
V2013/2014
p221
aVSwansea
p222
aVEPL
p223
aV29(3)
p224
aV2476
p225
aV6
aV6
aV4
aV-
aV2.4
p226
aV83
p227
aV0.4
p228
aV2
aV6.94
p229
aa(lp230
V2013
p231
aVEngland U21
p232
aVIEU
p233
aV2(1)
p234
aV189
p235
aV-
aV-
aV-
aV-
aV2
aV77.2
p236
aV-
aV-
aV6.70
p237
aa(lp238
V2012/2013
p239
aVLiverpool
p240
aVUEL
p241
aV4(3)
p242
aV482
p243
aV4
aV1
aV2
aV-
aV1.9
p244
aV87.5
p245
aV0.9
p246
aV-
aV7.19
p247
aa(lp248
V2012/2013
p249
aVLiverpool
p250
aVEPL
p251
aV9(10)
p252
aV918
p253
aV1
aV-
aV3
aV1
aV1.8
p254
aV81.7
p255
aV0.5
p256
aV-
aV6.45
p257
aa(lp258
V2011/2012
p259
aVLiverpool
p260
aVEPL
p261
aV8(5)
p262
aV728
p263
aV1
aV-
aV2
aV-
aV1.5
p264
aV83
p265
aV0.6
p266
aV-
aV6.53
p267
aa(lp268
V2010/2011
p269
aVLiverpool
p270
aVEPL
p271
aV0(15)
p272
aV321
p273
aV-
aV1
aV1
aV-
aV0.5
p274
aV78
p275
aV0.1
p276
aV-
aV6.25
p277
aa(lp278
VTotal / Average
p279
aV
aV
aV238
p280
aV16487
p281
aV22
p282
aV30
p283
aV41
p284
aV5
aV1.8
p285
aV79.4
p286
aV0.5
p287
aV6
aV6.82
p288
aasS'defensive_data'
p289
(lp290
(lp291
a(lp292
V2018/2019
p293
aVNewcastle Uni..
p294
aVEPL
p295
aV8(1)
p296
aV701
p297
aV-
aV1
aV-
aV-
aV1.6
p298
aV68.7
p299
aV0.9
p300
aV-
aV6.93
p301
aa(lp302
V2017/2018
p303
aVNewcastle Uni..
p304
aVEPL
p305
aV25(5)
p306
aV2269
p307
aV1
aV3
aV2
aV2
aV1.4
p308
aV72.4
p309
aV0.7
p310
aV1
aV6.70
p311
aa(lp312
V2016/2017
p313
aVNewcastle Uni..
p314
aVEC
p315
aV38(4)
p316
aV3369
p317
aV5
aV8
aV10
p318
aV1
aV2.2
p319
aV78.5
p320
aV0.7
p321
aV2
aV7.19
p322
aa(lp323
V2015/2016
p324
aVSwansea
p325
aVEPL
p326
aV14(2)
p327
aV1221
p328
aV1
aV2
aV5
aV-
aV2.1
p329
aV83.6
p330
aV0.4
p331
aV1
aV6.90
p332
aa(lp333
V2015/2016
p334
aVNewcastle Uni..
p335
aVEPL
p336
aV11(4)
p337
aV1048
p338
aV-
aV3
aV3
aV-
aV1.5
p339
aV80.1
p340
aV0.3
p341
aV-
aV6.72
p342
aa(lp343
V2014/2015
p344
aVSwansea
p345
aVEPL
p346
aV28(3)
p347
aV2456
p348
aV3
aV5
aV8
aV1
aV2
aV79.1
p349
aV0.4
p350
aV-
aV6.83
p351
aa(lp352
V2013/2014
p353
aVSwansea
p354
aVUEL
p355
aV3(3)
p356
aV309
p357
aV-
aV-
aV1
aV-
aV2
aV86.4
p358
aV0.2
p359
aV-
aV6.66
p360
aa(lp361
V2013/2014
p362
aVSwansea
p363
aVEPL
p364
aV29(3)
p365
aV2476
p366
aV6
aV6
aV4
aV-
aV2.4
p367
aV83
p368
aV0.4
p369
aV2
aV6.94
p370
aa(lp371
V2013
p372
aVEngland U21
p373
aVIEU
p374
aV2(1)
p375
aV189
p376
aV-
aV-
aV-
aV-
aV2
aV77.2
p377
aV-
aV-
aV6.70
p378
aa(lp379
V2012/2013
p380
aVLiverpool
p381
aVUEL
p382
aV4(3)
p383
aV482
p384
aV4
aV1
aV2
aV-
aV1.9
p385
aV87.5
p386
aV0.9
p387
aV-
aV7.19
p388
aa(lp389
V2012/2013
p390
aVLiverpool
p391
aVEPL
p392
aV9(10)
p393
aV918
p394
aV1
aV-
aV3
aV1
aV1.8
p395
aV81.7
p396
aV0.5
p397
aV-
aV6.45
p398
aa(lp399
V2011/2012
p400
aVLiverpool
p401
aVEPL
p402
aV8(5)
p403
aV728
p404
aV1
aV-
aV2
aV-
aV1.5
p405
aV83
p406
aV0.6
p407
aV-
aV6.53
p408
aa(lp409
V2010/2011
p410
aVLiverpool
p411
aVEPL
p412
aV0(15)
p413
aV321
p414
aV-
aV1
aV1
aV-
aV0.5
p415
aV78
p416
aV0.1
p417
aV-
aV6.25
p418
aa(lp419
VTotal / Average
p420
aV
aV
aV238
p421
aV16487
p422
aV22
p423
aV30
p424
aV41
p425
aV5
aV1.8
p426
aV79.4
p427
aV0.5
p428
aV6
aV6.82
p429
aasS'sumary_data'
p430
(lp431
(lp432
a(lp433
V2018/2019
p434
aVNewcastle Uni..
p435
aVEPL
p436
aV8(1)
p437
aV701
p438
aV-
aV1
aV-
aV-
aV1.6
p439
aV68.7
p440
aV0.9
p441
aV-
aV6.93
p442
aa(lp443
V2017/2018
p444
aVNewcastle Uni..
p445
aVEPL
p446
aV25(5)
p447
aV2269
p448
aV1
aV3
aV2
aV2
aV1.4
p449
aV72.4
p450
aV0.7
p451
aV1
aV6.70
p452
aa(lp453
V2016/2017
p454
aVNewcastle Uni..
p455
aVEC
p456
aV38(4)
p457
aV3369
p458
aV5
aV8
aV10
p459
aV1
aV2.2
p460
aV78.5
p461
aV0.7
p462
aV2
aV7.19
p463
aa(lp464
V2015/2016
p465
aVSwansea
p466
aVEPL
p467
aV14(2)
p468
aV1221
p469
aV1
aV2
aV5
aV-
aV2.1
p470
aV83.6
p471
aV0.4
p472
aV1
aV6.90
p473
aa(lp474
V2015/2016
p475
aVNewcastle Uni..
p476
aVEPL
p477
aV11(4)
p478
aV1048
p479
aV-
aV3
aV3
aV-
aV1.5
p480
aV80.1
p481
aV0.3
p482
aV-
aV6.72
p483
aa(lp484
V2014/2015
p485
aVSwansea
p486
aVEPL
p487
aV28(3)
p488
aV2456
p489
aV3
aV5
aV8
aV1
aV2
aV79.1
p490
aV0.4
p491
aV-
aV6.83
p492
aa(lp493
V2013/2014
p494
aVSwansea
p495
aVUEL
p496
aV3(3)
p497
aV309
p498
aV-
aV-
aV1
aV-
aV2
aV86.4
p499
aV0.2
p500
aV-
aV6.66
p501
aa(lp502
V2013/2014
p503
aVSwansea
p504
aVEPL
p505
aV29(3)
p506
aV2476
p507
aV6
aV6
aV4
aV-
aV2.4
p508
aV83
p509
aV0.4
p510
aV2
aV6.94
p511
aa(lp512
V2013
p513
aVEngland U21
p514
aVIEU
p515
aV2(1)
p516
aV189
p517
aV-
aV-
aV-
aV-
aV2
aV77.2
p518
aV-
aV-
aV6.70
p519
aa(lp520
V2012/2013
p521
aVLiverpool
p522
aVUEL
p523
aV4(3)
p524
aV482
p525
aV4
aV1
aV2
aV-
aV1.9
p526
aV87.5
p527
aV0.9
p528
aV-
aV7.19
p529
aa(lp530
V2012/2013
p531
aVLiverpool
p532
aVEPL
p533
aV9(10)
p534
aV918
p535
aV1
aV-
aV3
aV1
aV1.8
p536
aV81.7
p537
aV0.5
p538
aV-
aV6.45
p539
aa(lp540
V2011/2012
p541
aVLiverpool
p542
aVEPL
p543
aV8(5)
p544
aV728
p545
aV1
aV-
aV2
aV-
aV1.5
p546
aV83
p547
aV0.6
p548
aV-
aV6.53
p549
aa(lp550
V2010/2011
p551
aVLiverpool
p552
aVEPL
p553
aV0(15)
p554
aV321
p555
aV-
aV1
aV1
aV-
aV0.5
p556
aV78
p557
aV0.1
p558
aV-
aV6.25
p559
aa(lp560
VTotal / Average
p561
aV
aV
aV238
p562
aV16487
p563
aV22
p564
aV30
p565
aV41
p566
aV5
aV1.8
p567
aV79.4
p568
aV0.5
p569
aV6
aV6.82
p570
aasS'id'
p571
V40027
p572
sb.