(i__main__
Player
p1
(dp2
S'name'
p3
VAndriy Yarmolenko 
p4
sS'offensive_data'
p5
(lp6
(lp7
a(lp8
V2018/2019
p9
aVWest Ham
p10
aVEPL
p11
aV5(4)
p12
aV461
p13
aV2
aV-
aV2
aV-
aV1
aV82.3
p14
aV0.3
p15
aV-
aV6.28
p16
aa(lp17
V2018/2019
p18
aVUkraine
p19
aVUNL
p20
aV3
aV246
p21
aV1
aV-
aV-
aV-
aV1.7
p22
aV88.3
p23
aV0.3
p24
aV-
aV6.82
p25
aa(lp26
V2017/2018
p27
aVBorussia Dort..
p28
aVGB
p29
aV13(5)
p30
aV1042
p31
aV3
aV2
aV-
aV-
aV1.7
p32
aV78.5
p33
aV0.5
p34
aV1
aV6.80
p35
aa(lp36
V2017/2018
p37
aVBorussia Dort..
p38
aVUCL
p39
aV4(2)
p40
aV378
p41
aV1
aV1
aV-
aV-
aV1.5
p42
aV81.5
p43
aV0.3
p44
aV-
aV6.75
p45
aa(lp46
V2016/2017
p47
aVDynamo Kyiv
p48
aVUCL
p49
aV5
aV450
p50
aV1
aV2
aV-
aV-
aV2
aV82.7
p51
aV0.2
p52
aV1
aV6.88
p53
aa(lp54
V2015/2016
p55
aVDynamo Kyiv
p56
aVUCL
p57
aV7
aV558
p58
aV2
aV-
aV-
aV-
aV1.4
p59
aV78.7
p60
aV0.1
p61
aV-
aV6.97
p62
aa(lp63
V2014/2015
p64
aVDynamo Kyiv
p65
aVUEL
p66
aV11
p67
aV933
p68
aV4
aV7
aV-
aV1
aV2.7
p69
aV81.3
p70
aV0.3
p71
aV1
aV7.53
p72
aa(lp73
V2016
p74
aVUkraine
p75
aVUEC
p76
aV3
aV270
p77
aV-
aV-
aV-
aV-
aV2
aV80.7
p78
aV1
aV-
aV6.45
p79
aa(lp80
V2013/2014
p81
aVDynamo Kyiv
p82
aVUEL
p83
aV7
aV611
p84
aV4
aV-
aV3
aV-
aV2.7
p85
aV78.2
p86
aV0.4
p87
aV2
aV8.07
p88
aa(lp89
V2012/2013
p90
aVDynamo Kyiv
p91
aVUEL
p92
aV2
aV180
p93
aV-
aV-
aV-
aV-
aV4
aV79.6
p94
aV-
aV-
aV6.72
p95
aa(lp96
V2012/2013
p97
aVDynamo Kyiv
p98
aVUCL
p99
aV5(1)
p100
aV463
p101
aV1
aV2
aV1
aV-
aV1.5
p102
aV82.7
p103
aV0.3
p104
aV-
aV6.84
p105
aa(lp106
V2012
p107
aVUkraine
p108
aVUEC
p109
aV3
aV248
p110
aV-
aV1
aV-
aV-
aV1.3
p111
aV85.2
p112
aV0.3
p113
aV-
aV6.84
p114
aa(lp115
V2009/2010
p116
aVDynamo Kyiv
p117
aVUCL
p118
aV6
aV515
p119
aV-
aV-
aV-
aV-
aV1.5
p120
aV78.3
p121
aV0.5
p122
aV-
aV6.83
p123
aa(lp124
VTotal / Average
p125
aV
aV
aV86
p126
aV6355
p127
aV19
p128
aV15
p129
aV6
aV1
aV1.8
p130
aV80.6
p131
aV0.4
p132
aV5
aV6.95
p133
aasS'url'
p134
S'https://www.whoscored.com/Players/41672/History/'
p135
sS'passing_data'
p136
(lp137
(lp138
a(lp139
V2018/2019
p140
aVWest Ham
p141
aVEPL
p142
aV5(4)
p143
aV461
p144
aV2
aV-
aV2
aV-
aV1
aV82.3
p145
aV0.3
p146
aV-
aV6.28
p147
aa(lp148
V2018/2019
p149
aVUkraine
p150
aVUNL
p151
aV3
aV246
p152
aV1
aV-
aV-
aV-
aV1.7
p153
aV88.3
p154
aV0.3
p155
aV-
aV6.82
p156
aa(lp157
V2017/2018
p158
aVBorussia Dort..
p159
aVGB
p160
aV13(5)
p161
aV1042
p162
aV3
aV2
aV-
aV-
aV1.7
p163
aV78.5
p164
aV0.5
p165
aV1
aV6.80
p166
aa(lp167
V2017/2018
p168
aVBorussia Dort..
p169
aVUCL
p170
aV4(2)
p171
aV378
p172
aV1
aV1
aV-
aV-
aV1.5
p173
aV81.5
p174
aV0.3
p175
aV-
aV6.75
p176
aa(lp177
V2016/2017
p178
aVDynamo Kyiv
p179
aVUCL
p180
aV5
aV450
p181
aV1
aV2
aV-
aV-
aV2
aV82.7
p182
aV0.2
p183
aV1
aV6.88
p184
aa(lp185
V2015/2016
p186
aVDynamo Kyiv
p187
aVUCL
p188
aV7
aV558
p189
aV2
aV-
aV-
aV-
aV1.4
p190
aV78.7
p191
aV0.1
p192
aV-
aV6.97
p193
aa(lp194
V2014/2015
p195
aVDynamo Kyiv
p196
aVUEL
p197
aV11
p198
aV933
p199
aV4
aV7
aV-
aV1
aV2.7
p200
aV81.3
p201
aV0.3
p202
aV1
aV7.53
p203
aa(lp204
V2016
p205
aVUkraine
p206
aVUEC
p207
aV3
aV270
p208
aV-
aV-
aV-
aV-
aV2
aV80.7
p209
aV1
aV-
aV6.45
p210
aa(lp211
V2013/2014
p212
aVDynamo Kyiv
p213
aVUEL
p214
aV7
aV611
p215
aV4
aV-
aV3
aV-
aV2.7
p216
aV78.2
p217
aV0.4
p218
aV2
aV8.07
p219
aa(lp220
V2012/2013
p221
aVDynamo Kyiv
p222
aVUEL
p223
aV2
aV180
p224
aV-
aV-
aV-
aV-
aV4
aV79.6
p225
aV-
aV-
aV6.72
p226
aa(lp227
V2012/2013
p228
aVDynamo Kyiv
p229
aVUCL
p230
aV5(1)
p231
aV463
p232
aV1
aV2
aV1
aV-
aV1.5
p233
aV82.7
p234
aV0.3
p235
aV-
aV6.84
p236
aa(lp237
V2012
p238
aVUkraine
p239
aVUEC
p240
aV3
aV248
p241
aV-
aV1
aV-
aV-
aV1.3
p242
aV85.2
p243
aV0.3
p244
aV-
aV6.84
p245
aa(lp246
V2009/2010
p247
aVDynamo Kyiv
p248
aVUCL
p249
aV6
aV515
p250
aV-
aV-
aV-
aV-
aV1.5
p251
aV78.3
p252
aV0.5
p253
aV-
aV6.83
p254
aa(lp255
VTotal / Average
p256
aV
aV
aV86
p257
aV6355
p258
aV19
p259
aV15
p260
aV6
aV1
aV1.8
p261
aV80.6
p262
aV0.4
p263
aV5
aV6.95
p264
aasS'defensive_data'
p265
(lp266
(lp267
a(lp268
V2018/2019
p269
aVWest Ham
p270
aVEPL
p271
aV5(4)
p272
aV461
p273
aV2
aV-
aV2
aV-
aV1
aV82.3
p274
aV0.3
p275
aV-
aV6.28
p276
aa(lp277
V2018/2019
p278
aVUkraine
p279
aVUNL
p280
aV3
aV246
p281
aV1
aV-
aV-
aV-
aV1.7
p282
aV88.3
p283
aV0.3
p284
aV-
aV6.82
p285
aa(lp286
V2017/2018
p287
aVBorussia Dort..
p288
aVGB
p289
aV13(5)
p290
aV1042
p291
aV3
aV2
aV-
aV-
aV1.7
p292
aV78.5
p293
aV0.5
p294
aV1
aV6.80
p295
aa(lp296
V2017/2018
p297
aVBorussia Dort..
p298
aVUCL
p299
aV4(2)
p300
aV378
p301
aV1
aV1
aV-
aV-
aV1.5
p302
aV81.5
p303
aV0.3
p304
aV-
aV6.75
p305
aa(lp306
V2016/2017
p307
aVDynamo Kyiv
p308
aVUCL
p309
aV5
aV450
p310
aV1
aV2
aV-
aV-
aV2
aV82.7
p311
aV0.2
p312
aV1
aV6.88
p313
aa(lp314
V2015/2016
p315
aVDynamo Kyiv
p316
aVUCL
p317
aV7
aV558
p318
aV2
aV-
aV-
aV-
aV1.4
p319
aV78.7
p320
aV0.1
p321
aV-
aV6.97
p322
aa(lp323
V2014/2015
p324
aVDynamo Kyiv
p325
aVUEL
p326
aV11
p327
aV933
p328
aV4
aV7
aV-
aV1
aV2.7
p329
aV81.3
p330
aV0.3
p331
aV1
aV7.53
p332
aa(lp333
V2016
p334
aVUkraine
p335
aVUEC
p336
aV3
aV270
p337
aV-
aV-
aV-
aV-
aV2
aV80.7
p338
aV1
aV-
aV6.45
p339
aa(lp340
V2013/2014
p341
aVDynamo Kyiv
p342
aVUEL
p343
aV7
aV611
p344
aV4
aV-
aV3
aV-
aV2.7
p345
aV78.2
p346
aV0.4
p347
aV2
aV8.07
p348
aa(lp349
V2012/2013
p350
aVDynamo Kyiv
p351
aVUEL
p352
aV2
aV180
p353
aV-
aV-
aV-
aV-
aV4
aV79.6
p354
aV-
aV-
aV6.72
p355
aa(lp356
V2012/2013
p357
aVDynamo Kyiv
p358
aVUCL
p359
aV5(1)
p360
aV463
p361
aV1
aV2
aV1
aV-
aV1.5
p362
aV82.7
p363
aV0.3
p364
aV-
aV6.84
p365
aa(lp366
V2012
p367
aVUkraine
p368
aVUEC
p369
aV3
aV248
p370
aV-
aV1
aV-
aV-
aV1.3
p371
aV85.2
p372
aV0.3
p373
aV-
aV6.84
p374
aa(lp375
V2009/2010
p376
aVDynamo Kyiv
p377
aVUCL
p378
aV6
aV515
p379
aV-
aV-
aV-
aV-
aV1.5
p380
aV78.3
p381
aV0.5
p382
aV-
aV6.83
p383
aa(lp384
VTotal / Average
p385
aV
aV
aV86
p386
aV6355
p387
aV19
p388
aV15
p389
aV6
aV1
aV1.8
p390
aV80.6
p391
aV0.4
p392
aV5
aV6.95
p393
aasS'sumary_data'
p394
(lp395
(lp396
a(lp397
V2018/2019
p398
aVWest Ham
p399
aVEPL
p400
aV5(4)
p401
aV461
p402
aV2
aV-
aV2
aV-
aV1
aV82.3
p403
aV0.3
p404
aV-
aV6.28
p405
aa(lp406
V2018/2019
p407
aVUkraine
p408
aVUNL
p409
aV3
aV246
p410
aV1
aV-
aV-
aV-
aV1.7
p411
aV88.3
p412
aV0.3
p413
aV-
aV6.82
p414
aa(lp415
V2017/2018
p416
aVBorussia Dort..
p417
aVGB
p418
aV13(5)
p419
aV1042
p420
aV3
aV2
aV-
aV-
aV1.7
p421
aV78.5
p422
aV0.5
p423
aV1
aV6.80
p424
aa(lp425
V2017/2018
p426
aVBorussia Dort..
p427
aVUCL
p428
aV4(2)
p429
aV378
p430
aV1
aV1
aV-
aV-
aV1.5
p431
aV81.5
p432
aV0.3
p433
aV-
aV6.75
p434
aa(lp435
V2016/2017
p436
aVDynamo Kyiv
p437
aVUCL
p438
aV5
aV450
p439
aV1
aV2
aV-
aV-
aV2
aV82.7
p440
aV0.2
p441
aV1
aV6.88
p442
aa(lp443
V2015/2016
p444
aVDynamo Kyiv
p445
aVUCL
p446
aV7
aV558
p447
aV2
aV-
aV-
aV-
aV1.4
p448
aV78.7
p449
aV0.1
p450
aV-
aV6.97
p451
aa(lp452
V2014/2015
p453
aVDynamo Kyiv
p454
aVUEL
p455
aV11
p456
aV933
p457
aV4
aV7
aV-
aV1
aV2.7
p458
aV81.3
p459
aV0.3
p460
aV1
aV7.53
p461
aa(lp462
V2016
p463
aVUkraine
p464
aVUEC
p465
aV3
aV270
p466
aV-
aV-
aV-
aV-
aV2
aV80.7
p467
aV1
aV-
aV6.45
p468
aa(lp469
V2013/2014
p470
aVDynamo Kyiv
p471
aVUEL
p472
aV7
aV611
p473
aV4
aV-
aV3
aV-
aV2.7
p474
aV78.2
p475
aV0.4
p476
aV2
aV8.07
p477
aa(lp478
V2012/2013
p479
aVDynamo Kyiv
p480
aVUEL
p481
aV2
aV180
p482
aV-
aV-
aV-
aV-
aV4
aV79.6
p483
aV-
aV-
aV6.72
p484
aa(lp485
V2012/2013
p486
aVDynamo Kyiv
p487
aVUCL
p488
aV5(1)
p489
aV463
p490
aV1
aV2
aV1
aV-
aV1.5
p491
aV82.7
p492
aV0.3
p493
aV-
aV6.84
p494
aa(lp495
V2012
p496
aVUkraine
p497
aVUEC
p498
aV3
aV248
p499
aV-
aV1
aV-
aV-
aV1.3
p500
aV85.2
p501
aV0.3
p502
aV-
aV6.84
p503
aa(lp504
V2009/2010
p505
aVDynamo Kyiv
p506
aVUCL
p507
aV6
aV515
p508
aV-
aV-
aV-
aV-
aV1.5
p509
aV78.3
p510
aV0.5
p511
aV-
aV6.83
p512
aa(lp513
VTotal / Average
p514
aV
aV
aV86
p515
aV6355
p516
aV19
p517
aV15
p518
aV6
aV1
aV1.8
p519
aV80.6
p520
aV0.4
p521
aV5
aV6.95
p522
aasS'id'
p523
V41672
p524
sb.