(i__main__
Player
p1
(dp2
S'name'
p3
VJohann Gudmundsson 
p4
sS'offensive_data'
p5
(lp6
(lp7
a(lp8
V2018/2019
p9
aVBurnley
p10
aVEPL
p11
aV14
p12
aV1143
p13
aV2
aV4
aV2
aV-
aV1.2
p14
aV72.5
p15
aV1.4
p16
aV2
aV6.96
p17
aa(lp18
V2018/2019
p19
aVIceland
p20
aVUNL
p21
aV1
aV90
p22
aV-
aV-
aV-
aV-
aV3
aV81.6
p23
aV3
aV-
aV6.64
p24
aa(lp25
V2017/2018
p26
aVBurnley
p27
aVEPL
p28
aV32(3)
p29
aV2840
p30
aV2
aV8
aV2
aV-
aV1.5
p31
aV73.7
p32
aV1.2
p33
aV-
aV7.02
p34
aa(lp35
V2016/2017
p36
aVBurnley
p37
aVEPL
p38
aV10(10)
p39
aV997
p40
aV1
aV2
aV1
aV-
aV0.9
p41
aV69.6
p42
aV0.7
p43
aV-
aV6.59
p44
aa(lp45
V2018
p46
aVIceland
p47
aVWC
p48
aV2
aV153
p49
aV-
aV-
aV-
aV-
aV1.5
p50
aV71.7
p51
aV2.5
p52
aV-
aV6.67
p53
aa(lp54
V2015/2016
p55
aVCharlton
p56
aVEC
p57
aV39(1)
p58
aV3358
p59
aV6
aV11
p60
aV5
aV-
aV2.3
p61
aV76.6
p62
aV0.6
p63
aV1
aV6.96
p64
aa(lp65
V2014/2015
p66
aVCharlton
p67
aVEC
p68
aV38(3)
p69
aV3336
p70
aV10
p71
aV4
aV2
aV-
aV2
aV76.4
p72
aV0.8
p73
aV-
aV6.84
p74
aa(lp75
V2016
p76
aVIceland
p77
aVUEC
p78
aV5
aV446
p79
aV-
aV1
aV1
aV-
aV0.6
p80
aV64.4
p81
aV0.6
p82
aV-
aV6.51
p83
aa(lp84
V2013/2014
p85
aVAZ Alkmaar
p86
aVUEL
p87
aV6(5)
p88
aV710
p89
aV3
aV-
aV-
aV-
aV1.5
p90
aV76.6
p91
aV0.9
p92
aV-
aV7.03
p93
aa(lp94
V2013/2014
p95
aVAZ Alkmaar
p96
aVNE
p97
aV22(13)
p98
aV2086
p99
aV3
aV1
aV4
aV-
aV1.7
p100
aV75.8
p101
aV0.9
p102
aV1
aV6.74
p103
aa(lp104
VTotal / Average
p105
aV
aV
aV204
p106
aV15159
p107
aV27
p108
aV31
p109
aV17
p110
aV0
aV1.7
p111
aV74.6
p112
aV0.9
p113
aV4
aV6.86
p114
aasS'url'
p115
S'https://www.whoscored.com/Players/41868/History/'
p116
sS'passing_data'
p117
(lp118
(lp119
a(lp120
V2018/2019
p121
aVBurnley
p122
aVEPL
p123
aV14
p124
aV1143
p125
aV2
aV4
aV2
aV-
aV1.2
p126
aV72.5
p127
aV1.4
p128
aV2
aV6.96
p129
aa(lp130
V2018/2019
p131
aVIceland
p132
aVUNL
p133
aV1
aV90
p134
aV-
aV-
aV-
aV-
aV3
aV81.6
p135
aV3
aV-
aV6.64
p136
aa(lp137
V2017/2018
p138
aVBurnley
p139
aVEPL
p140
aV32(3)
p141
aV2840
p142
aV2
aV8
aV2
aV-
aV1.5
p143
aV73.7
p144
aV1.2
p145
aV-
aV7.02
p146
aa(lp147
V2016/2017
p148
aVBurnley
p149
aVEPL
p150
aV10(10)
p151
aV997
p152
aV1
aV2
aV1
aV-
aV0.9
p153
aV69.6
p154
aV0.7
p155
aV-
aV6.59
p156
aa(lp157
V2018
p158
aVIceland
p159
aVWC
p160
aV2
aV153
p161
aV-
aV-
aV-
aV-
aV1.5
p162
aV71.7
p163
aV2.5
p164
aV-
aV6.67
p165
aa(lp166
V2015/2016
p167
aVCharlton
p168
aVEC
p169
aV39(1)
p170
aV3358
p171
aV6
aV11
p172
aV5
aV-
aV2.3
p173
aV76.6
p174
aV0.6
p175
aV1
aV6.96
p176
aa(lp177
V2014/2015
p178
aVCharlton
p179
aVEC
p180
aV38(3)
p181
aV3336
p182
aV10
p183
aV4
aV2
aV-
aV2
aV76.4
p184
aV0.8
p185
aV-
aV6.84
p186
aa(lp187
V2016
p188
aVIceland
p189
aVUEC
p190
aV5
aV446
p191
aV-
aV1
aV1
aV-
aV0.6
p192
aV64.4
p193
aV0.6
p194
aV-
aV6.51
p195
aa(lp196
V2013/2014
p197
aVAZ Alkmaar
p198
aVUEL
p199
aV6(5)
p200
aV710
p201
aV3
aV-
aV-
aV-
aV1.5
p202
aV76.6
p203
aV0.9
p204
aV-
aV7.03
p205
aa(lp206
V2013/2014
p207
aVAZ Alkmaar
p208
aVNE
p209
aV22(13)
p210
aV2086
p211
aV3
aV1
aV4
aV-
aV1.7
p212
aV75.8
p213
aV0.9
p214
aV1
aV6.74
p215
aa(lp216
VTotal / Average
p217
aV
aV
aV204
p218
aV15159
p219
aV27
p220
aV31
p221
aV17
p222
aV0
aV1.7
p223
aV74.6
p224
aV0.9
p225
aV4
aV6.86
p226
aasS'defensive_data'
p227
(lp228
(lp229
a(lp230
V2018/2019
p231
aVBurnley
p232
aVEPL
p233
aV14
p234
aV1143
p235
aV2
aV4
aV2
aV-
aV1.2
p236
aV72.5
p237
aV1.4
p238
aV2
aV6.96
p239
aa(lp240
V2018/2019
p241
aVIceland
p242
aVUNL
p243
aV1
aV90
p244
aV-
aV-
aV-
aV-
aV3
aV81.6
p245
aV3
aV-
aV6.64
p246
aa(lp247
V2017/2018
p248
aVBurnley
p249
aVEPL
p250
aV32(3)
p251
aV2840
p252
aV2
aV8
aV2
aV-
aV1.5
p253
aV73.7
p254
aV1.2
p255
aV-
aV7.02
p256
aa(lp257
V2016/2017
p258
aVBurnley
p259
aVEPL
p260
aV10(10)
p261
aV997
p262
aV1
aV2
aV1
aV-
aV0.9
p263
aV69.6
p264
aV0.7
p265
aV-
aV6.59
p266
aa(lp267
V2018
p268
aVIceland
p269
aVWC
p270
aV2
aV153
p271
aV-
aV-
aV-
aV-
aV1.5
p272
aV71.7
p273
aV2.5
p274
aV-
aV6.67
p275
aa(lp276
V2015/2016
p277
aVCharlton
p278
aVEC
p279
aV39(1)
p280
aV3358
p281
aV6
aV11
p282
aV5
aV-
aV2.3
p283
aV76.6
p284
aV0.6
p285
aV1
aV6.96
p286
aa(lp287
V2014/2015
p288
aVCharlton
p289
aVEC
p290
aV38(3)
p291
aV3336
p292
aV10
p293
aV4
aV2
aV-
aV2
aV76.4
p294
aV0.8
p295
aV-
aV6.84
p296
aa(lp297
V2016
p298
aVIceland
p299
aVUEC
p300
aV5
aV446
p301
aV-
aV1
aV1
aV-
aV0.6
p302
aV64.4
p303
aV0.6
p304
aV-
aV6.51
p305
aa(lp306
V2013/2014
p307
aVAZ Alkmaar
p308
aVUEL
p309
aV6(5)
p310
aV710
p311
aV3
aV-
aV-
aV-
aV1.5
p312
aV76.6
p313
aV0.9
p314
aV-
aV7.03
p315
aa(lp316
V2013/2014
p317
aVAZ Alkmaar
p318
aVNE
p319
aV22(13)
p320
aV2086
p321
aV3
aV1
aV4
aV-
aV1.7
p322
aV75.8
p323
aV0.9
p324
aV1
aV6.74
p325
aa(lp326
VTotal / Average
p327
aV
aV
aV204
p328
aV15159
p329
aV27
p330
aV31
p331
aV17
p332
aV0
aV1.7
p333
aV74.6
p334
aV0.9
p335
aV4
aV6.86
p336
aasS'sumary_data'
p337
(lp338
(lp339
a(lp340
V2018/2019
p341
aVBurnley
p342
aVEPL
p343
aV14
p344
aV1143
p345
aV2
aV4
aV2
aV-
aV1.2
p346
aV72.5
p347
aV1.4
p348
aV2
aV6.96
p349
aa(lp350
V2018/2019
p351
aVIceland
p352
aVUNL
p353
aV1
aV90
p354
aV-
aV-
aV-
aV-
aV3
aV81.6
p355
aV3
aV-
aV6.64
p356
aa(lp357
V2017/2018
p358
aVBurnley
p359
aVEPL
p360
aV32(3)
p361
aV2840
p362
aV2
aV8
aV2
aV-
aV1.5
p363
aV73.7
p364
aV1.2
p365
aV-
aV7.02
p366
aa(lp367
V2016/2017
p368
aVBurnley
p369
aVEPL
p370
aV10(10)
p371
aV997
p372
aV1
aV2
aV1
aV-
aV0.9
p373
aV69.6
p374
aV0.7
p375
aV-
aV6.59
p376
aa(lp377
V2018
p378
aVIceland
p379
aVWC
p380
aV2
aV153
p381
aV-
aV-
aV-
aV-
aV1.5
p382
aV71.7
p383
aV2.5
p384
aV-
aV6.67
p385
aa(lp386
V2015/2016
p387
aVCharlton
p388
aVEC
p389
aV39(1)
p390
aV3358
p391
aV6
aV11
p392
aV5
aV-
aV2.3
p393
aV76.6
p394
aV0.6
p395
aV1
aV6.96
p396
aa(lp397
V2014/2015
p398
aVCharlton
p399
aVEC
p400
aV38(3)
p401
aV3336
p402
aV10
p403
aV4
aV2
aV-
aV2
aV76.4
p404
aV0.8
p405
aV-
aV6.84
p406
aa(lp407
V2016
p408
aVIceland
p409
aVUEC
p410
aV5
aV446
p411
aV-
aV1
aV1
aV-
aV0.6
p412
aV64.4
p413
aV0.6
p414
aV-
aV6.51
p415
aa(lp416
V2013/2014
p417
aVAZ Alkmaar
p418
aVUEL
p419
aV6(5)
p420
aV710
p421
aV3
aV-
aV-
aV-
aV1.5
p422
aV76.6
p423
aV0.9
p424
aV-
aV7.03
p425
aa(lp426
V2013/2014
p427
aVAZ Alkmaar
p428
aVNE
p429
aV22(13)
p430
aV2086
p431
aV3
aV1
aV4
aV-
aV1.7
p432
aV75.8
p433
aV0.9
p434
aV1
aV6.74
p435
aa(lp436
VTotal / Average
p437
aV
aV
aV204
p438
aV15159
p439
aV27
p440
aV31
p441
aV17
p442
aV0
aV1.7
p443
aV74.6
p444
aV0.9
p445
aV4
aV6.86
p446
aasS'id'
p447
V41868
p448
sb.