(i__main__
Player
p1
(dp2
S'name'
p3
VMarc Albrighton 
p4
sS'offensive_data'
p5
(lp6
(lp7
a(lp8
V2018/2019
p9
aVLeicester
p10
aVEPL
p11
aV9(7)
p12
aV887
p13
aV1
aV2
aV3
aV-
aV0.9
p14
aV64.3
p15
aV0.8
p16
aV-
aV6.62
p17
aa(lp18
V2017/2018
p19
aVLeicester
p20
aVEPL
p21
aV30(4)
p22
aV2544
p23
aV2
aV7
aV5
aV1
aV0.6
p24
aV67.2
p25
aV0.3
p26
aV2
aV6.80
p27
aa(lp28
V2016/2017
p29
aVLeicester
p30
aVUCL
p31
aV8(1)
p32
aV751
p33
aV2
aV-
aV1
aV-
aV0.7
p34
aV67.6
p35
aV0.3
p36
aV1
aV6.95
p37
aa(lp38
V2016/2017
p39
aVLeicester
p40
aVEPL
p41
aV29(4)
p42
aV2425
p43
aV2
aV6
aV5
aV-
aV0.6
p44
aV63.7
p45
aV0.2
p46
aV1
aV6.85
p47
aa(lp48
V2015/2016
p49
aVLeicester
p50
aVEPL
p51
aV34(4)
p52
aV2769
p53
aV2
aV6
aV4
aV-
aV1.1
p54
aV63.8
p55
aV0.3
p56
aV-
aV7.05
p57
aa(lp58
V2014/2015
p59
aVLeicester
p60
aVEPL
p61
aV10(8)
p62
aV1028
p63
aV2
aV3
aV3
aV-
aV0.8
p64
aV58.1
p65
aV0.6
p66
aV2
aV7.13
p67
aa(lp68
V2013/2014
p69
aVWigan
p70
aVEC
p71
aV2(2)
p72
aV197
p73
aV-
aV-
aV1
aV-
aV1
aV63.3
p74
aV0.3
p75
aV-
aV6.48
p76
aa(lp77
V2013/2014
p78
aVAston Villa
p79
aVEPL
p80
aV9(10)
p81
aV968
p82
aV-
aV4
aV4
aV-
aV1.3
p83
aV72.3
p84
aV0.2
p85
aV-
aV6.81
p86
aa(lp87
V2012/2013
p88
aVAston Villa
p89
aVEPL
p90
aV4(5)
p91
aV429
p92
aV-
aV-
aV-
aV-
aV0.6
p93
aV59
p94
aV0.1
p95
aV-
aV6.38
p96
aa(lp97
V2011/2012
p98
aVAston Villa
p99
aVEPL
p100
aV15(11)
p101
aV1490
p102
aV2
aV2
aV3
aV-
aV0.8
p103
aV71.5
p104
aV0.2
p105
aV-
aV6.70
p106
aa(lp107
V2010/2011
p108
aVAston Villa
p109
aVEPL
p110
aV20(9)
p111
aV1805
p112
aV5
aV4
aV3
aV-
aV1.4
p113
aV72.3
p114
aV0.1
p115
aV2
aV7.03
p116
aa(lp117
V2009/2010
p118
aVAston Villa
p119
aVEPL
p120
aV0(3)
p121
aV57
p122
aV-
aV-
aV-
aV-
aV-
aV71.4
p123
aV-
aV-
aV6.42
p124
aa(lp125
VTotal / Average
p126
aV
aV
aV238
p127
aV15350
p128
aV18
p129
aV34
p130
aV32
p131
aV1
aV0.9
p132
aV66.5
p133
aV0.3
p134
aV8
aV6.86
p135
aasS'url'
p136
S'https://www.whoscored.com/Players/42147/History/'
p137
sS'passing_data'
p138
(lp139
(lp140
a(lp141
V2018/2019
p142
aVLeicester
p143
aVEPL
p144
aV9(7)
p145
aV887
p146
aV1
aV2
aV3
aV-
aV0.9
p147
aV64.3
p148
aV0.8
p149
aV-
aV6.62
p150
aa(lp151
V2017/2018
p152
aVLeicester
p153
aVEPL
p154
aV30(4)
p155
aV2544
p156
aV2
aV7
aV5
aV1
aV0.6
p157
aV67.2
p158
aV0.3
p159
aV2
aV6.80
p160
aa(lp161
V2016/2017
p162
aVLeicester
p163
aVUCL
p164
aV8(1)
p165
aV751
p166
aV2
aV-
aV1
aV-
aV0.7
p167
aV67.6
p168
aV0.3
p169
aV1
aV6.95
p170
aa(lp171
V2016/2017
p172
aVLeicester
p173
aVEPL
p174
aV29(4)
p175
aV2425
p176
aV2
aV6
aV5
aV-
aV0.6
p177
aV63.7
p178
aV0.2
p179
aV1
aV6.85
p180
aa(lp181
V2015/2016
p182
aVLeicester
p183
aVEPL
p184
aV34(4)
p185
aV2769
p186
aV2
aV6
aV4
aV-
aV1.1
p187
aV63.8
p188
aV0.3
p189
aV-
aV7.05
p190
aa(lp191
V2014/2015
p192
aVLeicester
p193
aVEPL
p194
aV10(8)
p195
aV1028
p196
aV2
aV3
aV3
aV-
aV0.8
p197
aV58.1
p198
aV0.6
p199
aV2
aV7.13
p200
aa(lp201
V2013/2014
p202
aVWigan
p203
aVEC
p204
aV2(2)
p205
aV197
p206
aV-
aV-
aV1
aV-
aV1
aV63.3
p207
aV0.3
p208
aV-
aV6.48
p209
aa(lp210
V2013/2014
p211
aVAston Villa
p212
aVEPL
p213
aV9(10)
p214
aV968
p215
aV-
aV4
aV4
aV-
aV1.3
p216
aV72.3
p217
aV0.2
p218
aV-
aV6.81
p219
aa(lp220
V2012/2013
p221
aVAston Villa
p222
aVEPL
p223
aV4(5)
p224
aV429
p225
aV-
aV-
aV-
aV-
aV0.6
p226
aV59
p227
aV0.1
p228
aV-
aV6.38
p229
aa(lp230
V2011/2012
p231
aVAston Villa
p232
aVEPL
p233
aV15(11)
p234
aV1490
p235
aV2
aV2
aV3
aV-
aV0.8
p236
aV71.5
p237
aV0.2
p238
aV-
aV6.70
p239
aa(lp240
V2010/2011
p241
aVAston Villa
p242
aVEPL
p243
aV20(9)
p244
aV1805
p245
aV5
aV4
aV3
aV-
aV1.4
p246
aV72.3
p247
aV0.1
p248
aV2
aV7.03
p249
aa(lp250
V2009/2010
p251
aVAston Villa
p252
aVEPL
p253
aV0(3)
p254
aV57
p255
aV-
aV-
aV-
aV-
aV-
aV71.4
p256
aV-
aV-
aV6.42
p257
aa(lp258
VTotal / Average
p259
aV
aV
aV238
p260
aV15350
p261
aV18
p262
aV34
p263
aV32
p264
aV1
aV0.9
p265
aV66.5
p266
aV0.3
p267
aV8
aV6.86
p268
aasS'defensive_data'
p269
(lp270
(lp271
a(lp272
V2018/2019
p273
aVLeicester
p274
aVEPL
p275
aV9(7)
p276
aV887
p277
aV1
aV2
aV3
aV-
aV0.9
p278
aV64.3
p279
aV0.8
p280
aV-
aV6.62
p281
aa(lp282
V2017/2018
p283
aVLeicester
p284
aVEPL
p285
aV30(4)
p286
aV2544
p287
aV2
aV7
aV5
aV1
aV0.6
p288
aV67.2
p289
aV0.3
p290
aV2
aV6.80
p291
aa(lp292
V2016/2017
p293
aVLeicester
p294
aVUCL
p295
aV8(1)
p296
aV751
p297
aV2
aV-
aV1
aV-
aV0.7
p298
aV67.6
p299
aV0.3
p300
aV1
aV6.95
p301
aa(lp302
V2016/2017
p303
aVLeicester
p304
aVEPL
p305
aV29(4)
p306
aV2425
p307
aV2
aV6
aV5
aV-
aV0.6
p308
aV63.7
p309
aV0.2
p310
aV1
aV6.85
p311
aa(lp312
V2015/2016
p313
aVLeicester
p314
aVEPL
p315
aV34(4)
p316
aV2769
p317
aV2
aV6
aV4
aV-
aV1.1
p318
aV63.8
p319
aV0.3
p320
aV-
aV7.05
p321
aa(lp322
V2014/2015
p323
aVLeicester
p324
aVEPL
p325
aV10(8)
p326
aV1028
p327
aV2
aV3
aV3
aV-
aV0.8
p328
aV58.1
p329
aV0.6
p330
aV2
aV7.13
p331
aa(lp332
V2013/2014
p333
aVWigan
p334
aVEC
p335
aV2(2)
p336
aV197
p337
aV-
aV-
aV1
aV-
aV1
aV63.3
p338
aV0.3
p339
aV-
aV6.48
p340
aa(lp341
V2013/2014
p342
aVAston Villa
p343
aVEPL
p344
aV9(10)
p345
aV968
p346
aV-
aV4
aV4
aV-
aV1.3
p347
aV72.3
p348
aV0.2
p349
aV-
aV6.81
p350
aa(lp351
V2012/2013
p352
aVAston Villa
p353
aVEPL
p354
aV4(5)
p355
aV429
p356
aV-
aV-
aV-
aV-
aV0.6
p357
aV59
p358
aV0.1
p359
aV-
aV6.38
p360
aa(lp361
V2011/2012
p362
aVAston Villa
p363
aVEPL
p364
aV15(11)
p365
aV1490
p366
aV2
aV2
aV3
aV-
aV0.8
p367
aV71.5
p368
aV0.2
p369
aV-
aV6.70
p370
aa(lp371
V2010/2011
p372
aVAston Villa
p373
aVEPL
p374
aV20(9)
p375
aV1805
p376
aV5
aV4
aV3
aV-
aV1.4
p377
aV72.3
p378
aV0.1
p379
aV2
aV7.03
p380
aa(lp381
V2009/2010
p382
aVAston Villa
p383
aVEPL
p384
aV0(3)
p385
aV57
p386
aV-
aV-
aV-
aV-
aV-
aV71.4
p387
aV-
aV-
aV6.42
p388
aa(lp389
VTotal / Average
p390
aV
aV
aV238
p391
aV15350
p392
aV18
p393
aV34
p394
aV32
p395
aV1
aV0.9
p396
aV66.5
p397
aV0.3
p398
aV8
aV6.86
p399
aasS'sumary_data'
p400
(lp401
(lp402
a(lp403
V2018/2019
p404
aVLeicester
p405
aVEPL
p406
aV9(7)
p407
aV887
p408
aV1
aV2
aV3
aV-
aV0.9
p409
aV64.3
p410
aV0.8
p411
aV-
aV6.62
p412
aa(lp413
V2017/2018
p414
aVLeicester
p415
aVEPL
p416
aV30(4)
p417
aV2544
p418
aV2
aV7
aV5
aV1
aV0.6
p419
aV67.2
p420
aV0.3
p421
aV2
aV6.80
p422
aa(lp423
V2016/2017
p424
aVLeicester
p425
aVUCL
p426
aV8(1)
p427
aV751
p428
aV2
aV-
aV1
aV-
aV0.7
p429
aV67.6
p430
aV0.3
p431
aV1
aV6.95
p432
aa(lp433
V2016/2017
p434
aVLeicester
p435
aVEPL
p436
aV29(4)
p437
aV2425
p438
aV2
aV6
aV5
aV-
aV0.6
p439
aV63.7
p440
aV0.2
p441
aV1
aV6.85
p442
aa(lp443
V2015/2016
p444
aVLeicester
p445
aVEPL
p446
aV34(4)
p447
aV2769
p448
aV2
aV6
aV4
aV-
aV1.1
p449
aV63.8
p450
aV0.3
p451
aV-
aV7.05
p452
aa(lp453
V2014/2015
p454
aVLeicester
p455
aVEPL
p456
aV10(8)
p457
aV1028
p458
aV2
aV3
aV3
aV-
aV0.8
p459
aV58.1
p460
aV0.6
p461
aV2
aV7.13
p462
aa(lp463
V2013/2014
p464
aVWigan
p465
aVEC
p466
aV2(2)
p467
aV197
p468
aV-
aV-
aV1
aV-
aV1
aV63.3
p469
aV0.3
p470
aV-
aV6.48
p471
aa(lp472
V2013/2014
p473
aVAston Villa
p474
aVEPL
p475
aV9(10)
p476
aV968
p477
aV-
aV4
aV4
aV-
aV1.3
p478
aV72.3
p479
aV0.2
p480
aV-
aV6.81
p481
aa(lp482
V2012/2013
p483
aVAston Villa
p484
aVEPL
p485
aV4(5)
p486
aV429
p487
aV-
aV-
aV-
aV-
aV0.6
p488
aV59
p489
aV0.1
p490
aV-
aV6.38
p491
aa(lp492
V2011/2012
p493
aVAston Villa
p494
aVEPL
p495
aV15(11)
p496
aV1490
p497
aV2
aV2
aV3
aV-
aV0.8
p498
aV71.5
p499
aV0.2
p500
aV-
aV6.70
p501
aa(lp502
V2010/2011
p503
aVAston Villa
p504
aVEPL
p505
aV20(9)
p506
aV1805
p507
aV5
aV4
aV3
aV-
aV1.4
p508
aV72.3
p509
aV0.1
p510
aV2
aV7.03
p511
aa(lp512
V2009/2010
p513
aVAston Villa
p514
aVEPL
p515
aV0(3)
p516
aV57
p517
aV-
aV-
aV-
aV-
aV-
aV71.4
p518
aV-
aV-
aV6.42
p519
aa(lp520
VTotal / Average
p521
aV
aV
aV238
p522
aV15350
p523
aV18
p524
aV34
p525
aV32
p526
aV1
aV0.9
p527
aV66.5
p528
aV0.3
p529
aV8
aV6.86
p530
aasS'id'
p531
V42147
p532
sb.