(i__main__
Player
p1
(dp2
S'name'
p3
VBruno Ecuele Manga 
p4
sS'offensive_data'
p5
(lp6
(lp7
a(lp8
V2018/2019
p9
aVCardiff
p10
aVEPL
p11
aV17
p12
aV1530
p13
aV-
aV1
aV-
aV-
aV0.1
p14
aV60.2
p15
aV2.2
p16
aV-
aV6.60
p17
aa(lp18
V2017/2018
p19
aVCardiff
p20
aVEC
p21
aV35(3)
p22
aV3183
p23
aV-
aV2
aV4
aV-
aV0.4
p24
aV61.1
p25
aV3.3
p26
aV2
aV7.25
p27
aa(lp28
V2016/2017
p29
aVCardiff
p30
aVEC
p31
aV16(5)
p32
aV1524
p33
aV-
aV-
aV-
aV-
aV0.4
p34
aV73
p35
aV3.9
p36
aV3
aV7.22
p37
aa(lp38
V2015/2016
p39
aVCardiff
p40
aVEC
p41
aV19(5)
p42
aV1875
p43
aV2
aV-
aV-
aV-
aV0.5
p44
aV75.3
p45
aV4.4
p46
aV3
aV7.23
p47
aa(lp48
V2015
p49
aVGabon
p50
aVACoN
p51
aV3
aV270
p52
aV-
aV-
aV-
aV-
aV-
aV89.1
p53
aV2.7
p54
aV-
aV7.08
p55
aa(lp56
V2014/2015
p57
aVCardiff
p58
aVEC
p59
aV29
p60
aV2610
p61
aV3
aV-
aV-
aV-
aV0.6
p62
aV75.7
p63
aV3.5
p64
aV6
aV7.48
p65
aa(lp66
V2014/2015
p67
aVLorient
p68
aVFL1
p69
aV3
aV270
p70
aV-
aV-
aV-
aV-
aV1
aV74.6
p71
aV8
aV-
aV7.62
p72
aa(lp73
V2013/2014
p74
aVLorient
p75
aVFL1
p76
aV35
p77
aV3085
p78
aV1
aV-
aV4
aV1
aV0.5
p79
aV77.9
p80
aV4.3
p81
aV3
aV7.23
p82
aa(lp83
V2012/2013
p84
aVLorient
p85
aVFL1
p86
aV17
p87
aV1486
p88
aV-
aV-
aV3
aV-
aV0.5
p89
aV84.5
p90
aV3.6
p91
aV3
aV7.38
p92
aa(lp93
V2011/2012
p94
aVLorient
p95
aVFL1
p96
aV31(1)
p97
aV2799
p98
aV2
aV-
aV8
aV-
aV0.8
p99
aV82.5
p100
aV3.1
p101
aV4
aV7.28
p102
aa(lp103
V2010/2011
p104
aVLorient
p105
aVFL1
p106
aV31
p107
aV2790
p108
aV1
aV-
aV5
aV-
aV0.5
p109
aV87.2
p110
aV2.9
p111
aV-
aV7.23
p112
aa(lp113
VTotal / Average
p114
aV
aV
aV250
p115
aV21422
p116
aV9
aV3
aV24
p117
aV1
aV0.5
p118
aV75.5
p119
aV3.5
p120
aV24
p121
aV7.24
p122
aasS'url'
p123
S'https://www.whoscored.com/Players/42573/History/'
p124
sS'passing_data'
p125
(lp126
(lp127
a(lp128
V2018/2019
p129
aVCardiff
p130
aVEPL
p131
aV17
p132
aV1530
p133
aV-
aV1
aV-
aV-
aV0.1
p134
aV60.2
p135
aV2.2
p136
aV-
aV6.60
p137
aa(lp138
V2017/2018
p139
aVCardiff
p140
aVEC
p141
aV35(3)
p142
aV3183
p143
aV-
aV2
aV4
aV-
aV0.4
p144
aV61.1
p145
aV3.3
p146
aV2
aV7.25
p147
aa(lp148
V2016/2017
p149
aVCardiff
p150
aVEC
p151
aV16(5)
p152
aV1524
p153
aV-
aV-
aV-
aV-
aV0.4
p154
aV73
p155
aV3.9
p156
aV3
aV7.22
p157
aa(lp158
V2015/2016
p159
aVCardiff
p160
aVEC
p161
aV19(5)
p162
aV1875
p163
aV2
aV-
aV-
aV-
aV0.5
p164
aV75.3
p165
aV4.4
p166
aV3
aV7.23
p167
aa(lp168
V2015
p169
aVGabon
p170
aVACoN
p171
aV3
aV270
p172
aV-
aV-
aV-
aV-
aV-
aV89.1
p173
aV2.7
p174
aV-
aV7.08
p175
aa(lp176
V2014/2015
p177
aVCardiff
p178
aVEC
p179
aV29
p180
aV2610
p181
aV3
aV-
aV-
aV-
aV0.6
p182
aV75.7
p183
aV3.5
p184
aV6
aV7.48
p185
aa(lp186
V2014/2015
p187
aVLorient
p188
aVFL1
p189
aV3
aV270
p190
aV-
aV-
aV-
aV-
aV1
aV74.6
p191
aV8
aV-
aV7.62
p192
aa(lp193
V2013/2014
p194
aVLorient
p195
aVFL1
p196
aV35
p197
aV3085
p198
aV1
aV-
aV4
aV1
aV0.5
p199
aV77.9
p200
aV4.3
p201
aV3
aV7.23
p202
aa(lp203
V2012/2013
p204
aVLorient
p205
aVFL1
p206
aV17
p207
aV1486
p208
aV-
aV-
aV3
aV-
aV0.5
p209
aV84.5
p210
aV3.6
p211
aV3
aV7.38
p212
aa(lp213
V2011/2012
p214
aVLorient
p215
aVFL1
p216
aV31(1)
p217
aV2799
p218
aV2
aV-
aV8
aV-
aV0.8
p219
aV82.5
p220
aV3.1
p221
aV4
aV7.28
p222
aa(lp223
V2010/2011
p224
aVLorient
p225
aVFL1
p226
aV31
p227
aV2790
p228
aV1
aV-
aV5
aV-
aV0.5
p229
aV87.2
p230
aV2.9
p231
aV-
aV7.23
p232
aa(lp233
VTotal / Average
p234
aV
aV
aV250
p235
aV21422
p236
aV9
aV3
aV24
p237
aV1
aV0.5
p238
aV75.5
p239
aV3.5
p240
aV24
p241
aV7.24
p242
aasS'defensive_data'
p243
(lp244
(lp245
a(lp246
V2018/2019
p247
aVCardiff
p248
aVEPL
p249
aV17
p250
aV1530
p251
aV-
aV1
aV-
aV-
aV0.1
p252
aV60.2
p253
aV2.2
p254
aV-
aV6.60
p255
aa(lp256
V2017/2018
p257
aVCardiff
p258
aVEC
p259
aV35(3)
p260
aV3183
p261
aV-
aV2
aV4
aV-
aV0.4
p262
aV61.1
p263
aV3.3
p264
aV2
aV7.25
p265
aa(lp266
V2016/2017
p267
aVCardiff
p268
aVEC
p269
aV16(5)
p270
aV1524
p271
aV-
aV-
aV-
aV-
aV0.4
p272
aV73
p273
aV3.9
p274
aV3
aV7.22
p275
aa(lp276
V2015/2016
p277
aVCardiff
p278
aVEC
p279
aV19(5)
p280
aV1875
p281
aV2
aV-
aV-
aV-
aV0.5
p282
aV75.3
p283
aV4.4
p284
aV3
aV7.23
p285
aa(lp286
V2015
p287
aVGabon
p288
aVACoN
p289
aV3
aV270
p290
aV-
aV-
aV-
aV-
aV-
aV89.1
p291
aV2.7
p292
aV-
aV7.08
p293
aa(lp294
V2014/2015
p295
aVCardiff
p296
aVEC
p297
aV29
p298
aV2610
p299
aV3
aV-
aV-
aV-
aV0.6
p300
aV75.7
p301
aV3.5
p302
aV6
aV7.48
p303
aa(lp304
V2014/2015
p305
aVLorient
p306
aVFL1
p307
aV3
aV270
p308
aV-
aV-
aV-
aV-
aV1
aV74.6
p309
aV8
aV-
aV7.62
p310
aa(lp311
V2013/2014
p312
aVLorient
p313
aVFL1
p314
aV35
p315
aV3085
p316
aV1
aV-
aV4
aV1
aV0.5
p317
aV77.9
p318
aV4.3
p319
aV3
aV7.23
p320
aa(lp321
V2012/2013
p322
aVLorient
p323
aVFL1
p324
aV17
p325
aV1486
p326
aV-
aV-
aV3
aV-
aV0.5
p327
aV84.5
p328
aV3.6
p329
aV3
aV7.38
p330
aa(lp331
V2011/2012
p332
aVLorient
p333
aVFL1
p334
aV31(1)
p335
aV2799
p336
aV2
aV-
aV8
aV-
aV0.8
p337
aV82.5
p338
aV3.1
p339
aV4
aV7.28
p340
aa(lp341
V2010/2011
p342
aVLorient
p343
aVFL1
p344
aV31
p345
aV2790
p346
aV1
aV-
aV5
aV-
aV0.5
p347
aV87.2
p348
aV2.9
p349
aV-
aV7.23
p350
aa(lp351
VTotal / Average
p352
aV
aV
aV250
p353
aV21422
p354
aV9
aV3
aV24
p355
aV1
aV0.5
p356
aV75.5
p357
aV3.5
p358
aV24
p359
aV7.24
p360
aasS'sumary_data'
p361
(lp362
(lp363
a(lp364
V2018/2019
p365
aVCardiff
p366
aVEPL
p367
aV17
p368
aV1530
p369
aV-
aV1
aV-
aV-
aV0.1
p370
aV60.2
p371
aV2.2
p372
aV-
aV6.60
p373
aa(lp374
V2017/2018
p375
aVCardiff
p376
aVEC
p377
aV35(3)
p378
aV3183
p379
aV-
aV2
aV4
aV-
aV0.4
p380
aV61.1
p381
aV3.3
p382
aV2
aV7.25
p383
aa(lp384
V2016/2017
p385
aVCardiff
p386
aVEC
p387
aV16(5)
p388
aV1524
p389
aV-
aV-
aV-
aV-
aV0.4
p390
aV73
p391
aV3.9
p392
aV3
aV7.22
p393
aa(lp394
V2015/2016
p395
aVCardiff
p396
aVEC
p397
aV19(5)
p398
aV1875
p399
aV2
aV-
aV-
aV-
aV0.5
p400
aV75.3
p401
aV4.4
p402
aV3
aV7.23
p403
aa(lp404
V2015
p405
aVGabon
p406
aVACoN
p407
aV3
aV270
p408
aV-
aV-
aV-
aV-
aV-
aV89.1
p409
aV2.7
p410
aV-
aV7.08
p411
aa(lp412
V2014/2015
p413
aVCardiff
p414
aVEC
p415
aV29
p416
aV2610
p417
aV3
aV-
aV-
aV-
aV0.6
p418
aV75.7
p419
aV3.5
p420
aV6
aV7.48
p421
aa(lp422
V2014/2015
p423
aVLorient
p424
aVFL1
p425
aV3
aV270
p426
aV-
aV-
aV-
aV-
aV1
aV74.6
p427
aV8
aV-
aV7.62
p428
aa(lp429
V2013/2014
p430
aVLorient
p431
aVFL1
p432
aV35
p433
aV3085
p434
aV1
aV-
aV4
aV1
aV0.5
p435
aV77.9
p436
aV4.3
p437
aV3
aV7.23
p438
aa(lp439
V2012/2013
p440
aVLorient
p441
aVFL1
p442
aV17
p443
aV1486
p444
aV-
aV-
aV3
aV-
aV0.5
p445
aV84.5
p446
aV3.6
p447
aV3
aV7.38
p448
aa(lp449
V2011/2012
p450
aVLorient
p451
aVFL1
p452
aV31(1)
p453
aV2799
p454
aV2
aV-
aV8
aV-
aV0.8
p455
aV82.5
p456
aV3.1
p457
aV4
aV7.28
p458
aa(lp459
V2010/2011
p460
aVLorient
p461
aVFL1
p462
aV31
p463
aV2790
p464
aV1
aV-
aV5
aV-
aV0.5
p465
aV87.2
p466
aV2.9
p467
aV-
aV7.23
p468
aa(lp469
VTotal / Average
p470
aV
aV
aV250
p471
aV21422
p472
aV9
aV3
aV24
p473
aV1
aV0.5
p474
aV75.5
p475
aV3.5
p476
aV24
p477
aV7.24
p478
aasS'id'
p479
V42573
p480
sb.