(i__main__
Player
p1
(dp2
S'name'
p3
VJack Wilshere 
p4
sS'offensive_data'
p5
(lp6
(lp7
a(lp8
V2018/2019
p9
aVWest Ham
p10
aVEPL
p11
aV4(1)
p12
aV339
p13
aV-
aV1
aV2
aV-
aV0.2
p14
aV88.9
p15
aV0.4
p16
aV-
aV6.82
p17
aa(lp18
V2017/2018
p19
aVArsenal
p20
aVUEL
p21
aV12(1)
p22
aV1029
p23
aV1
aV2
aV1
aV-
aV1.2
p24
aV86.4
p25
aV0.5
p26
aV1
aV7.23
p27
aa(lp28
V2017/2018
p29
aVArsenal
p30
aVEPL
p31
aV12(8)
p32
aV1188
p33
aV1
aV3
aV6
aV-
aV0.8
p34
aV86.4
p35
aV0.4
p36
aV1
aV6.82
p37
aa(lp38
V2016/2017
p39
aVBournemouth
p40
aVEPL
p41
aV22(5)
p42
aV1916
p43
aV-
aV2
aV3
aV-
aV1
aV83.4
p44
aV0.3
p45
aV-
aV6.82
p46
aa(lp47
V2016/2017
p48
aVArsenal
p49
aVEPL
p50
aV0(2)
p51
aV37
p52
aV-
aV-
aV1
aV-
aV-
aV87
p53
aV-
aV-
aV6.40
p54
aa(lp55
V2015/2016
p56
aVArsenal
p57
aVEPL
p58
aV1(2)
p59
aV141
p60
aV-
aV-
aV-
aV-
aV0.3
p61
aV84.3
p62
aV0.7
p63
aV-
aV6.64
p64
aa(lp65
V2014/2015
p66
aVArsenal
p67
aVUCL
p68
aV2(1)
p69
aV187
p70
aV-
aV-
aV1
aV-
aV-
aV77.9
p71
aV0.3
p72
aV-
aV6.80
p73
aa(lp74
V2014/2015
p75
aVArsenal
p76
aVEPL
p77
aV9(5)
p78
aV732
p79
aV2
aV1
aV4
aV-
aV1.3
p80
aV84.2
p81
aV0.2
p82
aV1
aV6.84
p83
aa(lp84
V2016
p85
aVEngland
p86
aVUEC
p87
aV1(2)
p88
aV113
p89
aV-
aV-
aV-
aV-
aV0.3
p90
aV81.2
p91
aV-
aV-
aV6.51
p92
aa(lp93
V2013/2014
p94
aVArsenal
p95
aVUCL
p96
aV4(1)
p97
aV341
p98
aV2
aV-
aV-
aV-
aV0.8
p99
aV77.7
p100
aV0.2
p101
aV1
aV7.13
p102
aa(lp103
V2013/2014
p104
aVArsenal
p105
aVEPL
p106
aV19(5)
p107
aV1720
p108
aV3
aV4
aV6
aV-
aV0.9
p109
aV86.1
p110
aV0.2
p111
aV2
aV7.01
p112
aa(lp113
V2014
p114
aVEngland
p115
aVWC
p116
aV1(1)
p117
aV90
p118
aV-
aV-
aV-
aV-
aV-
aV87
p119
aV-
aV-
aV6.47
p120
aa(lp121
V2012/2013
p122
aVArsenal
p123
aVUCL
p124
aV3
aV270
p125
aV1
aV1
aV-
aV-
aV1
aV82.7
p126
aV0.3
p127
aV1
aV7.74
p128
aa(lp129
V2012/2013
p130
aVArsenal
p131
aVEPL
p132
aV20(5)
p133
aV1696
p134
aV-
aV3
aV3
aV1
aV0.5
p135
aV86.2
p136
aV0.4
p137
aV-
aV7.05
p138
aa(lp139
V2010/2011
p140
aVArsenal
p141
aVUCL
p142
aV7
aV615
p143
aV1
aV3
aV1
aV-
aV0.7
p144
aV87
p145
aV0.1
p146
aV-
aV7.43
p147
aa(lp148
V2010/2011
p149
aVArsenal
p150
aVEPL
p151
aV31(4)
p152
aV2652
p153
aV1
aV3
aV7
aV1
aV0.8
p154
aV86.1
p155
aV0.3
p156
aV-
aV7.05
p157
aa(lp158
V2009/2010
p159
aVArsenal
p160
aVUCL
p161
aV1(1)
p162
aV80
p163
aV-
aV-
aV-
aV-
aV-
aV69
p164
aV-
aV-
aV6.21
p165
aa(lp166
V2009/2010
p167
aVArsenal
p168
aVEPL
p169
aV0(1)
p170
aV1
aV-
aV-
aV-
aV-
aV-
aV100
p171
aV-
aV-
aV6.00
p172
aa(lp173
V2009/2010
p174
aVBolton
p175
aVEPL
p176
aV13(1)
p177
aV1093
p178
aV1
aV1
aV4
aV-
aV1.2
p179
aV74.2
p180
aV0.4
p181
aV-
aV6.95
p182
aa(lp183
VTotal / Average
p184
aV
aV
aV208
p185
aV14240
p186
aV13
p187
aV24
p188
aV39
p189
aV2
aV0.8
p190
aV84.4
p191
aV0.3
p192
aV7
aV6.96
p193
aasS'url'
p194
S'https://www.whoscored.com/Players/42686/History/'
p195
sS'passing_data'
p196
(lp197
(lp198
a(lp199
V2018/2019
p200
aVWest Ham
p201
aVEPL
p202
aV4(1)
p203
aV339
p204
aV-
aV1
aV2
aV-
aV0.2
p205
aV88.9
p206
aV0.4
p207
aV-
aV6.82
p208
aa(lp209
V2017/2018
p210
aVArsenal
p211
aVUEL
p212
aV12(1)
p213
aV1029
p214
aV1
aV2
aV1
aV-
aV1.2
p215
aV86.4
p216
aV0.5
p217
aV1
aV7.23
p218
aa(lp219
V2017/2018
p220
aVArsenal
p221
aVEPL
p222
aV12(8)
p223
aV1188
p224
aV1
aV3
aV6
aV-
aV0.8
p225
aV86.4
p226
aV0.4
p227
aV1
aV6.82
p228
aa(lp229
V2016/2017
p230
aVBournemouth
p231
aVEPL
p232
aV22(5)
p233
aV1916
p234
aV-
aV2
aV3
aV-
aV1
aV83.4
p235
aV0.3
p236
aV-
aV6.82
p237
aa(lp238
V2016/2017
p239
aVArsenal
p240
aVEPL
p241
aV0(2)
p242
aV37
p243
aV-
aV-
aV1
aV-
aV-
aV87
p244
aV-
aV-
aV6.40
p245
aa(lp246
V2015/2016
p247
aVArsenal
p248
aVEPL
p249
aV1(2)
p250
aV141
p251
aV-
aV-
aV-
aV-
aV0.3
p252
aV84.3
p253
aV0.7
p254
aV-
aV6.64
p255
aa(lp256
V2014/2015
p257
aVArsenal
p258
aVUCL
p259
aV2(1)
p260
aV187
p261
aV-
aV-
aV1
aV-
aV-
aV77.9
p262
aV0.3
p263
aV-
aV6.80
p264
aa(lp265
V2014/2015
p266
aVArsenal
p267
aVEPL
p268
aV9(5)
p269
aV732
p270
aV2
aV1
aV4
aV-
aV1.3
p271
aV84.2
p272
aV0.2
p273
aV1
aV6.84
p274
aa(lp275
V2016
p276
aVEngland
p277
aVUEC
p278
aV1(2)
p279
aV113
p280
aV-
aV-
aV-
aV-
aV0.3
p281
aV81.2
p282
aV-
aV-
aV6.51
p283
aa(lp284
V2013/2014
p285
aVArsenal
p286
aVUCL
p287
aV4(1)
p288
aV341
p289
aV2
aV-
aV-
aV-
aV0.8
p290
aV77.7
p291
aV0.2
p292
aV1
aV7.13
p293
aa(lp294
V2013/2014
p295
aVArsenal
p296
aVEPL
p297
aV19(5)
p298
aV1720
p299
aV3
aV4
aV6
aV-
aV0.9
p300
aV86.1
p301
aV0.2
p302
aV2
aV7.01
p303
aa(lp304
V2014
p305
aVEngland
p306
aVWC
p307
aV1(1)
p308
aV90
p309
aV-
aV-
aV-
aV-
aV-
aV87
p310
aV-
aV-
aV6.47
p311
aa(lp312
V2012/2013
p313
aVArsenal
p314
aVUCL
p315
aV3
aV270
p316
aV1
aV1
aV-
aV-
aV1
aV82.7
p317
aV0.3
p318
aV1
aV7.74
p319
aa(lp320
V2012/2013
p321
aVArsenal
p322
aVEPL
p323
aV20(5)
p324
aV1696
p325
aV-
aV3
aV3
aV1
aV0.5
p326
aV86.2
p327
aV0.4
p328
aV-
aV7.05
p329
aa(lp330
V2010/2011
p331
aVArsenal
p332
aVUCL
p333
aV7
aV615
p334
aV1
aV3
aV1
aV-
aV0.7
p335
aV87
p336
aV0.1
p337
aV-
aV7.43
p338
aa(lp339
V2010/2011
p340
aVArsenal
p341
aVEPL
p342
aV31(4)
p343
aV2652
p344
aV1
aV3
aV7
aV1
aV0.8
p345
aV86.1
p346
aV0.3
p347
aV-
aV7.05
p348
aa(lp349
V2009/2010
p350
aVArsenal
p351
aVUCL
p352
aV1(1)
p353
aV80
p354
aV-
aV-
aV-
aV-
aV-
aV69
p355
aV-
aV-
aV6.21
p356
aa(lp357
V2009/2010
p358
aVArsenal
p359
aVEPL
p360
aV0(1)
p361
aV1
aV-
aV-
aV-
aV-
aV-
aV100
p362
aV-
aV-
aV6.00
p363
aa(lp364
V2009/2010
p365
aVBolton
p366
aVEPL
p367
aV13(1)
p368
aV1093
p369
aV1
aV1
aV4
aV-
aV1.2
p370
aV74.2
p371
aV0.4
p372
aV-
aV6.95
p373
aa(lp374
VTotal / Average
p375
aV
aV
aV208
p376
aV14240
p377
aV13
p378
aV24
p379
aV39
p380
aV2
aV0.8
p381
aV84.4
p382
aV0.3
p383
aV7
aV6.96
p384
aasS'defensive_data'
p385
(lp386
(lp387
a(lp388
V2018/2019
p389
aVWest Ham
p390
aVEPL
p391
aV4(1)
p392
aV339
p393
aV-
aV1
aV2
aV-
aV0.2
p394
aV88.9
p395
aV0.4
p396
aV-
aV6.82
p397
aa(lp398
V2017/2018
p399
aVArsenal
p400
aVUEL
p401
aV12(1)
p402
aV1029
p403
aV1
aV2
aV1
aV-
aV1.2
p404
aV86.4
p405
aV0.5
p406
aV1
aV7.23
p407
aa(lp408
V2017/2018
p409
aVArsenal
p410
aVEPL
p411
aV12(8)
p412
aV1188
p413
aV1
aV3
aV6
aV-
aV0.8
p414
aV86.4
p415
aV0.4
p416
aV1
aV6.82
p417
aa(lp418
V2016/2017
p419
aVBournemouth
p420
aVEPL
p421
aV22(5)
p422
aV1916
p423
aV-
aV2
aV3
aV-
aV1
aV83.4
p424
aV0.3
p425
aV-
aV6.82
p426
aa(lp427
V2016/2017
p428
aVArsenal
p429
aVEPL
p430
aV0(2)
p431
aV37
p432
aV-
aV-
aV1
aV-
aV-
aV87
p433
aV-
aV-
aV6.40
p434
aa(lp435
V2015/2016
p436
aVArsenal
p437
aVEPL
p438
aV1(2)
p439
aV141
p440
aV-
aV-
aV-
aV-
aV0.3
p441
aV84.3
p442
aV0.7
p443
aV-
aV6.64
p444
aa(lp445
V2014/2015
p446
aVArsenal
p447
aVUCL
p448
aV2(1)
p449
aV187
p450
aV-
aV-
aV1
aV-
aV-
aV77.9
p451
aV0.3
p452
aV-
aV6.80
p453
aa(lp454
V2014/2015
p455
aVArsenal
p456
aVEPL
p457
aV9(5)
p458
aV732
p459
aV2
aV1
aV4
aV-
aV1.3
p460
aV84.2
p461
aV0.2
p462
aV1
aV6.84
p463
aa(lp464
V2016
p465
aVEngland
p466
aVUEC
p467
aV1(2)
p468
aV113
p469
aV-
aV-
aV-
aV-
aV0.3
p470
aV81.2
p471
aV-
aV-
aV6.51
p472
aa(lp473
V2013/2014
p474
aVArsenal
p475
aVUCL
p476
aV4(1)
p477
aV341
p478
aV2
aV-
aV-
aV-
aV0.8
p479
aV77.7
p480
aV0.2
p481
aV1
aV7.13
p482
aa(lp483
V2013/2014
p484
aVArsenal
p485
aVEPL
p486
aV19(5)
p487
aV1720
p488
aV3
aV4
aV6
aV-
aV0.9
p489
aV86.1
p490
aV0.2
p491
aV2
aV7.01
p492
aa(lp493
V2014
p494
aVEngland
p495
aVWC
p496
aV1(1)
p497
aV90
p498
aV-
aV-
aV-
aV-
aV-
aV87
p499
aV-
aV-
aV6.47
p500
aa(lp501
V2012/2013
p502
aVArsenal
p503
aVUCL
p504
aV3
aV270
p505
aV1
aV1
aV-
aV-
aV1
aV82.7
p506
aV0.3
p507
aV1
aV7.74
p508
aa(lp509
V2012/2013
p510
aVArsenal
p511
aVEPL
p512
aV20(5)
p513
aV1696
p514
aV-
aV3
aV3
aV1
aV0.5
p515
aV86.2
p516
aV0.4
p517
aV-
aV7.05
p518
aa(lp519
V2010/2011
p520
aVArsenal
p521
aVUCL
p522
aV7
aV615
p523
aV1
aV3
aV1
aV-
aV0.7
p524
aV87
p525
aV0.1
p526
aV-
aV7.43
p527
aa(lp528
V2010/2011
p529
aVArsenal
p530
aVEPL
p531
aV31(4)
p532
aV2652
p533
aV1
aV3
aV7
aV1
aV0.8
p534
aV86.1
p535
aV0.3
p536
aV-
aV7.05
p537
aa(lp538
V2009/2010
p539
aVArsenal
p540
aVUCL
p541
aV1(1)
p542
aV80
p543
aV-
aV-
aV-
aV-
aV-
aV69
p544
aV-
aV-
aV6.21
p545
aa(lp546
V2009/2010
p547
aVArsenal
p548
aVEPL
p549
aV0(1)
p550
aV1
aV-
aV-
aV-
aV-
aV-
aV100
p551
aV-
aV-
aV6.00
p552
aa(lp553
V2009/2010
p554
aVBolton
p555
aVEPL
p556
aV13(1)
p557
aV1093
p558
aV1
aV1
aV4
aV-
aV1.2
p559
aV74.2
p560
aV0.4
p561
aV-
aV6.95
p562
aa(lp563
VTotal / Average
p564
aV
aV
aV208
p565
aV14240
p566
aV13
p567
aV24
p568
aV39
p569
aV2
aV0.8
p570
aV84.4
p571
aV0.3
p572
aV7
aV6.96
p573
aasS'sumary_data'
p574
(lp575
(lp576
a(lp577
V2018/2019
p578
aVWest Ham
p579
aVEPL
p580
aV4(1)
p581
aV339
p582
aV-
aV1
aV2
aV-
aV0.2
p583
aV88.9
p584
aV0.4
p585
aV-
aV6.82
p586
aa(lp587
V2017/2018
p588
aVArsenal
p589
aVUEL
p590
aV12(1)
p591
aV1029
p592
aV1
aV2
aV1
aV-
aV1.2
p593
aV86.4
p594
aV0.5
p595
aV1
aV7.23
p596
aa(lp597
V2017/2018
p598
aVArsenal
p599
aVEPL
p600
aV12(8)
p601
aV1188
p602
aV1
aV3
aV6
aV-
aV0.8
p603
aV86.4
p604
aV0.4
p605
aV1
aV6.82
p606
aa(lp607
V2016/2017
p608
aVBournemouth
p609
aVEPL
p610
aV22(5)
p611
aV1916
p612
aV-
aV2
aV3
aV-
aV1
aV83.4
p613
aV0.3
p614
aV-
aV6.82
p615
aa(lp616
V2016/2017
p617
aVArsenal
p618
aVEPL
p619
aV0(2)
p620
aV37
p621
aV-
aV-
aV1
aV-
aV-
aV87
p622
aV-
aV-
aV6.40
p623
aa(lp624
V2015/2016
p625
aVArsenal
p626
aVEPL
p627
aV1(2)
p628
aV141
p629
aV-
aV-
aV-
aV-
aV0.3
p630
aV84.3
p631
aV0.7
p632
aV-
aV6.64
p633
aa(lp634
V2014/2015
p635
aVArsenal
p636
aVUCL
p637
aV2(1)
p638
aV187
p639
aV-
aV-
aV1
aV-
aV-
aV77.9
p640
aV0.3
p641
aV-
aV6.80
p642
aa(lp643
V2014/2015
p644
aVArsenal
p645
aVEPL
p646
aV9(5)
p647
aV732
p648
aV2
aV1
aV4
aV-
aV1.3
p649
aV84.2
p650
aV0.2
p651
aV1
aV6.84
p652
aa(lp653
V2016
p654
aVEngland
p655
aVUEC
p656
aV1(2)
p657
aV113
p658
aV-
aV-
aV-
aV-
aV0.3
p659
aV81.2
p660
aV-
aV-
aV6.51
p661
aa(lp662
V2013/2014
p663
aVArsenal
p664
aVUCL
p665
aV4(1)
p666
aV341
p667
aV2
aV-
aV-
aV-
aV0.8
p668
aV77.7
p669
aV0.2
p670
aV1
aV7.13
p671
aa(lp672
V2013/2014
p673
aVArsenal
p674
aVEPL
p675
aV19(5)
p676
aV1720
p677
aV3
aV4
aV6
aV-
aV0.9
p678
aV86.1
p679
aV0.2
p680
aV2
aV7.01
p681
aa(lp682
V2014
p683
aVEngland
p684
aVWC
p685
aV1(1)
p686
aV90
p687
aV-
aV-
aV-
aV-
aV-
aV87
p688
aV-
aV-
aV6.47
p689
aa(lp690
V2012/2013
p691
aVArsenal
p692
aVUCL
p693
aV3
aV270
p694
aV1
aV1
aV-
aV-
aV1
aV82.7
p695
aV0.3
p696
aV1
aV7.74
p697
aa(lp698
V2012/2013
p699
aVArsenal
p700
aVEPL
p701
aV20(5)
p702
aV1696
p703
aV-
aV3
aV3
aV1
aV0.5
p704
aV86.2
p705
aV0.4
p706
aV-
aV7.05
p707
aa(lp708
V2010/2011
p709
aVArsenal
p710
aVUCL
p711
aV7
aV615
p712
aV1
aV3
aV1
aV-
aV0.7
p713
aV87
p714
aV0.1
p715
aV-
aV7.43
p716
aa(lp717
V2010/2011
p718
aVArsenal
p719
aVEPL
p720
aV31(4)
p721
aV2652
p722
aV1
aV3
aV7
aV1
aV0.8
p723
aV86.1
p724
aV0.3
p725
aV-
aV7.05
p726
aa(lp727
V2009/2010
p728
aVArsenal
p729
aVUCL
p730
aV1(1)
p731
aV80
p732
aV-
aV-
aV-
aV-
aV-
aV69
p733
aV-
aV-
aV6.21
p734
aa(lp735
V2009/2010
p736
aVArsenal
p737
aVEPL
p738
aV0(1)
p739
aV1
aV-
aV-
aV-
aV-
aV-
aV100
p740
aV-
aV-
aV6.00
p741
aa(lp742
V2009/2010
p743
aVBolton
p744
aVEPL
p745
aV13(1)
p746
aV1093
p747
aV1
aV1
aV4
aV-
aV1.2
p748
aV74.2
p749
aV0.4
p750
aV-
aV6.95
p751
aa(lp752
VTotal / Average
p753
aV
aV
aV208
p754
aV14240
p755
aV13
p756
aV24
p757
aV39
p758
aV2
aV0.8
p759
aV84.4
p760
aV0.3
p761
aV7
aV6.96
p762
aasS'id'
p763
V42686
p764
sb.