(i__main__
Player
p1
(dp2
S'name'
p3
VKi Sung-yueng 
p4
sS'offensive_data'
p5
(lp6
(lp7
a(lp8
V2018/2019
p9
aVNewcastle Uni..
p10
aVEPL
p11
aV8(2)
p12
aV755
p13
aV-
aV1
aV1
aV-
aV0.2
p14
aV85
p15
aV0.9
p16
aV-
aV6.68
p17
aa(lp18
V2017/2018
p19
aVSwansea
p20
aVEPL
p21
aV21(4)
p22
aV1870
p23
aV2
aV2
aV2
aV-
aV0.8
p24
aV88
p25
aV0.2
p26
aV1
aV6.61
p27
aa(lp28
V2016/2017
p29
aVSwansea
p30
aVEPL
p31
aV13(10)
p32
aV1287
p33
aV-
aV1
aV3
aV-
aV0.4
p34
aV89.5
p35
aV0.3
p36
aV-
aV6.36
p37
aa(lp38
V2018
p39
aVSouth Korea
p40
aVWC
p41
aV2
aV180
p42
aV-
aV-
aV-
aV-
aV1.5
p43
aV93.7
p44
aV3
aV-
aV7.31
p45
aa(lp46
V2015/2016
p47
aVSwansea
p48
aVEPL
p49
aV21(7)
p50
aV1853
p51
aV2
aV1
aV4
aV-
aV0.9
p52
aV90.9
p53
aV0.6
p54
aV-
aV6.57
p55
aa(lp56
V2014/2015
p57
aVSwansea
p58
aVEPL
p59
aV30(3)
p60
aV2690
p61
aV8
aV1
aV4
aV-
aV0.8
p62
aV89.8
p63
aV1.7
p64
aV1
aV7.10
p65
aa(lp66
V2013/2014
p67
aVSunderland
p68
aVEPL
p69
aV25(2)
p70
aV2185
p71
aV3
aV1
aV3
aV-
aV1.5
p72
aV90.7
p73
aV0.6
p74
aV-
aV6.80
p75
aa(lp76
V2013/2014
p77
aVSwansea
p78
aVEPL
p79
aV0(1)
p80
aV13
p81
aV-
aV-
aV-
aV-
aV-
aV100
p82
aV-
aV-
aV6.10
p83
aa(lp84
V2014
p85
aVSouth Korea
p86
aVWC
p87
aV3
aV270
p88
aV-
aV1
aV1
aV-
aV2.3
p89
aV93.5
p90
aV1.3
p91
aV1
aV7.25
p92
aa(lp93
V2012/2013
p94
aVSwansea
p95
aVEPL
p96
aV20(9)
p97
aV2037
p98
aV-
aV2
aV3
aV-
aV1.3
p99
aV92.7
p100
aV0.5
p101
aV-
aV6.78
p102
aa(lp103
VTotal / Average
p104
aV
aV
aV181
p105
aV13140
p106
aV15
p107
aV10
p108
aV21
p109
aV0
aV0.9
p110
aV90.2
p111
aV0.8
p112
aV3
aV6.74
p113
aasS'url'
p114
S'https://www.whoscored.com/Players/42916/History/'
p115
sS'passing_data'
p116
(lp117
(lp118
a(lp119
V2018/2019
p120
aVNewcastle Uni..
p121
aVEPL
p122
aV8(2)
p123
aV755
p124
aV-
aV1
aV1
aV-
aV0.2
p125
aV85
p126
aV0.9
p127
aV-
aV6.68
p128
aa(lp129
V2017/2018
p130
aVSwansea
p131
aVEPL
p132
aV21(4)
p133
aV1870
p134
aV2
aV2
aV2
aV-
aV0.8
p135
aV88
p136
aV0.2
p137
aV1
aV6.61
p138
aa(lp139
V2016/2017
p140
aVSwansea
p141
aVEPL
p142
aV13(10)
p143
aV1287
p144
aV-
aV1
aV3
aV-
aV0.4
p145
aV89.5
p146
aV0.3
p147
aV-
aV6.36
p148
aa(lp149
V2018
p150
aVSouth Korea
p151
aVWC
p152
aV2
aV180
p153
aV-
aV-
aV-
aV-
aV1.5
p154
aV93.7
p155
aV3
aV-
aV7.31
p156
aa(lp157
V2015/2016
p158
aVSwansea
p159
aVEPL
p160
aV21(7)
p161
aV1853
p162
aV2
aV1
aV4
aV-
aV0.9
p163
aV90.9
p164
aV0.6
p165
aV-
aV6.57
p166
aa(lp167
V2014/2015
p168
aVSwansea
p169
aVEPL
p170
aV30(3)
p171
aV2690
p172
aV8
aV1
aV4
aV-
aV0.8
p173
aV89.8
p174
aV1.7
p175
aV1
aV7.10
p176
aa(lp177
V2013/2014
p178
aVSunderland
p179
aVEPL
p180
aV25(2)
p181
aV2185
p182
aV3
aV1
aV3
aV-
aV1.5
p183
aV90.7
p184
aV0.6
p185
aV-
aV6.80
p186
aa(lp187
V2013/2014
p188
aVSwansea
p189
aVEPL
p190
aV0(1)
p191
aV13
p192
aV-
aV-
aV-
aV-
aV-
aV100
p193
aV-
aV-
aV6.10
p194
aa(lp195
V2014
p196
aVSouth Korea
p197
aVWC
p198
aV3
aV270
p199
aV-
aV1
aV1
aV-
aV2.3
p200
aV93.5
p201
aV1.3
p202
aV1
aV7.25
p203
aa(lp204
V2012/2013
p205
aVSwansea
p206
aVEPL
p207
aV20(9)
p208
aV2037
p209
aV-
aV2
aV3
aV-
aV1.3
p210
aV92.7
p211
aV0.5
p212
aV-
aV6.78
p213
aa(lp214
VTotal / Average
p215
aV
aV
aV181
p216
aV13140
p217
aV15
p218
aV10
p219
aV21
p220
aV0
aV0.9
p221
aV90.2
p222
aV0.8
p223
aV3
aV6.74
p224
aasS'defensive_data'
p225
(lp226
(lp227
a(lp228
V2018/2019
p229
aVNewcastle Uni..
p230
aVEPL
p231
aV8(2)
p232
aV755
p233
aV-
aV1
aV1
aV-
aV0.2
p234
aV85
p235
aV0.9
p236
aV-
aV6.68
p237
aa(lp238
V2017/2018
p239
aVSwansea
p240
aVEPL
p241
aV21(4)
p242
aV1870
p243
aV2
aV2
aV2
aV-
aV0.8
p244
aV88
p245
aV0.2
p246
aV1
aV6.61
p247
aa(lp248
V2016/2017
p249
aVSwansea
p250
aVEPL
p251
aV13(10)
p252
aV1287
p253
aV-
aV1
aV3
aV-
aV0.4
p254
aV89.5
p255
aV0.3
p256
aV-
aV6.36
p257
aa(lp258
V2018
p259
aVSouth Korea
p260
aVWC
p261
aV2
aV180
p262
aV-
aV-
aV-
aV-
aV1.5
p263
aV93.7
p264
aV3
aV-
aV7.31
p265
aa(lp266
V2015/2016
p267
aVSwansea
p268
aVEPL
p269
aV21(7)
p270
aV1853
p271
aV2
aV1
aV4
aV-
aV0.9
p272
aV90.9
p273
aV0.6
p274
aV-
aV6.57
p275
aa(lp276
V2014/2015
p277
aVSwansea
p278
aVEPL
p279
aV30(3)
p280
aV2690
p281
aV8
aV1
aV4
aV-
aV0.8
p282
aV89.8
p283
aV1.7
p284
aV1
aV7.10
p285
aa(lp286
V2013/2014
p287
aVSunderland
p288
aVEPL
p289
aV25(2)
p290
aV2185
p291
aV3
aV1
aV3
aV-
aV1.5
p292
aV90.7
p293
aV0.6
p294
aV-
aV6.80
p295
aa(lp296
V2013/2014
p297
aVSwansea
p298
aVEPL
p299
aV0(1)
p300
aV13
p301
aV-
aV-
aV-
aV-
aV-
aV100
p302
aV-
aV-
aV6.10
p303
aa(lp304
V2014
p305
aVSouth Korea
p306
aVWC
p307
aV3
aV270
p308
aV-
aV1
aV1
aV-
aV2.3
p309
aV93.5
p310
aV1.3
p311
aV1
aV7.25
p312
aa(lp313
V2012/2013
p314
aVSwansea
p315
aVEPL
p316
aV20(9)
p317
aV2037
p318
aV-
aV2
aV3
aV-
aV1.3
p319
aV92.7
p320
aV0.5
p321
aV-
aV6.78
p322
aa(lp323
VTotal / Average
p324
aV
aV
aV181
p325
aV13140
p326
aV15
p327
aV10
p328
aV21
p329
aV0
aV0.9
p330
aV90.2
p331
aV0.8
p332
aV3
aV6.74
p333
aasS'sumary_data'
p334
(lp335
(lp336
a(lp337
V2018/2019
p338
aVNewcastle Uni..
p339
aVEPL
p340
aV8(2)
p341
aV755
p342
aV-
aV1
aV1
aV-
aV0.2
p343
aV85
p344
aV0.9
p345
aV-
aV6.68
p346
aa(lp347
V2017/2018
p348
aVSwansea
p349
aVEPL
p350
aV21(4)
p351
aV1870
p352
aV2
aV2
aV2
aV-
aV0.8
p353
aV88
p354
aV0.2
p355
aV1
aV6.61
p356
aa(lp357
V2016/2017
p358
aVSwansea
p359
aVEPL
p360
aV13(10)
p361
aV1287
p362
aV-
aV1
aV3
aV-
aV0.4
p363
aV89.5
p364
aV0.3
p365
aV-
aV6.36
p366
aa(lp367
V2018
p368
aVSouth Korea
p369
aVWC
p370
aV2
aV180
p371
aV-
aV-
aV-
aV-
aV1.5
p372
aV93.7
p373
aV3
aV-
aV7.31
p374
aa(lp375
V2015/2016
p376
aVSwansea
p377
aVEPL
p378
aV21(7)
p379
aV1853
p380
aV2
aV1
aV4
aV-
aV0.9
p381
aV90.9
p382
aV0.6
p383
aV-
aV6.57
p384
aa(lp385
V2014/2015
p386
aVSwansea
p387
aVEPL
p388
aV30(3)
p389
aV2690
p390
aV8
aV1
aV4
aV-
aV0.8
p391
aV89.8
p392
aV1.7
p393
aV1
aV7.10
p394
aa(lp395
V2013/2014
p396
aVSunderland
p397
aVEPL
p398
aV25(2)
p399
aV2185
p400
aV3
aV1
aV3
aV-
aV1.5
p401
aV90.7
p402
aV0.6
p403
aV-
aV6.80
p404
aa(lp405
V2013/2014
p406
aVSwansea
p407
aVEPL
p408
aV0(1)
p409
aV13
p410
aV-
aV-
aV-
aV-
aV-
aV100
p411
aV-
aV-
aV6.10
p412
aa(lp413
V2014
p414
aVSouth Korea
p415
aVWC
p416
aV3
aV270
p417
aV-
aV1
aV1
aV-
aV2.3
p418
aV93.5
p419
aV1.3
p420
aV1
aV7.25
p421
aa(lp422
V2012/2013
p423
aVSwansea
p424
aVEPL
p425
aV20(9)
p426
aV2037
p427
aV-
aV2
aV3
aV-
aV1.3
p428
aV92.7
p429
aV0.5
p430
aV-
aV6.78
p431
aa(lp432
VTotal / Average
p433
aV
aV
aV181
p434
aV13140
p435
aV15
p436
aV10
p437
aV21
p438
aV0
aV0.9
p439
aV90.2
p440
aV0.8
p441
aV3
aV6.74
p442
aasS'id'
p443
V42916
p444
sb.