(i__main__
Player
p1
(dp2
S'name'
p3
VRajiv van La Parra 
p4
sS'offensive_data'
p5
(lp6
(lp7
a(lp8
V2018/2019
p9
aVHuddersfield
p10
aVEPL
p11
aV5
aV407
p12
aV-
aV-
aV-
aV-
aV1
aV85.7
p13
aV0.2
p14
aV-
aV6.32
p15
aa(lp16
V2017/2018
p17
aVHuddersfield
p18
aVEPL
p19
aV26(7)
p20
aV2146
p21
aV3
aV-
aV3
aV1
aV1.3
p22
aV79.5
p23
aV0.4
p24
aV1
aV6.54
p25
aa(lp26
V2016/2017
p27
aVHuddersfield
p28
aVEC
p29
aV39(4)
p30
aV3329
p31
aV2
aV3
aV3
aV1
aV1.8
p32
aV81.9
p33
aV0.7
p34
aV2
aV6.84
p35
aa(lp36
V2015/2016
p37
aVWolverhampton..
p38
aVEC
p39
aV11(2)
p40
aV897
p41
aV-
aV1
aV1
aV-
aV1.6
p42
aV79.8
p43
aV0.5
p44
aV-
aV6.53
p45
aa(lp46
V2015/2016
p47
aVBrighton
p48
aVEC
p49
aV4(2)
p50
aV430
p51
aV2
aV1
aV-
aV-
aV1.3
p52
aV77.2
p53
aV0.5
p54
aV-
aV6.85
p55
aa(lp56
V2015/2016
p57
aVHuddersfield
p58
aVEC
p59
aV7(1)
p60
aV478
p61
aV-
aV-
aV-
aV-
aV0.8
p62
aV77.5
p63
aV0.4
p64
aV-
aV6.69
p65
aa(lp66
V2014/2015
p67
aVWolverhampton..
p68
aVEC
p69
aV29(11)
p70
aV2467
p71
aV1
aV8
aV1
aV1
aV1.5
p72
aV76.5
p73
aV0.4
p74
aV-
aV6.64
p75
aa(lp76
V2013/2014
p77
aVSC Heerenveen
p78
aVNE
p79
aV19(13)
p80
aV1792
p81
aV5
aV6
aV4
aV-
aV1.4
p82
aV78.7
p83
aV0.3
p84
aV1
aV6.87
p85
aa(lp86
V2010/2011
p87
aVCaen
p88
aVFL1
p89
aV1(5)
p90
aV164
p91
aV-
aV-
aV-
aV-
aV1
aV84.2
p92
aV0.3
p93
aV-
aV6.02
p94
aa(lp95
VTotal / Average
p96
aV
aV
aV186
p97
aV12110
p98
aV13
p99
aV19
p100
aV12
p101
aV3
aV1.4
p102
aV79.4
p103
aV0.5
p104
aV4
aV6.68
p105
aasS'url'
p106
S'https://www.whoscored.com/Players/42947/History/'
p107
sS'passing_data'
p108
(lp109
(lp110
a(lp111
V2018/2019
p112
aVHuddersfield
p113
aVEPL
p114
aV5
aV407
p115
aV-
aV-
aV-
aV-
aV1
aV85.7
p116
aV0.2
p117
aV-
aV6.32
p118
aa(lp119
V2017/2018
p120
aVHuddersfield
p121
aVEPL
p122
aV26(7)
p123
aV2146
p124
aV3
aV-
aV3
aV1
aV1.3
p125
aV79.5
p126
aV0.4
p127
aV1
aV6.54
p128
aa(lp129
V2016/2017
p130
aVHuddersfield
p131
aVEC
p132
aV39(4)
p133
aV3329
p134
aV2
aV3
aV3
aV1
aV1.8
p135
aV81.9
p136
aV0.7
p137
aV2
aV6.84
p138
aa(lp139
V2015/2016
p140
aVWolverhampton..
p141
aVEC
p142
aV11(2)
p143
aV897
p144
aV-
aV1
aV1
aV-
aV1.6
p145
aV79.8
p146
aV0.5
p147
aV-
aV6.53
p148
aa(lp149
V2015/2016
p150
aVBrighton
p151
aVEC
p152
aV4(2)
p153
aV430
p154
aV2
aV1
aV-
aV-
aV1.3
p155
aV77.2
p156
aV0.5
p157
aV-
aV6.85
p158
aa(lp159
V2015/2016
p160
aVHuddersfield
p161
aVEC
p162
aV7(1)
p163
aV478
p164
aV-
aV-
aV-
aV-
aV0.8
p165
aV77.5
p166
aV0.4
p167
aV-
aV6.69
p168
aa(lp169
V2014/2015
p170
aVWolverhampton..
p171
aVEC
p172
aV29(11)
p173
aV2467
p174
aV1
aV8
aV1
aV1
aV1.5
p175
aV76.5
p176
aV0.4
p177
aV-
aV6.64
p178
aa(lp179
V2013/2014
p180
aVSC Heerenveen
p181
aVNE
p182
aV19(13)
p183
aV1792
p184
aV5
aV6
aV4
aV-
aV1.4
p185
aV78.7
p186
aV0.3
p187
aV1
aV6.87
p188
aa(lp189
V2010/2011
p190
aVCaen
p191
aVFL1
p192
aV1(5)
p193
aV164
p194
aV-
aV-
aV-
aV-
aV1
aV84.2
p195
aV0.3
p196
aV-
aV6.02
p197
aa(lp198
VTotal / Average
p199
aV
aV
aV186
p200
aV12110
p201
aV13
p202
aV19
p203
aV12
p204
aV3
aV1.4
p205
aV79.4
p206
aV0.5
p207
aV4
aV6.68
p208
aasS'defensive_data'
p209
(lp210
(lp211
a(lp212
V2018/2019
p213
aVHuddersfield
p214
aVEPL
p215
aV5
aV407
p216
aV-
aV-
aV-
aV-
aV1
aV85.7
p217
aV0.2
p218
aV-
aV6.32
p219
aa(lp220
V2017/2018
p221
aVHuddersfield
p222
aVEPL
p223
aV26(7)
p224
aV2146
p225
aV3
aV-
aV3
aV1
aV1.3
p226
aV79.5
p227
aV0.4
p228
aV1
aV6.54
p229
aa(lp230
V2016/2017
p231
aVHuddersfield
p232
aVEC
p233
aV39(4)
p234
aV3329
p235
aV2
aV3
aV3
aV1
aV1.8
p236
aV81.9
p237
aV0.7
p238
aV2
aV6.84
p239
aa(lp240
V2015/2016
p241
aVWolverhampton..
p242
aVEC
p243
aV11(2)
p244
aV897
p245
aV-
aV1
aV1
aV-
aV1.6
p246
aV79.8
p247
aV0.5
p248
aV-
aV6.53
p249
aa(lp250
V2015/2016
p251
aVBrighton
p252
aVEC
p253
aV4(2)
p254
aV430
p255
aV2
aV1
aV-
aV-
aV1.3
p256
aV77.2
p257
aV0.5
p258
aV-
aV6.85
p259
aa(lp260
V2015/2016
p261
aVHuddersfield
p262
aVEC
p263
aV7(1)
p264
aV478
p265
aV-
aV-
aV-
aV-
aV0.8
p266
aV77.5
p267
aV0.4
p268
aV-
aV6.69
p269
aa(lp270
V2014/2015
p271
aVWolverhampton..
p272
aVEC
p273
aV29(11)
p274
aV2467
p275
aV1
aV8
aV1
aV1
aV1.5
p276
aV76.5
p277
aV0.4
p278
aV-
aV6.64
p279
aa(lp280
V2013/2014
p281
aVSC Heerenveen
p282
aVNE
p283
aV19(13)
p284
aV1792
p285
aV5
aV6
aV4
aV-
aV1.4
p286
aV78.7
p287
aV0.3
p288
aV1
aV6.87
p289
aa(lp290
V2010/2011
p291
aVCaen
p292
aVFL1
p293
aV1(5)
p294
aV164
p295
aV-
aV-
aV-
aV-
aV1
aV84.2
p296
aV0.3
p297
aV-
aV6.02
p298
aa(lp299
VTotal / Average
p300
aV
aV
aV186
p301
aV12110
p302
aV13
p303
aV19
p304
aV12
p305
aV3
aV1.4
p306
aV79.4
p307
aV0.5
p308
aV4
aV6.68
p309
aasS'sumary_data'
p310
(lp311
(lp312
a(lp313
V2018/2019
p314
aVHuddersfield
p315
aVEPL
p316
aV5
aV407
p317
aV-
aV-
aV-
aV-
aV1
aV85.7
p318
aV0.2
p319
aV-
aV6.32
p320
aa(lp321
V2017/2018
p322
aVHuddersfield
p323
aVEPL
p324
aV26(7)
p325
aV2146
p326
aV3
aV-
aV3
aV1
aV1.3
p327
aV79.5
p328
aV0.4
p329
aV1
aV6.54
p330
aa(lp331
V2016/2017
p332
aVHuddersfield
p333
aVEC
p334
aV39(4)
p335
aV3329
p336
aV2
aV3
aV3
aV1
aV1.8
p337
aV81.9
p338
aV0.7
p339
aV2
aV6.84
p340
aa(lp341
V2015/2016
p342
aVWolverhampton..
p343
aVEC
p344
aV11(2)
p345
aV897
p346
aV-
aV1
aV1
aV-
aV1.6
p347
aV79.8
p348
aV0.5
p349
aV-
aV6.53
p350
aa(lp351
V2015/2016
p352
aVBrighton
p353
aVEC
p354
aV4(2)
p355
aV430
p356
aV2
aV1
aV-
aV-
aV1.3
p357
aV77.2
p358
aV0.5
p359
aV-
aV6.85
p360
aa(lp361
V2015/2016
p362
aVHuddersfield
p363
aVEC
p364
aV7(1)
p365
aV478
p366
aV-
aV-
aV-
aV-
aV0.8
p367
aV77.5
p368
aV0.4
p369
aV-
aV6.69
p370
aa(lp371
V2014/2015
p372
aVWolverhampton..
p373
aVEC
p374
aV29(11)
p375
aV2467
p376
aV1
aV8
aV1
aV1
aV1.5
p377
aV76.5
p378
aV0.4
p379
aV-
aV6.64
p380
aa(lp381
V2013/2014
p382
aVSC Heerenveen
p383
aVNE
p384
aV19(13)
p385
aV1792
p386
aV5
aV6
aV4
aV-
aV1.4
p387
aV78.7
p388
aV0.3
p389
aV1
aV6.87
p390
aa(lp391
V2010/2011
p392
aVCaen
p393
aVFL1
p394
aV1(5)
p395
aV164
p396
aV-
aV-
aV-
aV-
aV1
aV84.2
p397
aV0.3
p398
aV-
aV6.02
p399
aa(lp400
VTotal / Average
p401
aV
aV
aV186
p402
aV12110
p403
aV13
p404
aV19
p405
aV12
p406
aV3
aV1.4
p407
aV79.4
p408
aV0.5
p409
aV4
aV6.68
p410
aasS'id'
p411
V42947
p412
sb.