(i__main__
Player
p1
(dp2
S'name'
p3
VJoel Ward 
p4
sS'offensive_data'
p5
(lp6
(lp7
a(lp8
V2018/2019
p9
aVCrystal Palac..
p10
aVEPL
p11
aV1(1)
p12
aV101
p13
aV-
aV-
aV-
aV-
aV0.5
p14
aV66.7
p15
aV1.5
p16
aV-
aV6.36
p17
aa(lp18
V2017/2018
p19
aVCrystal Palac..
p20
aVEPL
p21
aV19
p22
aV1616
p23
aV-
aV1
aV4
aV-
aV0.3
p24
aV71.8
p25
aV1.7
p26
aV-
aV6.82
p27
aa(lp28
V2016/2017
p29
aVCrystal Palac..
p30
aVEPL
p31
aV38
p32
aV3418
p33
aV-
aV1
aV7
aV-
aV0.4
p34
aV73.6
p35
aV1.6
p36
aV2
aV6.82
p37
aa(lp38
V2015/2016
p39
aVCrystal Palac..
p40
aVEPL
p41
aV30
p42
aV2692
p43
aV2
aV1
aV4
aV-
aV0.6
p44
aV71.1
p45
aV1.8
p46
aV-
aV6.94
p47
aa(lp48
V2014/2015
p49
aVCrystal Palac..
p50
aVEPL
p51
aV37
p52
aV3330
p53
aV1
aV-
aV4
aV-
aV0.3
p54
aV69.5
p55
aV2.8
p56
aV-
aV7.04
p57
aa(lp58
V2013/2014
p59
aVCrystal Palac..
p60
aVEPL
p61
aV36
p62
aV3240
p63
aV-
aV2
aV3
aV-
aV0.5
p64
aV75.5
p65
aV2
aV-
aV7.28
p66
aa(lp67
V2009/2010
p68
aVPortsmouth
p69
aVEPL
p70
aV1(2)
p71
aV145
p72
aV-
aV-
aV-
aV-
aV0.7
p73
aV52.9
p74
aV1
aV-
aV6.65
p75
aa(lp76
VTotal / Average
p77
aV
aV
aV165
p78
aV14542
p79
aV3
aV5
aV22
p80
aV0
aV0.4
p81
aV72
p82
aV2
aV2
aV6.98
p83
aasS'url'
p84
S'https://www.whoscored.com/Players/43105/History/'
p85
sS'passing_data'
p86
(lp87
(lp88
a(lp89
V2018/2019
p90
aVCrystal Palac..
p91
aVEPL
p92
aV1(1)
p93
aV101
p94
aV-
aV-
aV-
aV-
aV0.5
p95
aV66.7
p96
aV1.5
p97
aV-
aV6.36
p98
aa(lp99
V2017/2018
p100
aVCrystal Palac..
p101
aVEPL
p102
aV19
p103
aV1616
p104
aV-
aV1
aV4
aV-
aV0.3
p105
aV71.8
p106
aV1.7
p107
aV-
aV6.82
p108
aa(lp109
V2016/2017
p110
aVCrystal Palac..
p111
aVEPL
p112
aV38
p113
aV3418
p114
aV-
aV1
aV7
aV-
aV0.4
p115
aV73.6
p116
aV1.6
p117
aV2
aV6.82
p118
aa(lp119
V2015/2016
p120
aVCrystal Palac..
p121
aVEPL
p122
aV30
p123
aV2692
p124
aV2
aV1
aV4
aV-
aV0.6
p125
aV71.1
p126
aV1.8
p127
aV-
aV6.94
p128
aa(lp129
V2014/2015
p130
aVCrystal Palac..
p131
aVEPL
p132
aV37
p133
aV3330
p134
aV1
aV-
aV4
aV-
aV0.3
p135
aV69.5
p136
aV2.8
p137
aV-
aV7.04
p138
aa(lp139
V2013/2014
p140
aVCrystal Palac..
p141
aVEPL
p142
aV36
p143
aV3240
p144
aV-
aV2
aV3
aV-
aV0.5
p145
aV75.5
p146
aV2
aV-
aV7.28
p147
aa(lp148
V2009/2010
p149
aVPortsmouth
p150
aVEPL
p151
aV1(2)
p152
aV145
p153
aV-
aV-
aV-
aV-
aV0.7
p154
aV52.9
p155
aV1
aV-
aV6.65
p156
aa(lp157
VTotal / Average
p158
aV
aV
aV165
p159
aV14542
p160
aV3
aV5
aV22
p161
aV0
aV0.4
p162
aV72
p163
aV2
aV2
aV6.98
p164
aasS'defensive_data'
p165
(lp166
(lp167
a(lp168
V2018/2019
p169
aVCrystal Palac..
p170
aVEPL
p171
aV1(1)
p172
aV101
p173
aV-
aV-
aV-
aV-
aV0.5
p174
aV66.7
p175
aV1.5
p176
aV-
aV6.36
p177
aa(lp178
V2017/2018
p179
aVCrystal Palac..
p180
aVEPL
p181
aV19
p182
aV1616
p183
aV-
aV1
aV4
aV-
aV0.3
p184
aV71.8
p185
aV1.7
p186
aV-
aV6.82
p187
aa(lp188
V2016/2017
p189
aVCrystal Palac..
p190
aVEPL
p191
aV38
p192
aV3418
p193
aV-
aV1
aV7
aV-
aV0.4
p194
aV73.6
p195
aV1.6
p196
aV2
aV6.82
p197
aa(lp198
V2015/2016
p199
aVCrystal Palac..
p200
aVEPL
p201
aV30
p202
aV2692
p203
aV2
aV1
aV4
aV-
aV0.6
p204
aV71.1
p205
aV1.8
p206
aV-
aV6.94
p207
aa(lp208
V2014/2015
p209
aVCrystal Palac..
p210
aVEPL
p211
aV37
p212
aV3330
p213
aV1
aV-
aV4
aV-
aV0.3
p214
aV69.5
p215
aV2.8
p216
aV-
aV7.04
p217
aa(lp218
V2013/2014
p219
aVCrystal Palac..
p220
aVEPL
p221
aV36
p222
aV3240
p223
aV-
aV2
aV3
aV-
aV0.5
p224
aV75.5
p225
aV2
aV-
aV7.28
p226
aa(lp227
V2009/2010
p228
aVPortsmouth
p229
aVEPL
p230
aV1(2)
p231
aV145
p232
aV-
aV-
aV-
aV-
aV0.7
p233
aV52.9
p234
aV1
aV-
aV6.65
p235
aa(lp236
VTotal / Average
p237
aV
aV
aV165
p238
aV14542
p239
aV3
aV5
aV22
p240
aV0
aV0.4
p241
aV72
p242
aV2
aV2
aV6.98
p243
aasS'sumary_data'
p244
(lp245
(lp246
a(lp247
V2018/2019
p248
aVCrystal Palac..
p249
aVEPL
p250
aV1(1)
p251
aV101
p252
aV-
aV-
aV-
aV-
aV0.5
p253
aV66.7
p254
aV1.5
p255
aV-
aV6.36
p256
aa(lp257
V2017/2018
p258
aVCrystal Palac..
p259
aVEPL
p260
aV19
p261
aV1616
p262
aV-
aV1
aV4
aV-
aV0.3
p263
aV71.8
p264
aV1.7
p265
aV-
aV6.82
p266
aa(lp267
V2016/2017
p268
aVCrystal Palac..
p269
aVEPL
p270
aV38
p271
aV3418
p272
aV-
aV1
aV7
aV-
aV0.4
p273
aV73.6
p274
aV1.6
p275
aV2
aV6.82
p276
aa(lp277
V2015/2016
p278
aVCrystal Palac..
p279
aVEPL
p280
aV30
p281
aV2692
p282
aV2
aV1
aV4
aV-
aV0.6
p283
aV71.1
p284
aV1.8
p285
aV-
aV6.94
p286
aa(lp287
V2014/2015
p288
aVCrystal Palac..
p289
aVEPL
p290
aV37
p291
aV3330
p292
aV1
aV-
aV4
aV-
aV0.3
p293
aV69.5
p294
aV2.8
p295
aV-
aV7.04
p296
aa(lp297
V2013/2014
p298
aVCrystal Palac..
p299
aVEPL
p300
aV36
p301
aV3240
p302
aV-
aV2
aV3
aV-
aV0.5
p303
aV75.5
p304
aV2
aV-
aV7.28
p305
aa(lp306
V2009/2010
p307
aVPortsmouth
p308
aVEPL
p309
aV1(2)
p310
aV145
p311
aV-
aV-
aV-
aV-
aV0.7
p312
aV52.9
p313
aV1
aV-
aV6.65
p314
aa(lp315
VTotal / Average
p316
aV
aV
aV165
p317
aV14542
p318
aV3
aV5
aV22
p319
aV0
aV0.4
p320
aV72
p321
aV2
aV2
aV6.98
p322
aasS'id'
p323
V43105
p324
sb.