(i__main__
Player
p1
(dp2
S'name'
p3
VLeon Balogun 
p4
sS'offensive_data'
p5
(lp6
(lp7
a(lp8
V2018/2019
p9
aVBrighton
p10
aVEPL
p11
aV3(3)
p12
aV411
p13
aV1
aV-
aV2
aV-
aV0.2
p14
aV75.7
p15
aV2
aV-
aV6.58
p16
aa(lp17
V2017/2018
p18
aVMainz 05
p19
aVGB
p20
aV14
p21
aV1176
p22
aV-
aV-
aV4
aV1
aV0.1
p23
aV75.2
p24
aV3.1
p25
aV-
aV6.76
p26
aa(lp27
V2016/2017
p28
aVMainz 05
p29
aVGB
p30
aV13(4)
p31
aV1024
p32
aV-
aV-
aV3
aV-
aV0.2
p33
aV75.3
p34
aV2.6
p35
aV-
aV6.65
p36
aa(lp37
V2016/2017
p38
aVMainz 05
p39
aVUEL
p40
aV2
aV180
p41
aV-
aV-
aV1
aV-
aV0.5
p42
aV84.3
p43
aV2
aV-
aV7.48
p44
aa(lp45
V2018
p46
aVNigeria
p47
aVWC
p48
aV3
aV270
p49
aV-
aV-
aV1
aV-
aV1.3
p50
aV73.2
p51
aV2.7
p52
aV-
aV6.85
p53
aa(lp54
V2015/2016
p55
aVMainz 05
p56
aVGB
p57
aV17(4)
p58
aV1511
p59
aV1
aV-
aV4
aV-
aV0.6
p60
aV75.6
p61
aV3.4
p62
aV1
aV7.12
p63
aa(lp64
V2012/2013
p65
aVFortuna Duess..
p66
aVGB
p67
aV16(1)
p68
aV1429
p69
aV-
aV1
aV4
aV-
aV0.2
p70
aV64.6
p71
aV1.8
p72
aV-
aV7.35
p73
aa(lp74
V2010/2011
p75
aVWerder Bremen
p76
aVGB
p77
aV0(3)
p78
aV54
p79
aV-
aV-
aV-
aV-
aV0.3
p80
aV85.2
p81
aV-
aV-
aV6.01
p82
aa(lp83
V2009/2010
p84
aVHannover 96
p85
aVGB
p86
aV1(1)
p87
aV127
p88
aV-
aV-
aV-
aV-
aV-
aV74.3
p89
aV-
aV-
aV6.39
p90
aa(lp91
VTotal / Average
p92
aV
aV
aV85
p93
aV6182
p94
aV2
aV1
aV19
p95
aV1
aV0.3
p96
aV73.7
p97
aV2.5
p98
aV1
aV6.92
p99
aasS'url'
p100
S'https://www.whoscored.com/Players/43362/History/'
p101
sS'passing_data'
p102
(lp103
(lp104
a(lp105
V2018/2019
p106
aVBrighton
p107
aVEPL
p108
aV3(3)
p109
aV411
p110
aV1
aV-
aV2
aV-
aV0.2
p111
aV75.7
p112
aV2
aV-
aV6.58
p113
aa(lp114
V2017/2018
p115
aVMainz 05
p116
aVGB
p117
aV14
p118
aV1176
p119
aV-
aV-
aV4
aV1
aV0.1
p120
aV75.2
p121
aV3.1
p122
aV-
aV6.76
p123
aa(lp124
V2016/2017
p125
aVMainz 05
p126
aVGB
p127
aV13(4)
p128
aV1024
p129
aV-
aV-
aV3
aV-
aV0.2
p130
aV75.3
p131
aV2.6
p132
aV-
aV6.65
p133
aa(lp134
V2016/2017
p135
aVMainz 05
p136
aVUEL
p137
aV2
aV180
p138
aV-
aV-
aV1
aV-
aV0.5
p139
aV84.3
p140
aV2
aV-
aV7.48
p141
aa(lp142
V2018
p143
aVNigeria
p144
aVWC
p145
aV3
aV270
p146
aV-
aV-
aV1
aV-
aV1.3
p147
aV73.2
p148
aV2.7
p149
aV-
aV6.85
p150
aa(lp151
V2015/2016
p152
aVMainz 05
p153
aVGB
p154
aV17(4)
p155
aV1511
p156
aV1
aV-
aV4
aV-
aV0.6
p157
aV75.6
p158
aV3.4
p159
aV1
aV7.12
p160
aa(lp161
V2012/2013
p162
aVFortuna Duess..
p163
aVGB
p164
aV16(1)
p165
aV1429
p166
aV-
aV1
aV4
aV-
aV0.2
p167
aV64.6
p168
aV1.8
p169
aV-
aV7.35
p170
aa(lp171
V2010/2011
p172
aVWerder Bremen
p173
aVGB
p174
aV0(3)
p175
aV54
p176
aV-
aV-
aV-
aV-
aV0.3
p177
aV85.2
p178
aV-
aV-
aV6.01
p179
aa(lp180
V2009/2010
p181
aVHannover 96
p182
aVGB
p183
aV1(1)
p184
aV127
p185
aV-
aV-
aV-
aV-
aV-
aV74.3
p186
aV-
aV-
aV6.39
p187
aa(lp188
VTotal / Average
p189
aV
aV
aV85
p190
aV6182
p191
aV2
aV1
aV19
p192
aV1
aV0.3
p193
aV73.7
p194
aV2.5
p195
aV1
aV6.92
p196
aasS'defensive_data'
p197
(lp198
(lp199
a(lp200
V2018/2019
p201
aVBrighton
p202
aVEPL
p203
aV3(3)
p204
aV411
p205
aV1
aV-
aV2
aV-
aV0.2
p206
aV75.7
p207
aV2
aV-
aV6.58
p208
aa(lp209
V2017/2018
p210
aVMainz 05
p211
aVGB
p212
aV14
p213
aV1176
p214
aV-
aV-
aV4
aV1
aV0.1
p215
aV75.2
p216
aV3.1
p217
aV-
aV6.76
p218
aa(lp219
V2016/2017
p220
aVMainz 05
p221
aVGB
p222
aV13(4)
p223
aV1024
p224
aV-
aV-
aV3
aV-
aV0.2
p225
aV75.3
p226
aV2.6
p227
aV-
aV6.65
p228
aa(lp229
V2016/2017
p230
aVMainz 05
p231
aVUEL
p232
aV2
aV180
p233
aV-
aV-
aV1
aV-
aV0.5
p234
aV84.3
p235
aV2
aV-
aV7.48
p236
aa(lp237
V2018
p238
aVNigeria
p239
aVWC
p240
aV3
aV270
p241
aV-
aV-
aV1
aV-
aV1.3
p242
aV73.2
p243
aV2.7
p244
aV-
aV6.85
p245
aa(lp246
V2015/2016
p247
aVMainz 05
p248
aVGB
p249
aV17(4)
p250
aV1511
p251
aV1
aV-
aV4
aV-
aV0.6
p252
aV75.6
p253
aV3.4
p254
aV1
aV7.12
p255
aa(lp256
V2012/2013
p257
aVFortuna Duess..
p258
aVGB
p259
aV16(1)
p260
aV1429
p261
aV-
aV1
aV4
aV-
aV0.2
p262
aV64.6
p263
aV1.8
p264
aV-
aV7.35
p265
aa(lp266
V2010/2011
p267
aVWerder Bremen
p268
aVGB
p269
aV0(3)
p270
aV54
p271
aV-
aV-
aV-
aV-
aV0.3
p272
aV85.2
p273
aV-
aV-
aV6.01
p274
aa(lp275
V2009/2010
p276
aVHannover 96
p277
aVGB
p278
aV1(1)
p279
aV127
p280
aV-
aV-
aV-
aV-
aV-
aV74.3
p281
aV-
aV-
aV6.39
p282
aa(lp283
VTotal / Average
p284
aV
aV
aV85
p285
aV6182
p286
aV2
aV1
aV19
p287
aV1
aV0.3
p288
aV73.7
p289
aV2.5
p290
aV1
aV6.92
p291
aasS'sumary_data'
p292
(lp293
(lp294
a(lp295
V2018/2019
p296
aVBrighton
p297
aVEPL
p298
aV3(3)
p299
aV411
p300
aV1
aV-
aV2
aV-
aV0.2
p301
aV75.7
p302
aV2
aV-
aV6.58
p303
aa(lp304
V2017/2018
p305
aVMainz 05
p306
aVGB
p307
aV14
p308
aV1176
p309
aV-
aV-
aV4
aV1
aV0.1
p310
aV75.2
p311
aV3.1
p312
aV-
aV6.76
p313
aa(lp314
V2016/2017
p315
aVMainz 05
p316
aVGB
p317
aV13(4)
p318
aV1024
p319
aV-
aV-
aV3
aV-
aV0.2
p320
aV75.3
p321
aV2.6
p322
aV-
aV6.65
p323
aa(lp324
V2016/2017
p325
aVMainz 05
p326
aVUEL
p327
aV2
aV180
p328
aV-
aV-
aV1
aV-
aV0.5
p329
aV84.3
p330
aV2
aV-
aV7.48
p331
aa(lp332
V2018
p333
aVNigeria
p334
aVWC
p335
aV3
aV270
p336
aV-
aV-
aV1
aV-
aV1.3
p337
aV73.2
p338
aV2.7
p339
aV-
aV6.85
p340
aa(lp341
V2015/2016
p342
aVMainz 05
p343
aVGB
p344
aV17(4)
p345
aV1511
p346
aV1
aV-
aV4
aV-
aV0.6
p347
aV75.6
p348
aV3.4
p349
aV1
aV7.12
p350
aa(lp351
V2012/2013
p352
aVFortuna Duess..
p353
aVGB
p354
aV16(1)
p355
aV1429
p356
aV-
aV1
aV4
aV-
aV0.2
p357
aV64.6
p358
aV1.8
p359
aV-
aV7.35
p360
aa(lp361
V2010/2011
p362
aVWerder Bremen
p363
aVGB
p364
aV0(3)
p365
aV54
p366
aV-
aV-
aV-
aV-
aV0.3
p367
aV85.2
p368
aV-
aV-
aV6.01
p369
aa(lp370
V2009/2010
p371
aVHannover 96
p372
aVGB
p373
aV1(1)
p374
aV127
p375
aV-
aV-
aV-
aV-
aV-
aV74.3
p376
aV-
aV-
aV6.39
p377
aa(lp378
VTotal / Average
p379
aV
aV
aV85
p380
aV6182
p381
aV2
aV1
aV19
p382
aV1
aV0.3
p383
aV73.7
p384
aV2.5
p385
aV1
aV6.92
p386
aasS'id'
p387
V43362
p388
sb.