(i__main__
Player
p1
(dp2
S'name'
p3
VPedro 
p4
sS'offensive_data'
p5
(lp6
(lp7
a(lp8
V2018/2019
p9
aVChelsea
p10
aVEPL
p11
aV9(6)
p12
aV811
p13
aV6
aV1
aV1
aV-
aV1.8
p14
aV88.6
p15
aV0.1
p16
aV3
aV7.12
p17
aa(lp18
V2018/2019
p19
aVChelsea
p20
aVUEL
p21
aV5(1)
p22
aV389
p23
aV-
aV1
aV-
aV-
aV2.3
p24
aV85.7
p25
aV0.3
p26
aV-
aV7.15
p27
aa(lp28
V2017/2018
p29
aVChelsea
p30
aVUCL
p31
aV4(3)
p32
aV388
p33
aV1
aV2
aV-
aV-
aV1.1
p34
aV85.9
p35
aV-
aV-
aV6.97
p36
aa(lp37
V2017/2018
p38
aVChelsea
p39
aVEPL
p40
aV17(14)
p41
aV1524
p42
aV4
aV2
aV1
aV-
aV1.8
p43
aV83
p44
aV-
aV-
aV6.66
p45
aa(lp46
V2016/2017
p47
aVChelsea
p48
aVEPL
p49
aV26(9)
p50
aV2151
p51
aV9
aV9
aV6
aV-
aV1.7
p52
aV82.7
p53
aV0.2
p54
aV-
aV7.13
p55
aa(lp56
V2015/2016
p57
aVChelsea
p58
aVUCL
p59
aV3(3)
p60
aV294
p61
aV-
aV-
aV1
aV-
aV1.2
p62
aV79.5
p63
aV0.2
p64
aV-
aV6.30
p65
aa(lp66
V2015/2016
p67
aVChelsea
p68
aVEPL
p69
aV24(5)
p70
aV2044
p71
aV7
aV2
aV3
aV-
aV2
aV83.8
p72
aV0.3
p73
aV1
aV7.03
p74
aa(lp75
V2014/2015
p76
aVBarcelona
p77
aVSLL
p78
aV15(20)
p79
aV1531
p80
aV6
aV6
aV3
aV-
aV1.1
p81
aV86.9
p82
aV0.1
p83
aV-
aV6.76
p84
aa(lp85
V2014/2015
p86
aVBarcelona
p87
aVUCL
p88
aV4(5)
p89
aV398
p90
aV-
aV3
aV2
aV-
aV0.7
p91
aV89.3
p92
aV0.1
p93
aV-
aV6.48
p94
aa(lp95
V2016
p96
aVSpain
p97
aVUEC
p98
aV0(2)
p99
aV17
p100
aV-
aV-
aV-
aV-
aV0.5
p101
aV87.5
p102
aV-
aV-
aV6.03
p103
aa(lp104
V2013/2014
p105
aVBarcelona
p106
aVSLL
p107
aV28(9)
p108
aV2367
p109
aV15
p110
aV8
aV3
aV-
aV1.9
p111
aV84.5
p112
aV0.2
p113
aV2
aV7.13
p114
aa(lp115
V2013/2014
p116
aVBarcelona
p117
aVUCL
p118
aV3(4)
p119
aV305
p120
aV1
aV-
aV-
aV-
aV0.3
p121
aV88.1
p122
aV0.1
p123
aV-
aV6.63
p124
aa(lp125
V2014
p126
aVSpain
p127
aVWC
p128
aV1(1)
p129
aV103
p130
aV-
aV-
aV-
aV-
aV0.5
p131
aV84.1
p132
aV-
aV-
aV6.27
p133
aa(lp134
V2013
p135
aVSpain
p136
aVICC
p137
aV4
aV327
p138
aV1
aV1
aV-
aV-
aV2
aV86.4
p139
aV-
aV-
aV7.23
p140
aa(lp141
V2012/2013
p142
aVBarcelona
p143
aVSLL
p144
aV23(5)
p145
aV2078
p146
aV7
aV6
aV3
aV-
aV1.5
p147
aV90.1
p148
aV0.2
p149
aV1
aV7.16
p150
aa(lp151
V2012/2013
p152
aVBarcelona
p153
aVUCL
p154
aV10
p155
aV860
p156
aV1
aV1
aV3
aV-
aV1.6
p157
aV88.7
p158
aV0.1
p159
aV-
aV6.80
p160
aa(lp161
V2012
p162
aVSpain
p163
aVUEC
p164
aV0(3)
p165
aV90
p166
aV-
aV-
aV-
aV-
aV0.3
p167
aV86.5
p168
aV-
aV-
aV6.42
p169
aa(lp170
V2011/2012
p171
aVBarcelona
p172
aVSLL
p173
aV20(9)
p174
aV1640
p175
aV5
aV5
aV4
aV-
aV1.4
p176
aV88.2
p177
aV-
aV-
aV6.78
p178
aa(lp179
V2011/2012
p180
aVBarcelona
p181
aVUCL
p182
aV5(4)
p183
aV498
p184
aV4
aV-
aV1
aV-
aV1.9
p185
aV92.3
p186
aV-
aV-
aV6.90
p187
aa(lp188
V2010/2011
p189
aVBarcelona
p190
aVSLL
p191
aV24(9)
p192
aV2152
p193
aV13
p194
aV7
aV2
aV-
aV1.8
p195
aV89.7
p196
aV0.1
p197
aV1
aV7.32
p198
aa(lp199
V2010/2011
p200
aVBarcelona
p201
aVUCL
p202
aV8(4)
p203
aV772
p204
aV5
aV1
aV1
aV-
aV1.9
p205
aV90.8
p206
aV-
aV-
aV7.04
p207
aa(lp208
V2009/2010
p209
aVBarcelona
p210
aVSLL
p211
aV22(12)
p212
aV2124
p213
aV12
p214
aV3
aV2
aV-
aV1.1
p215
aV86.6
p216
aV0.1
p217
aV2
aV7.18
p218
aa(lp219
V2009/2010
p220
aVBarcelona
p221
aVUCL
p222
aV7(2)
p223
aV651
p224
aV4
aV1
aV2
aV-
aV2
aV87.3
p225
aV0.1
p226
aV-
aV7.21
p227
aa(lp228
VTotal / Average
p229
aV
aV
aV392
p230
aV23514
p231
aV101
p232
aV59
p233
aV38
p234
aV0
aV1.5
p235
aV86.6
p236
aV0.1
p237
aV10
p238
aV6.98
p239
aasS'url'
p240
S'https://www.whoscored.com/Players/44055/History/'
p241
sS'passing_data'
p242
(lp243
(lp244
a(lp245
V2018/2019
p246
aVChelsea
p247
aVEPL
p248
aV9(6)
p249
aV811
p250
aV6
aV1
aV1
aV-
aV1.8
p251
aV88.6
p252
aV0.1
p253
aV3
aV7.12
p254
aa(lp255
V2018/2019
p256
aVChelsea
p257
aVUEL
p258
aV5(1)
p259
aV389
p260
aV-
aV1
aV-
aV-
aV2.3
p261
aV85.7
p262
aV0.3
p263
aV-
aV7.15
p264
aa(lp265
V2017/2018
p266
aVChelsea
p267
aVUCL
p268
aV4(3)
p269
aV388
p270
aV1
aV2
aV-
aV-
aV1.1
p271
aV85.9
p272
aV-
aV-
aV6.97
p273
aa(lp274
V2017/2018
p275
aVChelsea
p276
aVEPL
p277
aV17(14)
p278
aV1524
p279
aV4
aV2
aV1
aV-
aV1.8
p280
aV83
p281
aV-
aV-
aV6.66
p282
aa(lp283
V2016/2017
p284
aVChelsea
p285
aVEPL
p286
aV26(9)
p287
aV2151
p288
aV9
aV9
aV6
aV-
aV1.7
p289
aV82.7
p290
aV0.2
p291
aV-
aV7.13
p292
aa(lp293
V2015/2016
p294
aVChelsea
p295
aVUCL
p296
aV3(3)
p297
aV294
p298
aV-
aV-
aV1
aV-
aV1.2
p299
aV79.5
p300
aV0.2
p301
aV-
aV6.30
p302
aa(lp303
V2015/2016
p304
aVChelsea
p305
aVEPL
p306
aV24(5)
p307
aV2044
p308
aV7
aV2
aV3
aV-
aV2
aV83.8
p309
aV0.3
p310
aV1
aV7.03
p311
aa(lp312
V2014/2015
p313
aVBarcelona
p314
aVSLL
p315
aV15(20)
p316
aV1531
p317
aV6
aV6
aV3
aV-
aV1.1
p318
aV86.9
p319
aV0.1
p320
aV-
aV6.76
p321
aa(lp322
V2014/2015
p323
aVBarcelona
p324
aVUCL
p325
aV4(5)
p326
aV398
p327
aV-
aV3
aV2
aV-
aV0.7
p328
aV89.3
p329
aV0.1
p330
aV-
aV6.48
p331
aa(lp332
V2016
p333
aVSpain
p334
aVUEC
p335
aV0(2)
p336
aV17
p337
aV-
aV-
aV-
aV-
aV0.5
p338
aV87.5
p339
aV-
aV-
aV6.03
p340
aa(lp341
V2013/2014
p342
aVBarcelona
p343
aVSLL
p344
aV28(9)
p345
aV2367
p346
aV15
p347
aV8
aV3
aV-
aV1.9
p348
aV84.5
p349
aV0.2
p350
aV2
aV7.13
p351
aa(lp352
V2013/2014
p353
aVBarcelona
p354
aVUCL
p355
aV3(4)
p356
aV305
p357
aV1
aV-
aV-
aV-
aV0.3
p358
aV88.1
p359
aV0.1
p360
aV-
aV6.63
p361
aa(lp362
V2014
p363
aVSpain
p364
aVWC
p365
aV1(1)
p366
aV103
p367
aV-
aV-
aV-
aV-
aV0.5
p368
aV84.1
p369
aV-
aV-
aV6.27
p370
aa(lp371
V2013
p372
aVSpain
p373
aVICC
p374
aV4
aV327
p375
aV1
aV1
aV-
aV-
aV2
aV86.4
p376
aV-
aV-
aV7.23
p377
aa(lp378
V2012/2013
p379
aVBarcelona
p380
aVSLL
p381
aV23(5)
p382
aV2078
p383
aV7
aV6
aV3
aV-
aV1.5
p384
aV90.1
p385
aV0.2
p386
aV1
aV7.16
p387
aa(lp388
V2012/2013
p389
aVBarcelona
p390
aVUCL
p391
aV10
p392
aV860
p393
aV1
aV1
aV3
aV-
aV1.6
p394
aV88.7
p395
aV0.1
p396
aV-
aV6.80
p397
aa(lp398
V2012
p399
aVSpain
p400
aVUEC
p401
aV0(3)
p402
aV90
p403
aV-
aV-
aV-
aV-
aV0.3
p404
aV86.5
p405
aV-
aV-
aV6.42
p406
aa(lp407
V2011/2012
p408
aVBarcelona
p409
aVSLL
p410
aV20(9)
p411
aV1640
p412
aV5
aV5
aV4
aV-
aV1.4
p413
aV88.2
p414
aV-
aV-
aV6.78
p415
aa(lp416
V2011/2012
p417
aVBarcelona
p418
aVUCL
p419
aV5(4)
p420
aV498
p421
aV4
aV-
aV1
aV-
aV1.9
p422
aV92.3
p423
aV-
aV-
aV6.90
p424
aa(lp425
V2010/2011
p426
aVBarcelona
p427
aVSLL
p428
aV24(9)
p429
aV2152
p430
aV13
p431
aV7
aV2
aV-
aV1.8
p432
aV89.7
p433
aV0.1
p434
aV1
aV7.32
p435
aa(lp436
V2010/2011
p437
aVBarcelona
p438
aVUCL
p439
aV8(4)
p440
aV772
p441
aV5
aV1
aV1
aV-
aV1.9
p442
aV90.8
p443
aV-
aV-
aV7.04
p444
aa(lp445
V2009/2010
p446
aVBarcelona
p447
aVSLL
p448
aV22(12)
p449
aV2124
p450
aV12
p451
aV3
aV2
aV-
aV1.1
p452
aV86.6
p453
aV0.1
p454
aV2
aV7.18
p455
aa(lp456
V2009/2010
p457
aVBarcelona
p458
aVUCL
p459
aV7(2)
p460
aV651
p461
aV4
aV1
aV2
aV-
aV2
aV87.3
p462
aV0.1
p463
aV-
aV7.21
p464
aa(lp465
VTotal / Average
p466
aV
aV
aV392
p467
aV23514
p468
aV101
p469
aV59
p470
aV38
p471
aV0
aV1.5
p472
aV86.6
p473
aV0.1
p474
aV10
p475
aV6.98
p476
aasS'defensive_data'
p477
(lp478
(lp479
a(lp480
V2018/2019
p481
aVChelsea
p482
aVEPL
p483
aV9(6)
p484
aV811
p485
aV6
aV1
aV1
aV-
aV1.8
p486
aV88.6
p487
aV0.1
p488
aV3
aV7.12
p489
aa(lp490
V2018/2019
p491
aVChelsea
p492
aVUEL
p493
aV5(1)
p494
aV389
p495
aV-
aV1
aV-
aV-
aV2.3
p496
aV85.7
p497
aV0.3
p498
aV-
aV7.15
p499
aa(lp500
V2017/2018
p501
aVChelsea
p502
aVUCL
p503
aV4(3)
p504
aV388
p505
aV1
aV2
aV-
aV-
aV1.1
p506
aV85.9
p507
aV-
aV-
aV6.97
p508
aa(lp509
V2017/2018
p510
aVChelsea
p511
aVEPL
p512
aV17(14)
p513
aV1524
p514
aV4
aV2
aV1
aV-
aV1.8
p515
aV83
p516
aV-
aV-
aV6.66
p517
aa(lp518
V2016/2017
p519
aVChelsea
p520
aVEPL
p521
aV26(9)
p522
aV2151
p523
aV9
aV9
aV6
aV-
aV1.7
p524
aV82.7
p525
aV0.2
p526
aV-
aV7.13
p527
aa(lp528
V2015/2016
p529
aVChelsea
p530
aVUCL
p531
aV3(3)
p532
aV294
p533
aV-
aV-
aV1
aV-
aV1.2
p534
aV79.5
p535
aV0.2
p536
aV-
aV6.30
p537
aa(lp538
V2015/2016
p539
aVChelsea
p540
aVEPL
p541
aV24(5)
p542
aV2044
p543
aV7
aV2
aV3
aV-
aV2
aV83.8
p544
aV0.3
p545
aV1
aV7.03
p546
aa(lp547
V2014/2015
p548
aVBarcelona
p549
aVSLL
p550
aV15(20)
p551
aV1531
p552
aV6
aV6
aV3
aV-
aV1.1
p553
aV86.9
p554
aV0.1
p555
aV-
aV6.76
p556
aa(lp557
V2014/2015
p558
aVBarcelona
p559
aVUCL
p560
aV4(5)
p561
aV398
p562
aV-
aV3
aV2
aV-
aV0.7
p563
aV89.3
p564
aV0.1
p565
aV-
aV6.48
p566
aa(lp567
V2016
p568
aVSpain
p569
aVUEC
p570
aV0(2)
p571
aV17
p572
aV-
aV-
aV-
aV-
aV0.5
p573
aV87.5
p574
aV-
aV-
aV6.03
p575
aa(lp576
V2013/2014
p577
aVBarcelona
p578
aVSLL
p579
aV28(9)
p580
aV2367
p581
aV15
p582
aV8
aV3
aV-
aV1.9
p583
aV84.5
p584
aV0.2
p585
aV2
aV7.13
p586
aa(lp587
V2013/2014
p588
aVBarcelona
p589
aVUCL
p590
aV3(4)
p591
aV305
p592
aV1
aV-
aV-
aV-
aV0.3
p593
aV88.1
p594
aV0.1
p595
aV-
aV6.63
p596
aa(lp597
V2014
p598
aVSpain
p599
aVWC
p600
aV1(1)
p601
aV103
p602
aV-
aV-
aV-
aV-
aV0.5
p603
aV84.1
p604
aV-
aV-
aV6.27
p605
aa(lp606
V2013
p607
aVSpain
p608
aVICC
p609
aV4
aV327
p610
aV1
aV1
aV-
aV-
aV2
aV86.4
p611
aV-
aV-
aV7.23
p612
aa(lp613
V2012/2013
p614
aVBarcelona
p615
aVSLL
p616
aV23(5)
p617
aV2078
p618
aV7
aV6
aV3
aV-
aV1.5
p619
aV90.1
p620
aV0.2
p621
aV1
aV7.16
p622
aa(lp623
V2012/2013
p624
aVBarcelona
p625
aVUCL
p626
aV10
p627
aV860
p628
aV1
aV1
aV3
aV-
aV1.6
p629
aV88.7
p630
aV0.1
p631
aV-
aV6.80
p632
aa(lp633
V2012
p634
aVSpain
p635
aVUEC
p636
aV0(3)
p637
aV90
p638
aV-
aV-
aV-
aV-
aV0.3
p639
aV86.5
p640
aV-
aV-
aV6.42
p641
aa(lp642
V2011/2012
p643
aVBarcelona
p644
aVSLL
p645
aV20(9)
p646
aV1640
p647
aV5
aV5
aV4
aV-
aV1.4
p648
aV88.2
p649
aV-
aV-
aV6.78
p650
aa(lp651
V2011/2012
p652
aVBarcelona
p653
aVUCL
p654
aV5(4)
p655
aV498
p656
aV4
aV-
aV1
aV-
aV1.9
p657
aV92.3
p658
aV-
aV-
aV6.90
p659
aa(lp660
V2010/2011
p661
aVBarcelona
p662
aVSLL
p663
aV24(9)
p664
aV2152
p665
aV13
p666
aV7
aV2
aV-
aV1.8
p667
aV89.7
p668
aV0.1
p669
aV1
aV7.32
p670
aa(lp671
V2010/2011
p672
aVBarcelona
p673
aVUCL
p674
aV8(4)
p675
aV772
p676
aV5
aV1
aV1
aV-
aV1.9
p677
aV90.8
p678
aV-
aV-
aV7.04
p679
aa(lp680
V2009/2010
p681
aVBarcelona
p682
aVSLL
p683
aV22(12)
p684
aV2124
p685
aV12
p686
aV3
aV2
aV-
aV1.1
p687
aV86.6
p688
aV0.1
p689
aV2
aV7.18
p690
aa(lp691
V2009/2010
p692
aVBarcelona
p693
aVUCL
p694
aV7(2)
p695
aV651
p696
aV4
aV1
aV2
aV-
aV2
aV87.3
p697
aV0.1
p698
aV-
aV7.21
p699
aa(lp700
VTotal / Average
p701
aV
aV
aV392
p702
aV23514
p703
aV101
p704
aV59
p705
aV38
p706
aV0
aV1.5
p707
aV86.6
p708
aV0.1
p709
aV10
p710
aV6.98
p711
aasS'sumary_data'
p712
(lp713
(lp714
a(lp715
V2018/2019
p716
aVChelsea
p717
aVEPL
p718
aV9(6)
p719
aV811
p720
aV6
aV1
aV1
aV-
aV1.8
p721
aV88.6
p722
aV0.1
p723
aV3
aV7.12
p724
aa(lp725
V2018/2019
p726
aVChelsea
p727
aVUEL
p728
aV5(1)
p729
aV389
p730
aV-
aV1
aV-
aV-
aV2.3
p731
aV85.7
p732
aV0.3
p733
aV-
aV7.15
p734
aa(lp735
V2017/2018
p736
aVChelsea
p737
aVUCL
p738
aV4(3)
p739
aV388
p740
aV1
aV2
aV-
aV-
aV1.1
p741
aV85.9
p742
aV-
aV-
aV6.97
p743
aa(lp744
V2017/2018
p745
aVChelsea
p746
aVEPL
p747
aV17(14)
p748
aV1524
p749
aV4
aV2
aV1
aV-
aV1.8
p750
aV83
p751
aV-
aV-
aV6.66
p752
aa(lp753
V2016/2017
p754
aVChelsea
p755
aVEPL
p756
aV26(9)
p757
aV2151
p758
aV9
aV9
aV6
aV-
aV1.7
p759
aV82.7
p760
aV0.2
p761
aV-
aV7.13
p762
aa(lp763
V2015/2016
p764
aVChelsea
p765
aVUCL
p766
aV3(3)
p767
aV294
p768
aV-
aV-
aV1
aV-
aV1.2
p769
aV79.5
p770
aV0.2
p771
aV-
aV6.30
p772
aa(lp773
V2015/2016
p774
aVChelsea
p775
aVEPL
p776
aV24(5)
p777
aV2044
p778
aV7
aV2
aV3
aV-
aV2
aV83.8
p779
aV0.3
p780
aV1
aV7.03
p781
aa(lp782
V2014/2015
p783
aVBarcelona
p784
aVSLL
p785
aV15(20)
p786
aV1531
p787
aV6
aV6
aV3
aV-
aV1.1
p788
aV86.9
p789
aV0.1
p790
aV-
aV6.76
p791
aa(lp792
V2014/2015
p793
aVBarcelona
p794
aVUCL
p795
aV4(5)
p796
aV398
p797
aV-
aV3
aV2
aV-
aV0.7
p798
aV89.3
p799
aV0.1
p800
aV-
aV6.48
p801
aa(lp802
V2016
p803
aVSpain
p804
aVUEC
p805
aV0(2)
p806
aV17
p807
aV-
aV-
aV-
aV-
aV0.5
p808
aV87.5
p809
aV-
aV-
aV6.03
p810
aa(lp811
V2013/2014
p812
aVBarcelona
p813
aVSLL
p814
aV28(9)
p815
aV2367
p816
aV15
p817
aV8
aV3
aV-
aV1.9
p818
aV84.5
p819
aV0.2
p820
aV2
aV7.13
p821
aa(lp822
V2013/2014
p823
aVBarcelona
p824
aVUCL
p825
aV3(4)
p826
aV305
p827
aV1
aV-
aV-
aV-
aV0.3
p828
aV88.1
p829
aV0.1
p830
aV-
aV6.63
p831
aa(lp832
V2014
p833
aVSpain
p834
aVWC
p835
aV1(1)
p836
aV103
p837
aV-
aV-
aV-
aV-
aV0.5
p838
aV84.1
p839
aV-
aV-
aV6.27
p840
aa(lp841
V2013
p842
aVSpain
p843
aVICC
p844
aV4
aV327
p845
aV1
aV1
aV-
aV-
aV2
aV86.4
p846
aV-
aV-
aV7.23
p847
aa(lp848
V2012/2013
p849
aVBarcelona
p850
aVSLL
p851
aV23(5)
p852
aV2078
p853
aV7
aV6
aV3
aV-
aV1.5
p854
aV90.1
p855
aV0.2
p856
aV1
aV7.16
p857
aa(lp858
V2012/2013
p859
aVBarcelona
p860
aVUCL
p861
aV10
p862
aV860
p863
aV1
aV1
aV3
aV-
aV1.6
p864
aV88.7
p865
aV0.1
p866
aV-
aV6.80
p867
aa(lp868
V2012
p869
aVSpain
p870
aVUEC
p871
aV0(3)
p872
aV90
p873
aV-
aV-
aV-
aV-
aV0.3
p874
aV86.5
p875
aV-
aV-
aV6.42
p876
aa(lp877
V2011/2012
p878
aVBarcelona
p879
aVSLL
p880
aV20(9)
p881
aV1640
p882
aV5
aV5
aV4
aV-
aV1.4
p883
aV88.2
p884
aV-
aV-
aV6.78
p885
aa(lp886
V2011/2012
p887
aVBarcelona
p888
aVUCL
p889
aV5(4)
p890
aV498
p891
aV4
aV-
aV1
aV-
aV1.9
p892
aV92.3
p893
aV-
aV-
aV6.90
p894
aa(lp895
V2010/2011
p896
aVBarcelona
p897
aVSLL
p898
aV24(9)
p899
aV2152
p900
aV13
p901
aV7
aV2
aV-
aV1.8
p902
aV89.7
p903
aV0.1
p904
aV1
aV7.32
p905
aa(lp906
V2010/2011
p907
aVBarcelona
p908
aVUCL
p909
aV8(4)
p910
aV772
p911
aV5
aV1
aV1
aV-
aV1.9
p912
aV90.8
p913
aV-
aV-
aV7.04
p914
aa(lp915
V2009/2010
p916
aVBarcelona
p917
aVSLL
p918
aV22(12)
p919
aV2124
p920
aV12
p921
aV3
aV2
aV-
aV1.1
p922
aV86.6
p923
aV0.1
p924
aV2
aV7.18
p925
aa(lp926
V2009/2010
p927
aVBarcelona
p928
aVUCL
p929
aV7(2)
p930
aV651
p931
aV4
aV1
aV2
aV-
aV2
aV87.3
p932
aV0.1
p933
aV-
aV7.21
p934
aa(lp935
VTotal / Average
p936
aV
aV
aV392
p937
aV23514
p938
aV101
p939
aV59
p940
aV38
p941
aV0
aV1.5
p942
aV86.6
p943
aV0.1
p944
aV10
p945
aV6.98
p946
aasS'id'
p947
V44055
p948
sb.