(i__main__
Player
p1
(dp2
S'name'
p3
VPierre-Emerick Aubameyang 
p4
sS'offensive_data'
p5
(lp6
(lp7
a(lp8
V2018/2019
p9
aVArsenal
p10
aVEPL
p11
aV15(2)
p12
aV1307
p13
aV10
p14
aV3
aV-
aV-
aV2.4
p15
aV75.8
p16
aV1.1
p17
aV1
aV7.15
p18
aa(lp19
V2018/2019
p20
aVArsenal
p21
aVUEL
p22
aV2(1)
p23
aV204
p24
aV2
aV-
aV-
aV-
aV4.3
p25
aV83.7
p26
aV-
aV1
aV7.37
p27
aa(lp28
V2017/2018
p29
aVBorussia Dort..
p30
aVGB
p31
aV16
p32
aV1417
p33
aV13
p34
aV3
aV-
aV1
aV3.6
p35
aV76.5
p36
aV1.6
p37
aV2
aV7.25
p38
aa(lp39
V2017/2018
p40
aVBorussia Dort..
p41
aVUCL
p42
aV6
aV540
p43
aV4
aV-
aV-
aV-
aV3.8
p44
aV76.3
p45
aV0.8
p46
aV-
aV6.70
p47
aa(lp48
V2017/2018
p49
aVArsenal
p50
aVEPL
p51
aV12(1)
p52
aV1058
p53
aV10
p54
aV4
aV-
aV-
aV2.4
p55
aV69.4
p56
aV0.6
p57
aV2
aV7.33
p58
aa(lp59
V2016/2017
p60
aVBorussia Dort..
p61
aVGB
p62
aV31(1)
p63
aV2782
p64
aV31
p65
aV2
aV3
aV-
aV3.6
p66
aV69.7
p67
aV1.3
p68
aV3
aV7.42
p69
aa(lp70
V2016/2017
p71
aVBorussia Dort..
p72
aVUCL
p73
aV8(1)
p74
aV708
p75
aV7
aV1
aV1
aV-
aV3.3
p76
aV80.9
p77
aV1.1
p78
aV1
aV7.28
p79
aa(lp80
V2015/2016
p81
aVBorussia Dort..
p82
aVGB
p83
aV28(3)
p84
aV2475
p85
aV25
p86
aV5
aV4
aV-
aV3.8
p87
aV68.7
p88
aV0.9
p89
aV2
aV7.31
p90
aa(lp91
V2015/2016
p92
aVBorussia Dort..
p93
aVUEL
p94
aV9(1)
p95
aV773
p96
aV8
aV-
aV-
aV-
aV3.2
p97
aV69.6
p98
aV0.7
p99
aV2
aV7.31
p100
aa(lp101
V2015
p102
aVGabon
p103
aVACoN
p104
aV3
aV270
p105
aV1
aV-
aV-
aV-
aV3
aV74.4
p106
aV0.3
p107
aV-
aV6.91
p108
aa(lp109
V2014/2015
p110
aVBorussia Dort..
p111
aVGB
p112
aV31(2)
p113
aV2723
p114
aV16
p115
aV6
aV4
aV-
aV3.1
p116
aV66.7
p117
aV1.6
p118
aV-
aV7.07
p119
aa(lp120
V2014/2015
p121
aVBorussia Dort..
p122
aVUCL
p123
aV7(1)
p124
aV617
p125
aV3
aV2
aV-
aV-
aV2.6
p126
aV74.6
p127
aV1
aV1
aV7.24
p128
aa(lp129
V2013/2014
p130
aVBorussia Dort..
p131
aVUCL
p132
aV3(6)
p133
aV387
p134
aV1
aV-
aV1
aV-
aV1.4
p135
aV72.1
p136
aV0.7
p137
aV-
aV6.36
p138
aa(lp139
V2013/2014
p140
aVBorussia Dort..
p141
aVGB
p142
aV21(11)
p143
aV1974
p144
aV13
p145
aV4
aV1
aV-
aV2
aV68.2
p146
aV1.1
p147
aV1
aV7.05
p148
aa(lp149
V2012/2013
p150
aVSaint-Etienne
p151
aVFL1
p152
aV36(1)
p153
aV3214
p154
aV19
p155
aV9
aV2
aV-
aV3.7
p156
aV73.8
p157
aV0.5
p158
aV5
aV7.12
p159
aa(lp160
V2011/2012
p161
aVSaint-Etienne
p162
aVFL1
p163
aV36
p164
aV3156
p165
aV16
p166
aV7
aV2
aV-
aV3.4
p167
aV68.6
p168
aV0.9
p169
aV4
aV7.07
p170
aa(lp171
V2010/2011
p172
aVSaint-Etienne
p173
aVFL1
p174
aV8(6)
p175
aV778
p176
aV2
aV-
aV-
aV-
aV1.8
p177
aV61.7
p178
aV0.9
p179
aV1
aV6.58
p180
aa(lp181
V2010/2011
p182
aVMonaco
p183
aVFL1
p184
aV17(2)
p185
aV1444
p186
aV2
aV2
aV1
aV-
aV2.1
p187
aV63.5
p188
aV0.5
p189
aV-
aV6.72
p190
aa(lp191
V2009/2010
p192
aVLille
p193
aVFL1
p194
aV4(10)
p195
aV495
p196
aV2
aV-
aV-
aV-
aV1.1
p197
aV77.4
p198
aV0.1
p199
aV-
aV6.44
p200
aa(lp201
VTotal / Average
p202
aV
aV
aV342
p203
aV26322
p204
aV185
p205
aV48
p206
aV19
p207
aV1
aV3
aV70.5
p208
aV0.9
p209
aV26
p210
aV7.08
p211
aasS'url'
p212
S'https://www.whoscored.com/Players/44120/History/'
p213
sS'passing_data'
p214
(lp215
(lp216
a(lp217
V2018/2019
p218
aVArsenal
p219
aVEPL
p220
aV15(2)
p221
aV1307
p222
aV10
p223
aV3
aV-
aV-
aV2.4
p224
aV75.8
p225
aV1.1
p226
aV1
aV7.15
p227
aa(lp228
V2018/2019
p229
aVArsenal
p230
aVUEL
p231
aV2(1)
p232
aV204
p233
aV2
aV-
aV-
aV-
aV4.3
p234
aV83.7
p235
aV-
aV1
aV7.37
p236
aa(lp237
V2017/2018
p238
aVBorussia Dort..
p239
aVGB
p240
aV16
p241
aV1417
p242
aV13
p243
aV3
aV-
aV1
aV3.6
p244
aV76.5
p245
aV1.6
p246
aV2
aV7.25
p247
aa(lp248
V2017/2018
p249
aVBorussia Dort..
p250
aVUCL
p251
aV6
aV540
p252
aV4
aV-
aV-
aV-
aV3.8
p253
aV76.3
p254
aV0.8
p255
aV-
aV6.70
p256
aa(lp257
V2017/2018
p258
aVArsenal
p259
aVEPL
p260
aV12(1)
p261
aV1058
p262
aV10
p263
aV4
aV-
aV-
aV2.4
p264
aV69.4
p265
aV0.6
p266
aV2
aV7.33
p267
aa(lp268
V2016/2017
p269
aVBorussia Dort..
p270
aVGB
p271
aV31(1)
p272
aV2782
p273
aV31
p274
aV2
aV3
aV-
aV3.6
p275
aV69.7
p276
aV1.3
p277
aV3
aV7.42
p278
aa(lp279
V2016/2017
p280
aVBorussia Dort..
p281
aVUCL
p282
aV8(1)
p283
aV708
p284
aV7
aV1
aV1
aV-
aV3.3
p285
aV80.9
p286
aV1.1
p287
aV1
aV7.28
p288
aa(lp289
V2015/2016
p290
aVBorussia Dort..
p291
aVGB
p292
aV28(3)
p293
aV2475
p294
aV25
p295
aV5
aV4
aV-
aV3.8
p296
aV68.7
p297
aV0.9
p298
aV2
aV7.31
p299
aa(lp300
V2015/2016
p301
aVBorussia Dort..
p302
aVUEL
p303
aV9(1)
p304
aV773
p305
aV8
aV-
aV-
aV-
aV3.2
p306
aV69.6
p307
aV0.7
p308
aV2
aV7.31
p309
aa(lp310
V2015
p311
aVGabon
p312
aVACoN
p313
aV3
aV270
p314
aV1
aV-
aV-
aV-
aV3
aV74.4
p315
aV0.3
p316
aV-
aV6.91
p317
aa(lp318
V2014/2015
p319
aVBorussia Dort..
p320
aVGB
p321
aV31(2)
p322
aV2723
p323
aV16
p324
aV6
aV4
aV-
aV3.1
p325
aV66.7
p326
aV1.6
p327
aV-
aV7.07
p328
aa(lp329
V2014/2015
p330
aVBorussia Dort..
p331
aVUCL
p332
aV7(1)
p333
aV617
p334
aV3
aV2
aV-
aV-
aV2.6
p335
aV74.6
p336
aV1
aV1
aV7.24
p337
aa(lp338
V2013/2014
p339
aVBorussia Dort..
p340
aVUCL
p341
aV3(6)
p342
aV387
p343
aV1
aV-
aV1
aV-
aV1.4
p344
aV72.1
p345
aV0.7
p346
aV-
aV6.36
p347
aa(lp348
V2013/2014
p349
aVBorussia Dort..
p350
aVGB
p351
aV21(11)
p352
aV1974
p353
aV13
p354
aV4
aV1
aV-
aV2
aV68.2
p355
aV1.1
p356
aV1
aV7.05
p357
aa(lp358
V2012/2013
p359
aVSaint-Etienne
p360
aVFL1
p361
aV36(1)
p362
aV3214
p363
aV19
p364
aV9
aV2
aV-
aV3.7
p365
aV73.8
p366
aV0.5
p367
aV5
aV7.12
p368
aa(lp369
V2011/2012
p370
aVSaint-Etienne
p371
aVFL1
p372
aV36
p373
aV3156
p374
aV16
p375
aV7
aV2
aV-
aV3.4
p376
aV68.6
p377
aV0.9
p378
aV4
aV7.07
p379
aa(lp380
V2010/2011
p381
aVSaint-Etienne
p382
aVFL1
p383
aV8(6)
p384
aV778
p385
aV2
aV-
aV-
aV-
aV1.8
p386
aV61.7
p387
aV0.9
p388
aV1
aV6.58
p389
aa(lp390
V2010/2011
p391
aVMonaco
p392
aVFL1
p393
aV17(2)
p394
aV1444
p395
aV2
aV2
aV1
aV-
aV2.1
p396
aV63.5
p397
aV0.5
p398
aV-
aV6.72
p399
aa(lp400
V2009/2010
p401
aVLille
p402
aVFL1
p403
aV4(10)
p404
aV495
p405
aV2
aV-
aV-
aV-
aV1.1
p406
aV77.4
p407
aV0.1
p408
aV-
aV6.44
p409
aa(lp410
VTotal / Average
p411
aV
aV
aV342
p412
aV26322
p413
aV185
p414
aV48
p415
aV19
p416
aV1
aV3
aV70.5
p417
aV0.9
p418
aV26
p419
aV7.08
p420
aasS'defensive_data'
p421
(lp422
(lp423
a(lp424
V2018/2019
p425
aVArsenal
p426
aVEPL
p427
aV15(2)
p428
aV1307
p429
aV10
p430
aV3
aV-
aV-
aV2.4
p431
aV75.8
p432
aV1.1
p433
aV1
aV7.15
p434
aa(lp435
V2018/2019
p436
aVArsenal
p437
aVUEL
p438
aV2(1)
p439
aV204
p440
aV2
aV-
aV-
aV-
aV4.3
p441
aV83.7
p442
aV-
aV1
aV7.37
p443
aa(lp444
V2017/2018
p445
aVBorussia Dort..
p446
aVGB
p447
aV16
p448
aV1417
p449
aV13
p450
aV3
aV-
aV1
aV3.6
p451
aV76.5
p452
aV1.6
p453
aV2
aV7.25
p454
aa(lp455
V2017/2018
p456
aVBorussia Dort..
p457
aVUCL
p458
aV6
aV540
p459
aV4
aV-
aV-
aV-
aV3.8
p460
aV76.3
p461
aV0.8
p462
aV-
aV6.70
p463
aa(lp464
V2017/2018
p465
aVArsenal
p466
aVEPL
p467
aV12(1)
p468
aV1058
p469
aV10
p470
aV4
aV-
aV-
aV2.4
p471
aV69.4
p472
aV0.6
p473
aV2
aV7.33
p474
aa(lp475
V2016/2017
p476
aVBorussia Dort..
p477
aVGB
p478
aV31(1)
p479
aV2782
p480
aV31
p481
aV2
aV3
aV-
aV3.6
p482
aV69.7
p483
aV1.3
p484
aV3
aV7.42
p485
aa(lp486
V2016/2017
p487
aVBorussia Dort..
p488
aVUCL
p489
aV8(1)
p490
aV708
p491
aV7
aV1
aV1
aV-
aV3.3
p492
aV80.9
p493
aV1.1
p494
aV1
aV7.28
p495
aa(lp496
V2015/2016
p497
aVBorussia Dort..
p498
aVGB
p499
aV28(3)
p500
aV2475
p501
aV25
p502
aV5
aV4
aV-
aV3.8
p503
aV68.7
p504
aV0.9
p505
aV2
aV7.31
p506
aa(lp507
V2015/2016
p508
aVBorussia Dort..
p509
aVUEL
p510
aV9(1)
p511
aV773
p512
aV8
aV-
aV-
aV-
aV3.2
p513
aV69.6
p514
aV0.7
p515
aV2
aV7.31
p516
aa(lp517
V2015
p518
aVGabon
p519
aVACoN
p520
aV3
aV270
p521
aV1
aV-
aV-
aV-
aV3
aV74.4
p522
aV0.3
p523
aV-
aV6.91
p524
aa(lp525
V2014/2015
p526
aVBorussia Dort..
p527
aVGB
p528
aV31(2)
p529
aV2723
p530
aV16
p531
aV6
aV4
aV-
aV3.1
p532
aV66.7
p533
aV1.6
p534
aV-
aV7.07
p535
aa(lp536
V2014/2015
p537
aVBorussia Dort..
p538
aVUCL
p539
aV7(1)
p540
aV617
p541
aV3
aV2
aV-
aV-
aV2.6
p542
aV74.6
p543
aV1
aV1
aV7.24
p544
aa(lp545
V2013/2014
p546
aVBorussia Dort..
p547
aVUCL
p548
aV3(6)
p549
aV387
p550
aV1
aV-
aV1
aV-
aV1.4
p551
aV72.1
p552
aV0.7
p553
aV-
aV6.36
p554
aa(lp555
V2013/2014
p556
aVBorussia Dort..
p557
aVGB
p558
aV21(11)
p559
aV1974
p560
aV13
p561
aV4
aV1
aV-
aV2
aV68.2
p562
aV1.1
p563
aV1
aV7.05
p564
aa(lp565
V2012/2013
p566
aVSaint-Etienne
p567
aVFL1
p568
aV36(1)
p569
aV3214
p570
aV19
p571
aV9
aV2
aV-
aV3.7
p572
aV73.8
p573
aV0.5
p574
aV5
aV7.12
p575
aa(lp576
V2011/2012
p577
aVSaint-Etienne
p578
aVFL1
p579
aV36
p580
aV3156
p581
aV16
p582
aV7
aV2
aV-
aV3.4
p583
aV68.6
p584
aV0.9
p585
aV4
aV7.07
p586
aa(lp587
V2010/2011
p588
aVSaint-Etienne
p589
aVFL1
p590
aV8(6)
p591
aV778
p592
aV2
aV-
aV-
aV-
aV1.8
p593
aV61.7
p594
aV0.9
p595
aV1
aV6.58
p596
aa(lp597
V2010/2011
p598
aVMonaco
p599
aVFL1
p600
aV17(2)
p601
aV1444
p602
aV2
aV2
aV1
aV-
aV2.1
p603
aV63.5
p604
aV0.5
p605
aV-
aV6.72
p606
aa(lp607
V2009/2010
p608
aVLille
p609
aVFL1
p610
aV4(10)
p611
aV495
p612
aV2
aV-
aV-
aV-
aV1.1
p613
aV77.4
p614
aV0.1
p615
aV-
aV6.44
p616
aa(lp617
VTotal / Average
p618
aV
aV
aV342
p619
aV26322
p620
aV185
p621
aV48
p622
aV19
p623
aV1
aV3
aV70.5
p624
aV0.9
p625
aV26
p626
aV7.08
p627
aasS'sumary_data'
p628
(lp629
(lp630
a(lp631
V2018/2019
p632
aVArsenal
p633
aVEPL
p634
aV15(2)
p635
aV1307
p636
aV10
p637
aV3
aV-
aV-
aV2.4
p638
aV75.8
p639
aV1.1
p640
aV1
aV7.15
p641
aa(lp642
V2018/2019
p643
aVArsenal
p644
aVUEL
p645
aV2(1)
p646
aV204
p647
aV2
aV-
aV-
aV-
aV4.3
p648
aV83.7
p649
aV-
aV1
aV7.37
p650
aa(lp651
V2017/2018
p652
aVBorussia Dort..
p653
aVGB
p654
aV16
p655
aV1417
p656
aV13
p657
aV3
aV-
aV1
aV3.6
p658
aV76.5
p659
aV1.6
p660
aV2
aV7.25
p661
aa(lp662
V2017/2018
p663
aVBorussia Dort..
p664
aVUCL
p665
aV6
aV540
p666
aV4
aV-
aV-
aV-
aV3.8
p667
aV76.3
p668
aV0.8
p669
aV-
aV6.70
p670
aa(lp671
V2017/2018
p672
aVArsenal
p673
aVEPL
p674
aV12(1)
p675
aV1058
p676
aV10
p677
aV4
aV-
aV-
aV2.4
p678
aV69.4
p679
aV0.6
p680
aV2
aV7.33
p681
aa(lp682
V2016/2017
p683
aVBorussia Dort..
p684
aVGB
p685
aV31(1)
p686
aV2782
p687
aV31
p688
aV2
aV3
aV-
aV3.6
p689
aV69.7
p690
aV1.3
p691
aV3
aV7.42
p692
aa(lp693
V2016/2017
p694
aVBorussia Dort..
p695
aVUCL
p696
aV8(1)
p697
aV708
p698
aV7
aV1
aV1
aV-
aV3.3
p699
aV80.9
p700
aV1.1
p701
aV1
aV7.28
p702
aa(lp703
V2015/2016
p704
aVBorussia Dort..
p705
aVGB
p706
aV28(3)
p707
aV2475
p708
aV25
p709
aV5
aV4
aV-
aV3.8
p710
aV68.7
p711
aV0.9
p712
aV2
aV7.31
p713
aa(lp714
V2015/2016
p715
aVBorussia Dort..
p716
aVUEL
p717
aV9(1)
p718
aV773
p719
aV8
aV-
aV-
aV-
aV3.2
p720
aV69.6
p721
aV0.7
p722
aV2
aV7.31
p723
aa(lp724
V2015
p725
aVGabon
p726
aVACoN
p727
aV3
aV270
p728
aV1
aV-
aV-
aV-
aV3
aV74.4
p729
aV0.3
p730
aV-
aV6.91
p731
aa(lp732
V2014/2015
p733
aVBorussia Dort..
p734
aVGB
p735
aV31(2)
p736
aV2723
p737
aV16
p738
aV6
aV4
aV-
aV3.1
p739
aV66.7
p740
aV1.6
p741
aV-
aV7.07
p742
aa(lp743
V2014/2015
p744
aVBorussia Dort..
p745
aVUCL
p746
aV7(1)
p747
aV617
p748
aV3
aV2
aV-
aV-
aV2.6
p749
aV74.6
p750
aV1
aV1
aV7.24
p751
aa(lp752
V2013/2014
p753
aVBorussia Dort..
p754
aVUCL
p755
aV3(6)
p756
aV387
p757
aV1
aV-
aV1
aV-
aV1.4
p758
aV72.1
p759
aV0.7
p760
aV-
aV6.36
p761
aa(lp762
V2013/2014
p763
aVBorussia Dort..
p764
aVGB
p765
aV21(11)
p766
aV1974
p767
aV13
p768
aV4
aV1
aV-
aV2
aV68.2
p769
aV1.1
p770
aV1
aV7.05
p771
aa(lp772
V2012/2013
p773
aVSaint-Etienne
p774
aVFL1
p775
aV36(1)
p776
aV3214
p777
aV19
p778
aV9
aV2
aV-
aV3.7
p779
aV73.8
p780
aV0.5
p781
aV5
aV7.12
p782
aa(lp783
V2011/2012
p784
aVSaint-Etienne
p785
aVFL1
p786
aV36
p787
aV3156
p788
aV16
p789
aV7
aV2
aV-
aV3.4
p790
aV68.6
p791
aV0.9
p792
aV4
aV7.07
p793
aa(lp794
V2010/2011
p795
aVSaint-Etienne
p796
aVFL1
p797
aV8(6)
p798
aV778
p799
aV2
aV-
aV-
aV-
aV1.8
p800
aV61.7
p801
aV0.9
p802
aV1
aV6.58
p803
aa(lp804
V2010/2011
p805
aVMonaco
p806
aVFL1
p807
aV17(2)
p808
aV1444
p809
aV2
aV2
aV1
aV-
aV2.1
p810
aV63.5
p811
aV0.5
p812
aV-
aV6.72
p813
aa(lp814
V2009/2010
p815
aVLille
p816
aVFL1
p817
aV4(10)
p818
aV495
p819
aV2
aV-
aV-
aV-
aV1.1
p820
aV77.4
p821
aV0.1
p822
aV-
aV6.44
p823
aa(lp824
VTotal / Average
p825
aV
aV
aV342
p826
aV26322
p827
aV185
p828
aV48
p829
aV19
p830
aV1
aV3
aV70.5
p831
aV0.9
p832
aV26
p833
aV7.08
p834
aasS'id'
p835
V44120
p836
sb.