(i__main__
Player
p1
(dp2
S'name'
p3
VMartin Kelly 
p4
sS'offensive_data'
p5
(lp6
(lp7
a(lp8
V2018/2019
p9
aVCrystal Palac..
p10
aVEPL
p11
aV3(1)
p12
aV301
p13
aV-
aV-
aV-
aV-
aV-
aV69.3
p14
aV3.3
p15
aV-
aV6.84
p16
aa(lp17
V2017/2018
p18
aVCrystal Palac..
p19
aVEPL
p20
aV12(3)
p21
aV1196
p22
aV-
aV-
aV1
aV-
aV0.3
p23
aV74.1
p24
aV1.8
p25
aV-
aV6.43
p26
aa(lp27
V2016/2017
p28
aVCrystal Palac..
p29
aVEPL
p30
aV25(4)
p31
aV2131
p32
aV-
aV2
aV4
aV-
aV0.1
p33
aV69.6
p34
aV1.9
p35
aV-
aV6.49
p36
aa(lp37
V2015/2016
p38
aVCrystal Palac..
p39
aVEPL
p40
aV11(2)
p41
aV1043
p42
aV-
aV-
aV3
aV-
aV0.1
p43
aV70.7
p44
aV0.8
p45
aV-
aV6.56
p46
aa(lp47
V2014/2015
p48
aVCrystal Palac..
p49
aVEPL
p50
aV27(4)
p51
aV2499
p52
aV-
aV1
aV2
aV-
aV0.3
p53
aV68.1
p54
aV1.5
p55
aV1
aV6.89
p56
aa(lp57
V2013/2014
p58
aVLiverpool
p59
aVEPL
p60
aV0(5)
p61
aV107
p62
aV-
aV-
aV-
aV-
aV-
aV80.4
p63
aV0.2
p64
aV-
aV6.23
p65
aa(lp66
V2012/2013
p67
aVLiverpool
p68
aVEPL
p69
aV4
aV336
p70
aV-
aV-
aV-
aV-
aV0.5
p71
aV85.7
p72
aV2
aV-
aV6.47
p73
aa(lp74
V2011/2012
p75
aVLiverpool
p76
aVEPL
p77
aV12
p78
aV964
p79
aV-
aV-
aV1
aV-
aV0.7
p80
aV79.5
p81
aV0.7
p82
aV-
aV6.89
p83
aa(lp84
V2010/2011
p85
aVLiverpool
p86
aVEPL
p87
aV10(1)
p88
aV859
p89
aV-
aV1
aV1
aV-
aV0.2
p90
aV68.2
p91
aV1.4
p92
aV-
aV7.04
p93
aa(lp94
V2009/2010
p95
aVLiverpool
p96
aVUCL
p97
aV1
aV75
p98
aV-
aV-
aV-
aV-
aV1
aV81.5
p99
aV1
aV-
aV7.61
p100
aa(lp101
V2009/2010
p102
aVLiverpool
p103
aVEPL
p104
aV0(1)
p105
aV19
p106
aV-
aV-
aV-
aV-
aV1
aV91.7
p107
aV-
aV-
aV6.56
p108
aa(lp109
VTotal / Average
p110
aV
aV
aV126
p111
aV9530
p112
aV0
aV4
aV12
p113
aV0
aV0.3
p114
aV71.9
p115
aV1.5
p116
aV1
aV6.69
p117
aasS'url'
p118
S'https://www.whoscored.com/Players/44687/History/'
p119
sS'passing_data'
p120
(lp121
(lp122
a(lp123
V2018/2019
p124
aVCrystal Palac..
p125
aVEPL
p126
aV3(1)
p127
aV301
p128
aV-
aV-
aV-
aV-
aV-
aV69.3
p129
aV3.3
p130
aV-
aV6.84
p131
aa(lp132
V2017/2018
p133
aVCrystal Palac..
p134
aVEPL
p135
aV12(3)
p136
aV1196
p137
aV-
aV-
aV1
aV-
aV0.3
p138
aV74.1
p139
aV1.8
p140
aV-
aV6.43
p141
aa(lp142
V2016/2017
p143
aVCrystal Palac..
p144
aVEPL
p145
aV25(4)
p146
aV2131
p147
aV-
aV2
aV4
aV-
aV0.1
p148
aV69.6
p149
aV1.9
p150
aV-
aV6.49
p151
aa(lp152
V2015/2016
p153
aVCrystal Palac..
p154
aVEPL
p155
aV11(2)
p156
aV1043
p157
aV-
aV-
aV3
aV-
aV0.1
p158
aV70.7
p159
aV0.8
p160
aV-
aV6.56
p161
aa(lp162
V2014/2015
p163
aVCrystal Palac..
p164
aVEPL
p165
aV27(4)
p166
aV2499
p167
aV-
aV1
aV2
aV-
aV0.3
p168
aV68.1
p169
aV1.5
p170
aV1
aV6.89
p171
aa(lp172
V2013/2014
p173
aVLiverpool
p174
aVEPL
p175
aV0(5)
p176
aV107
p177
aV-
aV-
aV-
aV-
aV-
aV80.4
p178
aV0.2
p179
aV-
aV6.23
p180
aa(lp181
V2012/2013
p182
aVLiverpool
p183
aVEPL
p184
aV4
aV336
p185
aV-
aV-
aV-
aV-
aV0.5
p186
aV85.7
p187
aV2
aV-
aV6.47
p188
aa(lp189
V2011/2012
p190
aVLiverpool
p191
aVEPL
p192
aV12
p193
aV964
p194
aV-
aV-
aV1
aV-
aV0.7
p195
aV79.5
p196
aV0.7
p197
aV-
aV6.89
p198
aa(lp199
V2010/2011
p200
aVLiverpool
p201
aVEPL
p202
aV10(1)
p203
aV859
p204
aV-
aV1
aV1
aV-
aV0.2
p205
aV68.2
p206
aV1.4
p207
aV-
aV7.04
p208
aa(lp209
V2009/2010
p210
aVLiverpool
p211
aVUCL
p212
aV1
aV75
p213
aV-
aV-
aV-
aV-
aV1
aV81.5
p214
aV1
aV-
aV7.61
p215
aa(lp216
V2009/2010
p217
aVLiverpool
p218
aVEPL
p219
aV0(1)
p220
aV19
p221
aV-
aV-
aV-
aV-
aV1
aV91.7
p222
aV-
aV-
aV6.56
p223
aa(lp224
VTotal / Average
p225
aV
aV
aV126
p226
aV9530
p227
aV0
aV4
aV12
p228
aV0
aV0.3
p229
aV71.9
p230
aV1.5
p231
aV1
aV6.69
p232
aasS'defensive_data'
p233
(lp234
(lp235
a(lp236
V2018/2019
p237
aVCrystal Palac..
p238
aVEPL
p239
aV3(1)
p240
aV301
p241
aV-
aV-
aV-
aV-
aV-
aV69.3
p242
aV3.3
p243
aV-
aV6.84
p244
aa(lp245
V2017/2018
p246
aVCrystal Palac..
p247
aVEPL
p248
aV12(3)
p249
aV1196
p250
aV-
aV-
aV1
aV-
aV0.3
p251
aV74.1
p252
aV1.8
p253
aV-
aV6.43
p254
aa(lp255
V2016/2017
p256
aVCrystal Palac..
p257
aVEPL
p258
aV25(4)
p259
aV2131
p260
aV-
aV2
aV4
aV-
aV0.1
p261
aV69.6
p262
aV1.9
p263
aV-
aV6.49
p264
aa(lp265
V2015/2016
p266
aVCrystal Palac..
p267
aVEPL
p268
aV11(2)
p269
aV1043
p270
aV-
aV-
aV3
aV-
aV0.1
p271
aV70.7
p272
aV0.8
p273
aV-
aV6.56
p274
aa(lp275
V2014/2015
p276
aVCrystal Palac..
p277
aVEPL
p278
aV27(4)
p279
aV2499
p280
aV-
aV1
aV2
aV-
aV0.3
p281
aV68.1
p282
aV1.5
p283
aV1
aV6.89
p284
aa(lp285
V2013/2014
p286
aVLiverpool
p287
aVEPL
p288
aV0(5)
p289
aV107
p290
aV-
aV-
aV-
aV-
aV-
aV80.4
p291
aV0.2
p292
aV-
aV6.23
p293
aa(lp294
V2012/2013
p295
aVLiverpool
p296
aVEPL
p297
aV4
aV336
p298
aV-
aV-
aV-
aV-
aV0.5
p299
aV85.7
p300
aV2
aV-
aV6.47
p301
aa(lp302
V2011/2012
p303
aVLiverpool
p304
aVEPL
p305
aV12
p306
aV964
p307
aV-
aV-
aV1
aV-
aV0.7
p308
aV79.5
p309
aV0.7
p310
aV-
aV6.89
p311
aa(lp312
V2010/2011
p313
aVLiverpool
p314
aVEPL
p315
aV10(1)
p316
aV859
p317
aV-
aV1
aV1
aV-
aV0.2
p318
aV68.2
p319
aV1.4
p320
aV-
aV7.04
p321
aa(lp322
V2009/2010
p323
aVLiverpool
p324
aVUCL
p325
aV1
aV75
p326
aV-
aV-
aV-
aV-
aV1
aV81.5
p327
aV1
aV-
aV7.61
p328
aa(lp329
V2009/2010
p330
aVLiverpool
p331
aVEPL
p332
aV0(1)
p333
aV19
p334
aV-
aV-
aV-
aV-
aV1
aV91.7
p335
aV-
aV-
aV6.56
p336
aa(lp337
VTotal / Average
p338
aV
aV
aV126
p339
aV9530
p340
aV0
aV4
aV12
p341
aV0
aV0.3
p342
aV71.9
p343
aV1.5
p344
aV1
aV6.69
p345
aasS'sumary_data'
p346
(lp347
(lp348
a(lp349
V2018/2019
p350
aVCrystal Palac..
p351
aVEPL
p352
aV3(1)
p353
aV301
p354
aV-
aV-
aV-
aV-
aV-
aV69.3
p355
aV3.3
p356
aV-
aV6.84
p357
aa(lp358
V2017/2018
p359
aVCrystal Palac..
p360
aVEPL
p361
aV12(3)
p362
aV1196
p363
aV-
aV-
aV1
aV-
aV0.3
p364
aV74.1
p365
aV1.8
p366
aV-
aV6.43
p367
aa(lp368
V2016/2017
p369
aVCrystal Palac..
p370
aVEPL
p371
aV25(4)
p372
aV2131
p373
aV-
aV2
aV4
aV-
aV0.1
p374
aV69.6
p375
aV1.9
p376
aV-
aV6.49
p377
aa(lp378
V2015/2016
p379
aVCrystal Palac..
p380
aVEPL
p381
aV11(2)
p382
aV1043
p383
aV-
aV-
aV3
aV-
aV0.1
p384
aV70.7
p385
aV0.8
p386
aV-
aV6.56
p387
aa(lp388
V2014/2015
p389
aVCrystal Palac..
p390
aVEPL
p391
aV27(4)
p392
aV2499
p393
aV-
aV1
aV2
aV-
aV0.3
p394
aV68.1
p395
aV1.5
p396
aV1
aV6.89
p397
aa(lp398
V2013/2014
p399
aVLiverpool
p400
aVEPL
p401
aV0(5)
p402
aV107
p403
aV-
aV-
aV-
aV-
aV-
aV80.4
p404
aV0.2
p405
aV-
aV6.23
p406
aa(lp407
V2012/2013
p408
aVLiverpool
p409
aVEPL
p410
aV4
aV336
p411
aV-
aV-
aV-
aV-
aV0.5
p412
aV85.7
p413
aV2
aV-
aV6.47
p414
aa(lp415
V2011/2012
p416
aVLiverpool
p417
aVEPL
p418
aV12
p419
aV964
p420
aV-
aV-
aV1
aV-
aV0.7
p421
aV79.5
p422
aV0.7
p423
aV-
aV6.89
p424
aa(lp425
V2010/2011
p426
aVLiverpool
p427
aVEPL
p428
aV10(1)
p429
aV859
p430
aV-
aV1
aV1
aV-
aV0.2
p431
aV68.2
p432
aV1.4
p433
aV-
aV7.04
p434
aa(lp435
V2009/2010
p436
aVLiverpool
p437
aVUCL
p438
aV1
aV75
p439
aV-
aV-
aV-
aV-
aV1
aV81.5
p440
aV1
aV-
aV7.61
p441
aa(lp442
V2009/2010
p443
aVLiverpool
p444
aVEPL
p445
aV0(1)
p446
aV19
p447
aV-
aV-
aV-
aV-
aV1
aV91.7
p448
aV-
aV-
aV6.56
p449
aa(lp450
VTotal / Average
p451
aV
aV
aV126
p452
aV9530
p453
aV0
aV4
aV12
p454
aV0
aV0.3
p455
aV71.9
p456
aV1.5
p457
aV1
aV6.69
p458
aasS'id'
p459
V44687
p460
sb.