(i__main__
Player
p1
(dp2
S'name'
p3
VJames Milner 
p4
sS'offensive_data'
p5
(lp6
(lp7
a(lp8
V2018/2019
p9
aVLiverpool
p10
aVEPL
p11
aV11(4)
p12
aV978
p13
aV3
aV2
aV2
aV-
aV0.7
p14
aV84.6
p15
aV0.9
p16
aV1
aV7.08
p17
aa(lp18
V2018/2019
p19
aVLiverpool
p20
aVUCL
p21
aV5
aV418
p22
aV2
aV1
aV1
aV-
aV1.2
p23
aV83
p24
aV1.4
p25
aV-
aV7.20
p26
aa(lp27
V2017/2018
p28
aVLiverpool
p29
aVUCL
p30
aV9(2)
p31
aV875
p32
aV-
aV8
aV1
aV-
aV0.7
p33
aV84.5
p34
aV1.1
p35
aV-
aV7.35
p36
aa(lp37
V2017/2018
p38
aVLiverpool
p39
aVEPL
p40
aV16(16)
p41
aV1764
p42
aV-
aV3
aV3
aV-
aV0.7
p43
aV86.4
p44
aV0.7
p45
aV1
aV6.78
p46
aa(lp47
V2016/2017
p48
aVLiverpool
p49
aVEPL
p50
aV36
p51
aV3160
p52
aV7
aV3
aV5
aV-
aV1
aV79.7
p53
aV1.6
p54
aV2
aV7.26
p55
aa(lp56
V2015/2016
p57
aVLiverpool
p58
aVUEL
p59
aV12
p60
aV1013
p61
aV2
aV3
aV-
aV-
aV1.1
p62
aV81.9
p63
aV1.6
p64
aV2
aV7.41
p65
aa(lp66
V2015/2016
p67
aVLiverpool
p68
aVEPL
p69
aV28
p70
aV2416
p71
aV5
aV11
p72
aV9
aV1
aV1.4
p73
aV77.4
p74
aV1.1
p75
aV4
aV7.21
p76
aa(lp77
V2014/2015
p78
aVManchester Ci..
p79
aVUCL
p80
aV6(2)
p81
aV590
p82
aV1
aV-
aV-
aV-
aV1.5
p83
aV78.9
p84
aV0.8
p85
aV-
aV6.60
p86
aa(lp87
V2014/2015
p88
aVManchester Ci..
p89
aVEPL
p90
aV18(14)
p91
aV1744
p92
aV5
aV7
aV6
aV-
aV1.2
p93
aV79.5
p94
aV1.2
p95
aV2
aV7.02
p96
aa(lp97
V2016
p98
aVEngland
p99
aVUEC
p100
aV0(1)
p101
aV3
aV-
aV-
aV-
aV-
aV-
aV100
p102
aV-
aV-
aV5.91
p103
aa(lp104
V2013/2014
p105
aVManchester Ci..
p106
aVUCL
p107
aV3(3)
p108
aV358
p109
aV1
aV3
aV3
aV-
aV1
aV79.9
p110
aV0.8
p111
aV1
aV7.03
p112
aa(lp113
V2013/2014
p114
aVManchester Ci..
p115
aVEPL
p116
aV12(19)
p117
aV1359
p118
aV1
aV4
aV3
aV-
aV0.8
p119
aV84
p120
aV0.5
p121
aV-
aV6.59
p122
aa(lp123
V2014
p124
aVEngland
p125
aVWC
p126
aV1
aV76
p127
aV-
aV-
aV-
aV-
aV-
aV69.2
p128
aV1
aV-
aV7.06
p129
aa(lp130
V2012/2013
p131
aVManchester Ci..
p132
aVUCL
p133
aV1(1)
p134
aV80
p135
aV-
aV1
aV-
aV-
aV0.5
p136
aV87.2
p137
aV0.5
p138
aV-
aV6.46
p139
aa(lp140
V2012/2013
p141
aVManchester Ci..
p142
aVEPL
p143
aV19(7)
p144
aV1721
p145
aV4
aV3
aV1
aV1
aV1.2
p146
aV77.4
p147
aV1.3
p148
aV3
aV7.02
p149
aa(lp150
V2012
p151
aVEngland
p152
aVUEC
p153
aV4
aV284
p154
aV-
aV-
aV1
aV-
aV0.8
p155
aV78
p156
aV0.5
p157
aV-
aV6.61
p158
aa(lp159
V2011/2012
p160
aVManchester Ci..
p161
aVUCL
p162
aV2(2)
p163
aV211
p164
aV-
aV-
aV-
aV-
aV-
aV87.6
p165
aV0.3
p166
aV-
aV6.79
p167
aa(lp168
V2011/2012
p169
aVManchester Ci..
p170
aVEPL
p171
aV17(9)
p172
aV1579
p173
aV3
aV5
aV3
aV-
aV0.6
p174
aV84.3
p175
aV0.5
p176
aV-
aV6.91
p177
aa(lp178
V2010/2011
p179
aVAston Villa
p180
aVEPL
p181
aV1
aV85
p182
aV1
aV-
aV-
aV-
aV6
aV80.8
p183
aV-
aV-
aV9.14
p184
aa(lp185
V2010/2011
p186
aVManchester Ci..
p187
aVEPL
p188
aV23(9)
p189
aV2050
p190
aV-
aV6
aV4
aV-
aV0.8
p191
aV78.3
p192
aV0.6
p193
aV-
aV6.77
p194
aa(lp195
V2009/2010
p196
aVAston Villa
p197
aVEPL
p198
aV36
p199
aV3175
p200
aV7
aV12
p201
aV5
aV-
aV1.8
p202
aV75.6
p203
aV0.4
p204
aV2
aV7.37
p205
aa(lp206
VTotal / Average
p207
aV
aV
aV349
p208
aV23939
p209
aV42
p210
aV72
p211
aV47
p212
aV2
aV1
aV80.7
p213
aV0.9
p214
aV18
p215
aV7.02
p216
aasS'url'
p217
S'https://www.whoscored.com/Players/4511/History/'
p218
sS'passing_data'
p219
(lp220
(lp221
a(lp222
V2018/2019
p223
aVLiverpool
p224
aVEPL
p225
aV11(4)
p226
aV978
p227
aV3
aV2
aV2
aV-
aV0.7
p228
aV84.6
p229
aV0.9
p230
aV1
aV7.08
p231
aa(lp232
V2018/2019
p233
aVLiverpool
p234
aVUCL
p235
aV5
aV418
p236
aV2
aV1
aV1
aV-
aV1.2
p237
aV83
p238
aV1.4
p239
aV-
aV7.20
p240
aa(lp241
V2017/2018
p242
aVLiverpool
p243
aVUCL
p244
aV9(2)
p245
aV875
p246
aV-
aV8
aV1
aV-
aV0.7
p247
aV84.5
p248
aV1.1
p249
aV-
aV7.35
p250
aa(lp251
V2017/2018
p252
aVLiverpool
p253
aVEPL
p254
aV16(16)
p255
aV1764
p256
aV-
aV3
aV3
aV-
aV0.7
p257
aV86.4
p258
aV0.7
p259
aV1
aV6.78
p260
aa(lp261
V2016/2017
p262
aVLiverpool
p263
aVEPL
p264
aV36
p265
aV3160
p266
aV7
aV3
aV5
aV-
aV1
aV79.7
p267
aV1.6
p268
aV2
aV7.26
p269
aa(lp270
V2015/2016
p271
aVLiverpool
p272
aVUEL
p273
aV12
p274
aV1013
p275
aV2
aV3
aV-
aV-
aV1.1
p276
aV81.9
p277
aV1.6
p278
aV2
aV7.41
p279
aa(lp280
V2015/2016
p281
aVLiverpool
p282
aVEPL
p283
aV28
p284
aV2416
p285
aV5
aV11
p286
aV9
aV1
aV1.4
p287
aV77.4
p288
aV1.1
p289
aV4
aV7.21
p290
aa(lp291
V2014/2015
p292
aVManchester Ci..
p293
aVUCL
p294
aV6(2)
p295
aV590
p296
aV1
aV-
aV-
aV-
aV1.5
p297
aV78.9
p298
aV0.8
p299
aV-
aV6.60
p300
aa(lp301
V2014/2015
p302
aVManchester Ci..
p303
aVEPL
p304
aV18(14)
p305
aV1744
p306
aV5
aV7
aV6
aV-
aV1.2
p307
aV79.5
p308
aV1.2
p309
aV2
aV7.02
p310
aa(lp311
V2016
p312
aVEngland
p313
aVUEC
p314
aV0(1)
p315
aV3
aV-
aV-
aV-
aV-
aV-
aV100
p316
aV-
aV-
aV5.91
p317
aa(lp318
V2013/2014
p319
aVManchester Ci..
p320
aVUCL
p321
aV3(3)
p322
aV358
p323
aV1
aV3
aV3
aV-
aV1
aV79.9
p324
aV0.8
p325
aV1
aV7.03
p326
aa(lp327
V2013/2014
p328
aVManchester Ci..
p329
aVEPL
p330
aV12(19)
p331
aV1359
p332
aV1
aV4
aV3
aV-
aV0.8
p333
aV84
p334
aV0.5
p335
aV-
aV6.59
p336
aa(lp337
V2014
p338
aVEngland
p339
aVWC
p340
aV1
aV76
p341
aV-
aV-
aV-
aV-
aV-
aV69.2
p342
aV1
aV-
aV7.06
p343
aa(lp344
V2012/2013
p345
aVManchester Ci..
p346
aVUCL
p347
aV1(1)
p348
aV80
p349
aV-
aV1
aV-
aV-
aV0.5
p350
aV87.2
p351
aV0.5
p352
aV-
aV6.46
p353
aa(lp354
V2012/2013
p355
aVManchester Ci..
p356
aVEPL
p357
aV19(7)
p358
aV1721
p359
aV4
aV3
aV1
aV1
aV1.2
p360
aV77.4
p361
aV1.3
p362
aV3
aV7.02
p363
aa(lp364
V2012
p365
aVEngland
p366
aVUEC
p367
aV4
aV284
p368
aV-
aV-
aV1
aV-
aV0.8
p369
aV78
p370
aV0.5
p371
aV-
aV6.61
p372
aa(lp373
V2011/2012
p374
aVManchester Ci..
p375
aVUCL
p376
aV2(2)
p377
aV211
p378
aV-
aV-
aV-
aV-
aV-
aV87.6
p379
aV0.3
p380
aV-
aV6.79
p381
aa(lp382
V2011/2012
p383
aVManchester Ci..
p384
aVEPL
p385
aV17(9)
p386
aV1579
p387
aV3
aV5
aV3
aV-
aV0.6
p388
aV84.3
p389
aV0.5
p390
aV-
aV6.91
p391
aa(lp392
V2010/2011
p393
aVAston Villa
p394
aVEPL
p395
aV1
aV85
p396
aV1
aV-
aV-
aV-
aV6
aV80.8
p397
aV-
aV-
aV9.14
p398
aa(lp399
V2010/2011
p400
aVManchester Ci..
p401
aVEPL
p402
aV23(9)
p403
aV2050
p404
aV-
aV6
aV4
aV-
aV0.8
p405
aV78.3
p406
aV0.6
p407
aV-
aV6.77
p408
aa(lp409
V2009/2010
p410
aVAston Villa
p411
aVEPL
p412
aV36
p413
aV3175
p414
aV7
aV12
p415
aV5
aV-
aV1.8
p416
aV75.6
p417
aV0.4
p418
aV2
aV7.37
p419
aa(lp420
VTotal / Average
p421
aV
aV
aV349
p422
aV23939
p423
aV42
p424
aV72
p425
aV47
p426
aV2
aV1
aV80.7
p427
aV0.9
p428
aV18
p429
aV7.02
p430
aasS'defensive_data'
p431
(lp432
(lp433
a(lp434
V2018/2019
p435
aVLiverpool
p436
aVEPL
p437
aV11(4)
p438
aV978
p439
aV3
aV2
aV2
aV-
aV0.7
p440
aV84.6
p441
aV0.9
p442
aV1
aV7.08
p443
aa(lp444
V2018/2019
p445
aVLiverpool
p446
aVUCL
p447
aV5
aV418
p448
aV2
aV1
aV1
aV-
aV1.2
p449
aV83
p450
aV1.4
p451
aV-
aV7.20
p452
aa(lp453
V2017/2018
p454
aVLiverpool
p455
aVUCL
p456
aV9(2)
p457
aV875
p458
aV-
aV8
aV1
aV-
aV0.7
p459
aV84.5
p460
aV1.1
p461
aV-
aV7.35
p462
aa(lp463
V2017/2018
p464
aVLiverpool
p465
aVEPL
p466
aV16(16)
p467
aV1764
p468
aV-
aV3
aV3
aV-
aV0.7
p469
aV86.4
p470
aV0.7
p471
aV1
aV6.78
p472
aa(lp473
V2016/2017
p474
aVLiverpool
p475
aVEPL
p476
aV36
p477
aV3160
p478
aV7
aV3
aV5
aV-
aV1
aV79.7
p479
aV1.6
p480
aV2
aV7.26
p481
aa(lp482
V2015/2016
p483
aVLiverpool
p484
aVUEL
p485
aV12
p486
aV1013
p487
aV2
aV3
aV-
aV-
aV1.1
p488
aV81.9
p489
aV1.6
p490
aV2
aV7.41
p491
aa(lp492
V2015/2016
p493
aVLiverpool
p494
aVEPL
p495
aV28
p496
aV2416
p497
aV5
aV11
p498
aV9
aV1
aV1.4
p499
aV77.4
p500
aV1.1
p501
aV4
aV7.21
p502
aa(lp503
V2014/2015
p504
aVManchester Ci..
p505
aVUCL
p506
aV6(2)
p507
aV590
p508
aV1
aV-
aV-
aV-
aV1.5
p509
aV78.9
p510
aV0.8
p511
aV-
aV6.60
p512
aa(lp513
V2014/2015
p514
aVManchester Ci..
p515
aVEPL
p516
aV18(14)
p517
aV1744
p518
aV5
aV7
aV6
aV-
aV1.2
p519
aV79.5
p520
aV1.2
p521
aV2
aV7.02
p522
aa(lp523
V2016
p524
aVEngland
p525
aVUEC
p526
aV0(1)
p527
aV3
aV-
aV-
aV-
aV-
aV-
aV100
p528
aV-
aV-
aV5.91
p529
aa(lp530
V2013/2014
p531
aVManchester Ci..
p532
aVUCL
p533
aV3(3)
p534
aV358
p535
aV1
aV3
aV3
aV-
aV1
aV79.9
p536
aV0.8
p537
aV1
aV7.03
p538
aa(lp539
V2013/2014
p540
aVManchester Ci..
p541
aVEPL
p542
aV12(19)
p543
aV1359
p544
aV1
aV4
aV3
aV-
aV0.8
p545
aV84
p546
aV0.5
p547
aV-
aV6.59
p548
aa(lp549
V2014
p550
aVEngland
p551
aVWC
p552
aV1
aV76
p553
aV-
aV-
aV-
aV-
aV-
aV69.2
p554
aV1
aV-
aV7.06
p555
aa(lp556
V2012/2013
p557
aVManchester Ci..
p558
aVUCL
p559
aV1(1)
p560
aV80
p561
aV-
aV1
aV-
aV-
aV0.5
p562
aV87.2
p563
aV0.5
p564
aV-
aV6.46
p565
aa(lp566
V2012/2013
p567
aVManchester Ci..
p568
aVEPL
p569
aV19(7)
p570
aV1721
p571
aV4
aV3
aV1
aV1
aV1.2
p572
aV77.4
p573
aV1.3
p574
aV3
aV7.02
p575
aa(lp576
V2012
p577
aVEngland
p578
aVUEC
p579
aV4
aV284
p580
aV-
aV-
aV1
aV-
aV0.8
p581
aV78
p582
aV0.5
p583
aV-
aV6.61
p584
aa(lp585
V2011/2012
p586
aVManchester Ci..
p587
aVUCL
p588
aV2(2)
p589
aV211
p590
aV-
aV-
aV-
aV-
aV-
aV87.6
p591
aV0.3
p592
aV-
aV6.79
p593
aa(lp594
V2011/2012
p595
aVManchester Ci..
p596
aVEPL
p597
aV17(9)
p598
aV1579
p599
aV3
aV5
aV3
aV-
aV0.6
p600
aV84.3
p601
aV0.5
p602
aV-
aV6.91
p603
aa(lp604
V2010/2011
p605
aVAston Villa
p606
aVEPL
p607
aV1
aV85
p608
aV1
aV-
aV-
aV-
aV6
aV80.8
p609
aV-
aV-
aV9.14
p610
aa(lp611
V2010/2011
p612
aVManchester Ci..
p613
aVEPL
p614
aV23(9)
p615
aV2050
p616
aV-
aV6
aV4
aV-
aV0.8
p617
aV78.3
p618
aV0.6
p619
aV-
aV6.77
p620
aa(lp621
V2009/2010
p622
aVAston Villa
p623
aVEPL
p624
aV36
p625
aV3175
p626
aV7
aV12
p627
aV5
aV-
aV1.8
p628
aV75.6
p629
aV0.4
p630
aV2
aV7.37
p631
aa(lp632
VTotal / Average
p633
aV
aV
aV349
p634
aV23939
p635
aV42
p636
aV72
p637
aV47
p638
aV2
aV1
aV80.7
p639
aV0.9
p640
aV18
p641
aV7.02
p642
aasS'sumary_data'
p643
(lp644
(lp645
a(lp646
V2018/2019
p647
aVLiverpool
p648
aVEPL
p649
aV11(4)
p650
aV978
p651
aV3
aV2
aV2
aV-
aV0.7
p652
aV84.6
p653
aV0.9
p654
aV1
aV7.08
p655
aa(lp656
V2018/2019
p657
aVLiverpool
p658
aVUCL
p659
aV5
aV418
p660
aV2
aV1
aV1
aV-
aV1.2
p661
aV83
p662
aV1.4
p663
aV-
aV7.20
p664
aa(lp665
V2017/2018
p666
aVLiverpool
p667
aVUCL
p668
aV9(2)
p669
aV875
p670
aV-
aV8
aV1
aV-
aV0.7
p671
aV84.5
p672
aV1.1
p673
aV-
aV7.35
p674
aa(lp675
V2017/2018
p676
aVLiverpool
p677
aVEPL
p678
aV16(16)
p679
aV1764
p680
aV-
aV3
aV3
aV-
aV0.7
p681
aV86.4
p682
aV0.7
p683
aV1
aV6.78
p684
aa(lp685
V2016/2017
p686
aVLiverpool
p687
aVEPL
p688
aV36
p689
aV3160
p690
aV7
aV3
aV5
aV-
aV1
aV79.7
p691
aV1.6
p692
aV2
aV7.26
p693
aa(lp694
V2015/2016
p695
aVLiverpool
p696
aVUEL
p697
aV12
p698
aV1013
p699
aV2
aV3
aV-
aV-
aV1.1
p700
aV81.9
p701
aV1.6
p702
aV2
aV7.41
p703
aa(lp704
V2015/2016
p705
aVLiverpool
p706
aVEPL
p707
aV28
p708
aV2416
p709
aV5
aV11
p710
aV9
aV1
aV1.4
p711
aV77.4
p712
aV1.1
p713
aV4
aV7.21
p714
aa(lp715
V2014/2015
p716
aVManchester Ci..
p717
aVUCL
p718
aV6(2)
p719
aV590
p720
aV1
aV-
aV-
aV-
aV1.5
p721
aV78.9
p722
aV0.8
p723
aV-
aV6.60
p724
aa(lp725
V2014/2015
p726
aVManchester Ci..
p727
aVEPL
p728
aV18(14)
p729
aV1744
p730
aV5
aV7
aV6
aV-
aV1.2
p731
aV79.5
p732
aV1.2
p733
aV2
aV7.02
p734
aa(lp735
V2016
p736
aVEngland
p737
aVUEC
p738
aV0(1)
p739
aV3
aV-
aV-
aV-
aV-
aV-
aV100
p740
aV-
aV-
aV5.91
p741
aa(lp742
V2013/2014
p743
aVManchester Ci..
p744
aVUCL
p745
aV3(3)
p746
aV358
p747
aV1
aV3
aV3
aV-
aV1
aV79.9
p748
aV0.8
p749
aV1
aV7.03
p750
aa(lp751
V2013/2014
p752
aVManchester Ci..
p753
aVEPL
p754
aV12(19)
p755
aV1359
p756
aV1
aV4
aV3
aV-
aV0.8
p757
aV84
p758
aV0.5
p759
aV-
aV6.59
p760
aa(lp761
V2014
p762
aVEngland
p763
aVWC
p764
aV1
aV76
p765
aV-
aV-
aV-
aV-
aV-
aV69.2
p766
aV1
aV-
aV7.06
p767
aa(lp768
V2012/2013
p769
aVManchester Ci..
p770
aVUCL
p771
aV1(1)
p772
aV80
p773
aV-
aV1
aV-
aV-
aV0.5
p774
aV87.2
p775
aV0.5
p776
aV-
aV6.46
p777
aa(lp778
V2012/2013
p779
aVManchester Ci..
p780
aVEPL
p781
aV19(7)
p782
aV1721
p783
aV4
aV3
aV1
aV1
aV1.2
p784
aV77.4
p785
aV1.3
p786
aV3
aV7.02
p787
aa(lp788
V2012
p789
aVEngland
p790
aVUEC
p791
aV4
aV284
p792
aV-
aV-
aV1
aV-
aV0.8
p793
aV78
p794
aV0.5
p795
aV-
aV6.61
p796
aa(lp797
V2011/2012
p798
aVManchester Ci..
p799
aVUCL
p800
aV2(2)
p801
aV211
p802
aV-
aV-
aV-
aV-
aV-
aV87.6
p803
aV0.3
p804
aV-
aV6.79
p805
aa(lp806
V2011/2012
p807
aVManchester Ci..
p808
aVEPL
p809
aV17(9)
p810
aV1579
p811
aV3
aV5
aV3
aV-
aV0.6
p812
aV84.3
p813
aV0.5
p814
aV-
aV6.91
p815
aa(lp816
V2010/2011
p817
aVAston Villa
p818
aVEPL
p819
aV1
aV85
p820
aV1
aV-
aV-
aV-
aV6
aV80.8
p821
aV-
aV-
aV9.14
p822
aa(lp823
V2010/2011
p824
aVManchester Ci..
p825
aVEPL
p826
aV23(9)
p827
aV2050
p828
aV-
aV6
aV4
aV-
aV0.8
p829
aV78.3
p830
aV0.6
p831
aV-
aV6.77
p832
aa(lp833
V2009/2010
p834
aVAston Villa
p835
aVEPL
p836
aV36
p837
aV3175
p838
aV7
aV12
p839
aV5
aV-
aV1.8
p840
aV75.6
p841
aV0.4
p842
aV2
aV7.37
p843
aa(lp844
VTotal / Average
p845
aV
aV
aV349
p846
aV23939
p847
aV42
p848
aV72
p849
aV47
p850
aV2
aV1
aV80.7
p851
aV0.9
p852
aV18
p853
aV7.02
p854
aasS'id'
p855
V4511
p856
sb.