(i__main__
Player
p1
(dp2
S'name'
p3
VMartin Dubravka 
p4
sS'offensive_data'
p5
(lp6
(lp7
a(lp8
V2018/2019
p9
aVNewcastle Uni..
p10
aVEPL
p11
aV17
p12
aV1530
p13
aV-
aV-
aV-
aV-
aV-
aV56.3
p14
aV0.3
p15
aV1
aV6.72
p16
aa(lp17
V2018/2019
p18
aVSlovakia
p19
aVUNL
p20
aV4
aV360
p21
aV-
aV-
aV-
aV-
aV-
aV65.3
p22
aV0.5
p23
aV-
aV6.55
p24
aa(lp25
V2017/2018
p26
aVNewcastle Uni..
p27
aVEPL
p28
aV12
p29
aV1080
p30
aV-
aV-
aV-
aV-
aV-
aV54.1
p31
aV0.3
p32
aV-
aV6.73
p33
aa(lp34
V2016/2017
p35
aVSlovan Libere..
p36
aVUEL
p37
aV5
aV450
p38
aV-
aV-
aV-
aV-
aV-
aV69.5
p39
aV0.4
p40
aV-
aV6.58
p41
aa(lp42
V2013/2014
p43
aVEsbjerg fB
p44
aVUEL
p45
aV2
aV180
p46
aV-
aV-
aV-
aV-
aV-
aV48.3
p47
aV-
aV-
aV6.75
p48
aa(lp49
V2010/2011
p50
aVZilina
p51
aVUCL
p52
aV6
aV540
p53
aV-
aV-
aV-
aV-
aV-
aV42.4
p54
aV-
aV-
aV6.35
p55
aa(lp56
VTotal / Average
p57
aV
aV
aV46
p58
aV4140
p59
aV0
aV0
aV0
aV0
aV0
aV55.8
p60
aV0.3
p61
aV1
aV6.64
p62
aasS'url'
p63
S'https://www.whoscored.com/Players/46092/History/'
p64
sS'passing_data'
p65
(lp66
(lp67
a(lp68
V2018/2019
p69
aVNewcastle Uni..
p70
aVEPL
p71
aV17
p72
aV1530
p73
aV-
aV-
aV-
aV-
aV-
aV56.3
p74
aV0.3
p75
aV1
aV6.72
p76
aa(lp77
V2018/2019
p78
aVSlovakia
p79
aVUNL
p80
aV4
aV360
p81
aV-
aV-
aV-
aV-
aV-
aV65.3
p82
aV0.5
p83
aV-
aV6.55
p84
aa(lp85
V2017/2018
p86
aVNewcastle Uni..
p87
aVEPL
p88
aV12
p89
aV1080
p90
aV-
aV-
aV-
aV-
aV-
aV54.1
p91
aV0.3
p92
aV-
aV6.73
p93
aa(lp94
V2016/2017
p95
aVSlovan Libere..
p96
aVUEL
p97
aV5
aV450
p98
aV-
aV-
aV-
aV-
aV-
aV69.5
p99
aV0.4
p100
aV-
aV6.58
p101
aa(lp102
V2013/2014
p103
aVEsbjerg fB
p104
aVUEL
p105
aV2
aV180
p106
aV-
aV-
aV-
aV-
aV-
aV48.3
p107
aV-
aV-
aV6.75
p108
aa(lp109
V2010/2011
p110
aVZilina
p111
aVUCL
p112
aV6
aV540
p113
aV-
aV-
aV-
aV-
aV-
aV42.4
p114
aV-
aV-
aV6.35
p115
aa(lp116
VTotal / Average
p117
aV
aV
aV46
p118
aV4140
p119
aV0
aV0
aV0
aV0
aV0
aV55.8
p120
aV0.3
p121
aV1
aV6.64
p122
aasS'defensive_data'
p123
(lp124
(lp125
a(lp126
V2018/2019
p127
aVNewcastle Uni..
p128
aVEPL
p129
aV17
p130
aV1530
p131
aV-
aV-
aV-
aV-
aV-
aV56.3
p132
aV0.3
p133
aV1
aV6.72
p134
aa(lp135
V2018/2019
p136
aVSlovakia
p137
aVUNL
p138
aV4
aV360
p139
aV-
aV-
aV-
aV-
aV-
aV65.3
p140
aV0.5
p141
aV-
aV6.55
p142
aa(lp143
V2017/2018
p144
aVNewcastle Uni..
p145
aVEPL
p146
aV12
p147
aV1080
p148
aV-
aV-
aV-
aV-
aV-
aV54.1
p149
aV0.3
p150
aV-
aV6.73
p151
aa(lp152
V2016/2017
p153
aVSlovan Libere..
p154
aVUEL
p155
aV5
aV450
p156
aV-
aV-
aV-
aV-
aV-
aV69.5
p157
aV0.4
p158
aV-
aV6.58
p159
aa(lp160
V2013/2014
p161
aVEsbjerg fB
p162
aVUEL
p163
aV2
aV180
p164
aV-
aV-
aV-
aV-
aV-
aV48.3
p165
aV-
aV-
aV6.75
p166
aa(lp167
V2010/2011
p168
aVZilina
p169
aVUCL
p170
aV6
aV540
p171
aV-
aV-
aV-
aV-
aV-
aV42.4
p172
aV-
aV-
aV6.35
p173
aa(lp174
VTotal / Average
p175
aV
aV
aV46
p176
aV4140
p177
aV0
aV0
aV0
aV0
aV0
aV55.8
p178
aV0.3
p179
aV1
aV6.64
p180
aasS'sumary_data'
p181
(lp182
(lp183
a(lp184
V2018/2019
p185
aVNewcastle Uni..
p186
aVEPL
p187
aV17
p188
aV1530
p189
aV-
aV-
aV-
aV-
aV-
aV56.3
p190
aV0.3
p191
aV1
aV6.72
p192
aa(lp193
V2018/2019
p194
aVSlovakia
p195
aVUNL
p196
aV4
aV360
p197
aV-
aV-
aV-
aV-
aV-
aV65.3
p198
aV0.5
p199
aV-
aV6.55
p200
aa(lp201
V2017/2018
p202
aVNewcastle Uni..
p203
aVEPL
p204
aV12
p205
aV1080
p206
aV-
aV-
aV-
aV-
aV-
aV54.1
p207
aV0.3
p208
aV-
aV6.73
p209
aa(lp210
V2016/2017
p211
aVSlovan Libere..
p212
aVUEL
p213
aV5
aV450
p214
aV-
aV-
aV-
aV-
aV-
aV69.5
p215
aV0.4
p216
aV-
aV6.58
p217
aa(lp218
V2013/2014
p219
aVEsbjerg fB
p220
aVUEL
p221
aV2
aV180
p222
aV-
aV-
aV-
aV-
aV-
aV48.3
p223
aV-
aV-
aV6.75
p224
aa(lp225
V2010/2011
p226
aVZilina
p227
aVUCL
p228
aV6
aV540
p229
aV-
aV-
aV-
aV-
aV-
aV42.4
p230
aV-
aV-
aV6.35
p231
aa(lp232
VTotal / Average
p233
aV
aV
aV46
p234
aV4140
p235
aV0
aV0
aV0
aV0
aV0
aV55.8
p236
aV0.3
p237
aV1
aV6.64
p238
aasS'id'
p239
V46092
p240
sb.