(i__main__
Player
p1
(dp2
S'name'
p3
VAaron Lennon 
p4
sS'offensive_data'
p5
(lp6
(lp7
a(lp8
V2018/2019
p9
aVBurnley
p10
aVEPL
p11
aV14(2)
p12
aV1217
p13
aV1
aV1
aV1
aV-
aV0.3
p14
aV78.8
p15
aV0.1
p16
aV1
aV6.38
p17
aa(lp18
V2017/2018
p19
aVEverton
p20
aVUEL
p21
aV1
aV71
p22
aV-
aV-
aV-
aV-
aV-
aV71.4
p23
aV-
aV-
aV6.28
p24
aa(lp25
V2017/2018
p26
aVEverton
p27
aVEPL
p28
aV9(6)
p29
aV795
p30
aV-
aV-
aV-
aV-
aV0.3
p31
aV69.1
p32
aV0.3
p33
aV-
aV6.36
p34
aa(lp35
V2017/2018
p36
aVBurnley
p37
aVEPL
p38
aV13(1)
p39
aV1125
p40
aV-
aV2
aV2
aV-
aV0.7
p41
aV70.8
p42
aV0.5
p43
aV-
aV6.58
p44
aa(lp45
V2016/2017
p46
aVEverton
p47
aVEPL
p48
aV6(5)
p49
aV510
p50
aV-
aV1
aV-
aV-
aV0.5
p51
aV80.6
p52
aV-
aV-
aV6.37
p53
aa(lp54
V2015/2016
p55
aVEverton
p56
aVEPL
p57
aV17(8)
p58
aV1540
p59
aV5
aV-
aV1
aV-
aV0.7
p60
aV81.1
p61
aV-
aV-
aV6.73
p62
aa(lp63
V2014/2015
p64
aVTottenham
p65
aVUEL
p66
aV2(3)
p67
aV238
p68
aV-
aV-
aV-
aV-
aV0.2
p69
aV72.1
p70
aV0.2
p71
aV-
aV6.45
p72
aa(lp73
V2014/2015
p74
aVEverton
p75
aVEPL
p76
aV12(2)
p77
aV1072
p78
aV2
aV-
aV2
aV-
aV0.5
p79
aV78
p80
aV0.2
p81
aV-
aV6.81
p82
aa(lp83
V2014/2015
p84
aVTottenham
p85
aVEPL
p86
aV3(6)
p87
aV276
p88
aV-
aV2
aV1
aV-
aV0.2
p89
aV85.2
p90
aV-
aV-
aV6.42
p91
aa(lp92
V2013/2014
p93
aVTottenham
p94
aVUEL
p95
aV3(1)
p96
aV275
p97
aV-
aV-
aV-
aV-
aV0.8
p98
aV80.2
p99
aV-
aV-
aV6.52
p100
aa(lp101
V2013/2014
p102
aVTottenham
p103
aVEPL
p104
aV26(1)
p105
aV2187
p106
aV1
aV3
aV1
aV-
aV0.9
p107
aV85
p108
aV0.1
p109
aV1
aV6.73
p110
aa(lp111
V2012/2013
p112
aVTottenham
p113
aVUEL
p114
aV9(2)
p115
aV756
p116
aV-
aV1
aV-
aV-
aV0.5
p117
aV82.9
p118
aV-
aV-
aV6.70
p119
aa(lp120
V2012/2013
p121
aVTottenham
p122
aVEPL
p123
aV33(1)
p124
aV2840
p125
aV4
aV7
aV1
aV-
aV0.9
p126
aV84.5
p127
aV0.2
p128
aV1
aV7.03
p129
aa(lp130
V2011/2012
p131
aVTottenham
p132
aVEPL
p133
aV19(4)
p134
aV1582
p135
aV3
aV5
aV1
aV-
aV0.8
p136
aV86.1
p137
aV0.2
p138
aV-
aV6.83
p139
aa(lp140
V2010/2011
p141
aVTottenham
p142
aVUCL
p143
aV7(2)
p144
aV646
p145
aV-
aV5
aV-
aV-
aV0.1
p146
aV87.5
p147
aV0.1
p148
aV-
aV6.97
p149
aa(lp150
V2010/2011
p151
aVTottenham
p152
aVEPL
p153
aV25(9)
p154
aV2366
p155
aV3
aV2
aV1
aV-
aV0.8
p156
aV84.4
p157
aV0.1
p158
aV1
aV6.84
p159
aa(lp160
V2009/2010
p161
aVTottenham
p162
aVEPL
p163
aV20(2)
p164
aV1805
p165
aV3
aV9
aV1
aV-
aV1.1
p166
aV84
p167
aV-
aV1
aV7.33
p168
aa(lp169
VTotal / Average
p170
aV
aV
aV274
p171
aV19301
p172
aV22
p173
aV38
p174
aV12
p175
aV0
aV0.7
p176
aV81.7
p177
aV0.1
p178
aV5
aV6.77
p179
aasS'url'
p180
S'https://www.whoscored.com/Players/5625/History/'
p181
sS'passing_data'
p182
(lp183
(lp184
a(lp185
V2018/2019
p186
aVBurnley
p187
aVEPL
p188
aV14(2)
p189
aV1217
p190
aV1
aV1
aV1
aV-
aV0.3
p191
aV78.8
p192
aV0.1
p193
aV1
aV6.38
p194
aa(lp195
V2017/2018
p196
aVEverton
p197
aVUEL
p198
aV1
aV71
p199
aV-
aV-
aV-
aV-
aV-
aV71.4
p200
aV-
aV-
aV6.28
p201
aa(lp202
V2017/2018
p203
aVEverton
p204
aVEPL
p205
aV9(6)
p206
aV795
p207
aV-
aV-
aV-
aV-
aV0.3
p208
aV69.1
p209
aV0.3
p210
aV-
aV6.36
p211
aa(lp212
V2017/2018
p213
aVBurnley
p214
aVEPL
p215
aV13(1)
p216
aV1125
p217
aV-
aV2
aV2
aV-
aV0.7
p218
aV70.8
p219
aV0.5
p220
aV-
aV6.58
p221
aa(lp222
V2016/2017
p223
aVEverton
p224
aVEPL
p225
aV6(5)
p226
aV510
p227
aV-
aV1
aV-
aV-
aV0.5
p228
aV80.6
p229
aV-
aV-
aV6.37
p230
aa(lp231
V2015/2016
p232
aVEverton
p233
aVEPL
p234
aV17(8)
p235
aV1540
p236
aV5
aV-
aV1
aV-
aV0.7
p237
aV81.1
p238
aV-
aV-
aV6.73
p239
aa(lp240
V2014/2015
p241
aVTottenham
p242
aVUEL
p243
aV2(3)
p244
aV238
p245
aV-
aV-
aV-
aV-
aV0.2
p246
aV72.1
p247
aV0.2
p248
aV-
aV6.45
p249
aa(lp250
V2014/2015
p251
aVEverton
p252
aVEPL
p253
aV12(2)
p254
aV1072
p255
aV2
aV-
aV2
aV-
aV0.5
p256
aV78
p257
aV0.2
p258
aV-
aV6.81
p259
aa(lp260
V2014/2015
p261
aVTottenham
p262
aVEPL
p263
aV3(6)
p264
aV276
p265
aV-
aV2
aV1
aV-
aV0.2
p266
aV85.2
p267
aV-
aV-
aV6.42
p268
aa(lp269
V2013/2014
p270
aVTottenham
p271
aVUEL
p272
aV3(1)
p273
aV275
p274
aV-
aV-
aV-
aV-
aV0.8
p275
aV80.2
p276
aV-
aV-
aV6.52
p277
aa(lp278
V2013/2014
p279
aVTottenham
p280
aVEPL
p281
aV26(1)
p282
aV2187
p283
aV1
aV3
aV1
aV-
aV0.9
p284
aV85
p285
aV0.1
p286
aV1
aV6.73
p287
aa(lp288
V2012/2013
p289
aVTottenham
p290
aVUEL
p291
aV9(2)
p292
aV756
p293
aV-
aV1
aV-
aV-
aV0.5
p294
aV82.9
p295
aV-
aV-
aV6.70
p296
aa(lp297
V2012/2013
p298
aVTottenham
p299
aVEPL
p300
aV33(1)
p301
aV2840
p302
aV4
aV7
aV1
aV-
aV0.9
p303
aV84.5
p304
aV0.2
p305
aV1
aV7.03
p306
aa(lp307
V2011/2012
p308
aVTottenham
p309
aVEPL
p310
aV19(4)
p311
aV1582
p312
aV3
aV5
aV1
aV-
aV0.8
p313
aV86.1
p314
aV0.2
p315
aV-
aV6.83
p316
aa(lp317
V2010/2011
p318
aVTottenham
p319
aVUCL
p320
aV7(2)
p321
aV646
p322
aV-
aV5
aV-
aV-
aV0.1
p323
aV87.5
p324
aV0.1
p325
aV-
aV6.97
p326
aa(lp327
V2010/2011
p328
aVTottenham
p329
aVEPL
p330
aV25(9)
p331
aV2366
p332
aV3
aV2
aV1
aV-
aV0.8
p333
aV84.4
p334
aV0.1
p335
aV1
aV6.84
p336
aa(lp337
V2009/2010
p338
aVTottenham
p339
aVEPL
p340
aV20(2)
p341
aV1805
p342
aV3
aV9
aV1
aV-
aV1.1
p343
aV84
p344
aV-
aV1
aV7.33
p345
aa(lp346
VTotal / Average
p347
aV
aV
aV274
p348
aV19301
p349
aV22
p350
aV38
p351
aV12
p352
aV0
aV0.7
p353
aV81.7
p354
aV0.1
p355
aV5
aV6.77
p356
aasS'defensive_data'
p357
(lp358
(lp359
a(lp360
V2018/2019
p361
aVBurnley
p362
aVEPL
p363
aV14(2)
p364
aV1217
p365
aV1
aV1
aV1
aV-
aV0.3
p366
aV78.8
p367
aV0.1
p368
aV1
aV6.38
p369
aa(lp370
V2017/2018
p371
aVEverton
p372
aVUEL
p373
aV1
aV71
p374
aV-
aV-
aV-
aV-
aV-
aV71.4
p375
aV-
aV-
aV6.28
p376
aa(lp377
V2017/2018
p378
aVEverton
p379
aVEPL
p380
aV9(6)
p381
aV795
p382
aV-
aV-
aV-
aV-
aV0.3
p383
aV69.1
p384
aV0.3
p385
aV-
aV6.36
p386
aa(lp387
V2017/2018
p388
aVBurnley
p389
aVEPL
p390
aV13(1)
p391
aV1125
p392
aV-
aV2
aV2
aV-
aV0.7
p393
aV70.8
p394
aV0.5
p395
aV-
aV6.58
p396
aa(lp397
V2016/2017
p398
aVEverton
p399
aVEPL
p400
aV6(5)
p401
aV510
p402
aV-
aV1
aV-
aV-
aV0.5
p403
aV80.6
p404
aV-
aV-
aV6.37
p405
aa(lp406
V2015/2016
p407
aVEverton
p408
aVEPL
p409
aV17(8)
p410
aV1540
p411
aV5
aV-
aV1
aV-
aV0.7
p412
aV81.1
p413
aV-
aV-
aV6.73
p414
aa(lp415
V2014/2015
p416
aVTottenham
p417
aVUEL
p418
aV2(3)
p419
aV238
p420
aV-
aV-
aV-
aV-
aV0.2
p421
aV72.1
p422
aV0.2
p423
aV-
aV6.45
p424
aa(lp425
V2014/2015
p426
aVEverton
p427
aVEPL
p428
aV12(2)
p429
aV1072
p430
aV2
aV-
aV2
aV-
aV0.5
p431
aV78
p432
aV0.2
p433
aV-
aV6.81
p434
aa(lp435
V2014/2015
p436
aVTottenham
p437
aVEPL
p438
aV3(6)
p439
aV276
p440
aV-
aV2
aV1
aV-
aV0.2
p441
aV85.2
p442
aV-
aV-
aV6.42
p443
aa(lp444
V2013/2014
p445
aVTottenham
p446
aVUEL
p447
aV3(1)
p448
aV275
p449
aV-
aV-
aV-
aV-
aV0.8
p450
aV80.2
p451
aV-
aV-
aV6.52
p452
aa(lp453
V2013/2014
p454
aVTottenham
p455
aVEPL
p456
aV26(1)
p457
aV2187
p458
aV1
aV3
aV1
aV-
aV0.9
p459
aV85
p460
aV0.1
p461
aV1
aV6.73
p462
aa(lp463
V2012/2013
p464
aVTottenham
p465
aVUEL
p466
aV9(2)
p467
aV756
p468
aV-
aV1
aV-
aV-
aV0.5
p469
aV82.9
p470
aV-
aV-
aV6.70
p471
aa(lp472
V2012/2013
p473
aVTottenham
p474
aVEPL
p475
aV33(1)
p476
aV2840
p477
aV4
aV7
aV1
aV-
aV0.9
p478
aV84.5
p479
aV0.2
p480
aV1
aV7.03
p481
aa(lp482
V2011/2012
p483
aVTottenham
p484
aVEPL
p485
aV19(4)
p486
aV1582
p487
aV3
aV5
aV1
aV-
aV0.8
p488
aV86.1
p489
aV0.2
p490
aV-
aV6.83
p491
aa(lp492
V2010/2011
p493
aVTottenham
p494
aVUCL
p495
aV7(2)
p496
aV646
p497
aV-
aV5
aV-
aV-
aV0.1
p498
aV87.5
p499
aV0.1
p500
aV-
aV6.97
p501
aa(lp502
V2010/2011
p503
aVTottenham
p504
aVEPL
p505
aV25(9)
p506
aV2366
p507
aV3
aV2
aV1
aV-
aV0.8
p508
aV84.4
p509
aV0.1
p510
aV1
aV6.84
p511
aa(lp512
V2009/2010
p513
aVTottenham
p514
aVEPL
p515
aV20(2)
p516
aV1805
p517
aV3
aV9
aV1
aV-
aV1.1
p518
aV84
p519
aV-
aV1
aV7.33
p520
aa(lp521
VTotal / Average
p522
aV
aV
aV274
p523
aV19301
p524
aV22
p525
aV38
p526
aV12
p527
aV0
aV0.7
p528
aV81.7
p529
aV0.1
p530
aV5
aV6.77
p531
aasS'sumary_data'
p532
(lp533
(lp534
a(lp535
V2018/2019
p536
aVBurnley
p537
aVEPL
p538
aV14(2)
p539
aV1217
p540
aV1
aV1
aV1
aV-
aV0.3
p541
aV78.8
p542
aV0.1
p543
aV1
aV6.38
p544
aa(lp545
V2017/2018
p546
aVEverton
p547
aVUEL
p548
aV1
aV71
p549
aV-
aV-
aV-
aV-
aV-
aV71.4
p550
aV-
aV-
aV6.28
p551
aa(lp552
V2017/2018
p553
aVEverton
p554
aVEPL
p555
aV9(6)
p556
aV795
p557
aV-
aV-
aV-
aV-
aV0.3
p558
aV69.1
p559
aV0.3
p560
aV-
aV6.36
p561
aa(lp562
V2017/2018
p563
aVBurnley
p564
aVEPL
p565
aV13(1)
p566
aV1125
p567
aV-
aV2
aV2
aV-
aV0.7
p568
aV70.8
p569
aV0.5
p570
aV-
aV6.58
p571
aa(lp572
V2016/2017
p573
aVEverton
p574
aVEPL
p575
aV6(5)
p576
aV510
p577
aV-
aV1
aV-
aV-
aV0.5
p578
aV80.6
p579
aV-
aV-
aV6.37
p580
aa(lp581
V2015/2016
p582
aVEverton
p583
aVEPL
p584
aV17(8)
p585
aV1540
p586
aV5
aV-
aV1
aV-
aV0.7
p587
aV81.1
p588
aV-
aV-
aV6.73
p589
aa(lp590
V2014/2015
p591
aVTottenham
p592
aVUEL
p593
aV2(3)
p594
aV238
p595
aV-
aV-
aV-
aV-
aV0.2
p596
aV72.1
p597
aV0.2
p598
aV-
aV6.45
p599
aa(lp600
V2014/2015
p601
aVEverton
p602
aVEPL
p603
aV12(2)
p604
aV1072
p605
aV2
aV-
aV2
aV-
aV0.5
p606
aV78
p607
aV0.2
p608
aV-
aV6.81
p609
aa(lp610
V2014/2015
p611
aVTottenham
p612
aVEPL
p613
aV3(6)
p614
aV276
p615
aV-
aV2
aV1
aV-
aV0.2
p616
aV85.2
p617
aV-
aV-
aV6.42
p618
aa(lp619
V2013/2014
p620
aVTottenham
p621
aVUEL
p622
aV3(1)
p623
aV275
p624
aV-
aV-
aV-
aV-
aV0.8
p625
aV80.2
p626
aV-
aV-
aV6.52
p627
aa(lp628
V2013/2014
p629
aVTottenham
p630
aVEPL
p631
aV26(1)
p632
aV2187
p633
aV1
aV3
aV1
aV-
aV0.9
p634
aV85
p635
aV0.1
p636
aV1
aV6.73
p637
aa(lp638
V2012/2013
p639
aVTottenham
p640
aVUEL
p641
aV9(2)
p642
aV756
p643
aV-
aV1
aV-
aV-
aV0.5
p644
aV82.9
p645
aV-
aV-
aV6.70
p646
aa(lp647
V2012/2013
p648
aVTottenham
p649
aVEPL
p650
aV33(1)
p651
aV2840
p652
aV4
aV7
aV1
aV-
aV0.9
p653
aV84.5
p654
aV0.2
p655
aV1
aV7.03
p656
aa(lp657
V2011/2012
p658
aVTottenham
p659
aVEPL
p660
aV19(4)
p661
aV1582
p662
aV3
aV5
aV1
aV-
aV0.8
p663
aV86.1
p664
aV0.2
p665
aV-
aV6.83
p666
aa(lp667
V2010/2011
p668
aVTottenham
p669
aVUCL
p670
aV7(2)
p671
aV646
p672
aV-
aV5
aV-
aV-
aV0.1
p673
aV87.5
p674
aV0.1
p675
aV-
aV6.97
p676
aa(lp677
V2010/2011
p678
aVTottenham
p679
aVEPL
p680
aV25(9)
p681
aV2366
p682
aV3
aV2
aV1
aV-
aV0.8
p683
aV84.4
p684
aV0.1
p685
aV1
aV6.84
p686
aa(lp687
V2009/2010
p688
aVTottenham
p689
aVEPL
p690
aV20(2)
p691
aV1805
p692
aV3
aV9
aV1
aV-
aV1.1
p693
aV84
p694
aV-
aV1
aV7.33
p695
aa(lp696
VTotal / Average
p697
aV
aV
aV274
p698
aV19301
p699
aV22
p700
aV38
p701
aV12
p702
aV0
aV0.7
p703
aV81.7
p704
aV0.1
p705
aV5
aV6.77
p706
aasS'id'
p707
V5625
p708
sb.