(i__main__
Player
p1
(dp2
S'name'
p3
VPhil Jagielka 
p4
sS'offensive_data'
p5
(lp6
(lp7
a(lp8
V2018/2019
p9
aVEverton
p10
aVEPL
p11
aV1(1)
p12
aV54
p13
aV-
aV-
aV-
aV1
aV-
aV77.8
p14
aV-
aV-
aV5.77
p15
aa(lp16
V2017/2018
p17
aVEverton
p18
aVUEL
p19
aV1
aV90
p20
aV-
aV-
aV-
aV-
aV1
aV81.7
p21
aV2
aV-
aV7.18
p22
aa(lp23
V2017/2018
p24
aVEverton
p25
aVEPL
p26
aV23(2)
p27
aV2065
p28
aV-
aV-
aV2
aV-
aV0.3
p29
aV75.9
p30
aV2.7
p31
aV2
aV6.82
p32
aa(lp33
V2016/2017
p34
aVEverton
p35
aVEPL
p36
aV25(2)
p37
aV2251
p38
aV3
aV2
aV4
aV1
aV0.5
p39
aV82.8
p40
aV3.3
p41
aV2
aV7.13
p42
aa(lp43
V2015/2016
p44
aVEverton
p45
aVEPL
p46
aV21
p47
aV1852
p48
aV-
aV-
aV-
aV-
aV0.4
p49
aV84.3
p50
aV2.8
p51
aV-
aV7.20
p52
aa(lp53
V2014/2015
p54
aVEverton
p55
aVUEL
p56
aV9
aV810
p57
aV2
aV-
aV-
aV-
aV0.4
p58
aV87.4
p59
aV2.7
p60
aV1
aV7.62
p61
aa(lp62
V2014/2015
p63
aVEverton
p64
aVEPL
p65
aV37
p66
aV3286
p67
aV4
aV-
aV1
aV-
aV0.4
p68
aV87.5
p69
aV2.9
p70
aV3
aV7.27
p71
aa(lp72
V2013/2014
p73
aVEverton
p74
aVEPL
p75
aV26
p76
aV2316
p77
aV-
aV1
aV2
aV-
aV0.6
p78
aV86.9
p79
aV2.7
p80
aV2
aV7.26
p81
aa(lp82
V2014
p83
aVEngland
p84
aVWC
p85
aV2
aV180
p86
aV-
aV-
aV-
aV-
aV0.5
p87
aV94.3
p88
aV2
aV-
aV6.69
p89
aa(lp90
V2012/2013
p91
aVEverton
p92
aVEPL
p93
aV36
p94
aV3155
p95
aV2
aV1
aV1
aV-
aV0.7
p96
aV78.2
p97
aV2.4
p98
aV1
aV7.20
p99
aa(lp100
V2011/2012
p101
aVEverton
p102
aVEPL
p103
aV29(1)
p104
aV2570
p105
aV2
aV1
aV2
aV-
aV0.4
p106
aV74.5
p107
aV1.8
p108
aV1
aV7.02
p109
aa(lp110
V2010/2011
p111
aVEverton
p112
aVEPL
p113
aV31(2)
p114
aV2796
p115
aV1
aV-
aV3
aV-
aV0.5
p116
aV73.6
p117
aV1.4
p118
aV-
aV7.11
p119
aa(lp120
V2009/2010
p121
aVEverton
p122
aVEPL
p123
aV11(1)
p124
aV1035
p125
aV-
aV-
aV-
aV-
aV0.6
p126
aV73.2
p127
aV2.7
p128
aV1
aV7.33
p129
aa(lp130
VTotal / Average
p131
aV
aV
aV261
p132
aV22460
p133
aV14
p134
aV5
aV15
p135
aV2
aV0.5
p136
aV80.3
p137
aV2.5
p138
aV13
p139
aV7.15
p140
aasS'url'
p141
S'https://www.whoscored.com/Players/6105/History/'
p142
sS'passing_data'
p143
(lp144
(lp145
a(lp146
V2018/2019
p147
aVEverton
p148
aVEPL
p149
aV1(1)
p150
aV54
p151
aV-
aV-
aV-
aV1
aV-
aV77.8
p152
aV-
aV-
aV5.77
p153
aa(lp154
V2017/2018
p155
aVEverton
p156
aVUEL
p157
aV1
aV90
p158
aV-
aV-
aV-
aV-
aV1
aV81.7
p159
aV2
aV-
aV7.18
p160
aa(lp161
V2017/2018
p162
aVEverton
p163
aVEPL
p164
aV23(2)
p165
aV2065
p166
aV-
aV-
aV2
aV-
aV0.3
p167
aV75.9
p168
aV2.7
p169
aV2
aV6.82
p170
aa(lp171
V2016/2017
p172
aVEverton
p173
aVEPL
p174
aV25(2)
p175
aV2251
p176
aV3
aV2
aV4
aV1
aV0.5
p177
aV82.8
p178
aV3.3
p179
aV2
aV7.13
p180
aa(lp181
V2015/2016
p182
aVEverton
p183
aVEPL
p184
aV21
p185
aV1852
p186
aV-
aV-
aV-
aV-
aV0.4
p187
aV84.3
p188
aV2.8
p189
aV-
aV7.20
p190
aa(lp191
V2014/2015
p192
aVEverton
p193
aVUEL
p194
aV9
aV810
p195
aV2
aV-
aV-
aV-
aV0.4
p196
aV87.4
p197
aV2.7
p198
aV1
aV7.62
p199
aa(lp200
V2014/2015
p201
aVEverton
p202
aVEPL
p203
aV37
p204
aV3286
p205
aV4
aV-
aV1
aV-
aV0.4
p206
aV87.5
p207
aV2.9
p208
aV3
aV7.27
p209
aa(lp210
V2013/2014
p211
aVEverton
p212
aVEPL
p213
aV26
p214
aV2316
p215
aV-
aV1
aV2
aV-
aV0.6
p216
aV86.9
p217
aV2.7
p218
aV2
aV7.26
p219
aa(lp220
V2014
p221
aVEngland
p222
aVWC
p223
aV2
aV180
p224
aV-
aV-
aV-
aV-
aV0.5
p225
aV94.3
p226
aV2
aV-
aV6.69
p227
aa(lp228
V2012/2013
p229
aVEverton
p230
aVEPL
p231
aV36
p232
aV3155
p233
aV2
aV1
aV1
aV-
aV0.7
p234
aV78.2
p235
aV2.4
p236
aV1
aV7.20
p237
aa(lp238
V2011/2012
p239
aVEverton
p240
aVEPL
p241
aV29(1)
p242
aV2570
p243
aV2
aV1
aV2
aV-
aV0.4
p244
aV74.5
p245
aV1.8
p246
aV1
aV7.02
p247
aa(lp248
V2010/2011
p249
aVEverton
p250
aVEPL
p251
aV31(2)
p252
aV2796
p253
aV1
aV-
aV3
aV-
aV0.5
p254
aV73.6
p255
aV1.4
p256
aV-
aV7.11
p257
aa(lp258
V2009/2010
p259
aVEverton
p260
aVEPL
p261
aV11(1)
p262
aV1035
p263
aV-
aV-
aV-
aV-
aV0.6
p264
aV73.2
p265
aV2.7
p266
aV1
aV7.33
p267
aa(lp268
VTotal / Average
p269
aV
aV
aV261
p270
aV22460
p271
aV14
p272
aV5
aV15
p273
aV2
aV0.5
p274
aV80.3
p275
aV2.5
p276
aV13
p277
aV7.15
p278
aasS'defensive_data'
p279
(lp280
(lp281
a(lp282
V2018/2019
p283
aVEverton
p284
aVEPL
p285
aV1(1)
p286
aV54
p287
aV-
aV-
aV-
aV1
aV-
aV77.8
p288
aV-
aV-
aV5.77
p289
aa(lp290
V2017/2018
p291
aVEverton
p292
aVUEL
p293
aV1
aV90
p294
aV-
aV-
aV-
aV-
aV1
aV81.7
p295
aV2
aV-
aV7.18
p296
aa(lp297
V2017/2018
p298
aVEverton
p299
aVEPL
p300
aV23(2)
p301
aV2065
p302
aV-
aV-
aV2
aV-
aV0.3
p303
aV75.9
p304
aV2.7
p305
aV2
aV6.82
p306
aa(lp307
V2016/2017
p308
aVEverton
p309
aVEPL
p310
aV25(2)
p311
aV2251
p312
aV3
aV2
aV4
aV1
aV0.5
p313
aV82.8
p314
aV3.3
p315
aV2
aV7.13
p316
aa(lp317
V2015/2016
p318
aVEverton
p319
aVEPL
p320
aV21
p321
aV1852
p322
aV-
aV-
aV-
aV-
aV0.4
p323
aV84.3
p324
aV2.8
p325
aV-
aV7.20
p326
aa(lp327
V2014/2015
p328
aVEverton
p329
aVUEL
p330
aV9
aV810
p331
aV2
aV-
aV-
aV-
aV0.4
p332
aV87.4
p333
aV2.7
p334
aV1
aV7.62
p335
aa(lp336
V2014/2015
p337
aVEverton
p338
aVEPL
p339
aV37
p340
aV3286
p341
aV4
aV-
aV1
aV-
aV0.4
p342
aV87.5
p343
aV2.9
p344
aV3
aV7.27
p345
aa(lp346
V2013/2014
p347
aVEverton
p348
aVEPL
p349
aV26
p350
aV2316
p351
aV-
aV1
aV2
aV-
aV0.6
p352
aV86.9
p353
aV2.7
p354
aV2
aV7.26
p355
aa(lp356
V2014
p357
aVEngland
p358
aVWC
p359
aV2
aV180
p360
aV-
aV-
aV-
aV-
aV0.5
p361
aV94.3
p362
aV2
aV-
aV6.69
p363
aa(lp364
V2012/2013
p365
aVEverton
p366
aVEPL
p367
aV36
p368
aV3155
p369
aV2
aV1
aV1
aV-
aV0.7
p370
aV78.2
p371
aV2.4
p372
aV1
aV7.20
p373
aa(lp374
V2011/2012
p375
aVEverton
p376
aVEPL
p377
aV29(1)
p378
aV2570
p379
aV2
aV1
aV2
aV-
aV0.4
p380
aV74.5
p381
aV1.8
p382
aV1
aV7.02
p383
aa(lp384
V2010/2011
p385
aVEverton
p386
aVEPL
p387
aV31(2)
p388
aV2796
p389
aV1
aV-
aV3
aV-
aV0.5
p390
aV73.6
p391
aV1.4
p392
aV-
aV7.11
p393
aa(lp394
V2009/2010
p395
aVEverton
p396
aVEPL
p397
aV11(1)
p398
aV1035
p399
aV-
aV-
aV-
aV-
aV0.6
p400
aV73.2
p401
aV2.7
p402
aV1
aV7.33
p403
aa(lp404
VTotal / Average
p405
aV
aV
aV261
p406
aV22460
p407
aV14
p408
aV5
aV15
p409
aV2
aV0.5
p410
aV80.3
p411
aV2.5
p412
aV13
p413
aV7.15
p414
aasS'sumary_data'
p415
(lp416
(lp417
a(lp418
V2018/2019
p419
aVEverton
p420
aVEPL
p421
aV1(1)
p422
aV54
p423
aV-
aV-
aV-
aV1
aV-
aV77.8
p424
aV-
aV-
aV5.77
p425
aa(lp426
V2017/2018
p427
aVEverton
p428
aVUEL
p429
aV1
aV90
p430
aV-
aV-
aV-
aV-
aV1
aV81.7
p431
aV2
aV-
aV7.18
p432
aa(lp433
V2017/2018
p434
aVEverton
p435
aVEPL
p436
aV23(2)
p437
aV2065
p438
aV-
aV-
aV2
aV-
aV0.3
p439
aV75.9
p440
aV2.7
p441
aV2
aV6.82
p442
aa(lp443
V2016/2017
p444
aVEverton
p445
aVEPL
p446
aV25(2)
p447
aV2251
p448
aV3
aV2
aV4
aV1
aV0.5
p449
aV82.8
p450
aV3.3
p451
aV2
aV7.13
p452
aa(lp453
V2015/2016
p454
aVEverton
p455
aVEPL
p456
aV21
p457
aV1852
p458
aV-
aV-
aV-
aV-
aV0.4
p459
aV84.3
p460
aV2.8
p461
aV-
aV7.20
p462
aa(lp463
V2014/2015
p464
aVEverton
p465
aVUEL
p466
aV9
aV810
p467
aV2
aV-
aV-
aV-
aV0.4
p468
aV87.4
p469
aV2.7
p470
aV1
aV7.62
p471
aa(lp472
V2014/2015
p473
aVEverton
p474
aVEPL
p475
aV37
p476
aV3286
p477
aV4
aV-
aV1
aV-
aV0.4
p478
aV87.5
p479
aV2.9
p480
aV3
aV7.27
p481
aa(lp482
V2013/2014
p483
aVEverton
p484
aVEPL
p485
aV26
p486
aV2316
p487
aV-
aV1
aV2
aV-
aV0.6
p488
aV86.9
p489
aV2.7
p490
aV2
aV7.26
p491
aa(lp492
V2014
p493
aVEngland
p494
aVWC
p495
aV2
aV180
p496
aV-
aV-
aV-
aV-
aV0.5
p497
aV94.3
p498
aV2
aV-
aV6.69
p499
aa(lp500
V2012/2013
p501
aVEverton
p502
aVEPL
p503
aV36
p504
aV3155
p505
aV2
aV1
aV1
aV-
aV0.7
p506
aV78.2
p507
aV2.4
p508
aV1
aV7.20
p509
aa(lp510
V2011/2012
p511
aVEverton
p512
aVEPL
p513
aV29(1)
p514
aV2570
p515
aV2
aV1
aV2
aV-
aV0.4
p516
aV74.5
p517
aV1.8
p518
aV1
aV7.02
p519
aa(lp520
V2010/2011
p521
aVEverton
p522
aVEPL
p523
aV31(2)
p524
aV2796
p525
aV1
aV-
aV3
aV-
aV0.5
p526
aV73.6
p527
aV1.4
p528
aV-
aV7.11
p529
aa(lp530
V2009/2010
p531
aVEverton
p532
aVEPL
p533
aV11(1)
p534
aV1035
p535
aV-
aV-
aV-
aV-
aV0.6
p536
aV73.2
p537
aV2.7
p538
aV1
aV7.33
p539
aa(lp540
VTotal / Average
p541
aV
aV
aV261
p542
aV22460
p543
aV14
p544
aV5
aV15
p545
aV2
aV0.5
p546
aV80.3
p547
aV2.5
p548
aV13
p549
aV7.15
p550
aasS'id'
p551
V6105
p552
sb.