(i__main__
Player
p1
(dp2
S'name'
p3
VJordan Ayew 
p4
sS'offensive_data'
p5
(lp6
(lp7
a(lp8
V2018/2019
p9
aVCrystal Palac..
p10
aVEPL
p11
aV8(3)
p12
aV667
p13
aV-
aV1
aV1
aV-
aV0.9
p14
aV80
p15
aV1.2
p16
aV-
aV6.28
p17
aa(lp18
V2017/2018
p19
aVSwansea
p20
aVEPL
p21
aV33(3)
p22
aV2859
p23
aV7
aV2
aV2
aV1
aV1.8
p24
aV82.6
p25
aV1.4
p26
aV6
aV6.91
p27
aa(lp28
V2016/2017
p29
aVAston Villa
p30
aVEC
p31
aV17(4)
p32
aV1529
p33
aV2
aV4
aV5
aV-
aV2.3
p34
aV84.9
p35
aV0.4
p36
aV4
aV7.15
p37
aa(lp38
V2016/2017
p39
aVSwansea
p40
aVEPL
p41
aV9(5)
p42
aV865
p43
aV1
aV3
aV1
aV-
aV0.9
p44
aV83.8
p45
aV0.5
p46
aV-
aV6.67
p47
aa(lp48
V2015/2016
p49
aVAston Villa
p50
aVEPL
p51
aV27(3)
p52
aV2353
p53
aV7
aV-
aV6
aV1
aV2
aV80.9
p54
aV2
aV-
aV6.88
p55
aa(lp56
V2015
p57
aVGhana
p58
aVACoN
p59
aV4(1)
p60
aV350
p61
aV1
aV-
aV-
aV-
aV2
aV76.1
p62
aV2.2
p63
aV-
aV6.88
p64
aa(lp65
V2014/2015
p66
aVLorient
p67
aVFL1
p68
aV29(2)
p69
aV2616
p70
aV12
p71
aV5
aV8
aV-
aV3.6
p72
aV79.8
p73
aV2.3
p74
aV4
aV7.03
p75
aa(lp76
V2013/2014
p77
aVMarseille
p78
aVUCL
p79
aV2(3)
p80
aV163
p81
aV1
aV1
aV1
aV-
aV1.2
p82
aV90.9
p83
aV0.6
p84
aV-
aV6.39
p85
aa(lp86
V2013/2014
p87
aVMarseille
p88
aVFL1
p89
aV7(9)
p90
aV643
p91
aV1
aV-
aV-
aV-
aV1.4
p92
aV82.6
p93
aV0.7
p94
aV-
aV6.29
p95
aa(lp96
V2013/2014
p97
aVSochaux
p98
aVFL1
p99
aV16(1)
p100
aV1367
p101
aV5
aV1
aV4
aV1
aV2
aV75
p102
aV2.2
p103
aV-
aV7.11
p104
aa(lp105
V2014
p106
aVGhana
p107
aVWC
p108
aV1(2)
p109
aV117
p110
aV-
aV-
aV1
aV-
aV1.7
p111
aV96.2
p112
aV-
aV-
aV6.37
p113
aa(lp114
V2012/2013
p115
aVMarseille
p116
aVUEL
p117
aV4(1)
p118
aV376
p119
aV1
aV-
aV2
aV-
aV1.8
p120
aV79.4
p121
aV1.4
p122
aV-
aV7.07
p123
aa(lp124
V2012/2013
p125
aVMarseille
p126
aVFL1
p127
aV19(16)
p128
aV1963
p129
aV7
aV-
aV6
aV1
aV1.2
p130
aV86.5
p131
aV0.4
p132
aV1
aV6.63
p133
aa(lp134
V2011/2012
p135
aVMarseille
p136
aVUCL
p137
aV2(4)
p138
aV227
p139
aV-
aV-
aV1
aV1
aV1.2
p140
aV81.8
p141
aV0.3
p142
aV-
aV6.13
p143
aa(lp144
V2011/2012
p145
aVMarseille
p146
aVFL1
p147
aV17(17)
p148
aV1688
p149
aV3
aV3
aV3
aV-
aV1.4
p150
aV81.1
p151
aV0.3
p152
aV-
aV6.45
p153
aa(lp154
V2010/2011
p155
aVMarseille
p156
aVUCL
p157
aV0(3)
p158
aV20
p159
aV-
aV-
aV-
aV-
aV-
aV73.3
p160
aV0.7
p161
aV-
aV6.22
p162
aa(lp163
V2010/2011
p164
aVMarseille
p165
aVFL1
p166
aV5(17)
p167
aV728
p168
aV2
aV3
aV3
aV-
aV0.9
p169
aV80
p170
aV0.1
p171
aV-
aV6.47
p172
aa(lp173
V2009/2010
p174
aVMarseille
p175
aVFL1
p176
aV0(4)
p177
aV66
p178
aV1
aV-
aV-
aV-
aV0.5
p179
aV71.4
p180
aV0.3
p181
aV-
aV6.38
p182
aa(lp183
VTotal / Average
p184
aV
aV
aV298
p185
aV18597
p186
aV51
p187
aV23
p188
aV44
p189
aV5
aV1.7
p190
aV81.8
p191
aV1.1
p192
aV15
p193
aV6.72
p194
aasS'url'
p195
S'https://www.whoscored.com/Players/67491/History/'
p196
sS'passing_data'
p197
(lp198
(lp199
a(lp200
V2018/2019
p201
aVCrystal Palac..
p202
aVEPL
p203
aV8(3)
p204
aV667
p205
aV-
aV1
aV1
aV-
aV0.9
p206
aV80
p207
aV1.2
p208
aV-
aV6.28
p209
aa(lp210
V2017/2018
p211
aVSwansea
p212
aVEPL
p213
aV33(3)
p214
aV2859
p215
aV7
aV2
aV2
aV1
aV1.8
p216
aV82.6
p217
aV1.4
p218
aV6
aV6.91
p219
aa(lp220
V2016/2017
p221
aVAston Villa
p222
aVEC
p223
aV17(4)
p224
aV1529
p225
aV2
aV4
aV5
aV-
aV2.3
p226
aV84.9
p227
aV0.4
p228
aV4
aV7.15
p229
aa(lp230
V2016/2017
p231
aVSwansea
p232
aVEPL
p233
aV9(5)
p234
aV865
p235
aV1
aV3
aV1
aV-
aV0.9
p236
aV83.8
p237
aV0.5
p238
aV-
aV6.67
p239
aa(lp240
V2015/2016
p241
aVAston Villa
p242
aVEPL
p243
aV27(3)
p244
aV2353
p245
aV7
aV-
aV6
aV1
aV2
aV80.9
p246
aV2
aV-
aV6.88
p247
aa(lp248
V2015
p249
aVGhana
p250
aVACoN
p251
aV4(1)
p252
aV350
p253
aV1
aV-
aV-
aV-
aV2
aV76.1
p254
aV2.2
p255
aV-
aV6.88
p256
aa(lp257
V2014/2015
p258
aVLorient
p259
aVFL1
p260
aV29(2)
p261
aV2616
p262
aV12
p263
aV5
aV8
aV-
aV3.6
p264
aV79.8
p265
aV2.3
p266
aV4
aV7.03
p267
aa(lp268
V2013/2014
p269
aVMarseille
p270
aVUCL
p271
aV2(3)
p272
aV163
p273
aV1
aV1
aV1
aV-
aV1.2
p274
aV90.9
p275
aV0.6
p276
aV-
aV6.39
p277
aa(lp278
V2013/2014
p279
aVMarseille
p280
aVFL1
p281
aV7(9)
p282
aV643
p283
aV1
aV-
aV-
aV-
aV1.4
p284
aV82.6
p285
aV0.7
p286
aV-
aV6.29
p287
aa(lp288
V2013/2014
p289
aVSochaux
p290
aVFL1
p291
aV16(1)
p292
aV1367
p293
aV5
aV1
aV4
aV1
aV2
aV75
p294
aV2.2
p295
aV-
aV7.11
p296
aa(lp297
V2014
p298
aVGhana
p299
aVWC
p300
aV1(2)
p301
aV117
p302
aV-
aV-
aV1
aV-
aV1.7
p303
aV96.2
p304
aV-
aV-
aV6.37
p305
aa(lp306
V2012/2013
p307
aVMarseille
p308
aVUEL
p309
aV4(1)
p310
aV376
p311
aV1
aV-
aV2
aV-
aV1.8
p312
aV79.4
p313
aV1.4
p314
aV-
aV7.07
p315
aa(lp316
V2012/2013
p317
aVMarseille
p318
aVFL1
p319
aV19(16)
p320
aV1963
p321
aV7
aV-
aV6
aV1
aV1.2
p322
aV86.5
p323
aV0.4
p324
aV1
aV6.63
p325
aa(lp326
V2011/2012
p327
aVMarseille
p328
aVUCL
p329
aV2(4)
p330
aV227
p331
aV-
aV-
aV1
aV1
aV1.2
p332
aV81.8
p333
aV0.3
p334
aV-
aV6.13
p335
aa(lp336
V2011/2012
p337
aVMarseille
p338
aVFL1
p339
aV17(17)
p340
aV1688
p341
aV3
aV3
aV3
aV-
aV1.4
p342
aV81.1
p343
aV0.3
p344
aV-
aV6.45
p345
aa(lp346
V2010/2011
p347
aVMarseille
p348
aVUCL
p349
aV0(3)
p350
aV20
p351
aV-
aV-
aV-
aV-
aV-
aV73.3
p352
aV0.7
p353
aV-
aV6.22
p354
aa(lp355
V2010/2011
p356
aVMarseille
p357
aVFL1
p358
aV5(17)
p359
aV728
p360
aV2
aV3
aV3
aV-
aV0.9
p361
aV80
p362
aV0.1
p363
aV-
aV6.47
p364
aa(lp365
V2009/2010
p366
aVMarseille
p367
aVFL1
p368
aV0(4)
p369
aV66
p370
aV1
aV-
aV-
aV-
aV0.5
p371
aV71.4
p372
aV0.3
p373
aV-
aV6.38
p374
aa(lp375
VTotal / Average
p376
aV
aV
aV298
p377
aV18597
p378
aV51
p379
aV23
p380
aV44
p381
aV5
aV1.7
p382
aV81.8
p383
aV1.1
p384
aV15
p385
aV6.72
p386
aasS'defensive_data'
p387
(lp388
(lp389
a(lp390
V2018/2019
p391
aVCrystal Palac..
p392
aVEPL
p393
aV8(3)
p394
aV667
p395
aV-
aV1
aV1
aV-
aV0.9
p396
aV80
p397
aV1.2
p398
aV-
aV6.28
p399
aa(lp400
V2017/2018
p401
aVSwansea
p402
aVEPL
p403
aV33(3)
p404
aV2859
p405
aV7
aV2
aV2
aV1
aV1.8
p406
aV82.6
p407
aV1.4
p408
aV6
aV6.91
p409
aa(lp410
V2016/2017
p411
aVAston Villa
p412
aVEC
p413
aV17(4)
p414
aV1529
p415
aV2
aV4
aV5
aV-
aV2.3
p416
aV84.9
p417
aV0.4
p418
aV4
aV7.15
p419
aa(lp420
V2016/2017
p421
aVSwansea
p422
aVEPL
p423
aV9(5)
p424
aV865
p425
aV1
aV3
aV1
aV-
aV0.9
p426
aV83.8
p427
aV0.5
p428
aV-
aV6.67
p429
aa(lp430
V2015/2016
p431
aVAston Villa
p432
aVEPL
p433
aV27(3)
p434
aV2353
p435
aV7
aV-
aV6
aV1
aV2
aV80.9
p436
aV2
aV-
aV6.88
p437
aa(lp438
V2015
p439
aVGhana
p440
aVACoN
p441
aV4(1)
p442
aV350
p443
aV1
aV-
aV-
aV-
aV2
aV76.1
p444
aV2.2
p445
aV-
aV6.88
p446
aa(lp447
V2014/2015
p448
aVLorient
p449
aVFL1
p450
aV29(2)
p451
aV2616
p452
aV12
p453
aV5
aV8
aV-
aV3.6
p454
aV79.8
p455
aV2.3
p456
aV4
aV7.03
p457
aa(lp458
V2013/2014
p459
aVMarseille
p460
aVUCL
p461
aV2(3)
p462
aV163
p463
aV1
aV1
aV1
aV-
aV1.2
p464
aV90.9
p465
aV0.6
p466
aV-
aV6.39
p467
aa(lp468
V2013/2014
p469
aVMarseille
p470
aVFL1
p471
aV7(9)
p472
aV643
p473
aV1
aV-
aV-
aV-
aV1.4
p474
aV82.6
p475
aV0.7
p476
aV-
aV6.29
p477
aa(lp478
V2013/2014
p479
aVSochaux
p480
aVFL1
p481
aV16(1)
p482
aV1367
p483
aV5
aV1
aV4
aV1
aV2
aV75
p484
aV2.2
p485
aV-
aV7.11
p486
aa(lp487
V2014
p488
aVGhana
p489
aVWC
p490
aV1(2)
p491
aV117
p492
aV-
aV-
aV1
aV-
aV1.7
p493
aV96.2
p494
aV-
aV-
aV6.37
p495
aa(lp496
V2012/2013
p497
aVMarseille
p498
aVUEL
p499
aV4(1)
p500
aV376
p501
aV1
aV-
aV2
aV-
aV1.8
p502
aV79.4
p503
aV1.4
p504
aV-
aV7.07
p505
aa(lp506
V2012/2013
p507
aVMarseille
p508
aVFL1
p509
aV19(16)
p510
aV1963
p511
aV7
aV-
aV6
aV1
aV1.2
p512
aV86.5
p513
aV0.4
p514
aV1
aV6.63
p515
aa(lp516
V2011/2012
p517
aVMarseille
p518
aVUCL
p519
aV2(4)
p520
aV227
p521
aV-
aV-
aV1
aV1
aV1.2
p522
aV81.8
p523
aV0.3
p524
aV-
aV6.13
p525
aa(lp526
V2011/2012
p527
aVMarseille
p528
aVFL1
p529
aV17(17)
p530
aV1688
p531
aV3
aV3
aV3
aV-
aV1.4
p532
aV81.1
p533
aV0.3
p534
aV-
aV6.45
p535
aa(lp536
V2010/2011
p537
aVMarseille
p538
aVUCL
p539
aV0(3)
p540
aV20
p541
aV-
aV-
aV-
aV-
aV-
aV73.3
p542
aV0.7
p543
aV-
aV6.22
p544
aa(lp545
V2010/2011
p546
aVMarseille
p547
aVFL1
p548
aV5(17)
p549
aV728
p550
aV2
aV3
aV3
aV-
aV0.9
p551
aV80
p552
aV0.1
p553
aV-
aV6.47
p554
aa(lp555
V2009/2010
p556
aVMarseille
p557
aVFL1
p558
aV0(4)
p559
aV66
p560
aV1
aV-
aV-
aV-
aV0.5
p561
aV71.4
p562
aV0.3
p563
aV-
aV6.38
p564
aa(lp565
VTotal / Average
p566
aV
aV
aV298
p567
aV18597
p568
aV51
p569
aV23
p570
aV44
p571
aV5
aV1.7
p572
aV81.8
p573
aV1.1
p574
aV15
p575
aV6.72
p576
aasS'sumary_data'
p577
(lp578
(lp579
a(lp580
V2018/2019
p581
aVCrystal Palac..
p582
aVEPL
p583
aV8(3)
p584
aV667
p585
aV-
aV1
aV1
aV-
aV0.9
p586
aV80
p587
aV1.2
p588
aV-
aV6.28
p589
aa(lp590
V2017/2018
p591
aVSwansea
p592
aVEPL
p593
aV33(3)
p594
aV2859
p595
aV7
aV2
aV2
aV1
aV1.8
p596
aV82.6
p597
aV1.4
p598
aV6
aV6.91
p599
aa(lp600
V2016/2017
p601
aVAston Villa
p602
aVEC
p603
aV17(4)
p604
aV1529
p605
aV2
aV4
aV5
aV-
aV2.3
p606
aV84.9
p607
aV0.4
p608
aV4
aV7.15
p609
aa(lp610
V2016/2017
p611
aVSwansea
p612
aVEPL
p613
aV9(5)
p614
aV865
p615
aV1
aV3
aV1
aV-
aV0.9
p616
aV83.8
p617
aV0.5
p618
aV-
aV6.67
p619
aa(lp620
V2015/2016
p621
aVAston Villa
p622
aVEPL
p623
aV27(3)
p624
aV2353
p625
aV7
aV-
aV6
aV1
aV2
aV80.9
p626
aV2
aV-
aV6.88
p627
aa(lp628
V2015
p629
aVGhana
p630
aVACoN
p631
aV4(1)
p632
aV350
p633
aV1
aV-
aV-
aV-
aV2
aV76.1
p634
aV2.2
p635
aV-
aV6.88
p636
aa(lp637
V2014/2015
p638
aVLorient
p639
aVFL1
p640
aV29(2)
p641
aV2616
p642
aV12
p643
aV5
aV8
aV-
aV3.6
p644
aV79.8
p645
aV2.3
p646
aV4
aV7.03
p647
aa(lp648
V2013/2014
p649
aVMarseille
p650
aVUCL
p651
aV2(3)
p652
aV163
p653
aV1
aV1
aV1
aV-
aV1.2
p654
aV90.9
p655
aV0.6
p656
aV-
aV6.39
p657
aa(lp658
V2013/2014
p659
aVMarseille
p660
aVFL1
p661
aV7(9)
p662
aV643
p663
aV1
aV-
aV-
aV-
aV1.4
p664
aV82.6
p665
aV0.7
p666
aV-
aV6.29
p667
aa(lp668
V2013/2014
p669
aVSochaux
p670
aVFL1
p671
aV16(1)
p672
aV1367
p673
aV5
aV1
aV4
aV1
aV2
aV75
p674
aV2.2
p675
aV-
aV7.11
p676
aa(lp677
V2014
p678
aVGhana
p679
aVWC
p680
aV1(2)
p681
aV117
p682
aV-
aV-
aV1
aV-
aV1.7
p683
aV96.2
p684
aV-
aV-
aV6.37
p685
aa(lp686
V2012/2013
p687
aVMarseille
p688
aVUEL
p689
aV4(1)
p690
aV376
p691
aV1
aV-
aV2
aV-
aV1.8
p692
aV79.4
p693
aV1.4
p694
aV-
aV7.07
p695
aa(lp696
V2012/2013
p697
aVMarseille
p698
aVFL1
p699
aV19(16)
p700
aV1963
p701
aV7
aV-
aV6
aV1
aV1.2
p702
aV86.5
p703
aV0.4
p704
aV1
aV6.63
p705
aa(lp706
V2011/2012
p707
aVMarseille
p708
aVUCL
p709
aV2(4)
p710
aV227
p711
aV-
aV-
aV1
aV1
aV1.2
p712
aV81.8
p713
aV0.3
p714
aV-
aV6.13
p715
aa(lp716
V2011/2012
p717
aVMarseille
p718
aVFL1
p719
aV17(17)
p720
aV1688
p721
aV3
aV3
aV3
aV-
aV1.4
p722
aV81.1
p723
aV0.3
p724
aV-
aV6.45
p725
aa(lp726
V2010/2011
p727
aVMarseille
p728
aVUCL
p729
aV0(3)
p730
aV20
p731
aV-
aV-
aV-
aV-
aV-
aV73.3
p732
aV0.7
p733
aV-
aV6.22
p734
aa(lp735
V2010/2011
p736
aVMarseille
p737
aVFL1
p738
aV5(17)
p739
aV728
p740
aV2
aV3
aV3
aV-
aV0.9
p741
aV80
p742
aV0.1
p743
aV-
aV6.47
p744
aa(lp745
V2009/2010
p746
aVMarseille
p747
aVFL1
p748
aV0(4)
p749
aV66
p750
aV1
aV-
aV-
aV-
aV0.5
p751
aV71.4
p752
aV0.3
p753
aV-
aV6.38
p754
aa(lp755
VTotal / Average
p756
aV
aV
aV298
p757
aV18597
p758
aV51
p759
aV23
p760
aV44
p761
aV5
aV1.7
p762
aV81.8
p763
aV1.1
p764
aV15
p765
aV6.72
p766
aasS'id'
p767
V67491
p768
sb.