(i__main__
Player
p1
(dp2
S'name'
p3
VPetr Cech 
p4
sS'offensive_data'
p5
(lp6
(lp7
a(lp8
V2018/2019
p9
aVArsenal
p10
aVEPL
p11
aV7
aV588
p12
aV-
aV-
aV-
aV-
aV-
aV68.3
p13
aV0.3
p14
aV1
aV7.05
p15
aa(lp16
V2018/2019
p17
aVArsenal
p18
aVUEL
p19
aV2
aV180
p20
aV-
aV-
aV-
aV-
aV-
aV76.1
p21
aV-
aV-
aV6.83
p22
aa(lp23
V2017/2018
p24
aVArsenal
p25
aVUEL
p26
aV3
aV270
p27
aV-
aV-
aV-
aV-
aV-
aV43.1
p28
aV0.3
p29
aV-
aV7.03
p30
aa(lp31
V2017/2018
p32
aVArsenal
p33
aVEPL
p34
aV34
p35
aV3040
p36
aV-
aV-
aV1
aV-
aV-
aV65.4
p37
aV0.4
p38
aV1
aV6.75
p39
aa(lp40
V2016/2017
p41
aVArsenal
p42
aVEPL
p43
aV35
p44
aV3098
p45
aV-
aV-
aV2
aV-
aV-
aV55.8
p46
aV0.1
p47
aV-
aV6.94
p48
aa(lp49
V2015/2016
p50
aVArsenal
p51
aVUCL
p52
aV5
aV450
p53
aV-
aV-
aV-
aV-
aV-
aV51.1
p54
aV0.2
p55
aV-
aV7.35
p56
aa(lp57
V2015/2016
p58
aVArsenal
p59
aVEPL
p60
aV34
p61
aV3060
p62
aV-
aV-
aV-
aV-
aV-
aV59
p63
aV0.2
p64
aV2
aV6.94
p65
aa(lp66
V2014/2015
p67
aVChelsea
p68
aVUCL
p69
aV3
aV270
p70
aV-
aV-
aV-
aV-
aV-
aV62.7
p71
aV-
aV-
aV6.91
p72
aa(lp73
V2014/2015
p74
aVChelsea
p75
aVEPL
p76
aV6(1)
p77
aV606
p78
aV-
aV-
aV-
aV-
aV-
aV58.5
p79
aV-
aV-
aV6.89
p80
aa(lp81
V2016
p82
aVCzech Republi..
p83
aVUEC
p84
aV3
aV270
p85
aV-
aV-
aV-
aV-
aV-
aV50
p86
aV0.3
p87
aV-
aV6.66
p88
aa(lp89
V2013/2014
p90
aVChelsea
p91
aVUCL
p92
aV10
p93
aV828
p94
aV-
aV-
aV1
aV-
aV-
aV57.6
p95
aV0.1
p96
aV-
aV6.89
p97
aa(lp98
V2013/2014
p99
aVChelsea
p100
aVEPL
p101
aV34
p102
aV3060
p103
aV-
aV-
aV-
aV-
aV-
aV52.9
p104
aV0.2
p105
aV-
aV6.82
p106
aa(lp107
V2012/2013
p108
aVChelsea
p109
aVUEL
p110
aV9
aV810
p111
aV-
aV-
aV-
aV-
aV-
aV47.9
p112
aV0.1
p113
aV-
aV6.72
p114
aa(lp115
V2012/2013
p116
aVChelsea
p117
aVUCL
p118
aV6
aV540
p119
aV-
aV-
aV-
aV-
aV-
aV67.7
p120
aV-
aV-
aV7.02
p121
aa(lp122
V2012/2013
p123
aVChelsea
p124
aVEPL
p125
aV36
p126
aV3196
p127
aV-
aV-
aV2
aV-
aV-
aV57.1
p128
aV0.1
p129
aV-
aV6.91
p130
aa(lp131
V2012
p132
aVCzech Republi..
p133
aVUEC
p134
aV4
aV360
p135
aV-
aV-
aV-
aV-
aV-
aV51
p136
aV-
aV-
aV6.15
p137
aa(lp138
V2011/2012
p139
aVChelsea
p140
aVUCL
p141
aV13
p142
aV1231
p143
aV-
aV-
aV1
aV-
aV-
aV58.8
p144
aV-
aV2
aV7.55
p145
aa(lp146
V2011/2012
p147
aVChelsea
p148
aVEPL
p149
aV34
p150
aV3060
p151
aV-
aV-
aV-
aV-
aV-
aV62.7
p152
aV0.1
p153
aV-
aV6.74
p154
aa(lp155
V2010/2011
p156
aVChelsea
p157
aVUCL
p158
aV9
aV810
p159
aV-
aV-
aV-
aV-
aV-
aV53.8
p160
aV0.3
p161
aV1
aV7.12
p162
aa(lp163
V2010/2011
p164
aVChelsea
p165
aVEPL
p166
aV38
p167
aV3420
p168
aV-
aV1
aV-
aV-
aV-
aV52.8
p169
aV0.2
p170
aV1
aV6.85
p171
aa(lp172
V2009/2010
p173
aVChelsea
p174
aVUCL
p175
aV6
aV512
p176
aV-
aV-
aV-
aV-
aV-
aV47.5
p177
aV-
aV-
aV7.30
p178
aa(lp179
V2009/2010
p180
aVChelsea
p181
aVEPL
p182
aV34
p183
aV3021
p184
aV-
aV1
aV-
aV1
aV-
aV55.7
p185
aV0.1
p186
aV-
aV6.87
p187
aa(lp188
VTotal / Average
p189
aV
aV
aV366
p190
aV32680
p191
aV0
aV2
aV7
aV1
aV0
aV57.3
p192
aV0.2
p193
aV8
aV6.90
p194
aasS'url'
p195
S'https://www.whoscored.com/Players/6775/History/'
p196
sS'passing_data'
p197
(lp198
(lp199
a(lp200
V2018/2019
p201
aVArsenal
p202
aVEPL
p203
aV7
aV588
p204
aV-
aV-
aV-
aV-
aV-
aV68.3
p205
aV0.3
p206
aV1
aV7.05
p207
aa(lp208
V2018/2019
p209
aVArsenal
p210
aVUEL
p211
aV2
aV180
p212
aV-
aV-
aV-
aV-
aV-
aV76.1
p213
aV-
aV-
aV6.83
p214
aa(lp215
V2017/2018
p216
aVArsenal
p217
aVUEL
p218
aV3
aV270
p219
aV-
aV-
aV-
aV-
aV-
aV43.1
p220
aV0.3
p221
aV-
aV7.03
p222
aa(lp223
V2017/2018
p224
aVArsenal
p225
aVEPL
p226
aV34
p227
aV3040
p228
aV-
aV-
aV1
aV-
aV-
aV65.4
p229
aV0.4
p230
aV1
aV6.75
p231
aa(lp232
V2016/2017
p233
aVArsenal
p234
aVEPL
p235
aV35
p236
aV3098
p237
aV-
aV-
aV2
aV-
aV-
aV55.8
p238
aV0.1
p239
aV-
aV6.94
p240
aa(lp241
V2015/2016
p242
aVArsenal
p243
aVUCL
p244
aV5
aV450
p245
aV-
aV-
aV-
aV-
aV-
aV51.1
p246
aV0.2
p247
aV-
aV7.35
p248
aa(lp249
V2015/2016
p250
aVArsenal
p251
aVEPL
p252
aV34
p253
aV3060
p254
aV-
aV-
aV-
aV-
aV-
aV59
p255
aV0.2
p256
aV2
aV6.94
p257
aa(lp258
V2014/2015
p259
aVChelsea
p260
aVUCL
p261
aV3
aV270
p262
aV-
aV-
aV-
aV-
aV-
aV62.7
p263
aV-
aV-
aV6.91
p264
aa(lp265
V2014/2015
p266
aVChelsea
p267
aVEPL
p268
aV6(1)
p269
aV606
p270
aV-
aV-
aV-
aV-
aV-
aV58.5
p271
aV-
aV-
aV6.89
p272
aa(lp273
V2016
p274
aVCzech Republi..
p275
aVUEC
p276
aV3
aV270
p277
aV-
aV-
aV-
aV-
aV-
aV50
p278
aV0.3
p279
aV-
aV6.66
p280
aa(lp281
V2013/2014
p282
aVChelsea
p283
aVUCL
p284
aV10
p285
aV828
p286
aV-
aV-
aV1
aV-
aV-
aV57.6
p287
aV0.1
p288
aV-
aV6.89
p289
aa(lp290
V2013/2014
p291
aVChelsea
p292
aVEPL
p293
aV34
p294
aV3060
p295
aV-
aV-
aV-
aV-
aV-
aV52.9
p296
aV0.2
p297
aV-
aV6.82
p298
aa(lp299
V2012/2013
p300
aVChelsea
p301
aVUEL
p302
aV9
aV810
p303
aV-
aV-
aV-
aV-
aV-
aV47.9
p304
aV0.1
p305
aV-
aV6.72
p306
aa(lp307
V2012/2013
p308
aVChelsea
p309
aVUCL
p310
aV6
aV540
p311
aV-
aV-
aV-
aV-
aV-
aV67.7
p312
aV-
aV-
aV7.02
p313
aa(lp314
V2012/2013
p315
aVChelsea
p316
aVEPL
p317
aV36
p318
aV3196
p319
aV-
aV-
aV2
aV-
aV-
aV57.1
p320
aV0.1
p321
aV-
aV6.91
p322
aa(lp323
V2012
p324
aVCzech Republi..
p325
aVUEC
p326
aV4
aV360
p327
aV-
aV-
aV-
aV-
aV-
aV51
p328
aV-
aV-
aV6.15
p329
aa(lp330
V2011/2012
p331
aVChelsea
p332
aVUCL
p333
aV13
p334
aV1231
p335
aV-
aV-
aV1
aV-
aV-
aV58.8
p336
aV-
aV2
aV7.55
p337
aa(lp338
V2011/2012
p339
aVChelsea
p340
aVEPL
p341
aV34
p342
aV3060
p343
aV-
aV-
aV-
aV-
aV-
aV62.7
p344
aV0.1
p345
aV-
aV6.74
p346
aa(lp347
V2010/2011
p348
aVChelsea
p349
aVUCL
p350
aV9
aV810
p351
aV-
aV-
aV-
aV-
aV-
aV53.8
p352
aV0.3
p353
aV1
aV7.12
p354
aa(lp355
V2010/2011
p356
aVChelsea
p357
aVEPL
p358
aV38
p359
aV3420
p360
aV-
aV1
aV-
aV-
aV-
aV52.8
p361
aV0.2
p362
aV1
aV6.85
p363
aa(lp364
V2009/2010
p365
aVChelsea
p366
aVUCL
p367
aV6
aV512
p368
aV-
aV-
aV-
aV-
aV-
aV47.5
p369
aV-
aV-
aV7.30
p370
aa(lp371
V2009/2010
p372
aVChelsea
p373
aVEPL
p374
aV34
p375
aV3021
p376
aV-
aV1
aV-
aV1
aV-
aV55.7
p377
aV0.1
p378
aV-
aV6.87
p379
aa(lp380
VTotal / Average
p381
aV
aV
aV366
p382
aV32680
p383
aV0
aV2
aV7
aV1
aV0
aV57.3
p384
aV0.2
p385
aV8
aV6.90
p386
aasS'defensive_data'
p387
(lp388
(lp389
a(lp390
V2018/2019
p391
aVArsenal
p392
aVEPL
p393
aV7
aV588
p394
aV-
aV-
aV-
aV-
aV-
aV68.3
p395
aV0.3
p396
aV1
aV7.05
p397
aa(lp398
V2018/2019
p399
aVArsenal
p400
aVUEL
p401
aV2
aV180
p402
aV-
aV-
aV-
aV-
aV-
aV76.1
p403
aV-
aV-
aV6.83
p404
aa(lp405
V2017/2018
p406
aVArsenal
p407
aVUEL
p408
aV3
aV270
p409
aV-
aV-
aV-
aV-
aV-
aV43.1
p410
aV0.3
p411
aV-
aV7.03
p412
aa(lp413
V2017/2018
p414
aVArsenal
p415
aVEPL
p416
aV34
p417
aV3040
p418
aV-
aV-
aV1
aV-
aV-
aV65.4
p419
aV0.4
p420
aV1
aV6.75
p421
aa(lp422
V2016/2017
p423
aVArsenal
p424
aVEPL
p425
aV35
p426
aV3098
p427
aV-
aV-
aV2
aV-
aV-
aV55.8
p428
aV0.1
p429
aV-
aV6.94
p430
aa(lp431
V2015/2016
p432
aVArsenal
p433
aVUCL
p434
aV5
aV450
p435
aV-
aV-
aV-
aV-
aV-
aV51.1
p436
aV0.2
p437
aV-
aV7.35
p438
aa(lp439
V2015/2016
p440
aVArsenal
p441
aVEPL
p442
aV34
p443
aV3060
p444
aV-
aV-
aV-
aV-
aV-
aV59
p445
aV0.2
p446
aV2
aV6.94
p447
aa(lp448
V2014/2015
p449
aVChelsea
p450
aVUCL
p451
aV3
aV270
p452
aV-
aV-
aV-
aV-
aV-
aV62.7
p453
aV-
aV-
aV6.91
p454
aa(lp455
V2014/2015
p456
aVChelsea
p457
aVEPL
p458
aV6(1)
p459
aV606
p460
aV-
aV-
aV-
aV-
aV-
aV58.5
p461
aV-
aV-
aV6.89
p462
aa(lp463
V2016
p464
aVCzech Republi..
p465
aVUEC
p466
aV3
aV270
p467
aV-
aV-
aV-
aV-
aV-
aV50
p468
aV0.3
p469
aV-
aV6.66
p470
aa(lp471
V2013/2014
p472
aVChelsea
p473
aVUCL
p474
aV10
p475
aV828
p476
aV-
aV-
aV1
aV-
aV-
aV57.6
p477
aV0.1
p478
aV-
aV6.89
p479
aa(lp480
V2013/2014
p481
aVChelsea
p482
aVEPL
p483
aV34
p484
aV3060
p485
aV-
aV-
aV-
aV-
aV-
aV52.9
p486
aV0.2
p487
aV-
aV6.82
p488
aa(lp489
V2012/2013
p490
aVChelsea
p491
aVUEL
p492
aV9
aV810
p493
aV-
aV-
aV-
aV-
aV-
aV47.9
p494
aV0.1
p495
aV-
aV6.72
p496
aa(lp497
V2012/2013
p498
aVChelsea
p499
aVUCL
p500
aV6
aV540
p501
aV-
aV-
aV-
aV-
aV-
aV67.7
p502
aV-
aV-
aV7.02
p503
aa(lp504
V2012/2013
p505
aVChelsea
p506
aVEPL
p507
aV36
p508
aV3196
p509
aV-
aV-
aV2
aV-
aV-
aV57.1
p510
aV0.1
p511
aV-
aV6.91
p512
aa(lp513
V2012
p514
aVCzech Republi..
p515
aVUEC
p516
aV4
aV360
p517
aV-
aV-
aV-
aV-
aV-
aV51
p518
aV-
aV-
aV6.15
p519
aa(lp520
V2011/2012
p521
aVChelsea
p522
aVUCL
p523
aV13
p524
aV1231
p525
aV-
aV-
aV1
aV-
aV-
aV58.8
p526
aV-
aV2
aV7.55
p527
aa(lp528
V2011/2012
p529
aVChelsea
p530
aVEPL
p531
aV34
p532
aV3060
p533
aV-
aV-
aV-
aV-
aV-
aV62.7
p534
aV0.1
p535
aV-
aV6.74
p536
aa(lp537
V2010/2011
p538
aVChelsea
p539
aVUCL
p540
aV9
aV810
p541
aV-
aV-
aV-
aV-
aV-
aV53.8
p542
aV0.3
p543
aV1
aV7.12
p544
aa(lp545
V2010/2011
p546
aVChelsea
p547
aVEPL
p548
aV38
p549
aV3420
p550
aV-
aV1
aV-
aV-
aV-
aV52.8
p551
aV0.2
p552
aV1
aV6.85
p553
aa(lp554
V2009/2010
p555
aVChelsea
p556
aVUCL
p557
aV6
aV512
p558
aV-
aV-
aV-
aV-
aV-
aV47.5
p559
aV-
aV-
aV7.30
p560
aa(lp561
V2009/2010
p562
aVChelsea
p563
aVEPL
p564
aV34
p565
aV3021
p566
aV-
aV1
aV-
aV1
aV-
aV55.7
p567
aV0.1
p568
aV-
aV6.87
p569
aa(lp570
VTotal / Average
p571
aV
aV
aV366
p572
aV32680
p573
aV0
aV2
aV7
aV1
aV0
aV57.3
p574
aV0.2
p575
aV8
aV6.90
p576
aasS'sumary_data'
p577
(lp578
(lp579
a(lp580
V2018/2019
p581
aVArsenal
p582
aVEPL
p583
aV7
aV588
p584
aV-
aV-
aV-
aV-
aV-
aV68.3
p585
aV0.3
p586
aV1
aV7.05
p587
aa(lp588
V2018/2019
p589
aVArsenal
p590
aVUEL
p591
aV2
aV180
p592
aV-
aV-
aV-
aV-
aV-
aV76.1
p593
aV-
aV-
aV6.83
p594
aa(lp595
V2017/2018
p596
aVArsenal
p597
aVUEL
p598
aV3
aV270
p599
aV-
aV-
aV-
aV-
aV-
aV43.1
p600
aV0.3
p601
aV-
aV7.03
p602
aa(lp603
V2017/2018
p604
aVArsenal
p605
aVEPL
p606
aV34
p607
aV3040
p608
aV-
aV-
aV1
aV-
aV-
aV65.4
p609
aV0.4
p610
aV1
aV6.75
p611
aa(lp612
V2016/2017
p613
aVArsenal
p614
aVEPL
p615
aV35
p616
aV3098
p617
aV-
aV-
aV2
aV-
aV-
aV55.8
p618
aV0.1
p619
aV-
aV6.94
p620
aa(lp621
V2015/2016
p622
aVArsenal
p623
aVUCL
p624
aV5
aV450
p625
aV-
aV-
aV-
aV-
aV-
aV51.1
p626
aV0.2
p627
aV-
aV7.35
p628
aa(lp629
V2015/2016
p630
aVArsenal
p631
aVEPL
p632
aV34
p633
aV3060
p634
aV-
aV-
aV-
aV-
aV-
aV59
p635
aV0.2
p636
aV2
aV6.94
p637
aa(lp638
V2014/2015
p639
aVChelsea
p640
aVUCL
p641
aV3
aV270
p642
aV-
aV-
aV-
aV-
aV-
aV62.7
p643
aV-
aV-
aV6.91
p644
aa(lp645
V2014/2015
p646
aVChelsea
p647
aVEPL
p648
aV6(1)
p649
aV606
p650
aV-
aV-
aV-
aV-
aV-
aV58.5
p651
aV-
aV-
aV6.89
p652
aa(lp653
V2016
p654
aVCzech Republi..
p655
aVUEC
p656
aV3
aV270
p657
aV-
aV-
aV-
aV-
aV-
aV50
p658
aV0.3
p659
aV-
aV6.66
p660
aa(lp661
V2013/2014
p662
aVChelsea
p663
aVUCL
p664
aV10
p665
aV828
p666
aV-
aV-
aV1
aV-
aV-
aV57.6
p667
aV0.1
p668
aV-
aV6.89
p669
aa(lp670
V2013/2014
p671
aVChelsea
p672
aVEPL
p673
aV34
p674
aV3060
p675
aV-
aV-
aV-
aV-
aV-
aV52.9
p676
aV0.2
p677
aV-
aV6.82
p678
aa(lp679
V2012/2013
p680
aVChelsea
p681
aVUEL
p682
aV9
aV810
p683
aV-
aV-
aV-
aV-
aV-
aV47.9
p684
aV0.1
p685
aV-
aV6.72
p686
aa(lp687
V2012/2013
p688
aVChelsea
p689
aVUCL
p690
aV6
aV540
p691
aV-
aV-
aV-
aV-
aV-
aV67.7
p692
aV-
aV-
aV7.02
p693
aa(lp694
V2012/2013
p695
aVChelsea
p696
aVEPL
p697
aV36
p698
aV3196
p699
aV-
aV-
aV2
aV-
aV-
aV57.1
p700
aV0.1
p701
aV-
aV6.91
p702
aa(lp703
V2012
p704
aVCzech Republi..
p705
aVUEC
p706
aV4
aV360
p707
aV-
aV-
aV-
aV-
aV-
aV51
p708
aV-
aV-
aV6.15
p709
aa(lp710
V2011/2012
p711
aVChelsea
p712
aVUCL
p713
aV13
p714
aV1231
p715
aV-
aV-
aV1
aV-
aV-
aV58.8
p716
aV-
aV2
aV7.55
p717
aa(lp718
V2011/2012
p719
aVChelsea
p720
aVEPL
p721
aV34
p722
aV3060
p723
aV-
aV-
aV-
aV-
aV-
aV62.7
p724
aV0.1
p725
aV-
aV6.74
p726
aa(lp727
V2010/2011
p728
aVChelsea
p729
aVUCL
p730
aV9
aV810
p731
aV-
aV-
aV-
aV-
aV-
aV53.8
p732
aV0.3
p733
aV1
aV7.12
p734
aa(lp735
V2010/2011
p736
aVChelsea
p737
aVEPL
p738
aV38
p739
aV3420
p740
aV-
aV1
aV-
aV-
aV-
aV52.8
p741
aV0.2
p742
aV1
aV6.85
p743
aa(lp744
V2009/2010
p745
aVChelsea
p746
aVUCL
p747
aV6
aV512
p748
aV-
aV-
aV-
aV-
aV-
aV47.5
p749
aV-
aV-
aV7.30
p750
aa(lp751
V2009/2010
p752
aVChelsea
p753
aVEPL
p754
aV34
p755
aV3021
p756
aV-
aV1
aV-
aV1
aV-
aV55.7
p757
aV0.1
p758
aV-
aV6.87
p759
aa(lp760
VTotal / Average
p761
aV
aV
aV366
p762
aV32680
p763
aV0
aV2
aV7
aV1
aV0
aV57.3
p764
aV0.2
p765
aV8
aV6.90
p766
aasS'id'
p767
V6775
p768
sb.