(i__main__
Player
p1
(dp2
S'name'
p3
VHarry Arter 
p4
sS'offensive_data'
p5
(lp6
(lp7
a(lp8
V2018/2019
p9
aVCardiff
p10
aVEPL
p11
aV14
p12
aV1171
p13
aV-
aV-
aV5
aV-
aV0.9
p14
aV80.7
p15
aV0.3
p16
aV-
aV6.51
p17
aa(lp18
V2018/2019
p19
aVIreland
p20
aVUNL
p21
aV2
aV155
p22
aV-
aV-
aV1
aV-
aV0.5
p23
aV84.8
p24
aV1.5
p25
aV-
aV6.51
p26
aa(lp27
V2017/2018
p28
aVBournemouth
p29
aVEPL
p30
aV11(2)
p31
aV962
p32
aV1
aV-
aV4
aV-
aV0.8
p33
aV87.4
p34
aV0.5
p35
aV-
aV6.47
p36
aa(lp37
V2016/2017
p38
aVBournemouth
p39
aVEPL
p40
aV33(2)
p41
aV2959
p42
aV1
aV4
aV11
p43
aV1
aV1.5
p44
aV88.2
p45
aV0.1
p46
aV2
aV6.72
p47
aa(lp48
V2015/2016
p49
aVBournemouth
p50
aVEPL
p51
aV21
p52
aV1674
p53
aV1
aV-
aV7
aV-
aV1.7
p54
aV86
p55
aV0.4
p56
aV-
aV6.80
p57
aa(lp58
V2014/2015
p59
aVBournemouth
p60
aVEC
p61
aV43
p62
aV3727
p63
aV9
aV3
aV12
p64
aV-
aV1.7
p65
aV85.2
p66
aV0.6
p67
aV3
aV7.31
p68
aa(lp69
V2013/2014
p70
aVBournemouth
p71
aVEC
p72
aV31
p73
aV2706
p74
aV3
aV4
aV8
aV1
aV1.7
p75
aV80.1
p76
aV0.6
p77
aV-
aV6.96
p78
aa(lp79
VTotal / Average
p80
aV
aV
aV159
p81
aV13354
p82
aV15
p83
aV11
p84
aV48
p85
aV2
aV1.5
p86
aV84.7
p87
aV0.4
p88
aV5
aV6.90
p89
aasS'url'
p90
S'https://www.whoscored.com/Players/67807/History/'
p91
sS'passing_data'
p92
(lp93
(lp94
a(lp95
V2018/2019
p96
aVCardiff
p97
aVEPL
p98
aV14
p99
aV1171
p100
aV-
aV-
aV5
aV-
aV0.9
p101
aV80.7
p102
aV0.3
p103
aV-
aV6.51
p104
aa(lp105
V2018/2019
p106
aVIreland
p107
aVUNL
p108
aV2
aV155
p109
aV-
aV-
aV1
aV-
aV0.5
p110
aV84.8
p111
aV1.5
p112
aV-
aV6.51
p113
aa(lp114
V2017/2018
p115
aVBournemouth
p116
aVEPL
p117
aV11(2)
p118
aV962
p119
aV1
aV-
aV4
aV-
aV0.8
p120
aV87.4
p121
aV0.5
p122
aV-
aV6.47
p123
aa(lp124
V2016/2017
p125
aVBournemouth
p126
aVEPL
p127
aV33(2)
p128
aV2959
p129
aV1
aV4
aV11
p130
aV1
aV1.5
p131
aV88.2
p132
aV0.1
p133
aV2
aV6.72
p134
aa(lp135
V2015/2016
p136
aVBournemouth
p137
aVEPL
p138
aV21
p139
aV1674
p140
aV1
aV-
aV7
aV-
aV1.7
p141
aV86
p142
aV0.4
p143
aV-
aV6.80
p144
aa(lp145
V2014/2015
p146
aVBournemouth
p147
aVEC
p148
aV43
p149
aV3727
p150
aV9
aV3
aV12
p151
aV-
aV1.7
p152
aV85.2
p153
aV0.6
p154
aV3
aV7.31
p155
aa(lp156
V2013/2014
p157
aVBournemouth
p158
aVEC
p159
aV31
p160
aV2706
p161
aV3
aV4
aV8
aV1
aV1.7
p162
aV80.1
p163
aV0.6
p164
aV-
aV6.96
p165
aa(lp166
VTotal / Average
p167
aV
aV
aV159
p168
aV13354
p169
aV15
p170
aV11
p171
aV48
p172
aV2
aV1.5
p173
aV84.7
p174
aV0.4
p175
aV5
aV6.90
p176
aasS'defensive_data'
p177
(lp178
(lp179
a(lp180
V2018/2019
p181
aVCardiff
p182
aVEPL
p183
aV14
p184
aV1171
p185
aV-
aV-
aV5
aV-
aV0.9
p186
aV80.7
p187
aV0.3
p188
aV-
aV6.51
p189
aa(lp190
V2018/2019
p191
aVIreland
p192
aVUNL
p193
aV2
aV155
p194
aV-
aV-
aV1
aV-
aV0.5
p195
aV84.8
p196
aV1.5
p197
aV-
aV6.51
p198
aa(lp199
V2017/2018
p200
aVBournemouth
p201
aVEPL
p202
aV11(2)
p203
aV962
p204
aV1
aV-
aV4
aV-
aV0.8
p205
aV87.4
p206
aV0.5
p207
aV-
aV6.47
p208
aa(lp209
V2016/2017
p210
aVBournemouth
p211
aVEPL
p212
aV33(2)
p213
aV2959
p214
aV1
aV4
aV11
p215
aV1
aV1.5
p216
aV88.2
p217
aV0.1
p218
aV2
aV6.72
p219
aa(lp220
V2015/2016
p221
aVBournemouth
p222
aVEPL
p223
aV21
p224
aV1674
p225
aV1
aV-
aV7
aV-
aV1.7
p226
aV86
p227
aV0.4
p228
aV-
aV6.80
p229
aa(lp230
V2014/2015
p231
aVBournemouth
p232
aVEC
p233
aV43
p234
aV3727
p235
aV9
aV3
aV12
p236
aV-
aV1.7
p237
aV85.2
p238
aV0.6
p239
aV3
aV7.31
p240
aa(lp241
V2013/2014
p242
aVBournemouth
p243
aVEC
p244
aV31
p245
aV2706
p246
aV3
aV4
aV8
aV1
aV1.7
p247
aV80.1
p248
aV0.6
p249
aV-
aV6.96
p250
aa(lp251
VTotal / Average
p252
aV
aV
aV159
p253
aV13354
p254
aV15
p255
aV11
p256
aV48
p257
aV2
aV1.5
p258
aV84.7
p259
aV0.4
p260
aV5
aV6.90
p261
aasS'sumary_data'
p262
(lp263
(lp264
a(lp265
V2018/2019
p266
aVCardiff
p267
aVEPL
p268
aV14
p269
aV1171
p270
aV-
aV-
aV5
aV-
aV0.9
p271
aV80.7
p272
aV0.3
p273
aV-
aV6.51
p274
aa(lp275
V2018/2019
p276
aVIreland
p277
aVUNL
p278
aV2
aV155
p279
aV-
aV-
aV1
aV-
aV0.5
p280
aV84.8
p281
aV1.5
p282
aV-
aV6.51
p283
aa(lp284
V2017/2018
p285
aVBournemouth
p286
aVEPL
p287
aV11(2)
p288
aV962
p289
aV1
aV-
aV4
aV-
aV0.8
p290
aV87.4
p291
aV0.5
p292
aV-
aV6.47
p293
aa(lp294
V2016/2017
p295
aVBournemouth
p296
aVEPL
p297
aV33(2)
p298
aV2959
p299
aV1
aV4
aV11
p300
aV1
aV1.5
p301
aV88.2
p302
aV0.1
p303
aV2
aV6.72
p304
aa(lp305
V2015/2016
p306
aVBournemouth
p307
aVEPL
p308
aV21
p309
aV1674
p310
aV1
aV-
aV7
aV-
aV1.7
p311
aV86
p312
aV0.4
p313
aV-
aV6.80
p314
aa(lp315
V2014/2015
p316
aVBournemouth
p317
aVEC
p318
aV43
p319
aV3727
p320
aV9
aV3
aV12
p321
aV-
aV1.7
p322
aV85.2
p323
aV0.6
p324
aV3
aV7.31
p325
aa(lp326
V2013/2014
p327
aVBournemouth
p328
aVEC
p329
aV31
p330
aV2706
p331
aV3
aV4
aV8
aV1
aV1.7
p332
aV80.1
p333
aV0.6
p334
aV-
aV6.96
p335
aa(lp336
VTotal / Average
p337
aV
aV
aV159
p338
aV13354
p339
aV15
p340
aV11
p341
aV48
p342
aV2
aV1.5
p343
aV84.7
p344
aV0.4
p345
aV5
aV6.90
p346
aasS'id'
p347
V67807
p348
sb.