(i__main__
Player
p1
(dp2
S'name'
p3
VAaron Cresswell 
p4
sS'offensive_data'
p5
(lp6
(lp7
a(lp8
V2018/2019
p9
aVWest Ham
p10
aVEPL
p11
aV5(2)
p12
aV477
p13
aV-
aV-
aV1
aV-
aV0.3
p14
aV82.7
p15
aV0.9
p16
aV-
aV6.69
p17
aa(lp18
V2017/2018
p19
aVWest Ham
p20
aVEPL
p21
aV35(1)
p22
aV3073
p23
aV1
aV7
aV7
aV-
aV0.6
p24
aV77.2
p25
aV1.6
p26
aV-
aV6.69
p27
aa(lp28
V2016/2017
p29
aVWest Ham
p30
aVEPL
p31
aV24(2)
p32
aV2118
p33
aV-
aV2
aV2
aV1
aV0.4
p34
aV75.5
p35
aV1.4
p36
aV1
aV6.46
p37
aa(lp38
V2015/2016
p39
aVWest Ham
p40
aVEPL
p41
aV37
p42
aV3315
p43
aV2
aV4
aV1
aV-
aV0.8
p44
aV77.5
p45
aV1.1
p46
aV-
aV6.81
p47
aa(lp48
V2014/2015
p49
aVWest Ham
p50
aVEPL
p51
aV38
p52
aV3420
p53
aV2
aV4
aV5
aV-
aV0.5
p54
aV72.2
p55
aV1.4
p56
aV2
aV6.85
p57
aa(lp58
V2013/2014
p59
aVIpswich
p60
aVEC
p61
aV42
p62
aV3745
p63
aV2
aV12
p64
aV2
aV1
aV0.9
p65
aV67.2
p66
aV1.8
p67
aV2
aV7.08
p68
aa(lp69
VTotal / Average
p70
aV
aV
aV186
p71
aV16148
p72
aV7
aV29
p73
aV18
p74
aV2
aV0.6
p75
aV73.9
p76
aV1.4
p77
aV5
aV6.80
p78
aasS'url'
p79
S'https://www.whoscored.com/Players/68049/History/'
p80
sS'passing_data'
p81
(lp82
(lp83
a(lp84
V2018/2019
p85
aVWest Ham
p86
aVEPL
p87
aV5(2)
p88
aV477
p89
aV-
aV-
aV1
aV-
aV0.3
p90
aV82.7
p91
aV0.9
p92
aV-
aV6.69
p93
aa(lp94
V2017/2018
p95
aVWest Ham
p96
aVEPL
p97
aV35(1)
p98
aV3073
p99
aV1
aV7
aV7
aV-
aV0.6
p100
aV77.2
p101
aV1.6
p102
aV-
aV6.69
p103
aa(lp104
V2016/2017
p105
aVWest Ham
p106
aVEPL
p107
aV24(2)
p108
aV2118
p109
aV-
aV2
aV2
aV1
aV0.4
p110
aV75.5
p111
aV1.4
p112
aV1
aV6.46
p113
aa(lp114
V2015/2016
p115
aVWest Ham
p116
aVEPL
p117
aV37
p118
aV3315
p119
aV2
aV4
aV1
aV-
aV0.8
p120
aV77.5
p121
aV1.1
p122
aV-
aV6.81
p123
aa(lp124
V2014/2015
p125
aVWest Ham
p126
aVEPL
p127
aV38
p128
aV3420
p129
aV2
aV4
aV5
aV-
aV0.5
p130
aV72.2
p131
aV1.4
p132
aV2
aV6.85
p133
aa(lp134
V2013/2014
p135
aVIpswich
p136
aVEC
p137
aV42
p138
aV3745
p139
aV2
aV12
p140
aV2
aV1
aV0.9
p141
aV67.2
p142
aV1.8
p143
aV2
aV7.08
p144
aa(lp145
VTotal / Average
p146
aV
aV
aV186
p147
aV16148
p148
aV7
aV29
p149
aV18
p150
aV2
aV0.6
p151
aV73.9
p152
aV1.4
p153
aV5
aV6.80
p154
aasS'defensive_data'
p155
(lp156
(lp157
a(lp158
V2018/2019
p159
aVWest Ham
p160
aVEPL
p161
aV5(2)
p162
aV477
p163
aV-
aV-
aV1
aV-
aV0.3
p164
aV82.7
p165
aV0.9
p166
aV-
aV6.69
p167
aa(lp168
V2017/2018
p169
aVWest Ham
p170
aVEPL
p171
aV35(1)
p172
aV3073
p173
aV1
aV7
aV7
aV-
aV0.6
p174
aV77.2
p175
aV1.6
p176
aV-
aV6.69
p177
aa(lp178
V2016/2017
p179
aVWest Ham
p180
aVEPL
p181
aV24(2)
p182
aV2118
p183
aV-
aV2
aV2
aV1
aV0.4
p184
aV75.5
p185
aV1.4
p186
aV1
aV6.46
p187
aa(lp188
V2015/2016
p189
aVWest Ham
p190
aVEPL
p191
aV37
p192
aV3315
p193
aV2
aV4
aV1
aV-
aV0.8
p194
aV77.5
p195
aV1.1
p196
aV-
aV6.81
p197
aa(lp198
V2014/2015
p199
aVWest Ham
p200
aVEPL
p201
aV38
p202
aV3420
p203
aV2
aV4
aV5
aV-
aV0.5
p204
aV72.2
p205
aV1.4
p206
aV2
aV6.85
p207
aa(lp208
V2013/2014
p209
aVIpswich
p210
aVEC
p211
aV42
p212
aV3745
p213
aV2
aV12
p214
aV2
aV1
aV0.9
p215
aV67.2
p216
aV1.8
p217
aV2
aV7.08
p218
aa(lp219
VTotal / Average
p220
aV
aV
aV186
p221
aV16148
p222
aV7
aV29
p223
aV18
p224
aV2
aV0.6
p225
aV73.9
p226
aV1.4
p227
aV5
aV6.80
p228
aasS'sumary_data'
p229
(lp230
(lp231
a(lp232
V2018/2019
p233
aVWest Ham
p234
aVEPL
p235
aV5(2)
p236
aV477
p237
aV-
aV-
aV1
aV-
aV0.3
p238
aV82.7
p239
aV0.9
p240
aV-
aV6.69
p241
aa(lp242
V2017/2018
p243
aVWest Ham
p244
aVEPL
p245
aV35(1)
p246
aV3073
p247
aV1
aV7
aV7
aV-
aV0.6
p248
aV77.2
p249
aV1.6
p250
aV-
aV6.69
p251
aa(lp252
V2016/2017
p253
aVWest Ham
p254
aVEPL
p255
aV24(2)
p256
aV2118
p257
aV-
aV2
aV2
aV1
aV0.4
p258
aV75.5
p259
aV1.4
p260
aV1
aV6.46
p261
aa(lp262
V2015/2016
p263
aVWest Ham
p264
aVEPL
p265
aV37
p266
aV3315
p267
aV2
aV4
aV1
aV-
aV0.8
p268
aV77.5
p269
aV1.1
p270
aV-
aV6.81
p271
aa(lp272
V2014/2015
p273
aVWest Ham
p274
aVEPL
p275
aV38
p276
aV3420
p277
aV2
aV4
aV5
aV-
aV0.5
p278
aV72.2
p279
aV1.4
p280
aV2
aV6.85
p281
aa(lp282
V2013/2014
p283
aVIpswich
p284
aVEC
p285
aV42
p286
aV3745
p287
aV2
aV12
p288
aV2
aV1
aV0.9
p289
aV67.2
p290
aV1.8
p291
aV2
aV7.08
p292
aa(lp293
VTotal / Average
p294
aV
aV
aV186
p295
aV16148
p296
aV7
aV29
p297
aV18
p298
aV2
aV0.6
p299
aV73.9
p300
aV1.4
p301
aV5
aV6.80
p302
aasS'id'
p303
V68049
p304
sb.