(i__main__
Player
p1
(dp2
S'name'
p3
VChristian Benteke 
p4
sS'offensive_data'
p5
(lp6
(lp7
a(lp8
V2018/2019
p9
aVCrystal Palac..
p10
aVEPL
p11
aV4
aV328
p12
aV-
aV-
aV-
aV-
aV3.3
p13
aV51.5
p14
aV9
aV-
aV6.79
p15
aa(lp16
V2017/2018
p17
aVCrystal Palac..
p18
aVEPL
p19
aV24(7)
p20
aV2238
p21
aV3
aV5
aV6
aV-
aV1.9
p22
aV56.4
p23
aV7.8
p24
aV2
aV6.91
p25
aa(lp26
V2016/2017
p27
aVCrystal Palac..
p28
aVEPL
p29
aV36
p30
aV3138
p31
aV15
p32
aV2
aV10
p33
aV-
aV2.9
p34
aV59.6
p35
aV9
aV7
aV7.36
p36
aa(lp37
V2015/2016
p38
aVLiverpool
p39
aVUEL
p40
aV2(5)
p41
aV221
p42
aV1
aV-
aV1
aV-
aV2.1
p43
aV67.5
p44
aV3.3
p45
aV-
aV6.61
p46
aa(lp47
V2015/2016
p48
aVLiverpool
p49
aVEPL
p50
aV14(15)
p51
aV1520
p52
aV9
aV3
aV2
aV-
aV2.1
p53
aV66.1
p54
aV4.4
p55
aV3
aV6.83
p56
aa(lp57
V2014/2015
p58
aVAston Villa
p59
aVEPL
p60
aV26(3)
p61
aV2380
p62
aV13
p63
aV2
aV1
aV1
aV2.8
p64
aV66.7
p65
aV6.5
p66
aV3
aV7.08
p67
aa(lp68
V2016
p69
aVBelgium
p70
aVUEC
p71
aV0(2)
p72
aV11
p73
aV-
aV-
aV-
aV-
aV0.5
p74
aV50
p75
aV0.5
p76
aV-
aV6.33
p77
aa(lp78
V2013/2014
p79
aVAston Villa
p80
aVEPL
p81
aV24(2)
p82
aV2128
p83
aV10
p84
aV2
aV4
aV-
aV2.6
p85
aV60.7
p86
aV8.8
p87
aV5
aV7.25
p88
aa(lp89
V2012/2013
p90
aVAston Villa
p91
aVEPL
p92
aV32(2)
p93
aV2824
p94
aV19
p95
aV4
aV7
aV1
aV3.1
p96
aV65
p97
aV7.9
p98
aV8
aV7.45
p99
aa(lp100
VTotal / Average
p101
aV
aV
aV198
p102
aV14788
p103
aV70
p104
aV18
p105
aV31
p106
aV2
aV2.6
p107
aV62.2
p108
aV7.3
p109
aV28
p110
aV7.12
p111
aasS'url'
p112
S'https://www.whoscored.com/Players/68312/History/'
p113
sS'passing_data'
p114
(lp115
(lp116
a(lp117
V2018/2019
p118
aVCrystal Palac..
p119
aVEPL
p120
aV4
aV328
p121
aV-
aV-
aV-
aV-
aV3.3
p122
aV51.5
p123
aV9
aV-
aV6.79
p124
aa(lp125
V2017/2018
p126
aVCrystal Palac..
p127
aVEPL
p128
aV24(7)
p129
aV2238
p130
aV3
aV5
aV6
aV-
aV1.9
p131
aV56.4
p132
aV7.8
p133
aV2
aV6.91
p134
aa(lp135
V2016/2017
p136
aVCrystal Palac..
p137
aVEPL
p138
aV36
p139
aV3138
p140
aV15
p141
aV2
aV10
p142
aV-
aV2.9
p143
aV59.6
p144
aV9
aV7
aV7.36
p145
aa(lp146
V2015/2016
p147
aVLiverpool
p148
aVUEL
p149
aV2(5)
p150
aV221
p151
aV1
aV-
aV1
aV-
aV2.1
p152
aV67.5
p153
aV3.3
p154
aV-
aV6.61
p155
aa(lp156
V2015/2016
p157
aVLiverpool
p158
aVEPL
p159
aV14(15)
p160
aV1520
p161
aV9
aV3
aV2
aV-
aV2.1
p162
aV66.1
p163
aV4.4
p164
aV3
aV6.83
p165
aa(lp166
V2014/2015
p167
aVAston Villa
p168
aVEPL
p169
aV26(3)
p170
aV2380
p171
aV13
p172
aV2
aV1
aV1
aV2.8
p173
aV66.7
p174
aV6.5
p175
aV3
aV7.08
p176
aa(lp177
V2016
p178
aVBelgium
p179
aVUEC
p180
aV0(2)
p181
aV11
p182
aV-
aV-
aV-
aV-
aV0.5
p183
aV50
p184
aV0.5
p185
aV-
aV6.33
p186
aa(lp187
V2013/2014
p188
aVAston Villa
p189
aVEPL
p190
aV24(2)
p191
aV2128
p192
aV10
p193
aV2
aV4
aV-
aV2.6
p194
aV60.7
p195
aV8.8
p196
aV5
aV7.25
p197
aa(lp198
V2012/2013
p199
aVAston Villa
p200
aVEPL
p201
aV32(2)
p202
aV2824
p203
aV19
p204
aV4
aV7
aV1
aV3.1
p205
aV65
p206
aV7.9
p207
aV8
aV7.45
p208
aa(lp209
VTotal / Average
p210
aV
aV
aV198
p211
aV14788
p212
aV70
p213
aV18
p214
aV31
p215
aV2
aV2.6
p216
aV62.2
p217
aV7.3
p218
aV28
p219
aV7.12
p220
aasS'defensive_data'
p221
(lp222
(lp223
a(lp224
V2018/2019
p225
aVCrystal Palac..
p226
aVEPL
p227
aV4
aV328
p228
aV-
aV-
aV-
aV-
aV3.3
p229
aV51.5
p230
aV9
aV-
aV6.79
p231
aa(lp232
V2017/2018
p233
aVCrystal Palac..
p234
aVEPL
p235
aV24(7)
p236
aV2238
p237
aV3
aV5
aV6
aV-
aV1.9
p238
aV56.4
p239
aV7.8
p240
aV2
aV6.91
p241
aa(lp242
V2016/2017
p243
aVCrystal Palac..
p244
aVEPL
p245
aV36
p246
aV3138
p247
aV15
p248
aV2
aV10
p249
aV-
aV2.9
p250
aV59.6
p251
aV9
aV7
aV7.36
p252
aa(lp253
V2015/2016
p254
aVLiverpool
p255
aVUEL
p256
aV2(5)
p257
aV221
p258
aV1
aV-
aV1
aV-
aV2.1
p259
aV67.5
p260
aV3.3
p261
aV-
aV6.61
p262
aa(lp263
V2015/2016
p264
aVLiverpool
p265
aVEPL
p266
aV14(15)
p267
aV1520
p268
aV9
aV3
aV2
aV-
aV2.1
p269
aV66.1
p270
aV4.4
p271
aV3
aV6.83
p272
aa(lp273
V2014/2015
p274
aVAston Villa
p275
aVEPL
p276
aV26(3)
p277
aV2380
p278
aV13
p279
aV2
aV1
aV1
aV2.8
p280
aV66.7
p281
aV6.5
p282
aV3
aV7.08
p283
aa(lp284
V2016
p285
aVBelgium
p286
aVUEC
p287
aV0(2)
p288
aV11
p289
aV-
aV-
aV-
aV-
aV0.5
p290
aV50
p291
aV0.5
p292
aV-
aV6.33
p293
aa(lp294
V2013/2014
p295
aVAston Villa
p296
aVEPL
p297
aV24(2)
p298
aV2128
p299
aV10
p300
aV2
aV4
aV-
aV2.6
p301
aV60.7
p302
aV8.8
p303
aV5
aV7.25
p304
aa(lp305
V2012/2013
p306
aVAston Villa
p307
aVEPL
p308
aV32(2)
p309
aV2824
p310
aV19
p311
aV4
aV7
aV1
aV3.1
p312
aV65
p313
aV7.9
p314
aV8
aV7.45
p315
aa(lp316
VTotal / Average
p317
aV
aV
aV198
p318
aV14788
p319
aV70
p320
aV18
p321
aV31
p322
aV2
aV2.6
p323
aV62.2
p324
aV7.3
p325
aV28
p326
aV7.12
p327
aasS'sumary_data'
p328
(lp329
(lp330
a(lp331
V2018/2019
p332
aVCrystal Palac..
p333
aVEPL
p334
aV4
aV328
p335
aV-
aV-
aV-
aV-
aV3.3
p336
aV51.5
p337
aV9
aV-
aV6.79
p338
aa(lp339
V2017/2018
p340
aVCrystal Palac..
p341
aVEPL
p342
aV24(7)
p343
aV2238
p344
aV3
aV5
aV6
aV-
aV1.9
p345
aV56.4
p346
aV7.8
p347
aV2
aV6.91
p348
aa(lp349
V2016/2017
p350
aVCrystal Palac..
p351
aVEPL
p352
aV36
p353
aV3138
p354
aV15
p355
aV2
aV10
p356
aV-
aV2.9
p357
aV59.6
p358
aV9
aV7
aV7.36
p359
aa(lp360
V2015/2016
p361
aVLiverpool
p362
aVUEL
p363
aV2(5)
p364
aV221
p365
aV1
aV-
aV1
aV-
aV2.1
p366
aV67.5
p367
aV3.3
p368
aV-
aV6.61
p369
aa(lp370
V2015/2016
p371
aVLiverpool
p372
aVEPL
p373
aV14(15)
p374
aV1520
p375
aV9
aV3
aV2
aV-
aV2.1
p376
aV66.1
p377
aV4.4
p378
aV3
aV6.83
p379
aa(lp380
V2014/2015
p381
aVAston Villa
p382
aVEPL
p383
aV26(3)
p384
aV2380
p385
aV13
p386
aV2
aV1
aV1
aV2.8
p387
aV66.7
p388
aV6.5
p389
aV3
aV7.08
p390
aa(lp391
V2016
p392
aVBelgium
p393
aVUEC
p394
aV0(2)
p395
aV11
p396
aV-
aV-
aV-
aV-
aV0.5
p397
aV50
p398
aV0.5
p399
aV-
aV6.33
p400
aa(lp401
V2013/2014
p402
aVAston Villa
p403
aVEPL
p404
aV24(2)
p405
aV2128
p406
aV10
p407
aV2
aV4
aV-
aV2.6
p408
aV60.7
p409
aV8.8
p410
aV5
aV7.25
p411
aa(lp412
V2012/2013
p413
aVAston Villa
p414
aVEPL
p415
aV32(2)
p416
aV2824
p417
aV19
p418
aV4
aV7
aV1
aV3.1
p419
aV65
p420
aV7.9
p421
aV8
aV7.45
p422
aa(lp423
VTotal / Average
p424
aV
aV
aV198
p425
aV14788
p426
aV70
p427
aV18
p428
aV31
p429
aV2
aV2.6
p430
aV62.2
p431
aV7.3
p432
aV28
p433
aV7.12
p434
aasS'id'
p435
V68312
p436
sb.