(i__main__
Player
p1
(dp2
S'name'
p3
VDenis Odoi 
p4
sS'offensive_data'
p5
(lp6
(lp7
a(lp8
V2018/2019
p9
aVFulham
p10
aVEPL
p11
aV14(1)
p12
aV1305
p13
aV-
aV-
aV2
aV-
aV0.3
p14
aV82.7
p15
aV1.9
p16
aV-
aV6.56
p17
aa(lp18
V2017/2018
p19
aVFulham
p20
aVEC
p21
aV33(8)
p22
aV2948
p23
aV2
aV-
aV5
aV2
aV0.3
p24
aV84.7
p25
aV2.4
p26
aV2
aV6.90
p27
aa(lp28
V2016/2017
p29
aVFulham
p30
aVEC
p31
aV21(9)
p32
aV2004
p33
aV2
aV2
aV6
aV-
aV0.4
p34
aV83.2
p35
aV2.1
p36
aV2
aV6.82
p37
aa(lp38
V2014/2015
p39
aVLokeren
p40
aVUEL
p41
aV6
aV540
p42
aV-
aV-
aV1
aV-
aV0.2
p43
aV79.1
p44
aV1.8
p45
aV1
aV7.29
p46
aa(lp47
VTotal / Average
p48
aV
aV
aV92
p49
aV6797
p50
aV4
aV2
aV14
p51
aV2
aV0.3
p52
aV83.5
p53
aV2.2
p54
aV5
aV6.84
p55
aasS'url'
p56
S'https://www.whoscored.com/Players/68335/History/'
p57
sS'passing_data'
p58
(lp59
(lp60
a(lp61
V2018/2019
p62
aVFulham
p63
aVEPL
p64
aV14(1)
p65
aV1305
p66
aV-
aV-
aV2
aV-
aV0.3
p67
aV82.7
p68
aV1.9
p69
aV-
aV6.56
p70
aa(lp71
V2017/2018
p72
aVFulham
p73
aVEC
p74
aV33(8)
p75
aV2948
p76
aV2
aV-
aV5
aV2
aV0.3
p77
aV84.7
p78
aV2.4
p79
aV2
aV6.90
p80
aa(lp81
V2016/2017
p82
aVFulham
p83
aVEC
p84
aV21(9)
p85
aV2004
p86
aV2
aV2
aV6
aV-
aV0.4
p87
aV83.2
p88
aV2.1
p89
aV2
aV6.82
p90
aa(lp91
V2014/2015
p92
aVLokeren
p93
aVUEL
p94
aV6
aV540
p95
aV-
aV-
aV1
aV-
aV0.2
p96
aV79.1
p97
aV1.8
p98
aV1
aV7.29
p99
aa(lp100
VTotal / Average
p101
aV
aV
aV92
p102
aV6797
p103
aV4
aV2
aV14
p104
aV2
aV0.3
p105
aV83.5
p106
aV2.2
p107
aV5
aV6.84
p108
aasS'defensive_data'
p109
(lp110
(lp111
a(lp112
V2018/2019
p113
aVFulham
p114
aVEPL
p115
aV14(1)
p116
aV1305
p117
aV-
aV-
aV2
aV-
aV0.3
p118
aV82.7
p119
aV1.9
p120
aV-
aV6.56
p121
aa(lp122
V2017/2018
p123
aVFulham
p124
aVEC
p125
aV33(8)
p126
aV2948
p127
aV2
aV-
aV5
aV2
aV0.3
p128
aV84.7
p129
aV2.4
p130
aV2
aV6.90
p131
aa(lp132
V2016/2017
p133
aVFulham
p134
aVEC
p135
aV21(9)
p136
aV2004
p137
aV2
aV2
aV6
aV-
aV0.4
p138
aV83.2
p139
aV2.1
p140
aV2
aV6.82
p141
aa(lp142
V2014/2015
p143
aVLokeren
p144
aVUEL
p145
aV6
aV540
p146
aV-
aV-
aV1
aV-
aV0.2
p147
aV79.1
p148
aV1.8
p149
aV1
aV7.29
p150
aa(lp151
VTotal / Average
p152
aV
aV
aV92
p153
aV6797
p154
aV4
aV2
aV14
p155
aV2
aV0.3
p156
aV83.5
p157
aV2.2
p158
aV5
aV6.84
p159
aasS'sumary_data'
p160
(lp161
(lp162
a(lp163
V2018/2019
p164
aVFulham
p165
aVEPL
p166
aV14(1)
p167
aV1305
p168
aV-
aV-
aV2
aV-
aV0.3
p169
aV82.7
p170
aV1.9
p171
aV-
aV6.56
p172
aa(lp173
V2017/2018
p174
aVFulham
p175
aVEC
p176
aV33(8)
p177
aV2948
p178
aV2
aV-
aV5
aV2
aV0.3
p179
aV84.7
p180
aV2.4
p181
aV2
aV6.90
p182
aa(lp183
V2016/2017
p184
aVFulham
p185
aVEC
p186
aV21(9)
p187
aV2004
p188
aV2
aV2
aV6
aV-
aV0.4
p189
aV83.2
p190
aV2.1
p191
aV2
aV6.82
p192
aa(lp193
V2014/2015
p194
aVLokeren
p195
aVUEL
p196
aV6
aV540
p197
aV-
aV-
aV1
aV-
aV0.2
p198
aV79.1
p199
aV1.8
p200
aV1
aV7.29
p201
aa(lp202
VTotal / Average
p203
aV
aV
aV92
p204
aV6797
p205
aV4
aV2
aV14
p206
aV2
aV0.3
p207
aV83.5
p208
aV2.2
p209
aV5
aV6.84
p210
aasS'id'
p211
V68335
p212
sb.