(i__main__
Player
p1
(dp2
S'name'
p3
VChristian Kabasele 
p4
sS'offensive_data'
p5
(lp6
(lp7
a(lp8
V2018/2019
p9
aVWatford
p10
aVEPL
p11
aV11(1)
p12
aV937
p13
aV-
aV-
aV-
aV1
aV0.6
p14
aV71.2
p15
aV3.4
p16
aV1
aV6.67
p17
aa(lp18
V2017/2018
p19
aVWatford
p20
aVEPL
p21
aV27(1)
p22
aV2332
p23
aV2
aV-
aV5
aV-
aV0.4
p24
aV74.8
p25
aV3.7
p26
aV2
aV6.93
p27
aa(lp28
V2016/2017
p29
aVWatford
p30
aVEPL
p31
aV7(9)
p32
aV767
p33
aV2
aV-
aV1
aV-
aV0.4
p34
aV65.4
p35
aV1.1
p36
aV-
aV6.48
p37
aa(lp38
VTotal / Average
p39
aV
aV
aV56
p40
aV4036
p41
aV4
aV0
aV6
aV1
aV0.4
p42
aV71.3
p43
aV2.9
p44
aV3
aV6.75
p45
aasS'url'
p46
S'https://www.whoscored.com/Players/68393/History/'
p47
sS'passing_data'
p48
(lp49
(lp50
a(lp51
V2018/2019
p52
aVWatford
p53
aVEPL
p54
aV11(1)
p55
aV937
p56
aV-
aV-
aV-
aV1
aV0.6
p57
aV71.2
p58
aV3.4
p59
aV1
aV6.67
p60
aa(lp61
V2017/2018
p62
aVWatford
p63
aVEPL
p64
aV27(1)
p65
aV2332
p66
aV2
aV-
aV5
aV-
aV0.4
p67
aV74.8
p68
aV3.7
p69
aV2
aV6.93
p70
aa(lp71
V2016/2017
p72
aVWatford
p73
aVEPL
p74
aV7(9)
p75
aV767
p76
aV2
aV-
aV1
aV-
aV0.4
p77
aV65.4
p78
aV1.1
p79
aV-
aV6.48
p80
aa(lp81
VTotal / Average
p82
aV
aV
aV56
p83
aV4036
p84
aV4
aV0
aV6
aV1
aV0.4
p85
aV71.3
p86
aV2.9
p87
aV3
aV6.75
p88
aasS'defensive_data'
p89
(lp90
(lp91
a(lp92
V2018/2019
p93
aVWatford
p94
aVEPL
p95
aV11(1)
p96
aV937
p97
aV-
aV-
aV-
aV1
aV0.6
p98
aV71.2
p99
aV3.4
p100
aV1
aV6.67
p101
aa(lp102
V2017/2018
p103
aVWatford
p104
aVEPL
p105
aV27(1)
p106
aV2332
p107
aV2
aV-
aV5
aV-
aV0.4
p108
aV74.8
p109
aV3.7
p110
aV2
aV6.93
p111
aa(lp112
V2016/2017
p113
aVWatford
p114
aVEPL
p115
aV7(9)
p116
aV767
p117
aV2
aV-
aV1
aV-
aV0.4
p118
aV65.4
p119
aV1.1
p120
aV-
aV6.48
p121
aa(lp122
VTotal / Average
p123
aV
aV
aV56
p124
aV4036
p125
aV4
aV0
aV6
aV1
aV0.4
p126
aV71.3
p127
aV2.9
p128
aV3
aV6.75
p129
aasS'sumary_data'
p130
(lp131
(lp132
a(lp133
V2018/2019
p134
aVWatford
p135
aVEPL
p136
aV11(1)
p137
aV937
p138
aV-
aV-
aV-
aV1
aV0.6
p139
aV71.2
p140
aV3.4
p141
aV1
aV6.67
p142
aa(lp143
V2017/2018
p144
aVWatford
p145
aVEPL
p146
aV27(1)
p147
aV2332
p148
aV2
aV-
aV5
aV-
aV0.4
p149
aV74.8
p150
aV3.7
p151
aV2
aV6.93
p152
aa(lp153
V2016/2017
p154
aVWatford
p155
aVEPL
p156
aV7(9)
p157
aV767
p158
aV2
aV-
aV1
aV-
aV0.4
p159
aV65.4
p160
aV1.1
p161
aV-
aV6.48
p162
aa(lp163
VTotal / Average
p164
aV
aV
aV56
p165
aV4036
p166
aV4
aV0
aV6
aV1
aV0.4
p167
aV71.3
p168
aV2.9
p169
aV3
aV6.75
p170
aasS'id'
p171
V68393
p172
sb.