(i__main__
Player
p1
(dp2
S'name'
p3
VMatt Ritchie 
p4
sS'offensive_data'
p5
(lp6
(lp7
a(lp8
V2018/2019
p9
aVNewcastle Uni..
p10
aVEPL
p11
aV14(1)
p12
aV1123
p13
aV-
aV2
aV5
aV-
aV1.1
p14
aV71.9
p15
aV0.9
p16
aV-
aV6.65
p17
aa(lp18
V2017/2018
p19
aVNewcastle Uni..
p20
aVEPL
p21
aV32(3)
p22
aV2812
p23
aV3
aV5
aV6
aV-
aV1.7
p24
aV72.5
p25
aV0.9
p26
aV1
aV6.84
p27
aa(lp28
V2016/2017
p29
aVNewcastle Uni..
p30
aVEC
p31
aV40(2)
p32
aV3547
p33
aV12
p34
aV7
aV10
p35
aV-
aV2.7
p36
aV76.8
p37
aV1
aV2
aV7.20
p38
aa(lp39
V2015/2016
p40
aVBournemouth
p41
aVEPL
p42
aV33(4)
p43
aV2979
p44
aV4
aV6
aV5
aV-
aV2.1
p45
aV76.2
p46
aV0.6
p47
aV-
aV6.77
p48
aa(lp49
V2014/2015
p50
aVBournemouth
p51
aVEC
p52
aV44(2)
p53
aV3731
p54
aV15
p55
aV17
p56
aV6
aV-
aV3.3
p57
aV75.6
p58
aV0.6
p59
aV7
aV7.44
p60
aa(lp61
V2013/2014
p62
aVBournemouth
p63
aVEC
p64
aV28(2)
p65
aV2414
p66
aV9
aV2
aV5
aV-
aV3.2
p67
aV72.7
p68
aV0.6
p69
aV2
aV7.07
p70
aa(lp71
V2009/2010
p72
aVPortsmouth
p73
aVEPL
p74
aV1(1)
p75
aV81
p76
aV-
aV-
aV-
aV-
aV1.5
p77
aV80
p78
aV0.5
p79
aV-
aV6.29
p80
aa(lp81
VTotal / Average
p82
aV
aV
aV207
p83
aV16687
p84
aV43
p85
aV39
p86
aV37
p87
aV0
aV2.5
p88
aV74.8
p89
aV0.8
p90
aV12
p91
aV7.05
p92
aasS'url'
p93
S'https://www.whoscored.com/Players/68648/History/'
p94
sS'passing_data'
p95
(lp96
(lp97
a(lp98
V2018/2019
p99
aVNewcastle Uni..
p100
aVEPL
p101
aV14(1)
p102
aV1123
p103
aV-
aV2
aV5
aV-
aV1.1
p104
aV71.9
p105
aV0.9
p106
aV-
aV6.65
p107
aa(lp108
V2017/2018
p109
aVNewcastle Uni..
p110
aVEPL
p111
aV32(3)
p112
aV2812
p113
aV3
aV5
aV6
aV-
aV1.7
p114
aV72.5
p115
aV0.9
p116
aV1
aV6.84
p117
aa(lp118
V2016/2017
p119
aVNewcastle Uni..
p120
aVEC
p121
aV40(2)
p122
aV3547
p123
aV12
p124
aV7
aV10
p125
aV-
aV2.7
p126
aV76.8
p127
aV1
aV2
aV7.20
p128
aa(lp129
V2015/2016
p130
aVBournemouth
p131
aVEPL
p132
aV33(4)
p133
aV2979
p134
aV4
aV6
aV5
aV-
aV2.1
p135
aV76.2
p136
aV0.6
p137
aV-
aV6.77
p138
aa(lp139
V2014/2015
p140
aVBournemouth
p141
aVEC
p142
aV44(2)
p143
aV3731
p144
aV15
p145
aV17
p146
aV6
aV-
aV3.3
p147
aV75.6
p148
aV0.6
p149
aV7
aV7.44
p150
aa(lp151
V2013/2014
p152
aVBournemouth
p153
aVEC
p154
aV28(2)
p155
aV2414
p156
aV9
aV2
aV5
aV-
aV3.2
p157
aV72.7
p158
aV0.6
p159
aV2
aV7.07
p160
aa(lp161
V2009/2010
p162
aVPortsmouth
p163
aVEPL
p164
aV1(1)
p165
aV81
p166
aV-
aV-
aV-
aV-
aV1.5
p167
aV80
p168
aV0.5
p169
aV-
aV6.29
p170
aa(lp171
VTotal / Average
p172
aV
aV
aV207
p173
aV16687
p174
aV43
p175
aV39
p176
aV37
p177
aV0
aV2.5
p178
aV74.8
p179
aV0.8
p180
aV12
p181
aV7.05
p182
aasS'defensive_data'
p183
(lp184
(lp185
a(lp186
V2018/2019
p187
aVNewcastle Uni..
p188
aVEPL
p189
aV14(1)
p190
aV1123
p191
aV-
aV2
aV5
aV-
aV1.1
p192
aV71.9
p193
aV0.9
p194
aV-
aV6.65
p195
aa(lp196
V2017/2018
p197
aVNewcastle Uni..
p198
aVEPL
p199
aV32(3)
p200
aV2812
p201
aV3
aV5
aV6
aV-
aV1.7
p202
aV72.5
p203
aV0.9
p204
aV1
aV6.84
p205
aa(lp206
V2016/2017
p207
aVNewcastle Uni..
p208
aVEC
p209
aV40(2)
p210
aV3547
p211
aV12
p212
aV7
aV10
p213
aV-
aV2.7
p214
aV76.8
p215
aV1
aV2
aV7.20
p216
aa(lp217
V2015/2016
p218
aVBournemouth
p219
aVEPL
p220
aV33(4)
p221
aV2979
p222
aV4
aV6
aV5
aV-
aV2.1
p223
aV76.2
p224
aV0.6
p225
aV-
aV6.77
p226
aa(lp227
V2014/2015
p228
aVBournemouth
p229
aVEC
p230
aV44(2)
p231
aV3731
p232
aV15
p233
aV17
p234
aV6
aV-
aV3.3
p235
aV75.6
p236
aV0.6
p237
aV7
aV7.44
p238
aa(lp239
V2013/2014
p240
aVBournemouth
p241
aVEC
p242
aV28(2)
p243
aV2414
p244
aV9
aV2
aV5
aV-
aV3.2
p245
aV72.7
p246
aV0.6
p247
aV2
aV7.07
p248
aa(lp249
V2009/2010
p250
aVPortsmouth
p251
aVEPL
p252
aV1(1)
p253
aV81
p254
aV-
aV-
aV-
aV-
aV1.5
p255
aV80
p256
aV0.5
p257
aV-
aV6.29
p258
aa(lp259
VTotal / Average
p260
aV
aV
aV207
p261
aV16687
p262
aV43
p263
aV39
p264
aV37
p265
aV0
aV2.5
p266
aV74.8
p267
aV0.8
p268
aV12
p269
aV7.05
p270
aasS'sumary_data'
p271
(lp272
(lp273
a(lp274
V2018/2019
p275
aVNewcastle Uni..
p276
aVEPL
p277
aV14(1)
p278
aV1123
p279
aV-
aV2
aV5
aV-
aV1.1
p280
aV71.9
p281
aV0.9
p282
aV-
aV6.65
p283
aa(lp284
V2017/2018
p285
aVNewcastle Uni..
p286
aVEPL
p287
aV32(3)
p288
aV2812
p289
aV3
aV5
aV6
aV-
aV1.7
p290
aV72.5
p291
aV0.9
p292
aV1
aV6.84
p293
aa(lp294
V2016/2017
p295
aVNewcastle Uni..
p296
aVEC
p297
aV40(2)
p298
aV3547
p299
aV12
p300
aV7
aV10
p301
aV-
aV2.7
p302
aV76.8
p303
aV1
aV2
aV7.20
p304
aa(lp305
V2015/2016
p306
aVBournemouth
p307
aVEPL
p308
aV33(4)
p309
aV2979
p310
aV4
aV6
aV5
aV-
aV2.1
p311
aV76.2
p312
aV0.6
p313
aV-
aV6.77
p314
aa(lp315
V2014/2015
p316
aVBournemouth
p317
aVEC
p318
aV44(2)
p319
aV3731
p320
aV15
p321
aV17
p322
aV6
aV-
aV3.3
p323
aV75.6
p324
aV0.6
p325
aV7
aV7.44
p326
aa(lp327
V2013/2014
p328
aVBournemouth
p329
aVEC
p330
aV28(2)
p331
aV2414
p332
aV9
aV2
aV5
aV-
aV3.2
p333
aV72.7
p334
aV0.6
p335
aV2
aV7.07
p336
aa(lp337
V2009/2010
p338
aVPortsmouth
p339
aVEPL
p340
aV1(1)
p341
aV81
p342
aV-
aV-
aV-
aV-
aV1.5
p343
aV80
p344
aV0.5
p345
aV-
aV6.29
p346
aa(lp347
VTotal / Average
p348
aV
aV
aV207
p349
aV16687
p350
aV43
p351
aV39
p352
aV37
p353
aV0
aV2.5
p354
aV74.8
p355
aV0.8
p356
aV12
p357
aV7.05
p358
aasS'id'
p359
V68648
p360
sb.