(i__main__
Player
p1
(dp2
S'name'
p3
VJordan Henderson 
p4
sS'offensive_data'
p5
(lp6
(lp7
a(lp8
V2018/2019
p9
aVLiverpool
p10
aVEPL
p11
aV7(7)
p12
aV666
p13
aV-
aV-
aV-
aV1
aV0.2
p14
aV88.6
p15
aV0.4
p16
aV-
aV6.41
p17
aa(lp18
V2018/2019
p19
aVLiverpool
p20
aVUCL
p21
aV3(1)
p22
aV341
p23
aV-
aV-
aV-
aV-
aV0.8
p24
aV89.1
p25
aV1
aV-
aV6.74
p26
aa(lp27
V2018/2019
p28
aVEngland
p29
aVUNL
p30
aV2
aV154
p31
aV-
aV-
aV2
aV-
aV-
aV77
p32
aV-
aV-
aV6.13
p33
aa(lp34
V2017/2018
p35
aVLiverpool
p36
aVUCL
p37
aV9(1)
p38
aV868
p39
aV-
aV-
aV3
aV-
aV0.2
p40
aV82.7
p41
aV0.8
p42
aV-
aV6.86
p43
aa(lp44
V2017/2018
p45
aVLiverpool
p46
aVEPL
p47
aV25(2)
p48
aV2173
p49
aV1
aV1
aV1
aV-
aV0.6
p50
aV84.4
p51
aV1
aV-
aV6.95
p52
aa(lp53
V2016/2017
p54
aVLiverpool
p55
aVEPL
p56
aV24
p57
aV2118
p58
aV1
aV4
aV8
aV-
aV0.7
p59
aV85.9
p60
aV1.1
p61
aV2
aV7.30
p62
aa(lp63
V2018
p64
aVEngland
p65
aVWC
p66
aV5
aV482
p67
aV-
aV-
aV1
aV-
aV0.8
p68
aV79.3
p69
aV2
aV-
aV6.71
p70
aa(lp71
V2015/2016
p72
aVLiverpool
p73
aVUEL
p74
aV6
aV464
p75
aV-
aV-
aV1
aV-
aV1.3
p76
aV84.3
p77
aV0.2
p78
aV-
aV6.71
p79
aa(lp80
V2015/2016
p81
aVLiverpool
p82
aVEPL
p83
aV15(2)
p84
aV1293
p85
aV2
aV3
aV1
aV-
aV1.5
p86
aV79.1
p87
aV1.2
p88
aV-
aV7.14
p89
aa(lp90
V2014/2015
p91
aVLiverpool
p92
aVUCL
p93
aV5
aV427
p94
aV1
aV-
aV-
aV-
aV1.8
p95
aV83.8
p96
aV1.2
p97
aV-
aV6.81
p98
aa(lp99
V2014/2015
p100
aVLiverpool
p101
aVUEL
p102
aV1
aV90
p103
aV-
aV-
aV-
aV-
aV4
aV79.2
p104
aV-
aV-
aV7.73
p105
aa(lp106
V2014/2015
p107
aVLiverpool
p108
aVEPL
p109
aV36(1)
p110
aV3256
p111
aV6
aV9
aV6
aV-
aV1.4
p112
aV82.4
p113
aV1.1
p114
aV2
aV7.14
p115
aa(lp116
V2016
p117
aVEngland
p118
aVUEC
p119
aV1
aV90
p120
aV-
aV-
aV-
aV-
aV2
aV91.3
p121
aV-
aV-
aV7.33
p122
aa(lp123
V2013/2014
p124
aVLiverpool
p125
aVEPL
p126
aV35
p127
aV3129
p128
aV4
aV7
aV4
aV1
aV1.4
p129
aV87.1
p130
aV0.9
p131
aV-
aV7.20
p132
aa(lp133
V2014
p134
aVEngland
p135
aVWC
p136
aV2
aV160
p137
aV-
aV-
aV-
aV-
aV1.5
p138
aV89.1
p139
aV0.5
p140
aV-
aV6.71
p141
aa(lp142
V2013
p143
aVEngland U21
p144
aVIEU
p145
aV2(1)
p146
aV225
p147
aV-
aV-
aV1
aV-
aV2
aV84.4
p148
aV0.7
p149
aV-
aV6.34
p150
aa(lp151
V2012/2013
p152
aVLiverpool
p153
aVUEL
p154
aV7
aV575
p155
aV1
aV2
aV-
aV-
aV2.1
p156
aV87.6
p157
aV0.7
p158
aV1
aV6.91
p159
aa(lp160
V2012/2013
p161
aVLiverpool
p162
aVEPL
p163
aV16(14)
p164
aV1529
p165
aV5
aV4
aV3
aV-
aV1.1
p166
aV84.5
p167
aV0.3
p168
aV1
aV6.81
p169
aa(lp170
V2012
p171
aVEngland
p172
aVUEC
p173
aV0(2)
p174
aV38
p175
aV-
aV-
aV-
aV-
aV-
aV100
p176
aV0.5
p177
aV-
aV6.24
p178
aa(lp179
V2011/2012
p180
aVLiverpool
p181
aVEPL
p182
aV31(6)
p183
aV2666
p184
aV2
aV1
aV3
aV-
aV1.1
p185
aV83.9
p186
aV0.4
p187
aV-
aV6.67
p188
aa(lp189
V2010/2011
p190
aVSunderland
p191
aVEPL
p192
aV37
p193
aV3219
p194
aV3
aV4
aV2
aV-
aV1.2
p195
aV81.2
p196
aV0.4
p197
aV2
aV7.05
p198
aa(lp199
V2009/2010
p200
aVSunderland
p201
aVEPL
p202
aV23(10)
p203
aV2189
p204
aV1
aV5
aV3
aV-
aV1
aV68.4
p205
aV0.3
p206
aV-
aV6.73
p207
aa(lp208
VTotal / Average
p209
aV
aV
aV339
p210
aV26152
p211
aV27
p212
aV40
p213
aV39
p214
aV2
aV1.1
p215
aV82.6
p216
aV0.7
p217
aV8
aV6.93
p218
aasS'url'
p219
S'https://www.whoscored.com/Players/68659/History/'
p220
sS'passing_data'
p221
(lp222
(lp223
a(lp224
V2018/2019
p225
aVLiverpool
p226
aVEPL
p227
aV7(7)
p228
aV666
p229
aV-
aV-
aV-
aV1
aV0.2
p230
aV88.6
p231
aV0.4
p232
aV-
aV6.41
p233
aa(lp234
V2018/2019
p235
aVLiverpool
p236
aVUCL
p237
aV3(1)
p238
aV341
p239
aV-
aV-
aV-
aV-
aV0.8
p240
aV89.1
p241
aV1
aV-
aV6.74
p242
aa(lp243
V2018/2019
p244
aVEngland
p245
aVUNL
p246
aV2
aV154
p247
aV-
aV-
aV2
aV-
aV-
aV77
p248
aV-
aV-
aV6.13
p249
aa(lp250
V2017/2018
p251
aVLiverpool
p252
aVUCL
p253
aV9(1)
p254
aV868
p255
aV-
aV-
aV3
aV-
aV0.2
p256
aV82.7
p257
aV0.8
p258
aV-
aV6.86
p259
aa(lp260
V2017/2018
p261
aVLiverpool
p262
aVEPL
p263
aV25(2)
p264
aV2173
p265
aV1
aV1
aV1
aV-
aV0.6
p266
aV84.4
p267
aV1
aV-
aV6.95
p268
aa(lp269
V2016/2017
p270
aVLiverpool
p271
aVEPL
p272
aV24
p273
aV2118
p274
aV1
aV4
aV8
aV-
aV0.7
p275
aV85.9
p276
aV1.1
p277
aV2
aV7.30
p278
aa(lp279
V2018
p280
aVEngland
p281
aVWC
p282
aV5
aV482
p283
aV-
aV-
aV1
aV-
aV0.8
p284
aV79.3
p285
aV2
aV-
aV6.71
p286
aa(lp287
V2015/2016
p288
aVLiverpool
p289
aVUEL
p290
aV6
aV464
p291
aV-
aV-
aV1
aV-
aV1.3
p292
aV84.3
p293
aV0.2
p294
aV-
aV6.71
p295
aa(lp296
V2015/2016
p297
aVLiverpool
p298
aVEPL
p299
aV15(2)
p300
aV1293
p301
aV2
aV3
aV1
aV-
aV1.5
p302
aV79.1
p303
aV1.2
p304
aV-
aV7.14
p305
aa(lp306
V2014/2015
p307
aVLiverpool
p308
aVUCL
p309
aV5
aV427
p310
aV1
aV-
aV-
aV-
aV1.8
p311
aV83.8
p312
aV1.2
p313
aV-
aV6.81
p314
aa(lp315
V2014/2015
p316
aVLiverpool
p317
aVUEL
p318
aV1
aV90
p319
aV-
aV-
aV-
aV-
aV4
aV79.2
p320
aV-
aV-
aV7.73
p321
aa(lp322
V2014/2015
p323
aVLiverpool
p324
aVEPL
p325
aV36(1)
p326
aV3256
p327
aV6
aV9
aV6
aV-
aV1.4
p328
aV82.4
p329
aV1.1
p330
aV2
aV7.14
p331
aa(lp332
V2016
p333
aVEngland
p334
aVUEC
p335
aV1
aV90
p336
aV-
aV-
aV-
aV-
aV2
aV91.3
p337
aV-
aV-
aV7.33
p338
aa(lp339
V2013/2014
p340
aVLiverpool
p341
aVEPL
p342
aV35
p343
aV3129
p344
aV4
aV7
aV4
aV1
aV1.4
p345
aV87.1
p346
aV0.9
p347
aV-
aV7.20
p348
aa(lp349
V2014
p350
aVEngland
p351
aVWC
p352
aV2
aV160
p353
aV-
aV-
aV-
aV-
aV1.5
p354
aV89.1
p355
aV0.5
p356
aV-
aV6.71
p357
aa(lp358
V2013
p359
aVEngland U21
p360
aVIEU
p361
aV2(1)
p362
aV225
p363
aV-
aV-
aV1
aV-
aV2
aV84.4
p364
aV0.7
p365
aV-
aV6.34
p366
aa(lp367
V2012/2013
p368
aVLiverpool
p369
aVUEL
p370
aV7
aV575
p371
aV1
aV2
aV-
aV-
aV2.1
p372
aV87.6
p373
aV0.7
p374
aV1
aV6.91
p375
aa(lp376
V2012/2013
p377
aVLiverpool
p378
aVEPL
p379
aV16(14)
p380
aV1529
p381
aV5
aV4
aV3
aV-
aV1.1
p382
aV84.5
p383
aV0.3
p384
aV1
aV6.81
p385
aa(lp386
V2012
p387
aVEngland
p388
aVUEC
p389
aV0(2)
p390
aV38
p391
aV-
aV-
aV-
aV-
aV-
aV100
p392
aV0.5
p393
aV-
aV6.24
p394
aa(lp395
V2011/2012
p396
aVLiverpool
p397
aVEPL
p398
aV31(6)
p399
aV2666
p400
aV2
aV1
aV3
aV-
aV1.1
p401
aV83.9
p402
aV0.4
p403
aV-
aV6.67
p404
aa(lp405
V2010/2011
p406
aVSunderland
p407
aVEPL
p408
aV37
p409
aV3219
p410
aV3
aV4
aV2
aV-
aV1.2
p411
aV81.2
p412
aV0.4
p413
aV2
aV7.05
p414
aa(lp415
V2009/2010
p416
aVSunderland
p417
aVEPL
p418
aV23(10)
p419
aV2189
p420
aV1
aV5
aV3
aV-
aV1
aV68.4
p421
aV0.3
p422
aV-
aV6.73
p423
aa(lp424
VTotal / Average
p425
aV
aV
aV339
p426
aV26152
p427
aV27
p428
aV40
p429
aV39
p430
aV2
aV1.1
p431
aV82.6
p432
aV0.7
p433
aV8
aV6.93
p434
aasS'defensive_data'
p435
(lp436
(lp437
a(lp438
V2018/2019
p439
aVLiverpool
p440
aVEPL
p441
aV7(7)
p442
aV666
p443
aV-
aV-
aV-
aV1
aV0.2
p444
aV88.6
p445
aV0.4
p446
aV-
aV6.41
p447
aa(lp448
V2018/2019
p449
aVLiverpool
p450
aVUCL
p451
aV3(1)
p452
aV341
p453
aV-
aV-
aV-
aV-
aV0.8
p454
aV89.1
p455
aV1
aV-
aV6.74
p456
aa(lp457
V2018/2019
p458
aVEngland
p459
aVUNL
p460
aV2
aV154
p461
aV-
aV-
aV2
aV-
aV-
aV77
p462
aV-
aV-
aV6.13
p463
aa(lp464
V2017/2018
p465
aVLiverpool
p466
aVUCL
p467
aV9(1)
p468
aV868
p469
aV-
aV-
aV3
aV-
aV0.2
p470
aV82.7
p471
aV0.8
p472
aV-
aV6.86
p473
aa(lp474
V2017/2018
p475
aVLiverpool
p476
aVEPL
p477
aV25(2)
p478
aV2173
p479
aV1
aV1
aV1
aV-
aV0.6
p480
aV84.4
p481
aV1
aV-
aV6.95
p482
aa(lp483
V2016/2017
p484
aVLiverpool
p485
aVEPL
p486
aV24
p487
aV2118
p488
aV1
aV4
aV8
aV-
aV0.7
p489
aV85.9
p490
aV1.1
p491
aV2
aV7.30
p492
aa(lp493
V2018
p494
aVEngland
p495
aVWC
p496
aV5
aV482
p497
aV-
aV-
aV1
aV-
aV0.8
p498
aV79.3
p499
aV2
aV-
aV6.71
p500
aa(lp501
V2015/2016
p502
aVLiverpool
p503
aVUEL
p504
aV6
aV464
p505
aV-
aV-
aV1
aV-
aV1.3
p506
aV84.3
p507
aV0.2
p508
aV-
aV6.71
p509
aa(lp510
V2015/2016
p511
aVLiverpool
p512
aVEPL
p513
aV15(2)
p514
aV1293
p515
aV2
aV3
aV1
aV-
aV1.5
p516
aV79.1
p517
aV1.2
p518
aV-
aV7.14
p519
aa(lp520
V2014/2015
p521
aVLiverpool
p522
aVUCL
p523
aV5
aV427
p524
aV1
aV-
aV-
aV-
aV1.8
p525
aV83.8
p526
aV1.2
p527
aV-
aV6.81
p528
aa(lp529
V2014/2015
p530
aVLiverpool
p531
aVUEL
p532
aV1
aV90
p533
aV-
aV-
aV-
aV-
aV4
aV79.2
p534
aV-
aV-
aV7.73
p535
aa(lp536
V2014/2015
p537
aVLiverpool
p538
aVEPL
p539
aV36(1)
p540
aV3256
p541
aV6
aV9
aV6
aV-
aV1.4
p542
aV82.4
p543
aV1.1
p544
aV2
aV7.14
p545
aa(lp546
V2016
p547
aVEngland
p548
aVUEC
p549
aV1
aV90
p550
aV-
aV-
aV-
aV-
aV2
aV91.3
p551
aV-
aV-
aV7.33
p552
aa(lp553
V2013/2014
p554
aVLiverpool
p555
aVEPL
p556
aV35
p557
aV3129
p558
aV4
aV7
aV4
aV1
aV1.4
p559
aV87.1
p560
aV0.9
p561
aV-
aV7.20
p562
aa(lp563
V2014
p564
aVEngland
p565
aVWC
p566
aV2
aV160
p567
aV-
aV-
aV-
aV-
aV1.5
p568
aV89.1
p569
aV0.5
p570
aV-
aV6.71
p571
aa(lp572
V2013
p573
aVEngland U21
p574
aVIEU
p575
aV2(1)
p576
aV225
p577
aV-
aV-
aV1
aV-
aV2
aV84.4
p578
aV0.7
p579
aV-
aV6.34
p580
aa(lp581
V2012/2013
p582
aVLiverpool
p583
aVUEL
p584
aV7
aV575
p585
aV1
aV2
aV-
aV-
aV2.1
p586
aV87.6
p587
aV0.7
p588
aV1
aV6.91
p589
aa(lp590
V2012/2013
p591
aVLiverpool
p592
aVEPL
p593
aV16(14)
p594
aV1529
p595
aV5
aV4
aV3
aV-
aV1.1
p596
aV84.5
p597
aV0.3
p598
aV1
aV6.81
p599
aa(lp600
V2012
p601
aVEngland
p602
aVUEC
p603
aV0(2)
p604
aV38
p605
aV-
aV-
aV-
aV-
aV-
aV100
p606
aV0.5
p607
aV-
aV6.24
p608
aa(lp609
V2011/2012
p610
aVLiverpool
p611
aVEPL
p612
aV31(6)
p613
aV2666
p614
aV2
aV1
aV3
aV-
aV1.1
p615
aV83.9
p616
aV0.4
p617
aV-
aV6.67
p618
aa(lp619
V2010/2011
p620
aVSunderland
p621
aVEPL
p622
aV37
p623
aV3219
p624
aV3
aV4
aV2
aV-
aV1.2
p625
aV81.2
p626
aV0.4
p627
aV2
aV7.05
p628
aa(lp629
V2009/2010
p630
aVSunderland
p631
aVEPL
p632
aV23(10)
p633
aV2189
p634
aV1
aV5
aV3
aV-
aV1
aV68.4
p635
aV0.3
p636
aV-
aV6.73
p637
aa(lp638
VTotal / Average
p639
aV
aV
aV339
p640
aV26152
p641
aV27
p642
aV40
p643
aV39
p644
aV2
aV1.1
p645
aV82.6
p646
aV0.7
p647
aV8
aV6.93
p648
aasS'sumary_data'
p649
(lp650
(lp651
a(lp652
V2018/2019
p653
aVLiverpool
p654
aVEPL
p655
aV7(7)
p656
aV666
p657
aV-
aV-
aV-
aV1
aV0.2
p658
aV88.6
p659
aV0.4
p660
aV-
aV6.41
p661
aa(lp662
V2018/2019
p663
aVLiverpool
p664
aVUCL
p665
aV3(1)
p666
aV341
p667
aV-
aV-
aV-
aV-
aV0.8
p668
aV89.1
p669
aV1
aV-
aV6.74
p670
aa(lp671
V2018/2019
p672
aVEngland
p673
aVUNL
p674
aV2
aV154
p675
aV-
aV-
aV2
aV-
aV-
aV77
p676
aV-
aV-
aV6.13
p677
aa(lp678
V2017/2018
p679
aVLiverpool
p680
aVUCL
p681
aV9(1)
p682
aV868
p683
aV-
aV-
aV3
aV-
aV0.2
p684
aV82.7
p685
aV0.8
p686
aV-
aV6.86
p687
aa(lp688
V2017/2018
p689
aVLiverpool
p690
aVEPL
p691
aV25(2)
p692
aV2173
p693
aV1
aV1
aV1
aV-
aV0.6
p694
aV84.4
p695
aV1
aV-
aV6.95
p696
aa(lp697
V2016/2017
p698
aVLiverpool
p699
aVEPL
p700
aV24
p701
aV2118
p702
aV1
aV4
aV8
aV-
aV0.7
p703
aV85.9
p704
aV1.1
p705
aV2
aV7.30
p706
aa(lp707
V2018
p708
aVEngland
p709
aVWC
p710
aV5
aV482
p711
aV-
aV-
aV1
aV-
aV0.8
p712
aV79.3
p713
aV2
aV-
aV6.71
p714
aa(lp715
V2015/2016
p716
aVLiverpool
p717
aVUEL
p718
aV6
aV464
p719
aV-
aV-
aV1
aV-
aV1.3
p720
aV84.3
p721
aV0.2
p722
aV-
aV6.71
p723
aa(lp724
V2015/2016
p725
aVLiverpool
p726
aVEPL
p727
aV15(2)
p728
aV1293
p729
aV2
aV3
aV1
aV-
aV1.5
p730
aV79.1
p731
aV1.2
p732
aV-
aV7.14
p733
aa(lp734
V2014/2015
p735
aVLiverpool
p736
aVUCL
p737
aV5
aV427
p738
aV1
aV-
aV-
aV-
aV1.8
p739
aV83.8
p740
aV1.2
p741
aV-
aV6.81
p742
aa(lp743
V2014/2015
p744
aVLiverpool
p745
aVUEL
p746
aV1
aV90
p747
aV-
aV-
aV-
aV-
aV4
aV79.2
p748
aV-
aV-
aV7.73
p749
aa(lp750
V2014/2015
p751
aVLiverpool
p752
aVEPL
p753
aV36(1)
p754
aV3256
p755
aV6
aV9
aV6
aV-
aV1.4
p756
aV82.4
p757
aV1.1
p758
aV2
aV7.14
p759
aa(lp760
V2016
p761
aVEngland
p762
aVUEC
p763
aV1
aV90
p764
aV-
aV-
aV-
aV-
aV2
aV91.3
p765
aV-
aV-
aV7.33
p766
aa(lp767
V2013/2014
p768
aVLiverpool
p769
aVEPL
p770
aV35
p771
aV3129
p772
aV4
aV7
aV4
aV1
aV1.4
p773
aV87.1
p774
aV0.9
p775
aV-
aV7.20
p776
aa(lp777
V2014
p778
aVEngland
p779
aVWC
p780
aV2
aV160
p781
aV-
aV-
aV-
aV-
aV1.5
p782
aV89.1
p783
aV0.5
p784
aV-
aV6.71
p785
aa(lp786
V2013
p787
aVEngland U21
p788
aVIEU
p789
aV2(1)
p790
aV225
p791
aV-
aV-
aV1
aV-
aV2
aV84.4
p792
aV0.7
p793
aV-
aV6.34
p794
aa(lp795
V2012/2013
p796
aVLiverpool
p797
aVUEL
p798
aV7
aV575
p799
aV1
aV2
aV-
aV-
aV2.1
p800
aV87.6
p801
aV0.7
p802
aV1
aV6.91
p803
aa(lp804
V2012/2013
p805
aVLiverpool
p806
aVEPL
p807
aV16(14)
p808
aV1529
p809
aV5
aV4
aV3
aV-
aV1.1
p810
aV84.5
p811
aV0.3
p812
aV1
aV6.81
p813
aa(lp814
V2012
p815
aVEngland
p816
aVUEC
p817
aV0(2)
p818
aV38
p819
aV-
aV-
aV-
aV-
aV-
aV100
p820
aV0.5
p821
aV-
aV6.24
p822
aa(lp823
V2011/2012
p824
aVLiverpool
p825
aVEPL
p826
aV31(6)
p827
aV2666
p828
aV2
aV1
aV3
aV-
aV1.1
p829
aV83.9
p830
aV0.4
p831
aV-
aV6.67
p832
aa(lp833
V2010/2011
p834
aVSunderland
p835
aVEPL
p836
aV37
p837
aV3219
p838
aV3
aV4
aV2
aV-
aV1.2
p839
aV81.2
p840
aV0.4
p841
aV2
aV7.05
p842
aa(lp843
V2009/2010
p844
aVSunderland
p845
aVEPL
p846
aV23(10)
p847
aV2189
p848
aV1
aV5
aV3
aV-
aV1
aV68.4
p849
aV0.3
p850
aV-
aV6.73
p851
aa(lp852
VTotal / Average
p853
aV
aV
aV339
p854
aV26152
p855
aV27
p856
aV40
p857
aV39
p858
aV2
aV1.1
p859
aV82.6
p860
aV0.7
p861
aV8
aV6.93
p862
aasS'id'
p863
V68659
p864
sb.