(i__main__
Player
p1
(dp2
S'name'
p3
VJoe Bennett 
p4
sS'offensive_data'
p5
(lp6
(lp7
a(lp8
V2018/2019
p9
aVCardiff
p10
aVEPL
p11
aV12
p12
aV1049
p13
aV-
aV1
aV1
aV-
aV0.3
p14
aV74.6
p15
aV0.9
p16
aV-
aV6.77
p17
aa(lp18
V2017/2018
p19
aVCardiff
p20
aVEC
p21
aV38
p22
aV3340
p23
aV1
aV4
aV7
aV-
aV0.3
p24
aV65.4
p25
aV1.8
p26
aV1
aV7.00
p27
aa(lp28
V2016/2017
p29
aVCardiff
p30
aVEC
p31
aV23(1)
p32
aV2012
p33
aV3
aV-
aV2
aV-
aV0.9
p34
aV66
p35
aV2.3
p36
aV1
aV7.16
p37
aa(lp38
V2015/2016
p39
aVSheffield Wed..
p40
aVEC
p41
aV3
aV270
p42
aV-
aV-
aV1
aV-
aV-
aV82.7
p43
aV0.7
p44
aV-
aV7.38
p45
aa(lp46
V2014/2015
p47
aVBrighton
p48
aVEC
p49
aV41
p50
aV3674
p51
aV1
aV3
aV8
aV-
aV0.8
p52
aV81.1
p53
aV1.3
p54
aV-
aV7.11
p55
aa(lp56
V2013/2014
p57
aVAston Villa
p58
aVEPL
p59
aV3(2)
p60
aV244
p61
aV-
aV-
aV2
aV-
aV0.2
p62
aV73.7
p63
aV0.2
p64
aV-
aV6.56
p65
aa(lp66
V2012/2013
p67
aVAston Villa
p68
aVEPL
p69
aV21(4)
p70
aV1855
p71
aV-
aV2
aV2
aV1
aV0.3
p72
aV83.2
p73
aV0.8
p74
aV-
aV6.66
p75
aa(lp76
VTotal / Average
p77
aV
aV
aV148
p78
aV12444
p79
aV5
aV10
p80
aV23
p81
aV1
aV0.5
p82
aV74.2
p83
aV1.4
p84
aV2
aV6.97
p85
aasS'url'
p86
S'https://www.whoscored.com/Players/68658/History/'
p87
sS'passing_data'
p88
(lp89
(lp90
a(lp91
V2018/2019
p92
aVCardiff
p93
aVEPL
p94
aV12
p95
aV1049
p96
aV-
aV1
aV1
aV-
aV0.3
p97
aV74.6
p98
aV0.9
p99
aV-
aV6.77
p100
aa(lp101
V2017/2018
p102
aVCardiff
p103
aVEC
p104
aV38
p105
aV3340
p106
aV1
aV4
aV7
aV-
aV0.3
p107
aV65.4
p108
aV1.8
p109
aV1
aV7.00
p110
aa(lp111
V2016/2017
p112
aVCardiff
p113
aVEC
p114
aV23(1)
p115
aV2012
p116
aV3
aV-
aV2
aV-
aV0.9
p117
aV66
p118
aV2.3
p119
aV1
aV7.16
p120
aa(lp121
V2015/2016
p122
aVSheffield Wed..
p123
aVEC
p124
aV3
aV270
p125
aV-
aV-
aV1
aV-
aV-
aV82.7
p126
aV0.7
p127
aV-
aV7.38
p128
aa(lp129
V2014/2015
p130
aVBrighton
p131
aVEC
p132
aV41
p133
aV3674
p134
aV1
aV3
aV8
aV-
aV0.8
p135
aV81.1
p136
aV1.3
p137
aV-
aV7.11
p138
aa(lp139
V2013/2014
p140
aVAston Villa
p141
aVEPL
p142
aV3(2)
p143
aV244
p144
aV-
aV-
aV2
aV-
aV0.2
p145
aV73.7
p146
aV0.2
p147
aV-
aV6.56
p148
aa(lp149
V2012/2013
p150
aVAston Villa
p151
aVEPL
p152
aV21(4)
p153
aV1855
p154
aV-
aV2
aV2
aV1
aV0.3
p155
aV83.2
p156
aV0.8
p157
aV-
aV6.66
p158
aa(lp159
VTotal / Average
p160
aV
aV
aV148
p161
aV12444
p162
aV5
aV10
p163
aV23
p164
aV1
aV0.5
p165
aV74.2
p166
aV1.4
p167
aV2
aV6.97
p168
aasS'defensive_data'
p169
(lp170
(lp171
a(lp172
V2018/2019
p173
aVCardiff
p174
aVEPL
p175
aV12
p176
aV1049
p177
aV-
aV1
aV1
aV-
aV0.3
p178
aV74.6
p179
aV0.9
p180
aV-
aV6.77
p181
aa(lp182
V2017/2018
p183
aVCardiff
p184
aVEC
p185
aV38
p186
aV3340
p187
aV1
aV4
aV7
aV-
aV0.3
p188
aV65.4
p189
aV1.8
p190
aV1
aV7.00
p191
aa(lp192
V2016/2017
p193
aVCardiff
p194
aVEC
p195
aV23(1)
p196
aV2012
p197
aV3
aV-
aV2
aV-
aV0.9
p198
aV66
p199
aV2.3
p200
aV1
aV7.16
p201
aa(lp202
V2015/2016
p203
aVSheffield Wed..
p204
aVEC
p205
aV3
aV270
p206
aV-
aV-
aV1
aV-
aV-
aV82.7
p207
aV0.7
p208
aV-
aV7.38
p209
aa(lp210
V2014/2015
p211
aVBrighton
p212
aVEC
p213
aV41
p214
aV3674
p215
aV1
aV3
aV8
aV-
aV0.8
p216
aV81.1
p217
aV1.3
p218
aV-
aV7.11
p219
aa(lp220
V2013/2014
p221
aVAston Villa
p222
aVEPL
p223
aV3(2)
p224
aV244
p225
aV-
aV-
aV2
aV-
aV0.2
p226
aV73.7
p227
aV0.2
p228
aV-
aV6.56
p229
aa(lp230
V2012/2013
p231
aVAston Villa
p232
aVEPL
p233
aV21(4)
p234
aV1855
p235
aV-
aV2
aV2
aV1
aV0.3
p236
aV83.2
p237
aV0.8
p238
aV-
aV6.66
p239
aa(lp240
VTotal / Average
p241
aV
aV
aV148
p242
aV12444
p243
aV5
aV10
p244
aV23
p245
aV1
aV0.5
p246
aV74.2
p247
aV1.4
p248
aV2
aV6.97
p249
aasS'sumary_data'
p250
(lp251
(lp252
a(lp253
V2018/2019
p254
aVCardiff
p255
aVEPL
p256
aV12
p257
aV1049
p258
aV-
aV1
aV1
aV-
aV0.3
p259
aV74.6
p260
aV0.9
p261
aV-
aV6.77
p262
aa(lp263
V2017/2018
p264
aVCardiff
p265
aVEC
p266
aV38
p267
aV3340
p268
aV1
aV4
aV7
aV-
aV0.3
p269
aV65.4
p270
aV1.8
p271
aV1
aV7.00
p272
aa(lp273
V2016/2017
p274
aVCardiff
p275
aVEC
p276
aV23(1)
p277
aV2012
p278
aV3
aV-
aV2
aV-
aV0.9
p279
aV66
p280
aV2.3
p281
aV1
aV7.16
p282
aa(lp283
V2015/2016
p284
aVSheffield Wed..
p285
aVEC
p286
aV3
aV270
p287
aV-
aV-
aV1
aV-
aV-
aV82.7
p288
aV0.7
p289
aV-
aV7.38
p290
aa(lp291
V2014/2015
p292
aVBrighton
p293
aVEC
p294
aV41
p295
aV3674
p296
aV1
aV3
aV8
aV-
aV0.8
p297
aV81.1
p298
aV1.3
p299
aV-
aV7.11
p300
aa(lp301
V2013/2014
p302
aVAston Villa
p303
aVEPL
p304
aV3(2)
p305
aV244
p306
aV-
aV-
aV2
aV-
aV0.2
p307
aV73.7
p308
aV0.2
p309
aV-
aV6.56
p310
aa(lp311
V2012/2013
p312
aVAston Villa
p313
aVEPL
p314
aV21(4)
p315
aV1855
p316
aV-
aV2
aV2
aV1
aV0.3
p317
aV83.2
p318
aV0.8
p319
aV-
aV6.66
p320
aa(lp321
VTotal / Average
p322
aV
aV
aV148
p323
aV12444
p324
aV5
aV10
p325
aV23
p326
aV1
aV0.5
p327
aV74.2
p328
aV1.4
p329
aV2
aV6.97
p330
aasS'id'
p331
V68658
p332
sb.