(i__main__
Player
p1
(dp2
S'name'
p3
VSteve Cook 
p4
sS'offensive_data'
p5
(lp6
(lp7
a(lp8
V2018/2019
p9
aVBournemouth
p10
aVEPL
p11
aV17
p12
aV1530
p13
aV1
aV1
aV2
aV-
aV0.6
p14
aV77.7
p15
aV3.5
p16
aV1
aV6.97
p17
aa(lp18
V2017/2018
p19
aVBournemouth
p20
aVEPL
p21
aV31(3)
p22
aV2766
p23
aV2
aV1
aV5
aV-
aV0.6
p24
aV75.8
p25
aV4
aV1
aV6.89
p26
aa(lp27
V2016/2017
p28
aVBournemouth
p29
aVEPL
p30
aV38
p31
aV3420
p32
aV2
aV-
aV5
aV-
aV0.8
p33
aV82
p34
aV3.8
p35
aV2
aV7.18
p36
aa(lp37
V2015/2016
p38
aVBournemouth
p39
aVEPL
p40
aV36
p41
aV3196
p42
aV4
aV-
aV5
aV-
aV0.7
p43
aV81.4
p44
aV3.4
p45
aV4
aV7.03
p46
aa(lp47
V2014/2015
p48
aVBournemouth
p49
aVEC
p50
aV46
p51
aV4103
p52
aV5
aV1
aV10
p53
aV-
aV0.7
p54
aV80.1
p55
aV4.2
p56
aV3
aV7.33
p57
aa(lp58
V2013/2014
p59
aVBournemouth
p60
aVEC
p61
aV38
p62
aV3420
p63
aV3
aV-
aV5
aV-
aV0.5
p64
aV77.1
p65
aV3.2
p66
aV5
aV7.20
p67
aa(lp68
VTotal / Average
p69
aV
aV
aV209
p70
aV18435
p71
aV17
p72
aV3
aV32
p73
aV0
aV0.7
p74
aV79.2
p75
aV3.7
p76
aV16
p77
aV7.13
p78
aasS'url'
p79
S'https://www.whoscored.com/Players/68662/History/'
p80
sS'passing_data'
p81
(lp82
(lp83
a(lp84
V2018/2019
p85
aVBournemouth
p86
aVEPL
p87
aV17
p88
aV1530
p89
aV1
aV1
aV2
aV-
aV0.6
p90
aV77.7
p91
aV3.5
p92
aV1
aV6.97
p93
aa(lp94
V2017/2018
p95
aVBournemouth
p96
aVEPL
p97
aV31(3)
p98
aV2766
p99
aV2
aV1
aV5
aV-
aV0.6
p100
aV75.8
p101
aV4
aV1
aV6.89
p102
aa(lp103
V2016/2017
p104
aVBournemouth
p105
aVEPL
p106
aV38
p107
aV3420
p108
aV2
aV-
aV5
aV-
aV0.8
p109
aV82
p110
aV3.8
p111
aV2
aV7.18
p112
aa(lp113
V2015/2016
p114
aVBournemouth
p115
aVEPL
p116
aV36
p117
aV3196
p118
aV4
aV-
aV5
aV-
aV0.7
p119
aV81.4
p120
aV3.4
p121
aV4
aV7.03
p122
aa(lp123
V2014/2015
p124
aVBournemouth
p125
aVEC
p126
aV46
p127
aV4103
p128
aV5
aV1
aV10
p129
aV-
aV0.7
p130
aV80.1
p131
aV4.2
p132
aV3
aV7.33
p133
aa(lp134
V2013/2014
p135
aVBournemouth
p136
aVEC
p137
aV38
p138
aV3420
p139
aV3
aV-
aV5
aV-
aV0.5
p140
aV77.1
p141
aV3.2
p142
aV5
aV7.20
p143
aa(lp144
VTotal / Average
p145
aV
aV
aV209
p146
aV18435
p147
aV17
p148
aV3
aV32
p149
aV0
aV0.7
p150
aV79.2
p151
aV3.7
p152
aV16
p153
aV7.13
p154
aasS'defensive_data'
p155
(lp156
(lp157
a(lp158
V2018/2019
p159
aVBournemouth
p160
aVEPL
p161
aV17
p162
aV1530
p163
aV1
aV1
aV2
aV-
aV0.6
p164
aV77.7
p165
aV3.5
p166
aV1
aV6.97
p167
aa(lp168
V2017/2018
p169
aVBournemouth
p170
aVEPL
p171
aV31(3)
p172
aV2766
p173
aV2
aV1
aV5
aV-
aV0.6
p174
aV75.8
p175
aV4
aV1
aV6.89
p176
aa(lp177
V2016/2017
p178
aVBournemouth
p179
aVEPL
p180
aV38
p181
aV3420
p182
aV2
aV-
aV5
aV-
aV0.8
p183
aV82
p184
aV3.8
p185
aV2
aV7.18
p186
aa(lp187
V2015/2016
p188
aVBournemouth
p189
aVEPL
p190
aV36
p191
aV3196
p192
aV4
aV-
aV5
aV-
aV0.7
p193
aV81.4
p194
aV3.4
p195
aV4
aV7.03
p196
aa(lp197
V2014/2015
p198
aVBournemouth
p199
aVEC
p200
aV46
p201
aV4103
p202
aV5
aV1
aV10
p203
aV-
aV0.7
p204
aV80.1
p205
aV4.2
p206
aV3
aV7.33
p207
aa(lp208
V2013/2014
p209
aVBournemouth
p210
aVEC
p211
aV38
p212
aV3420
p213
aV3
aV-
aV5
aV-
aV0.5
p214
aV77.1
p215
aV3.2
p216
aV5
aV7.20
p217
aa(lp218
VTotal / Average
p219
aV
aV
aV209
p220
aV18435
p221
aV17
p222
aV3
aV32
p223
aV0
aV0.7
p224
aV79.2
p225
aV3.7
p226
aV16
p227
aV7.13
p228
aasS'sumary_data'
p229
(lp230
(lp231
a(lp232
V2018/2019
p233
aVBournemouth
p234
aVEPL
p235
aV17
p236
aV1530
p237
aV1
aV1
aV2
aV-
aV0.6
p238
aV77.7
p239
aV3.5
p240
aV1
aV6.97
p241
aa(lp242
V2017/2018
p243
aVBournemouth
p244
aVEPL
p245
aV31(3)
p246
aV2766
p247
aV2
aV1
aV5
aV-
aV0.6
p248
aV75.8
p249
aV4
aV1
aV6.89
p250
aa(lp251
V2016/2017
p252
aVBournemouth
p253
aVEPL
p254
aV38
p255
aV3420
p256
aV2
aV-
aV5
aV-
aV0.8
p257
aV82
p258
aV3.8
p259
aV2
aV7.18
p260
aa(lp261
V2015/2016
p262
aVBournemouth
p263
aVEPL
p264
aV36
p265
aV3196
p266
aV4
aV-
aV5
aV-
aV0.7
p267
aV81.4
p268
aV3.4
p269
aV4
aV7.03
p270
aa(lp271
V2014/2015
p272
aVBournemouth
p273
aVEC
p274
aV46
p275
aV4103
p276
aV5
aV1
aV10
p277
aV-
aV0.7
p278
aV80.1
p279
aV4.2
p280
aV3
aV7.33
p281
aa(lp282
V2013/2014
p283
aVBournemouth
p284
aVEC
p285
aV38
p286
aV3420
p287
aV3
aV-
aV5
aV-
aV0.5
p288
aV77.1
p289
aV3.2
p290
aV5
aV7.20
p291
aa(lp292
VTotal / Average
p293
aV
aV
aV209
p294
aV18435
p295
aV17
p296
aV3
aV32
p297
aV0
aV0.7
p298
aV79.2
p299
aV3.7
p300
aV16
p301
aV7.13
p302
aasS'id'
p303
V68662
p304
sb.