(i__main__
Player
p1
(dp2
S'name'
p3
VGylfi Sigurdsson 
p4
sS'offensive_data'
p5
(lp6
(lp7
a(lp8
V2018/2019
p9
aVEverton
p10
aVEPL
p11
aV17
p12
aV1426
p13
aV6
aV2
aV2
aV-
aV2.5
p14
aV75.4
p15
aV0.5
p16
aV3
aV7.17
p17
aa(lp18
V2018/2019
p19
aVIceland
p20
aVUNL
p21
aV3
aV270
p22
aV-
aV-
aV-
aV-
aV2.3
p23
aV78.2
p24
aV0.7
p25
aV-
aV6.95
p26
aa(lp27
V2017/2018
p28
aVEverton
p29
aVUEL
p30
aV3(1)
p31
aV303
p32
aV-
aV2
aV1
aV-
aV1.5
p33
aV80
p34
aV1
aV-
aV6.72
p35
aa(lp36
V2017/2018
p37
aVEverton
p38
aVEPL
p39
aV25(2)
p40
aV2262
p41
aV4
aV3
aV2
aV-
aV1.4
p42
aV74.9
p43
aV0.7
p44
aV1
aV6.88
p45
aa(lp46
V2016/2017
p47
aVSwansea
p48
aVEPL
p49
aV37(1)
p50
aV3329
p51
aV9
aV13
p52
aV2
aV-
aV3.1
p53
aV77
p54
aV0.2
p55
aV4
aV7.25
p56
aa(lp57
V2018
p58
aVIceland
p59
aVWC
p60
aV3
aV270
p61
aV1
aV-
aV-
aV-
aV3
aV77.7
p62
aV-
aV-
aV7.44
p63
aa(lp64
V2015/2016
p65
aVSwansea
p66
aVEPL
p67
aV32(4)
p68
aV2917
p69
aV11
p70
aV3
aV6
aV-
aV2.4
p71
aV78.9
p72
aV0.1
p73
aV3
aV6.91
p74
aa(lp75
V2014/2015
p76
aVSwansea
p77
aVEPL
p78
aV32
p79
aV2697
p80
aV7
aV10
p81
aV2
aV-
aV2.1
p82
aV84.9
p83
aV0.3
p84
aV2
aV7.18
p85
aa(lp86
V2016
p87
aVIceland
p88
aVUEC
p89
aV5
aV450
p90
aV1
aV1
aV1
aV-
aV2
aV83.2
p91
aV0.2
p92
aV-
aV7.10
p93
aa(lp94
V2013/2014
p95
aVTottenham
p96
aVUEL
p97
aV5(1)
p98
aV435
p99
aV-
aV1
aV-
aV-
aV2.2
p100
aV84.7
p101
aV0.7
p102
aV-
aV7.00
p103
aa(lp104
V2013/2014
p105
aVTottenham
p106
aVEPL
p107
aV14(11)
p108
aV1276
p109
aV5
aV-
aV2
aV-
aV1.5
p110
aV84.4
p111
aV0.2
p112
aV1
aV6.61
p113
aa(lp114
V2012/2013
p115
aVTottenham
p116
aVUEL
p117
aV5(6)
p118
aV591
p119
aV3
aV1
aV-
aV-
aV1.4
p120
aV83.5
p121
aV0.4
p122
aV2
aV6.89
p123
aa(lp124
V2012/2013
p125
aVTottenham
p126
aVEPL
p127
aV12(21)
p128
aV1221
p129
aV3
aV4
aV-
aV-
aV1.6
p130
aV80.6
p131
aV0.2
p132
aV1
aV6.53
p133
aa(lp134
V2011/2012
p135
aVHoffenheim
p136
aVGB
p137
aV7
aV577
p138
aV-
aV1
aV-
aV-
aV2.1
p139
aV86.3
p140
aV0.1
p141
aV-
aV6.67
p142
aa(lp143
V2011/2012
p144
aVSwansea
p145
aVEPL
p146
aV17(1)
p147
aV1500
p148
aV7
aV3
aV-
aV-
aV3.9
p149
aV84.5
p150
aV0.2
p151
aV3
aV7.63
p152
aa(lp153
V2010/2011
p154
aVHoffenheim
p155
aVGB
p156
aV10(19)
p157
aV1277
p158
aV9
aV2
aV-
aV-
aV1.9
p159
aV77.8
p160
aV-
aV1
aV6.67
p161
aa(lp162
VTotal / Average
p163
aV
aV
aV294
p164
aV20801
p165
aV66
p166
aV46
p167
aV18
p168
aV0
aV2.2
p169
aV80.1
p170
aV0.3
p171
aV21
p172
aV6.95
p173
aasS'url'
p174
S'https://www.whoscored.com/Players/69346/History/'
p175
sS'passing_data'
p176
(lp177
(lp178
a(lp179
V2018/2019
p180
aVEverton
p181
aVEPL
p182
aV17
p183
aV1426
p184
aV6
aV2
aV2
aV-
aV2.5
p185
aV75.4
p186
aV0.5
p187
aV3
aV7.17
p188
aa(lp189
V2018/2019
p190
aVIceland
p191
aVUNL
p192
aV3
aV270
p193
aV-
aV-
aV-
aV-
aV2.3
p194
aV78.2
p195
aV0.7
p196
aV-
aV6.95
p197
aa(lp198
V2017/2018
p199
aVEverton
p200
aVUEL
p201
aV3(1)
p202
aV303
p203
aV-
aV2
aV1
aV-
aV1.5
p204
aV80
p205
aV1
aV-
aV6.72
p206
aa(lp207
V2017/2018
p208
aVEverton
p209
aVEPL
p210
aV25(2)
p211
aV2262
p212
aV4
aV3
aV2
aV-
aV1.4
p213
aV74.9
p214
aV0.7
p215
aV1
aV6.88
p216
aa(lp217
V2016/2017
p218
aVSwansea
p219
aVEPL
p220
aV37(1)
p221
aV3329
p222
aV9
aV13
p223
aV2
aV-
aV3.1
p224
aV77
p225
aV0.2
p226
aV4
aV7.25
p227
aa(lp228
V2018
p229
aVIceland
p230
aVWC
p231
aV3
aV270
p232
aV1
aV-
aV-
aV-
aV3
aV77.7
p233
aV-
aV-
aV7.44
p234
aa(lp235
V2015/2016
p236
aVSwansea
p237
aVEPL
p238
aV32(4)
p239
aV2917
p240
aV11
p241
aV3
aV6
aV-
aV2.4
p242
aV78.9
p243
aV0.1
p244
aV3
aV6.91
p245
aa(lp246
V2014/2015
p247
aVSwansea
p248
aVEPL
p249
aV32
p250
aV2697
p251
aV7
aV10
p252
aV2
aV-
aV2.1
p253
aV84.9
p254
aV0.3
p255
aV2
aV7.18
p256
aa(lp257
V2016
p258
aVIceland
p259
aVUEC
p260
aV5
aV450
p261
aV1
aV1
aV1
aV-
aV2
aV83.2
p262
aV0.2
p263
aV-
aV7.10
p264
aa(lp265
V2013/2014
p266
aVTottenham
p267
aVUEL
p268
aV5(1)
p269
aV435
p270
aV-
aV1
aV-
aV-
aV2.2
p271
aV84.7
p272
aV0.7
p273
aV-
aV7.00
p274
aa(lp275
V2013/2014
p276
aVTottenham
p277
aVEPL
p278
aV14(11)
p279
aV1276
p280
aV5
aV-
aV2
aV-
aV1.5
p281
aV84.4
p282
aV0.2
p283
aV1
aV6.61
p284
aa(lp285
V2012/2013
p286
aVTottenham
p287
aVUEL
p288
aV5(6)
p289
aV591
p290
aV3
aV1
aV-
aV-
aV1.4
p291
aV83.5
p292
aV0.4
p293
aV2
aV6.89
p294
aa(lp295
V2012/2013
p296
aVTottenham
p297
aVEPL
p298
aV12(21)
p299
aV1221
p300
aV3
aV4
aV-
aV-
aV1.6
p301
aV80.6
p302
aV0.2
p303
aV1
aV6.53
p304
aa(lp305
V2011/2012
p306
aVHoffenheim
p307
aVGB
p308
aV7
aV577
p309
aV-
aV1
aV-
aV-
aV2.1
p310
aV86.3
p311
aV0.1
p312
aV-
aV6.67
p313
aa(lp314
V2011/2012
p315
aVSwansea
p316
aVEPL
p317
aV17(1)
p318
aV1500
p319
aV7
aV3
aV-
aV-
aV3.9
p320
aV84.5
p321
aV0.2
p322
aV3
aV7.63
p323
aa(lp324
V2010/2011
p325
aVHoffenheim
p326
aVGB
p327
aV10(19)
p328
aV1277
p329
aV9
aV2
aV-
aV-
aV1.9
p330
aV77.8
p331
aV-
aV1
aV6.67
p332
aa(lp333
VTotal / Average
p334
aV
aV
aV294
p335
aV20801
p336
aV66
p337
aV46
p338
aV18
p339
aV0
aV2.2
p340
aV80.1
p341
aV0.3
p342
aV21
p343
aV6.95
p344
aasS'defensive_data'
p345
(lp346
(lp347
a(lp348
V2018/2019
p349
aVEverton
p350
aVEPL
p351
aV17
p352
aV1426
p353
aV6
aV2
aV2
aV-
aV2.5
p354
aV75.4
p355
aV0.5
p356
aV3
aV7.17
p357
aa(lp358
V2018/2019
p359
aVIceland
p360
aVUNL
p361
aV3
aV270
p362
aV-
aV-
aV-
aV-
aV2.3
p363
aV78.2
p364
aV0.7
p365
aV-
aV6.95
p366
aa(lp367
V2017/2018
p368
aVEverton
p369
aVUEL
p370
aV3(1)
p371
aV303
p372
aV-
aV2
aV1
aV-
aV1.5
p373
aV80
p374
aV1
aV-
aV6.72
p375
aa(lp376
V2017/2018
p377
aVEverton
p378
aVEPL
p379
aV25(2)
p380
aV2262
p381
aV4
aV3
aV2
aV-
aV1.4
p382
aV74.9
p383
aV0.7
p384
aV1
aV6.88
p385
aa(lp386
V2016/2017
p387
aVSwansea
p388
aVEPL
p389
aV37(1)
p390
aV3329
p391
aV9
aV13
p392
aV2
aV-
aV3.1
p393
aV77
p394
aV0.2
p395
aV4
aV7.25
p396
aa(lp397
V2018
p398
aVIceland
p399
aVWC
p400
aV3
aV270
p401
aV1
aV-
aV-
aV-
aV3
aV77.7
p402
aV-
aV-
aV7.44
p403
aa(lp404
V2015/2016
p405
aVSwansea
p406
aVEPL
p407
aV32(4)
p408
aV2917
p409
aV11
p410
aV3
aV6
aV-
aV2.4
p411
aV78.9
p412
aV0.1
p413
aV3
aV6.91
p414
aa(lp415
V2014/2015
p416
aVSwansea
p417
aVEPL
p418
aV32
p419
aV2697
p420
aV7
aV10
p421
aV2
aV-
aV2.1
p422
aV84.9
p423
aV0.3
p424
aV2
aV7.18
p425
aa(lp426
V2016
p427
aVIceland
p428
aVUEC
p429
aV5
aV450
p430
aV1
aV1
aV1
aV-
aV2
aV83.2
p431
aV0.2
p432
aV-
aV7.10
p433
aa(lp434
V2013/2014
p435
aVTottenham
p436
aVUEL
p437
aV5(1)
p438
aV435
p439
aV-
aV1
aV-
aV-
aV2.2
p440
aV84.7
p441
aV0.7
p442
aV-
aV7.00
p443
aa(lp444
V2013/2014
p445
aVTottenham
p446
aVEPL
p447
aV14(11)
p448
aV1276
p449
aV5
aV-
aV2
aV-
aV1.5
p450
aV84.4
p451
aV0.2
p452
aV1
aV6.61
p453
aa(lp454
V2012/2013
p455
aVTottenham
p456
aVUEL
p457
aV5(6)
p458
aV591
p459
aV3
aV1
aV-
aV-
aV1.4
p460
aV83.5
p461
aV0.4
p462
aV2
aV6.89
p463
aa(lp464
V2012/2013
p465
aVTottenham
p466
aVEPL
p467
aV12(21)
p468
aV1221
p469
aV3
aV4
aV-
aV-
aV1.6
p470
aV80.6
p471
aV0.2
p472
aV1
aV6.53
p473
aa(lp474
V2011/2012
p475
aVHoffenheim
p476
aVGB
p477
aV7
aV577
p478
aV-
aV1
aV-
aV-
aV2.1
p479
aV86.3
p480
aV0.1
p481
aV-
aV6.67
p482
aa(lp483
V2011/2012
p484
aVSwansea
p485
aVEPL
p486
aV17(1)
p487
aV1500
p488
aV7
aV3
aV-
aV-
aV3.9
p489
aV84.5
p490
aV0.2
p491
aV3
aV7.63
p492
aa(lp493
V2010/2011
p494
aVHoffenheim
p495
aVGB
p496
aV10(19)
p497
aV1277
p498
aV9
aV2
aV-
aV-
aV1.9
p499
aV77.8
p500
aV-
aV1
aV6.67
p501
aa(lp502
VTotal / Average
p503
aV
aV
aV294
p504
aV20801
p505
aV66
p506
aV46
p507
aV18
p508
aV0
aV2.2
p509
aV80.1
p510
aV0.3
p511
aV21
p512
aV6.95
p513
aasS'sumary_data'
p514
(lp515
(lp516
a(lp517
V2018/2019
p518
aVEverton
p519
aVEPL
p520
aV17
p521
aV1426
p522
aV6
aV2
aV2
aV-
aV2.5
p523
aV75.4
p524
aV0.5
p525
aV3
aV7.17
p526
aa(lp527
V2018/2019
p528
aVIceland
p529
aVUNL
p530
aV3
aV270
p531
aV-
aV-
aV-
aV-
aV2.3
p532
aV78.2
p533
aV0.7
p534
aV-
aV6.95
p535
aa(lp536
V2017/2018
p537
aVEverton
p538
aVUEL
p539
aV3(1)
p540
aV303
p541
aV-
aV2
aV1
aV-
aV1.5
p542
aV80
p543
aV1
aV-
aV6.72
p544
aa(lp545
V2017/2018
p546
aVEverton
p547
aVEPL
p548
aV25(2)
p549
aV2262
p550
aV4
aV3
aV2
aV-
aV1.4
p551
aV74.9
p552
aV0.7
p553
aV1
aV6.88
p554
aa(lp555
V2016/2017
p556
aVSwansea
p557
aVEPL
p558
aV37(1)
p559
aV3329
p560
aV9
aV13
p561
aV2
aV-
aV3.1
p562
aV77
p563
aV0.2
p564
aV4
aV7.25
p565
aa(lp566
V2018
p567
aVIceland
p568
aVWC
p569
aV3
aV270
p570
aV1
aV-
aV-
aV-
aV3
aV77.7
p571
aV-
aV-
aV7.44
p572
aa(lp573
V2015/2016
p574
aVSwansea
p575
aVEPL
p576
aV32(4)
p577
aV2917
p578
aV11
p579
aV3
aV6
aV-
aV2.4
p580
aV78.9
p581
aV0.1
p582
aV3
aV6.91
p583
aa(lp584
V2014/2015
p585
aVSwansea
p586
aVEPL
p587
aV32
p588
aV2697
p589
aV7
aV10
p590
aV2
aV-
aV2.1
p591
aV84.9
p592
aV0.3
p593
aV2
aV7.18
p594
aa(lp595
V2016
p596
aVIceland
p597
aVUEC
p598
aV5
aV450
p599
aV1
aV1
aV1
aV-
aV2
aV83.2
p600
aV0.2
p601
aV-
aV7.10
p602
aa(lp603
V2013/2014
p604
aVTottenham
p605
aVUEL
p606
aV5(1)
p607
aV435
p608
aV-
aV1
aV-
aV-
aV2.2
p609
aV84.7
p610
aV0.7
p611
aV-
aV7.00
p612
aa(lp613
V2013/2014
p614
aVTottenham
p615
aVEPL
p616
aV14(11)
p617
aV1276
p618
aV5
aV-
aV2
aV-
aV1.5
p619
aV84.4
p620
aV0.2
p621
aV1
aV6.61
p622
aa(lp623
V2012/2013
p624
aVTottenham
p625
aVUEL
p626
aV5(6)
p627
aV591
p628
aV3
aV1
aV-
aV-
aV1.4
p629
aV83.5
p630
aV0.4
p631
aV2
aV6.89
p632
aa(lp633
V2012/2013
p634
aVTottenham
p635
aVEPL
p636
aV12(21)
p637
aV1221
p638
aV3
aV4
aV-
aV-
aV1.6
p639
aV80.6
p640
aV0.2
p641
aV1
aV6.53
p642
aa(lp643
V2011/2012
p644
aVHoffenheim
p645
aVGB
p646
aV7
aV577
p647
aV-
aV1
aV-
aV-
aV2.1
p648
aV86.3
p649
aV0.1
p650
aV-
aV6.67
p651
aa(lp652
V2011/2012
p653
aVSwansea
p654
aVEPL
p655
aV17(1)
p656
aV1500
p657
aV7
aV3
aV-
aV-
aV3.9
p658
aV84.5
p659
aV0.2
p660
aV3
aV7.63
p661
aa(lp662
V2010/2011
p663
aVHoffenheim
p664
aVGB
p665
aV10(19)
p666
aV1277
p667
aV9
aV2
aV-
aV-
aV1.9
p668
aV77.8
p669
aV-
aV1
aV6.67
p670
aa(lp671
VTotal / Average
p672
aV
aV
aV294
p673
aV20801
p674
aV66
p675
aV46
p676
aV18
p677
aV0
aV2.2
p678
aV80.1
p679
aV0.3
p680
aV21
p681
aV6.95
p682
aasS'id'
p683
V69346
p684
sb.