(i__main__
Player
p1
(dp2
S'name'
p3
VChristian Eriksen 
p4
sS'offensive_data'
p5
(lp6
(lp7
a(lp8
V2018/2019
p9
aVTottenham
p10
aVEPL
p11
aV9(5)
p12
aV888
p13
aV1
aV6
aV-
aV-
aV1.6
p14
aV82.2
p15
aV0.4
p16
aV-
aV6.85
p17
aa(lp18
V2018/2019
p19
aVTottenham
p20
aVUCL
p21
aV4(1)
p22
aV380
p23
aV2
aV1
aV-
aV-
aV2
aV83.5
p24
aV0.2
p25
aV1
aV7.50
p26
aa(lp27
V2018/2019
p28
aVDenmark
p29
aVUNL
p30
aV3
aV226
p31
aV2
aV-
aV-
aV-
aV2.7
p32
aV80.3
p33
aV0.7
p34
aV1
aV7.20
p35
aa(lp36
V2017/2018
p37
aVTottenham
p38
aVUCL
p39
aV6
aV535
p40
aV2
aV1
aV-
aV-
aV3.3
p41
aV83.1
p42
aV0.5
p43
aV-
aV7.08
p44
aa(lp45
V2017/2018
p46
aVTottenham
p47
aVEPL
p48
aV37
p49
aV3226
p50
aV10
p51
aV10
p52
aV-
aV-
aV2.6
p53
aV82.4
p54
aV0.5
p55
aV4
aV7.40
p56
aa(lp57
V2016/2017
p58
aVTottenham
p59
aVUCL
p60
aV5(1)
p61
aV451
p62
aV-
aV1
aV-
aV-
aV1.7
p63
aV81.3
p64
aV0.3
p65
aV1
aV7.04
p66
aa(lp67
V2016/2017
p68
aVTottenham
p69
aVEPL
p70
aV36
p71
aV3167
p72
aV8
aV15
p73
aV-
aV-
aV3.7
p74
aV80.2
p75
aV0.6
p76
aV7
aV7.53
p77
aa(lp78
V2016/2017
p79
aVTottenham
p80
aVUEL
p81
aV1(1)
p82
aV100
p83
aV1
aV1
aV-
aV-
aV3.5
p84
aV82.2
p85
aV-
aV1
aV7.39
p86
aa(lp87
V2018
p88
aVDenmark
p89
aVWC
p90
aV4
aV390
p91
aV1
aV1
aV-
aV-
aV3
aV79.6
p92
aV1.3
p93
aV-
aV7.14
p94
aa(lp95
V2015/2016
p96
aVTottenham
p97
aVUEL
p98
aV7
aV574
p99
aV1
aV1
aV-
aV-
aV2
aV83.3
p100
aV0.4
p101
aV-
aV6.94
p102
aa(lp103
V2015/2016
p104
aVTottenham
p105
aVEPL
p106
aV33(2)
p107
aV2942
p108
aV6
aV13
p109
aV2
aV-
aV2.9
p110
aV81.2
p111
aV0.5
p112
aV2
aV7.45
p113
aa(lp114
V2014/2015
p115
aVTottenham
p116
aVUEL
p117
aV3(1)
p118
aV257
p119
aV-
aV-
aV-
aV-
aV2
aV84.4
p120
aV0.3
p121
aV-
aV6.57
p122
aa(lp123
V2014/2015
p124
aVTottenham
p125
aVEPL
p126
aV37(1)
p127
aV3142
p128
aV10
p129
aV2
aV4
aV-
aV2.6
p130
aV82
p131
aV0.6
p132
aV5
aV7.09
p133
aa(lp134
V2013/2014
p135
aVTottenham
p136
aVUEL
p137
aV4(5)
p138
aV455
p139
aV3
aV2
aV1
aV-
aV1.2
p140
aV81.5
p141
aV0.1
p142
aV1
aV6.91
p143
aa(lp144
V2013/2014
p145
aVTottenham
p146
aVEPL
p147
aV23(2)
p148
aV1984
p149
aV7
aV8
aV3
aV-
aV1.9
p150
aV81.9
p151
aV0.4
p152
aV2
aV7.22
p153
aa(lp154
V2013/2014
p155
aVAjax
p156
aVNE
p157
aV4
aV360
p158
aV2
aV3
aV1
aV-
aV3
aV85.7
p159
aV-
aV1
aV8.02
p160
aa(lp161
V2012/2013
p162
aVAjax
p163
aVUEL
p164
aV2
aV211
p165
aV-
aV1
aV1
aV-
aV1
aV84.1
p166
aV-
aV-
aV7.28
p167
aa(lp168
V2012/2013
p169
aVAjax
p170
aVUCL
p171
aV6
aV540
p172
aV1
aV3
aV-
aV-
aV2.2
p173
aV84
p174
aV0.3
p175
aV1
aV7.25
p176
aa(lp177
V2012
p178
aVDenmark
p179
aVUEC
p180
aV3
aV254
p181
aV-
aV-
aV-
aV-
aV1
aV84.5
p182
aV-
aV-
aV6.16
p183
aa(lp184
V2011/2012
p185
aVAjax
p186
aVUCL
p187
aV6
aV530
p188
aV1
aV2
aV-
aV-
aV1.8
p189
aV86.1
p190
aV-
aV-
aV7.27
p191
aa(lp192
V2010/2011
p193
aVAjax
p194
aVUCL
p195
aV1(3)
p196
aV105
p197
aV-
aV-
aV-
aV-
aV1.3
p198
aV85.3
p199
aV-
aV-
aV6.29
p200
aa(lp201
VTotal / Average
p202
aV
aV
aV256
p203
aV20717
p204
aV58
p205
aV71
p206
aV12
p207
aV0
aV2.5
p208
aV82
p209
aV0.4
p210
aV27
p211
aV7.24
p212
aasS'url'
p213
S'https://www.whoscored.com/Players/69344/History/'
p214
sS'passing_data'
p215
(lp216
(lp217
a(lp218
V2018/2019
p219
aVTottenham
p220
aVEPL
p221
aV9(5)
p222
aV888
p223
aV1
aV6
aV-
aV-
aV1.6
p224
aV82.2
p225
aV0.4
p226
aV-
aV6.85
p227
aa(lp228
V2018/2019
p229
aVTottenham
p230
aVUCL
p231
aV4(1)
p232
aV380
p233
aV2
aV1
aV-
aV-
aV2
aV83.5
p234
aV0.2
p235
aV1
aV7.50
p236
aa(lp237
V2018/2019
p238
aVDenmark
p239
aVUNL
p240
aV3
aV226
p241
aV2
aV-
aV-
aV-
aV2.7
p242
aV80.3
p243
aV0.7
p244
aV1
aV7.20
p245
aa(lp246
V2017/2018
p247
aVTottenham
p248
aVUCL
p249
aV6
aV535
p250
aV2
aV1
aV-
aV-
aV3.3
p251
aV83.1
p252
aV0.5
p253
aV-
aV7.08
p254
aa(lp255
V2017/2018
p256
aVTottenham
p257
aVEPL
p258
aV37
p259
aV3226
p260
aV10
p261
aV10
p262
aV-
aV-
aV2.6
p263
aV82.4
p264
aV0.5
p265
aV4
aV7.40
p266
aa(lp267
V2016/2017
p268
aVTottenham
p269
aVUCL
p270
aV5(1)
p271
aV451
p272
aV-
aV1
aV-
aV-
aV1.7
p273
aV81.3
p274
aV0.3
p275
aV1
aV7.04
p276
aa(lp277
V2016/2017
p278
aVTottenham
p279
aVEPL
p280
aV36
p281
aV3167
p282
aV8
aV15
p283
aV-
aV-
aV3.7
p284
aV80.2
p285
aV0.6
p286
aV7
aV7.53
p287
aa(lp288
V2016/2017
p289
aVTottenham
p290
aVUEL
p291
aV1(1)
p292
aV100
p293
aV1
aV1
aV-
aV-
aV3.5
p294
aV82.2
p295
aV-
aV1
aV7.39
p296
aa(lp297
V2018
p298
aVDenmark
p299
aVWC
p300
aV4
aV390
p301
aV1
aV1
aV-
aV-
aV3
aV79.6
p302
aV1.3
p303
aV-
aV7.14
p304
aa(lp305
V2015/2016
p306
aVTottenham
p307
aVUEL
p308
aV7
aV574
p309
aV1
aV1
aV-
aV-
aV2
aV83.3
p310
aV0.4
p311
aV-
aV6.94
p312
aa(lp313
V2015/2016
p314
aVTottenham
p315
aVEPL
p316
aV33(2)
p317
aV2942
p318
aV6
aV13
p319
aV2
aV-
aV2.9
p320
aV81.2
p321
aV0.5
p322
aV2
aV7.45
p323
aa(lp324
V2014/2015
p325
aVTottenham
p326
aVUEL
p327
aV3(1)
p328
aV257
p329
aV-
aV-
aV-
aV-
aV2
aV84.4
p330
aV0.3
p331
aV-
aV6.57
p332
aa(lp333
V2014/2015
p334
aVTottenham
p335
aVEPL
p336
aV37(1)
p337
aV3142
p338
aV10
p339
aV2
aV4
aV-
aV2.6
p340
aV82
p341
aV0.6
p342
aV5
aV7.09
p343
aa(lp344
V2013/2014
p345
aVTottenham
p346
aVUEL
p347
aV4(5)
p348
aV455
p349
aV3
aV2
aV1
aV-
aV1.2
p350
aV81.5
p351
aV0.1
p352
aV1
aV6.91
p353
aa(lp354
V2013/2014
p355
aVTottenham
p356
aVEPL
p357
aV23(2)
p358
aV1984
p359
aV7
aV8
aV3
aV-
aV1.9
p360
aV81.9
p361
aV0.4
p362
aV2
aV7.22
p363
aa(lp364
V2013/2014
p365
aVAjax
p366
aVNE
p367
aV4
aV360
p368
aV2
aV3
aV1
aV-
aV3
aV85.7
p369
aV-
aV1
aV8.02
p370
aa(lp371
V2012/2013
p372
aVAjax
p373
aVUEL
p374
aV2
aV211
p375
aV-
aV1
aV1
aV-
aV1
aV84.1
p376
aV-
aV-
aV7.28
p377
aa(lp378
V2012/2013
p379
aVAjax
p380
aVUCL
p381
aV6
aV540
p382
aV1
aV3
aV-
aV-
aV2.2
p383
aV84
p384
aV0.3
p385
aV1
aV7.25
p386
aa(lp387
V2012
p388
aVDenmark
p389
aVUEC
p390
aV3
aV254
p391
aV-
aV-
aV-
aV-
aV1
aV84.5
p392
aV-
aV-
aV6.16
p393
aa(lp394
V2011/2012
p395
aVAjax
p396
aVUCL
p397
aV6
aV530
p398
aV1
aV2
aV-
aV-
aV1.8
p399
aV86.1
p400
aV-
aV-
aV7.27
p401
aa(lp402
V2010/2011
p403
aVAjax
p404
aVUCL
p405
aV1(3)
p406
aV105
p407
aV-
aV-
aV-
aV-
aV1.3
p408
aV85.3
p409
aV-
aV-
aV6.29
p410
aa(lp411
VTotal / Average
p412
aV
aV
aV256
p413
aV20717
p414
aV58
p415
aV71
p416
aV12
p417
aV0
aV2.5
p418
aV82
p419
aV0.4
p420
aV27
p421
aV7.24
p422
aasS'defensive_data'
p423
(lp424
(lp425
a(lp426
V2018/2019
p427
aVTottenham
p428
aVEPL
p429
aV9(5)
p430
aV888
p431
aV1
aV6
aV-
aV-
aV1.6
p432
aV82.2
p433
aV0.4
p434
aV-
aV6.85
p435
aa(lp436
V2018/2019
p437
aVTottenham
p438
aVUCL
p439
aV4(1)
p440
aV380
p441
aV2
aV1
aV-
aV-
aV2
aV83.5
p442
aV0.2
p443
aV1
aV7.50
p444
aa(lp445
V2018/2019
p446
aVDenmark
p447
aVUNL
p448
aV3
aV226
p449
aV2
aV-
aV-
aV-
aV2.7
p450
aV80.3
p451
aV0.7
p452
aV1
aV7.20
p453
aa(lp454
V2017/2018
p455
aVTottenham
p456
aVUCL
p457
aV6
aV535
p458
aV2
aV1
aV-
aV-
aV3.3
p459
aV83.1
p460
aV0.5
p461
aV-
aV7.08
p462
aa(lp463
V2017/2018
p464
aVTottenham
p465
aVEPL
p466
aV37
p467
aV3226
p468
aV10
p469
aV10
p470
aV-
aV-
aV2.6
p471
aV82.4
p472
aV0.5
p473
aV4
aV7.40
p474
aa(lp475
V2016/2017
p476
aVTottenham
p477
aVUCL
p478
aV5(1)
p479
aV451
p480
aV-
aV1
aV-
aV-
aV1.7
p481
aV81.3
p482
aV0.3
p483
aV1
aV7.04
p484
aa(lp485
V2016/2017
p486
aVTottenham
p487
aVEPL
p488
aV36
p489
aV3167
p490
aV8
aV15
p491
aV-
aV-
aV3.7
p492
aV80.2
p493
aV0.6
p494
aV7
aV7.53
p495
aa(lp496
V2016/2017
p497
aVTottenham
p498
aVUEL
p499
aV1(1)
p500
aV100
p501
aV1
aV1
aV-
aV-
aV3.5
p502
aV82.2
p503
aV-
aV1
aV7.39
p504
aa(lp505
V2018
p506
aVDenmark
p507
aVWC
p508
aV4
aV390
p509
aV1
aV1
aV-
aV-
aV3
aV79.6
p510
aV1.3
p511
aV-
aV7.14
p512
aa(lp513
V2015/2016
p514
aVTottenham
p515
aVUEL
p516
aV7
aV574
p517
aV1
aV1
aV-
aV-
aV2
aV83.3
p518
aV0.4
p519
aV-
aV6.94
p520
aa(lp521
V2015/2016
p522
aVTottenham
p523
aVEPL
p524
aV33(2)
p525
aV2942
p526
aV6
aV13
p527
aV2
aV-
aV2.9
p528
aV81.2
p529
aV0.5
p530
aV2
aV7.45
p531
aa(lp532
V2014/2015
p533
aVTottenham
p534
aVUEL
p535
aV3(1)
p536
aV257
p537
aV-
aV-
aV-
aV-
aV2
aV84.4
p538
aV0.3
p539
aV-
aV6.57
p540
aa(lp541
V2014/2015
p542
aVTottenham
p543
aVEPL
p544
aV37(1)
p545
aV3142
p546
aV10
p547
aV2
aV4
aV-
aV2.6
p548
aV82
p549
aV0.6
p550
aV5
aV7.09
p551
aa(lp552
V2013/2014
p553
aVTottenham
p554
aVUEL
p555
aV4(5)
p556
aV455
p557
aV3
aV2
aV1
aV-
aV1.2
p558
aV81.5
p559
aV0.1
p560
aV1
aV6.91
p561
aa(lp562
V2013/2014
p563
aVTottenham
p564
aVEPL
p565
aV23(2)
p566
aV1984
p567
aV7
aV8
aV3
aV-
aV1.9
p568
aV81.9
p569
aV0.4
p570
aV2
aV7.22
p571
aa(lp572
V2013/2014
p573
aVAjax
p574
aVNE
p575
aV4
aV360
p576
aV2
aV3
aV1
aV-
aV3
aV85.7
p577
aV-
aV1
aV8.02
p578
aa(lp579
V2012/2013
p580
aVAjax
p581
aVUEL
p582
aV2
aV211
p583
aV-
aV1
aV1
aV-
aV1
aV84.1
p584
aV-
aV-
aV7.28
p585
aa(lp586
V2012/2013
p587
aVAjax
p588
aVUCL
p589
aV6
aV540
p590
aV1
aV3
aV-
aV-
aV2.2
p591
aV84
p592
aV0.3
p593
aV1
aV7.25
p594
aa(lp595
V2012
p596
aVDenmark
p597
aVUEC
p598
aV3
aV254
p599
aV-
aV-
aV-
aV-
aV1
aV84.5
p600
aV-
aV-
aV6.16
p601
aa(lp602
V2011/2012
p603
aVAjax
p604
aVUCL
p605
aV6
aV530
p606
aV1
aV2
aV-
aV-
aV1.8
p607
aV86.1
p608
aV-
aV-
aV7.27
p609
aa(lp610
V2010/2011
p611
aVAjax
p612
aVUCL
p613
aV1(3)
p614
aV105
p615
aV-
aV-
aV-
aV-
aV1.3
p616
aV85.3
p617
aV-
aV-
aV6.29
p618
aa(lp619
VTotal / Average
p620
aV
aV
aV256
p621
aV20717
p622
aV58
p623
aV71
p624
aV12
p625
aV0
aV2.5
p626
aV82
p627
aV0.4
p628
aV27
p629
aV7.24
p630
aasS'sumary_data'
p631
(lp632
(lp633
a(lp634
V2018/2019
p635
aVTottenham
p636
aVEPL
p637
aV9(5)
p638
aV888
p639
aV1
aV6
aV-
aV-
aV1.6
p640
aV82.2
p641
aV0.4
p642
aV-
aV6.85
p643
aa(lp644
V2018/2019
p645
aVTottenham
p646
aVUCL
p647
aV4(1)
p648
aV380
p649
aV2
aV1
aV-
aV-
aV2
aV83.5
p650
aV0.2
p651
aV1
aV7.50
p652
aa(lp653
V2018/2019
p654
aVDenmark
p655
aVUNL
p656
aV3
aV226
p657
aV2
aV-
aV-
aV-
aV2.7
p658
aV80.3
p659
aV0.7
p660
aV1
aV7.20
p661
aa(lp662
V2017/2018
p663
aVTottenham
p664
aVUCL
p665
aV6
aV535
p666
aV2
aV1
aV-
aV-
aV3.3
p667
aV83.1
p668
aV0.5
p669
aV-
aV7.08
p670
aa(lp671
V2017/2018
p672
aVTottenham
p673
aVEPL
p674
aV37
p675
aV3226
p676
aV10
p677
aV10
p678
aV-
aV-
aV2.6
p679
aV82.4
p680
aV0.5
p681
aV4
aV7.40
p682
aa(lp683
V2016/2017
p684
aVTottenham
p685
aVUCL
p686
aV5(1)
p687
aV451
p688
aV-
aV1
aV-
aV-
aV1.7
p689
aV81.3
p690
aV0.3
p691
aV1
aV7.04
p692
aa(lp693
V2016/2017
p694
aVTottenham
p695
aVEPL
p696
aV36
p697
aV3167
p698
aV8
aV15
p699
aV-
aV-
aV3.7
p700
aV80.2
p701
aV0.6
p702
aV7
aV7.53
p703
aa(lp704
V2016/2017
p705
aVTottenham
p706
aVUEL
p707
aV1(1)
p708
aV100
p709
aV1
aV1
aV-
aV-
aV3.5
p710
aV82.2
p711
aV-
aV1
aV7.39
p712
aa(lp713
V2018
p714
aVDenmark
p715
aVWC
p716
aV4
aV390
p717
aV1
aV1
aV-
aV-
aV3
aV79.6
p718
aV1.3
p719
aV-
aV7.14
p720
aa(lp721
V2015/2016
p722
aVTottenham
p723
aVUEL
p724
aV7
aV574
p725
aV1
aV1
aV-
aV-
aV2
aV83.3
p726
aV0.4
p727
aV-
aV6.94
p728
aa(lp729
V2015/2016
p730
aVTottenham
p731
aVEPL
p732
aV33(2)
p733
aV2942
p734
aV6
aV13
p735
aV2
aV-
aV2.9
p736
aV81.2
p737
aV0.5
p738
aV2
aV7.45
p739
aa(lp740
V2014/2015
p741
aVTottenham
p742
aVUEL
p743
aV3(1)
p744
aV257
p745
aV-
aV-
aV-
aV-
aV2
aV84.4
p746
aV0.3
p747
aV-
aV6.57
p748
aa(lp749
V2014/2015
p750
aVTottenham
p751
aVEPL
p752
aV37(1)
p753
aV3142
p754
aV10
p755
aV2
aV4
aV-
aV2.6
p756
aV82
p757
aV0.6
p758
aV5
aV7.09
p759
aa(lp760
V2013/2014
p761
aVTottenham
p762
aVUEL
p763
aV4(5)
p764
aV455
p765
aV3
aV2
aV1
aV-
aV1.2
p766
aV81.5
p767
aV0.1
p768
aV1
aV6.91
p769
aa(lp770
V2013/2014
p771
aVTottenham
p772
aVEPL
p773
aV23(2)
p774
aV1984
p775
aV7
aV8
aV3
aV-
aV1.9
p776
aV81.9
p777
aV0.4
p778
aV2
aV7.22
p779
aa(lp780
V2013/2014
p781
aVAjax
p782
aVNE
p783
aV4
aV360
p784
aV2
aV3
aV1
aV-
aV3
aV85.7
p785
aV-
aV1
aV8.02
p786
aa(lp787
V2012/2013
p788
aVAjax
p789
aVUEL
p790
aV2
aV211
p791
aV-
aV1
aV1
aV-
aV1
aV84.1
p792
aV-
aV-
aV7.28
p793
aa(lp794
V2012/2013
p795
aVAjax
p796
aVUCL
p797
aV6
aV540
p798
aV1
aV3
aV-
aV-
aV2.2
p799
aV84
p800
aV0.3
p801
aV1
aV7.25
p802
aa(lp803
V2012
p804
aVDenmark
p805
aVUEC
p806
aV3
aV254
p807
aV-
aV-
aV-
aV-
aV1
aV84.5
p808
aV-
aV-
aV6.16
p809
aa(lp810
V2011/2012
p811
aVAjax
p812
aVUCL
p813
aV6
aV530
p814
aV1
aV2
aV-
aV-
aV1.8
p815
aV86.1
p816
aV-
aV-
aV7.27
p817
aa(lp818
V2010/2011
p819
aVAjax
p820
aVUCL
p821
aV1(3)
p822
aV105
p823
aV-
aV-
aV-
aV-
aV1.3
p824
aV85.3
p825
aV-
aV-
aV6.29
p826
aa(lp827
VTotal / Average
p828
aV
aV
aV256
p829
aV20717
p830
aV58
p831
aV71
p832
aV12
p833
aV0
aV2.5
p834
aV82
p835
aV0.4
p836
aV27
p837
aV7.24
p838
aasS'id'
p839
V69344
p840
sb.