(i__main__
Player
p1
(dp2
S'name'
p3
VNathaniel Clyne 
p4
sS'offensive_data'
p5
(lp6
(lp7
a(lp8
V2018/2019
p9
aVLiverpool
p10
aVEPL
p11
aV1
aV90
p12
aV-
aV-
aV-
aV-
aV2
aV87.8
p13
aV1
aV-
aV6.74
p14
aa(lp15
V2017/2018
p16
aVLiverpool
p17
aVUCL
p18
aV0(2)
p19
aV10
p20
aV-
aV-
aV-
aV-
aV-
aV33.3
p21
aV-
aV-
aV6.08
p22
aa(lp23
V2017/2018
p24
aVLiverpool
p25
aVEPL
p26
aV2(1)
p27
aV174
p28
aV-
aV-
aV1
aV-
aV0.7
p29
aV79.8
p30
aV1
aV-
aV6.27
p31
aa(lp32
V2016/2017
p33
aVLiverpool
p34
aVEPL
p35
aV37
p36
aV3324
p37
aV-
aV2
aV-
aV-
aV0.7
p38
aV83.3
p39
aV0.4
p40
aV-
aV6.80
p41
aa(lp42
V2015/2016
p43
aVLiverpool
p44
aVUEL
p45
aV14
p46
aV1216
p47
aV-
aV1
aV4
aV-
aV0.9
p48
aV79
p49
aV0.5
p50
aV-
aV6.84
p51
aa(lp52
V2015/2016
p53
aVLiverpool
p54
aVEPL
p55
aV33
p56
aV2970
p57
aV1
aV-
aV6
aV-
aV0.9
p58
aV78.6
p59
aV0.3
p60
aV-
aV6.79
p61
aa(lp62
V2014/2015
p63
aVSouthampton
p64
aVEPL
p65
aV35
p66
aV3147
p67
aV2
aV-
aV4
aV-
aV0.5
p68
aV78.5
p69
aV0.4
p70
aV2
aV7.04
p71
aa(lp72
V2016
p73
aVEngland
p74
aVUEC
p75
aV1
aV90
p76
aV-
aV-
aV-
aV-
aV2
aV95.2
p77
aV-
aV-
aV8.06
p78
aa(lp79
V2013/2014
p80
aVSouthampton
p81
aVEPL
p82
aV20(5)
p83
aV1862
p84
aV-
aV4
aV3
aV-
aV0.2
p85
aV81.7
p86
aV0.4
p87
aV-
aV6.94
p88
aa(lp89
V2013
p90
aVEngland U21
p91
aVIEU
p92
aV2
aV180
p93
aV-
aV-
aV1
aV-
aV-
aV70.7
p94
aV-
aV-
aV6.44
p95
aa(lp96
V2012/2013
p97
aVSouthampton
p98
aVEPL
p99
aV34
p100
aV3021
p101
aV1
aV3
aV2
aV-
aV0.2
p102
aV78.6
p103
aV0.3
p104
aV-
aV6.90
p105
aa(lp106
VTotal / Average
p107
aV
aV
aV187
p108
aV16084
p109
aV4
aV10
p110
aV21
p111
aV0
aV0.6
p112
aV79.6
p113
aV0.4
p114
aV2
aV6.87
p115
aasS'url'
p116
S'https://www.whoscored.com/Players/69375/History/'
p117
sS'passing_data'
p118
(lp119
(lp120
a(lp121
V2018/2019
p122
aVLiverpool
p123
aVEPL
p124
aV1
aV90
p125
aV-
aV-
aV-
aV-
aV2
aV87.8
p126
aV1
aV-
aV6.74
p127
aa(lp128
V2017/2018
p129
aVLiverpool
p130
aVUCL
p131
aV0(2)
p132
aV10
p133
aV-
aV-
aV-
aV-
aV-
aV33.3
p134
aV-
aV-
aV6.08
p135
aa(lp136
V2017/2018
p137
aVLiverpool
p138
aVEPL
p139
aV2(1)
p140
aV174
p141
aV-
aV-
aV1
aV-
aV0.7
p142
aV79.8
p143
aV1
aV-
aV6.27
p144
aa(lp145
V2016/2017
p146
aVLiverpool
p147
aVEPL
p148
aV37
p149
aV3324
p150
aV-
aV2
aV-
aV-
aV0.7
p151
aV83.3
p152
aV0.4
p153
aV-
aV6.80
p154
aa(lp155
V2015/2016
p156
aVLiverpool
p157
aVUEL
p158
aV14
p159
aV1216
p160
aV-
aV1
aV4
aV-
aV0.9
p161
aV79
p162
aV0.5
p163
aV-
aV6.84
p164
aa(lp165
V2015/2016
p166
aVLiverpool
p167
aVEPL
p168
aV33
p169
aV2970
p170
aV1
aV-
aV6
aV-
aV0.9
p171
aV78.6
p172
aV0.3
p173
aV-
aV6.79
p174
aa(lp175
V2014/2015
p176
aVSouthampton
p177
aVEPL
p178
aV35
p179
aV3147
p180
aV2
aV-
aV4
aV-
aV0.5
p181
aV78.5
p182
aV0.4
p183
aV2
aV7.04
p184
aa(lp185
V2016
p186
aVEngland
p187
aVUEC
p188
aV1
aV90
p189
aV-
aV-
aV-
aV-
aV2
aV95.2
p190
aV-
aV-
aV8.06
p191
aa(lp192
V2013/2014
p193
aVSouthampton
p194
aVEPL
p195
aV20(5)
p196
aV1862
p197
aV-
aV4
aV3
aV-
aV0.2
p198
aV81.7
p199
aV0.4
p200
aV-
aV6.94
p201
aa(lp202
V2013
p203
aVEngland U21
p204
aVIEU
p205
aV2
aV180
p206
aV-
aV-
aV1
aV-
aV-
aV70.7
p207
aV-
aV-
aV6.44
p208
aa(lp209
V2012/2013
p210
aVSouthampton
p211
aVEPL
p212
aV34
p213
aV3021
p214
aV1
aV3
aV2
aV-
aV0.2
p215
aV78.6
p216
aV0.3
p217
aV-
aV6.90
p218
aa(lp219
VTotal / Average
p220
aV
aV
aV187
p221
aV16084
p222
aV4
aV10
p223
aV21
p224
aV0
aV0.6
p225
aV79.6
p226
aV0.4
p227
aV2
aV6.87
p228
aasS'defensive_data'
p229
(lp230
(lp231
a(lp232
V2018/2019
p233
aVLiverpool
p234
aVEPL
p235
aV1
aV90
p236
aV-
aV-
aV-
aV-
aV2
aV87.8
p237
aV1
aV-
aV6.74
p238
aa(lp239
V2017/2018
p240
aVLiverpool
p241
aVUCL
p242
aV0(2)
p243
aV10
p244
aV-
aV-
aV-
aV-
aV-
aV33.3
p245
aV-
aV-
aV6.08
p246
aa(lp247
V2017/2018
p248
aVLiverpool
p249
aVEPL
p250
aV2(1)
p251
aV174
p252
aV-
aV-
aV1
aV-
aV0.7
p253
aV79.8
p254
aV1
aV-
aV6.27
p255
aa(lp256
V2016/2017
p257
aVLiverpool
p258
aVEPL
p259
aV37
p260
aV3324
p261
aV-
aV2
aV-
aV-
aV0.7
p262
aV83.3
p263
aV0.4
p264
aV-
aV6.80
p265
aa(lp266
V2015/2016
p267
aVLiverpool
p268
aVUEL
p269
aV14
p270
aV1216
p271
aV-
aV1
aV4
aV-
aV0.9
p272
aV79
p273
aV0.5
p274
aV-
aV6.84
p275
aa(lp276
V2015/2016
p277
aVLiverpool
p278
aVEPL
p279
aV33
p280
aV2970
p281
aV1
aV-
aV6
aV-
aV0.9
p282
aV78.6
p283
aV0.3
p284
aV-
aV6.79
p285
aa(lp286
V2014/2015
p287
aVSouthampton
p288
aVEPL
p289
aV35
p290
aV3147
p291
aV2
aV-
aV4
aV-
aV0.5
p292
aV78.5
p293
aV0.4
p294
aV2
aV7.04
p295
aa(lp296
V2016
p297
aVEngland
p298
aVUEC
p299
aV1
aV90
p300
aV-
aV-
aV-
aV-
aV2
aV95.2
p301
aV-
aV-
aV8.06
p302
aa(lp303
V2013/2014
p304
aVSouthampton
p305
aVEPL
p306
aV20(5)
p307
aV1862
p308
aV-
aV4
aV3
aV-
aV0.2
p309
aV81.7
p310
aV0.4
p311
aV-
aV6.94
p312
aa(lp313
V2013
p314
aVEngland U21
p315
aVIEU
p316
aV2
aV180
p317
aV-
aV-
aV1
aV-
aV-
aV70.7
p318
aV-
aV-
aV6.44
p319
aa(lp320
V2012/2013
p321
aVSouthampton
p322
aVEPL
p323
aV34
p324
aV3021
p325
aV1
aV3
aV2
aV-
aV0.2
p326
aV78.6
p327
aV0.3
p328
aV-
aV6.90
p329
aa(lp330
VTotal / Average
p331
aV
aV
aV187
p332
aV16084
p333
aV4
aV10
p334
aV21
p335
aV0
aV0.6
p336
aV79.6
p337
aV0.4
p338
aV2
aV6.87
p339
aasS'sumary_data'
p340
(lp341
(lp342
a(lp343
V2018/2019
p344
aVLiverpool
p345
aVEPL
p346
aV1
aV90
p347
aV-
aV-
aV-
aV-
aV2
aV87.8
p348
aV1
aV-
aV6.74
p349
aa(lp350
V2017/2018
p351
aVLiverpool
p352
aVUCL
p353
aV0(2)
p354
aV10
p355
aV-
aV-
aV-
aV-
aV-
aV33.3
p356
aV-
aV-
aV6.08
p357
aa(lp358
V2017/2018
p359
aVLiverpool
p360
aVEPL
p361
aV2(1)
p362
aV174
p363
aV-
aV-
aV1
aV-
aV0.7
p364
aV79.8
p365
aV1
aV-
aV6.27
p366
aa(lp367
V2016/2017
p368
aVLiverpool
p369
aVEPL
p370
aV37
p371
aV3324
p372
aV-
aV2
aV-
aV-
aV0.7
p373
aV83.3
p374
aV0.4
p375
aV-
aV6.80
p376
aa(lp377
V2015/2016
p378
aVLiverpool
p379
aVUEL
p380
aV14
p381
aV1216
p382
aV-
aV1
aV4
aV-
aV0.9
p383
aV79
p384
aV0.5
p385
aV-
aV6.84
p386
aa(lp387
V2015/2016
p388
aVLiverpool
p389
aVEPL
p390
aV33
p391
aV2970
p392
aV1
aV-
aV6
aV-
aV0.9
p393
aV78.6
p394
aV0.3
p395
aV-
aV6.79
p396
aa(lp397
V2014/2015
p398
aVSouthampton
p399
aVEPL
p400
aV35
p401
aV3147
p402
aV2
aV-
aV4
aV-
aV0.5
p403
aV78.5
p404
aV0.4
p405
aV2
aV7.04
p406
aa(lp407
V2016
p408
aVEngland
p409
aVUEC
p410
aV1
aV90
p411
aV-
aV-
aV-
aV-
aV2
aV95.2
p412
aV-
aV-
aV8.06
p413
aa(lp414
V2013/2014
p415
aVSouthampton
p416
aVEPL
p417
aV20(5)
p418
aV1862
p419
aV-
aV4
aV3
aV-
aV0.2
p420
aV81.7
p421
aV0.4
p422
aV-
aV6.94
p423
aa(lp424
V2013
p425
aVEngland U21
p426
aVIEU
p427
aV2
aV180
p428
aV-
aV-
aV1
aV-
aV-
aV70.7
p429
aV-
aV-
aV6.44
p430
aa(lp431
V2012/2013
p432
aVSouthampton
p433
aVEPL
p434
aV34
p435
aV3021
p436
aV1
aV3
aV2
aV-
aV0.2
p437
aV78.6
p438
aV0.3
p439
aV-
aV6.90
p440
aa(lp441
VTotal / Average
p442
aV
aV
aV187
p443
aV16084
p444
aV4
aV10
p445
aV21
p446
aV0
aV0.6
p447
aV79.6
p448
aV0.4
p449
aV2
aV6.87
p450
aasS'id'
p451
V69375
p452
sb.