(i__main__
Player
p1
(dp2
S'name'
p3
VMichail Antonio 
p4
sS'offensive_data'
p5
(lp6
(lp7
a(lp8
V2018/2019
p9
aVWest Ham
p10
aVEPL
p11
aV7(7)
p12
aV699
p13
aV2
aV1
aV1
aV-
aV1.6
p14
aV62.7
p15
aV2.1
p16
aV-
aV6.67
p17
aa(lp18
V2017/2018
p19
aVWest Ham
p20
aVEPL
p21
aV16(5)
p22
aV1358
p23
aV3
aV1
aV1
aV-
aV1.6
p24
aV67.8
p25
aV2
aV-
aV6.88
p26
aa(lp27
V2016/2017
p28
aVWest Ham
p29
aVEPL
p30
aV29
p31
aV2440
p32
aV9
aV3
aV4
aV1
aV2.7
p33
aV73
p34
aV2
aV3
aV7.25
p35
aa(lp36
V2015/2016
p37
aVNottingham Fo..
p38
aVEC
p39
aV4
aV360
p40
aV2
aV1
aV-
aV-
aV4.5
p41
aV65.1
p42
aV2.3
p43
aV-
aV7.56
p44
aa(lp45
V2015/2016
p46
aVWest Ham
p47
aVEPL
p48
aV23(3)
p49
aV2063
p50
aV8
aV3
aV3
aV-
aV2.1
p51
aV69.6
p52
aV1.5
p53
aV2
aV7.35
p54
aa(lp55
V2014/2015
p56
aVNottingham Fo..
p57
aVEC
p58
aV46
p59
aV3942
p60
aV14
p61
aV12
p62
aV7
aV-
aV3.4
p63
aV60.3
p64
aV3.3
p65
aV7
aV7.36
p66
aa(lp67
V2013/2014
p68
aVSheffield Wed..
p69
aVEC
p70
aV24(3)
p71
aV2088
p72
aV4
aV3
aV1
aV-
aV2.7
p73
aV66.1
p74
aV1.8
p75
aV2
aV6.90
p76
aa(lp77
VTotal / Average
p78
aV
aV
aV167
p79
aV12950
p80
aV42
p81
aV24
p82
aV17
p83
aV1
aV2.6
p84
aV66.1
p85
aV2.3
p86
aV14
p87
aV7.15
p88
aasS'url'
p89
S'https://www.whoscored.com/Players/69517/History/'
p90
sS'passing_data'
p91
(lp92
(lp93
a(lp94
V2018/2019
p95
aVWest Ham
p96
aVEPL
p97
aV7(7)
p98
aV699
p99
aV2
aV1
aV1
aV-
aV1.6
p100
aV62.7
p101
aV2.1
p102
aV-
aV6.67
p103
aa(lp104
V2017/2018
p105
aVWest Ham
p106
aVEPL
p107
aV16(5)
p108
aV1358
p109
aV3
aV1
aV1
aV-
aV1.6
p110
aV67.8
p111
aV2
aV-
aV6.88
p112
aa(lp113
V2016/2017
p114
aVWest Ham
p115
aVEPL
p116
aV29
p117
aV2440
p118
aV9
aV3
aV4
aV1
aV2.7
p119
aV73
p120
aV2
aV3
aV7.25
p121
aa(lp122
V2015/2016
p123
aVNottingham Fo..
p124
aVEC
p125
aV4
aV360
p126
aV2
aV1
aV-
aV-
aV4.5
p127
aV65.1
p128
aV2.3
p129
aV-
aV7.56
p130
aa(lp131
V2015/2016
p132
aVWest Ham
p133
aVEPL
p134
aV23(3)
p135
aV2063
p136
aV8
aV3
aV3
aV-
aV2.1
p137
aV69.6
p138
aV1.5
p139
aV2
aV7.35
p140
aa(lp141
V2014/2015
p142
aVNottingham Fo..
p143
aVEC
p144
aV46
p145
aV3942
p146
aV14
p147
aV12
p148
aV7
aV-
aV3.4
p149
aV60.3
p150
aV3.3
p151
aV7
aV7.36
p152
aa(lp153
V2013/2014
p154
aVSheffield Wed..
p155
aVEC
p156
aV24(3)
p157
aV2088
p158
aV4
aV3
aV1
aV-
aV2.7
p159
aV66.1
p160
aV1.8
p161
aV2
aV6.90
p162
aa(lp163
VTotal / Average
p164
aV
aV
aV167
p165
aV12950
p166
aV42
p167
aV24
p168
aV17
p169
aV1
aV2.6
p170
aV66.1
p171
aV2.3
p172
aV14
p173
aV7.15
p174
aasS'defensive_data'
p175
(lp176
(lp177
a(lp178
V2018/2019
p179
aVWest Ham
p180
aVEPL
p181
aV7(7)
p182
aV699
p183
aV2
aV1
aV1
aV-
aV1.6
p184
aV62.7
p185
aV2.1
p186
aV-
aV6.67
p187
aa(lp188
V2017/2018
p189
aVWest Ham
p190
aVEPL
p191
aV16(5)
p192
aV1358
p193
aV3
aV1
aV1
aV-
aV1.6
p194
aV67.8
p195
aV2
aV-
aV6.88
p196
aa(lp197
V2016/2017
p198
aVWest Ham
p199
aVEPL
p200
aV29
p201
aV2440
p202
aV9
aV3
aV4
aV1
aV2.7
p203
aV73
p204
aV2
aV3
aV7.25
p205
aa(lp206
V2015/2016
p207
aVNottingham Fo..
p208
aVEC
p209
aV4
aV360
p210
aV2
aV1
aV-
aV-
aV4.5
p211
aV65.1
p212
aV2.3
p213
aV-
aV7.56
p214
aa(lp215
V2015/2016
p216
aVWest Ham
p217
aVEPL
p218
aV23(3)
p219
aV2063
p220
aV8
aV3
aV3
aV-
aV2.1
p221
aV69.6
p222
aV1.5
p223
aV2
aV7.35
p224
aa(lp225
V2014/2015
p226
aVNottingham Fo..
p227
aVEC
p228
aV46
p229
aV3942
p230
aV14
p231
aV12
p232
aV7
aV-
aV3.4
p233
aV60.3
p234
aV3.3
p235
aV7
aV7.36
p236
aa(lp237
V2013/2014
p238
aVSheffield Wed..
p239
aVEC
p240
aV24(3)
p241
aV2088
p242
aV4
aV3
aV1
aV-
aV2.7
p243
aV66.1
p244
aV1.8
p245
aV2
aV6.90
p246
aa(lp247
VTotal / Average
p248
aV
aV
aV167
p249
aV12950
p250
aV42
p251
aV24
p252
aV17
p253
aV1
aV2.6
p254
aV66.1
p255
aV2.3
p256
aV14
p257
aV7.15
p258
aasS'sumary_data'
p259
(lp260
(lp261
a(lp262
V2018/2019
p263
aVWest Ham
p264
aVEPL
p265
aV7(7)
p266
aV699
p267
aV2
aV1
aV1
aV-
aV1.6
p268
aV62.7
p269
aV2.1
p270
aV-
aV6.67
p271
aa(lp272
V2017/2018
p273
aVWest Ham
p274
aVEPL
p275
aV16(5)
p276
aV1358
p277
aV3
aV1
aV1
aV-
aV1.6
p278
aV67.8
p279
aV2
aV-
aV6.88
p280
aa(lp281
V2016/2017
p282
aVWest Ham
p283
aVEPL
p284
aV29
p285
aV2440
p286
aV9
aV3
aV4
aV1
aV2.7
p287
aV73
p288
aV2
aV3
aV7.25
p289
aa(lp290
V2015/2016
p291
aVNottingham Fo..
p292
aVEC
p293
aV4
aV360
p294
aV2
aV1
aV-
aV-
aV4.5
p295
aV65.1
p296
aV2.3
p297
aV-
aV7.56
p298
aa(lp299
V2015/2016
p300
aVWest Ham
p301
aVEPL
p302
aV23(3)
p303
aV2063
p304
aV8
aV3
aV3
aV-
aV2.1
p305
aV69.6
p306
aV1.5
p307
aV2
aV7.35
p308
aa(lp309
V2014/2015
p310
aVNottingham Fo..
p311
aVEC
p312
aV46
p313
aV3942
p314
aV14
p315
aV12
p316
aV7
aV-
aV3.4
p317
aV60.3
p318
aV3.3
p319
aV7
aV7.36
p320
aa(lp321
V2013/2014
p322
aVSheffield Wed..
p323
aVEC
p324
aV24(3)
p325
aV2088
p326
aV4
aV3
aV1
aV-
aV2.7
p327
aV66.1
p328
aV1.8
p329
aV2
aV6.90
p330
aa(lp331
VTotal / Average
p332
aV
aV
aV167
p333
aV12950
p334
aV42
p335
aV24
p336
aV17
p337
aV1
aV2.6
p338
aV66.1
p339
aV2.3
p340
aV14
p341
aV7.15
p342
aasS'id'
p343
V69517
p344
sb.