(i__main__
Player
p1
(dp2
S'name'
p3
VKyle Walker 
p4
sS'offensive_data'
p5
(lp6
(lp7
a(lp8
V2018/2019
p9
aVManchester Ci..
p10
aVEPL
p11
aV14
p12
aV1260
p13
aV1
aV-
aV-
aV-
aV0.7
p14
aV89.4
p15
aV1.1
p16
aV-
aV7.05
p17
aa(lp18
V2018/2019
p19
aVManchester Ci..
p20
aVUCL
p21
aV4(2)
p22
aV386
p23
aV-
aV-
aV1
aV-
aV0.5
p24
aV90.4
p25
aV1.2
p26
aV-
aV6.31
p27
aa(lp28
V2018/2019
p29
aVEngland
p30
aVUNL
p31
aV2(1)
p32
aV194
p33
aV-
aV-
aV-
aV-
aV0.3
p34
aV80.5
p35
aV1.7
p36
aV-
aV6.84
p37
aa(lp38
V2017/2018
p39
aVManchester Ci..
p40
aVUCL
p41
aV7
aV630
p42
aV-
aV1
aV1
aV-
aV0.3
p43
aV87.7
p44
aV2.1
p45
aV-
aV7.10
p46
aa(lp47
V2017/2018
p48
aVManchester Ci..
p49
aVEPL
p50
aV32
p51
aV2787
p52
aV-
aV6
aV2
aV1
aV0.4
p53
aV87.8
p54
aV2.2
p55
aV-
aV7.05
p56
aa(lp57
V2016/2017
p58
aVTottenham
p59
aVUCL
p60
aV3
aV270
p61
aV-
aV-
aV-
aV-
aV0.3
p62
aV79.2
p63
aV2.3
p64
aV-
aV7.29
p65
aa(lp66
V2016/2017
p67
aVTottenham
p68
aVEPL
p69
aV31(2)
p70
aV2704
p71
aV-
aV5
aV8
aV-
aV0.6
p72
aV79.8
p73
aV1.8
p74
aV2
aV7.20
p75
aa(lp76
V2016/2017
p77
aVTottenham
p78
aVUEL
p79
aV2
aV180
p80
aV-
aV-
aV2
aV-
aV1.5
p81
aV69.2
p82
aV2.5
p83
aV-
aV6.89
p84
aa(lp85
V2018
p86
aVEngland
p87
aVWC
p88
aV5
aV495
p89
aV-
aV-
aV2
aV-
aV-
aV91
p90
aV3.8
p91
aV-
aV7.01
p92
aa(lp93
V2015/2016
p94
aVTottenham
p95
aVEPL
p96
aV33
p97
aV2943
p98
aV1
aV3
aV7
aV-
aV0.6
p99
aV78.4
p100
aV1.6
p101
aV1
aV7.19
p102
aa(lp103
V2014/2015
p104
aVTottenham
p105
aVUEL
p106
aV2(1)
p107
aV182
p108
aV-
aV-
aV-
aV-
aV-
aV82.2
p109
aV-
aV-
aV6.63
p110
aa(lp111
V2014/2015
p112
aVTottenham
p113
aVEPL
p114
aV15
p115
aV1307
p116
aV-
aV-
aV3
aV-
aV0.4
p117
aV80
p118
aV1.7
p119
aV-
aV6.97
p120
aa(lp121
V2016
p122
aVEngland
p123
aVUEC
p124
aV3
aV270
p125
aV-
aV-
aV-
aV-
aV0.3
p126
aV80.6
p127
aV1
aV-
aV6.99
p128
aa(lp129
V2013/2014
p130
aVTottenham
p131
aVUEL
p132
aV3
aV256
p133
aV-
aV1
aV-
aV-
aV-
aV85.6
p134
aV1.3
p135
aV1
aV7.14
p136
aa(lp137
V2013/2014
p138
aVTottenham
p139
aVEPL
p140
aV26
p141
aV2298
p142
aV1
aV2
aV5
aV-
aV0.7
p143
aV82.2
p144
aV1.9
p145
aV1
aV7.06
p146
aa(lp147
V2012/2013
p148
aVTottenham
p149
aVUEL
p150
aV11
p151
aV1051
p152
aV-
aV-
aV4
aV-
aV0.5
p153
aV83.9
p154
aV0.7
p155
aV-
aV7.30
p156
aa(lp157
V2012/2013
p158
aVTottenham
p159
aVEPL
p160
aV36
p161
aV3161
p162
aV-
aV4
aV5
aV-
aV0.9
p163
aV83.4
p164
aV1.4
p165
aV-
aV7.16
p166
aa(lp167
V2011/2012
p168
aVTottenham
p169
aVEPL
p170
aV37
p171
aV3231
p172
aV2
aV1
aV4
aV-
aV0.7
p173
aV83
p174
aV0.9
p175
aV1
aV7.13
p176
aa(lp177
V2010/2011
p178
aVAston Villa
p179
aVEPL
p180
aV15
p181
aV1338
p182
aV1
aV3
aV3
aV-
aV0.3
p183
aV77
p184
aV1.9
p185
aV1
aV7.27
p186
aa(lp187
V2010/2011
p188
aVTottenham
p189
aVEPL
p190
aV0(1)
p191
aV3
aV-
aV-
aV-
aV-
aV-
aV-
aV-
aV-
aV6.00
p192
aa(lp193
V2009/2010
p194
aVTottenham
p195
aVEPL
p196
aV2
aV180
p197
aV-
aV-
aV-
aV-
aV-
aV72.2
p198
aV1
aV-
aV6.92
p199
aa(lp200
VTotal / Average
p201
aV
aV
aV290
p202
aV25126
p203
aV6
aV26
p204
aV47
p205
aV1
aV0.6
p206
aV82.4
p207
aV1.6
p208
aV7
aV7.10
p209
aasS'url'
p210
S'https://www.whoscored.com/Players/69778/History/'
p211
sS'passing_data'
p212
(lp213
(lp214
a(lp215
V2018/2019
p216
aVManchester Ci..
p217
aVEPL
p218
aV14
p219
aV1260
p220
aV1
aV-
aV-
aV-
aV0.7
p221
aV89.4
p222
aV1.1
p223
aV-
aV7.05
p224
aa(lp225
V2018/2019
p226
aVManchester Ci..
p227
aVUCL
p228
aV4(2)
p229
aV386
p230
aV-
aV-
aV1
aV-
aV0.5
p231
aV90.4
p232
aV1.2
p233
aV-
aV6.31
p234
aa(lp235
V2018/2019
p236
aVEngland
p237
aVUNL
p238
aV2(1)
p239
aV194
p240
aV-
aV-
aV-
aV-
aV0.3
p241
aV80.5
p242
aV1.7
p243
aV-
aV6.84
p244
aa(lp245
V2017/2018
p246
aVManchester Ci..
p247
aVUCL
p248
aV7
aV630
p249
aV-
aV1
aV1
aV-
aV0.3
p250
aV87.7
p251
aV2.1
p252
aV-
aV7.10
p253
aa(lp254
V2017/2018
p255
aVManchester Ci..
p256
aVEPL
p257
aV32
p258
aV2787
p259
aV-
aV6
aV2
aV1
aV0.4
p260
aV87.8
p261
aV2.2
p262
aV-
aV7.05
p263
aa(lp264
V2016/2017
p265
aVTottenham
p266
aVUCL
p267
aV3
aV270
p268
aV-
aV-
aV-
aV-
aV0.3
p269
aV79.2
p270
aV2.3
p271
aV-
aV7.29
p272
aa(lp273
V2016/2017
p274
aVTottenham
p275
aVEPL
p276
aV31(2)
p277
aV2704
p278
aV-
aV5
aV8
aV-
aV0.6
p279
aV79.8
p280
aV1.8
p281
aV2
aV7.20
p282
aa(lp283
V2016/2017
p284
aVTottenham
p285
aVUEL
p286
aV2
aV180
p287
aV-
aV-
aV2
aV-
aV1.5
p288
aV69.2
p289
aV2.5
p290
aV-
aV6.89
p291
aa(lp292
V2018
p293
aVEngland
p294
aVWC
p295
aV5
aV495
p296
aV-
aV-
aV2
aV-
aV-
aV91
p297
aV3.8
p298
aV-
aV7.01
p299
aa(lp300
V2015/2016
p301
aVTottenham
p302
aVEPL
p303
aV33
p304
aV2943
p305
aV1
aV3
aV7
aV-
aV0.6
p306
aV78.4
p307
aV1.6
p308
aV1
aV7.19
p309
aa(lp310
V2014/2015
p311
aVTottenham
p312
aVUEL
p313
aV2(1)
p314
aV182
p315
aV-
aV-
aV-
aV-
aV-
aV82.2
p316
aV-
aV-
aV6.63
p317
aa(lp318
V2014/2015
p319
aVTottenham
p320
aVEPL
p321
aV15
p322
aV1307
p323
aV-
aV-
aV3
aV-
aV0.4
p324
aV80
p325
aV1.7
p326
aV-
aV6.97
p327
aa(lp328
V2016
p329
aVEngland
p330
aVUEC
p331
aV3
aV270
p332
aV-
aV-
aV-
aV-
aV0.3
p333
aV80.6
p334
aV1
aV-
aV6.99
p335
aa(lp336
V2013/2014
p337
aVTottenham
p338
aVUEL
p339
aV3
aV256
p340
aV-
aV1
aV-
aV-
aV-
aV85.6
p341
aV1.3
p342
aV1
aV7.14
p343
aa(lp344
V2013/2014
p345
aVTottenham
p346
aVEPL
p347
aV26
p348
aV2298
p349
aV1
aV2
aV5
aV-
aV0.7
p350
aV82.2
p351
aV1.9
p352
aV1
aV7.06
p353
aa(lp354
V2012/2013
p355
aVTottenham
p356
aVUEL
p357
aV11
p358
aV1051
p359
aV-
aV-
aV4
aV-
aV0.5
p360
aV83.9
p361
aV0.7
p362
aV-
aV7.30
p363
aa(lp364
V2012/2013
p365
aVTottenham
p366
aVEPL
p367
aV36
p368
aV3161
p369
aV-
aV4
aV5
aV-
aV0.9
p370
aV83.4
p371
aV1.4
p372
aV-
aV7.16
p373
aa(lp374
V2011/2012
p375
aVTottenham
p376
aVEPL
p377
aV37
p378
aV3231
p379
aV2
aV1
aV4
aV-
aV0.7
p380
aV83
p381
aV0.9
p382
aV1
aV7.13
p383
aa(lp384
V2010/2011
p385
aVAston Villa
p386
aVEPL
p387
aV15
p388
aV1338
p389
aV1
aV3
aV3
aV-
aV0.3
p390
aV77
p391
aV1.9
p392
aV1
aV7.27
p393
aa(lp394
V2010/2011
p395
aVTottenham
p396
aVEPL
p397
aV0(1)
p398
aV3
aV-
aV-
aV-
aV-
aV-
aV-
aV-
aV-
aV6.00
p399
aa(lp400
V2009/2010
p401
aVTottenham
p402
aVEPL
p403
aV2
aV180
p404
aV-
aV-
aV-
aV-
aV-
aV72.2
p405
aV1
aV-
aV6.92
p406
aa(lp407
VTotal / Average
p408
aV
aV
aV290
p409
aV25126
p410
aV6
aV26
p411
aV47
p412
aV1
aV0.6
p413
aV82.4
p414
aV1.6
p415
aV7
aV7.10
p416
aasS'defensive_data'
p417
(lp418
(lp419
a(lp420
V2018/2019
p421
aVManchester Ci..
p422
aVEPL
p423
aV14
p424
aV1260
p425
aV1
aV-
aV-
aV-
aV0.7
p426
aV89.4
p427
aV1.1
p428
aV-
aV7.05
p429
aa(lp430
V2018/2019
p431
aVManchester Ci..
p432
aVUCL
p433
aV4(2)
p434
aV386
p435
aV-
aV-
aV1
aV-
aV0.5
p436
aV90.4
p437
aV1.2
p438
aV-
aV6.31
p439
aa(lp440
V2018/2019
p441
aVEngland
p442
aVUNL
p443
aV2(1)
p444
aV194
p445
aV-
aV-
aV-
aV-
aV0.3
p446
aV80.5
p447
aV1.7
p448
aV-
aV6.84
p449
aa(lp450
V2017/2018
p451
aVManchester Ci..
p452
aVUCL
p453
aV7
aV630
p454
aV-
aV1
aV1
aV-
aV0.3
p455
aV87.7
p456
aV2.1
p457
aV-
aV7.10
p458
aa(lp459
V2017/2018
p460
aVManchester Ci..
p461
aVEPL
p462
aV32
p463
aV2787
p464
aV-
aV6
aV2
aV1
aV0.4
p465
aV87.8
p466
aV2.2
p467
aV-
aV7.05
p468
aa(lp469
V2016/2017
p470
aVTottenham
p471
aVUCL
p472
aV3
aV270
p473
aV-
aV-
aV-
aV-
aV0.3
p474
aV79.2
p475
aV2.3
p476
aV-
aV7.29
p477
aa(lp478
V2016/2017
p479
aVTottenham
p480
aVEPL
p481
aV31(2)
p482
aV2704
p483
aV-
aV5
aV8
aV-
aV0.6
p484
aV79.8
p485
aV1.8
p486
aV2
aV7.20
p487
aa(lp488
V2016/2017
p489
aVTottenham
p490
aVUEL
p491
aV2
aV180
p492
aV-
aV-
aV2
aV-
aV1.5
p493
aV69.2
p494
aV2.5
p495
aV-
aV6.89
p496
aa(lp497
V2018
p498
aVEngland
p499
aVWC
p500
aV5
aV495
p501
aV-
aV-
aV2
aV-
aV-
aV91
p502
aV3.8
p503
aV-
aV7.01
p504
aa(lp505
V2015/2016
p506
aVTottenham
p507
aVEPL
p508
aV33
p509
aV2943
p510
aV1
aV3
aV7
aV-
aV0.6
p511
aV78.4
p512
aV1.6
p513
aV1
aV7.19
p514
aa(lp515
V2014/2015
p516
aVTottenham
p517
aVUEL
p518
aV2(1)
p519
aV182
p520
aV-
aV-
aV-
aV-
aV-
aV82.2
p521
aV-
aV-
aV6.63
p522
aa(lp523
V2014/2015
p524
aVTottenham
p525
aVEPL
p526
aV15
p527
aV1307
p528
aV-
aV-
aV3
aV-
aV0.4
p529
aV80
p530
aV1.7
p531
aV-
aV6.97
p532
aa(lp533
V2016
p534
aVEngland
p535
aVUEC
p536
aV3
aV270
p537
aV-
aV-
aV-
aV-
aV0.3
p538
aV80.6
p539
aV1
aV-
aV6.99
p540
aa(lp541
V2013/2014
p542
aVTottenham
p543
aVUEL
p544
aV3
aV256
p545
aV-
aV1
aV-
aV-
aV-
aV85.6
p546
aV1.3
p547
aV1
aV7.14
p548
aa(lp549
V2013/2014
p550
aVTottenham
p551
aVEPL
p552
aV26
p553
aV2298
p554
aV1
aV2
aV5
aV-
aV0.7
p555
aV82.2
p556
aV1.9
p557
aV1
aV7.06
p558
aa(lp559
V2012/2013
p560
aVTottenham
p561
aVUEL
p562
aV11
p563
aV1051
p564
aV-
aV-
aV4
aV-
aV0.5
p565
aV83.9
p566
aV0.7
p567
aV-
aV7.30
p568
aa(lp569
V2012/2013
p570
aVTottenham
p571
aVEPL
p572
aV36
p573
aV3161
p574
aV-
aV4
aV5
aV-
aV0.9
p575
aV83.4
p576
aV1.4
p577
aV-
aV7.16
p578
aa(lp579
V2011/2012
p580
aVTottenham
p581
aVEPL
p582
aV37
p583
aV3231
p584
aV2
aV1
aV4
aV-
aV0.7
p585
aV83
p586
aV0.9
p587
aV1
aV7.13
p588
aa(lp589
V2010/2011
p590
aVAston Villa
p591
aVEPL
p592
aV15
p593
aV1338
p594
aV1
aV3
aV3
aV-
aV0.3
p595
aV77
p596
aV1.9
p597
aV1
aV7.27
p598
aa(lp599
V2010/2011
p600
aVTottenham
p601
aVEPL
p602
aV0(1)
p603
aV3
aV-
aV-
aV-
aV-
aV-
aV-
aV-
aV-
aV6.00
p604
aa(lp605
V2009/2010
p606
aVTottenham
p607
aVEPL
p608
aV2
aV180
p609
aV-
aV-
aV-
aV-
aV-
aV72.2
p610
aV1
aV-
aV6.92
p611
aa(lp612
VTotal / Average
p613
aV
aV
aV290
p614
aV25126
p615
aV6
aV26
p616
aV47
p617
aV1
aV0.6
p618
aV82.4
p619
aV1.6
p620
aV7
aV7.10
p621
aasS'sumary_data'
p622
(lp623
(lp624
a(lp625
V2018/2019
p626
aVManchester Ci..
p627
aVEPL
p628
aV14
p629
aV1260
p630
aV1
aV-
aV-
aV-
aV0.7
p631
aV89.4
p632
aV1.1
p633
aV-
aV7.05
p634
aa(lp635
V2018/2019
p636
aVManchester Ci..
p637
aVUCL
p638
aV4(2)
p639
aV386
p640
aV-
aV-
aV1
aV-
aV0.5
p641
aV90.4
p642
aV1.2
p643
aV-
aV6.31
p644
aa(lp645
V2018/2019
p646
aVEngland
p647
aVUNL
p648
aV2(1)
p649
aV194
p650
aV-
aV-
aV-
aV-
aV0.3
p651
aV80.5
p652
aV1.7
p653
aV-
aV6.84
p654
aa(lp655
V2017/2018
p656
aVManchester Ci..
p657
aVUCL
p658
aV7
aV630
p659
aV-
aV1
aV1
aV-
aV0.3
p660
aV87.7
p661
aV2.1
p662
aV-
aV7.10
p663
aa(lp664
V2017/2018
p665
aVManchester Ci..
p666
aVEPL
p667
aV32
p668
aV2787
p669
aV-
aV6
aV2
aV1
aV0.4
p670
aV87.8
p671
aV2.2
p672
aV-
aV7.05
p673
aa(lp674
V2016/2017
p675
aVTottenham
p676
aVUCL
p677
aV3
aV270
p678
aV-
aV-
aV-
aV-
aV0.3
p679
aV79.2
p680
aV2.3
p681
aV-
aV7.29
p682
aa(lp683
V2016/2017
p684
aVTottenham
p685
aVEPL
p686
aV31(2)
p687
aV2704
p688
aV-
aV5
aV8
aV-
aV0.6
p689
aV79.8
p690
aV1.8
p691
aV2
aV7.20
p692
aa(lp693
V2016/2017
p694
aVTottenham
p695
aVUEL
p696
aV2
aV180
p697
aV-
aV-
aV2
aV-
aV1.5
p698
aV69.2
p699
aV2.5
p700
aV-
aV6.89
p701
aa(lp702
V2018
p703
aVEngland
p704
aVWC
p705
aV5
aV495
p706
aV-
aV-
aV2
aV-
aV-
aV91
p707
aV3.8
p708
aV-
aV7.01
p709
aa(lp710
V2015/2016
p711
aVTottenham
p712
aVEPL
p713
aV33
p714
aV2943
p715
aV1
aV3
aV7
aV-
aV0.6
p716
aV78.4
p717
aV1.6
p718
aV1
aV7.19
p719
aa(lp720
V2014/2015
p721
aVTottenham
p722
aVUEL
p723
aV2(1)
p724
aV182
p725
aV-
aV-
aV-
aV-
aV-
aV82.2
p726
aV-
aV-
aV6.63
p727
aa(lp728
V2014/2015
p729
aVTottenham
p730
aVEPL
p731
aV15
p732
aV1307
p733
aV-
aV-
aV3
aV-
aV0.4
p734
aV80
p735
aV1.7
p736
aV-
aV6.97
p737
aa(lp738
V2016
p739
aVEngland
p740
aVUEC
p741
aV3
aV270
p742
aV-
aV-
aV-
aV-
aV0.3
p743
aV80.6
p744
aV1
aV-
aV6.99
p745
aa(lp746
V2013/2014
p747
aVTottenham
p748
aVUEL
p749
aV3
aV256
p750
aV-
aV1
aV-
aV-
aV-
aV85.6
p751
aV1.3
p752
aV1
aV7.14
p753
aa(lp754
V2013/2014
p755
aVTottenham
p756
aVEPL
p757
aV26
p758
aV2298
p759
aV1
aV2
aV5
aV-
aV0.7
p760
aV82.2
p761
aV1.9
p762
aV1
aV7.06
p763
aa(lp764
V2012/2013
p765
aVTottenham
p766
aVUEL
p767
aV11
p768
aV1051
p769
aV-
aV-
aV4
aV-
aV0.5
p770
aV83.9
p771
aV0.7
p772
aV-
aV7.30
p773
aa(lp774
V2012/2013
p775
aVTottenham
p776
aVEPL
p777
aV36
p778
aV3161
p779
aV-
aV4
aV5
aV-
aV0.9
p780
aV83.4
p781
aV1.4
p782
aV-
aV7.16
p783
aa(lp784
V2011/2012
p785
aVTottenham
p786
aVEPL
p787
aV37
p788
aV3231
p789
aV2
aV1
aV4
aV-
aV0.7
p790
aV83
p791
aV0.9
p792
aV1
aV7.13
p793
aa(lp794
V2010/2011
p795
aVAston Villa
p796
aVEPL
p797
aV15
p798
aV1338
p799
aV1
aV3
aV3
aV-
aV0.3
p800
aV77
p801
aV1.9
p802
aV1
aV7.27
p803
aa(lp804
V2010/2011
p805
aVTottenham
p806
aVEPL
p807
aV0(1)
p808
aV3
aV-
aV-
aV-
aV-
aV-
aV-
aV-
aV-
aV6.00
p809
aa(lp810
V2009/2010
p811
aVTottenham
p812
aVEPL
p813
aV2
aV180
p814
aV-
aV-
aV-
aV-
aV-
aV72.2
p815
aV1
aV-
aV6.92
p816
aa(lp817
VTotal / Average
p818
aV
aV
aV290
p819
aV25126
p820
aV6
aV26
p821
aV47
p822
aV1
aV0.6
p823
aV82.4
p824
aV1.6
p825
aV7
aV7.10
p826
aasS'id'
p827
V69778
p828
sb.