(i__main__
Player
p1
(dp2
S'name'
p3
VAdam Smith 
p4
sS'offensive_data'
p5
(lp6
(lp7
a(lp8
V2018/2019
p9
aVBournemouth
p10
aVEPL
p11
aV12
p12
aV969
p13
aV1
aV-
aV1
aV1
aV0.2
p14
aV82.6
p15
aV0.8
p16
aV-
aV6.66
p17
aa(lp18
V2017/2018
p19
aVBournemouth
p20
aVEPL
p21
aV22(5)
p22
aV2069
p23
aV1
aV3
aV6
aV-
aV0.5
p24
aV82.3
p25
aV0.6
p26
aV-
aV6.73
p27
aa(lp28
V2016/2017
p29
aVBournemouth
p30
aVEPL
p31
aV34(2)
p32
aV3099
p33
aV1
aV5
aV6
aV-
aV0.7
p34
aV84.7
p35
aV0.9
p36
aV1
aV6.84
p37
aa(lp38
V2015/2016
p39
aVBournemouth
p40
aVEPL
p41
aV22(9)
p42
aV2097
p43
aV2
aV-
aV5
aV-
aV0.5
p44
aV84.3
p45
aV0.7
p46
aV1
aV6.87
p47
aa(lp48
V2014/2015
p49
aVBournemouth
p50
aVEC
p51
aV6(23)
p52
aV807
p53
aV-
aV1
aV5
aV-
aV0.4
p54
aV85.1
p55
aV0.7
p56
aV-
aV6.45
p57
aa(lp58
V2013/2014
p59
aVBournemouth
p60
aVEC
p61
aV1(4)
p62
aV130
p63
aV-
aV-
aV1
aV-
aV0.8
p64
aV75.9
p65
aV0.2
p66
aV-
aV6.36
p67
aa(lp68
V2013/2014
p69
aVDerby
p70
aVEC
p71
aV7(1)
p72
aV647
p73
aV-
aV-
aV3
aV-
aV0.8
p74
aV82.7
p75
aV1.5
p76
aV-
aV6.89
p77
aa(lp78
V2013
p79
aVEngland U21
p80
aVIEU
p81
aV1
aV90
p82
aV-
aV-
aV-
aV-
aV1
aV80
p83
aV-
aV-
aV6.97
p84
aa(lp85
V2011/2012
p86
aVTottenham
p87
aVEPL
p88
aV0(1)
p89
aV14
p90
aV-
aV-
aV-
aV-
aV-
aV90.9
p91
aV-
aV-
aV6.45
p92
aa(lp93
VTotal / Average
p94
aV
aV
aV150
p95
aV9922
p96
aV5
aV9
aV27
p97
aV1
aV0.5
p98
aV83.7
p99
aV0.7
p100
aV2
aV6.72
p101
aasS'url'
p102
S'https://www.whoscored.com/Players/69877/History/'
p103
sS'passing_data'
p104
(lp105
(lp106
a(lp107
V2018/2019
p108
aVBournemouth
p109
aVEPL
p110
aV12
p111
aV969
p112
aV1
aV-
aV1
aV1
aV0.2
p113
aV82.6
p114
aV0.8
p115
aV-
aV6.66
p116
aa(lp117
V2017/2018
p118
aVBournemouth
p119
aVEPL
p120
aV22(5)
p121
aV2069
p122
aV1
aV3
aV6
aV-
aV0.5
p123
aV82.3
p124
aV0.6
p125
aV-
aV6.73
p126
aa(lp127
V2016/2017
p128
aVBournemouth
p129
aVEPL
p130
aV34(2)
p131
aV3099
p132
aV1
aV5
aV6
aV-
aV0.7
p133
aV84.7
p134
aV0.9
p135
aV1
aV6.84
p136
aa(lp137
V2015/2016
p138
aVBournemouth
p139
aVEPL
p140
aV22(9)
p141
aV2097
p142
aV2
aV-
aV5
aV-
aV0.5
p143
aV84.3
p144
aV0.7
p145
aV1
aV6.87
p146
aa(lp147
V2014/2015
p148
aVBournemouth
p149
aVEC
p150
aV6(23)
p151
aV807
p152
aV-
aV1
aV5
aV-
aV0.4
p153
aV85.1
p154
aV0.7
p155
aV-
aV6.45
p156
aa(lp157
V2013/2014
p158
aVBournemouth
p159
aVEC
p160
aV1(4)
p161
aV130
p162
aV-
aV-
aV1
aV-
aV0.8
p163
aV75.9
p164
aV0.2
p165
aV-
aV6.36
p166
aa(lp167
V2013/2014
p168
aVDerby
p169
aVEC
p170
aV7(1)
p171
aV647
p172
aV-
aV-
aV3
aV-
aV0.8
p173
aV82.7
p174
aV1.5
p175
aV-
aV6.89
p176
aa(lp177
V2013
p178
aVEngland U21
p179
aVIEU
p180
aV1
aV90
p181
aV-
aV-
aV-
aV-
aV1
aV80
p182
aV-
aV-
aV6.97
p183
aa(lp184
V2011/2012
p185
aVTottenham
p186
aVEPL
p187
aV0(1)
p188
aV14
p189
aV-
aV-
aV-
aV-
aV-
aV90.9
p190
aV-
aV-
aV6.45
p191
aa(lp192
VTotal / Average
p193
aV
aV
aV150
p194
aV9922
p195
aV5
aV9
aV27
p196
aV1
aV0.5
p197
aV83.7
p198
aV0.7
p199
aV2
aV6.72
p200
aasS'defensive_data'
p201
(lp202
(lp203
a(lp204
V2018/2019
p205
aVBournemouth
p206
aVEPL
p207
aV12
p208
aV969
p209
aV1
aV-
aV1
aV1
aV0.2
p210
aV82.6
p211
aV0.8
p212
aV-
aV6.66
p213
aa(lp214
V2017/2018
p215
aVBournemouth
p216
aVEPL
p217
aV22(5)
p218
aV2069
p219
aV1
aV3
aV6
aV-
aV0.5
p220
aV82.3
p221
aV0.6
p222
aV-
aV6.73
p223
aa(lp224
V2016/2017
p225
aVBournemouth
p226
aVEPL
p227
aV34(2)
p228
aV3099
p229
aV1
aV5
aV6
aV-
aV0.7
p230
aV84.7
p231
aV0.9
p232
aV1
aV6.84
p233
aa(lp234
V2015/2016
p235
aVBournemouth
p236
aVEPL
p237
aV22(9)
p238
aV2097
p239
aV2
aV-
aV5
aV-
aV0.5
p240
aV84.3
p241
aV0.7
p242
aV1
aV6.87
p243
aa(lp244
V2014/2015
p245
aVBournemouth
p246
aVEC
p247
aV6(23)
p248
aV807
p249
aV-
aV1
aV5
aV-
aV0.4
p250
aV85.1
p251
aV0.7
p252
aV-
aV6.45
p253
aa(lp254
V2013/2014
p255
aVBournemouth
p256
aVEC
p257
aV1(4)
p258
aV130
p259
aV-
aV-
aV1
aV-
aV0.8
p260
aV75.9
p261
aV0.2
p262
aV-
aV6.36
p263
aa(lp264
V2013/2014
p265
aVDerby
p266
aVEC
p267
aV7(1)
p268
aV647
p269
aV-
aV-
aV3
aV-
aV0.8
p270
aV82.7
p271
aV1.5
p272
aV-
aV6.89
p273
aa(lp274
V2013
p275
aVEngland U21
p276
aVIEU
p277
aV1
aV90
p278
aV-
aV-
aV-
aV-
aV1
aV80
p279
aV-
aV-
aV6.97
p280
aa(lp281
V2011/2012
p282
aVTottenham
p283
aVEPL
p284
aV0(1)
p285
aV14
p286
aV-
aV-
aV-
aV-
aV-
aV90.9
p287
aV-
aV-
aV6.45
p288
aa(lp289
VTotal / Average
p290
aV
aV
aV150
p291
aV9922
p292
aV5
aV9
aV27
p293
aV1
aV0.5
p294
aV83.7
p295
aV0.7
p296
aV2
aV6.72
p297
aasS'sumary_data'
p298
(lp299
(lp300
a(lp301
V2018/2019
p302
aVBournemouth
p303
aVEPL
p304
aV12
p305
aV969
p306
aV1
aV-
aV1
aV1
aV0.2
p307
aV82.6
p308
aV0.8
p309
aV-
aV6.66
p310
aa(lp311
V2017/2018
p312
aVBournemouth
p313
aVEPL
p314
aV22(5)
p315
aV2069
p316
aV1
aV3
aV6
aV-
aV0.5
p317
aV82.3
p318
aV0.6
p319
aV-
aV6.73
p320
aa(lp321
V2016/2017
p322
aVBournemouth
p323
aVEPL
p324
aV34(2)
p325
aV3099
p326
aV1
aV5
aV6
aV-
aV0.7
p327
aV84.7
p328
aV0.9
p329
aV1
aV6.84
p330
aa(lp331
V2015/2016
p332
aVBournemouth
p333
aVEPL
p334
aV22(9)
p335
aV2097
p336
aV2
aV-
aV5
aV-
aV0.5
p337
aV84.3
p338
aV0.7
p339
aV1
aV6.87
p340
aa(lp341
V2014/2015
p342
aVBournemouth
p343
aVEC
p344
aV6(23)
p345
aV807
p346
aV-
aV1
aV5
aV-
aV0.4
p347
aV85.1
p348
aV0.7
p349
aV-
aV6.45
p350
aa(lp351
V2013/2014
p352
aVBournemouth
p353
aVEC
p354
aV1(4)
p355
aV130
p356
aV-
aV-
aV1
aV-
aV0.8
p357
aV75.9
p358
aV0.2
p359
aV-
aV6.36
p360
aa(lp361
V2013/2014
p362
aVDerby
p363
aVEC
p364
aV7(1)
p365
aV647
p366
aV-
aV-
aV3
aV-
aV0.8
p367
aV82.7
p368
aV1.5
p369
aV-
aV6.89
p370
aa(lp371
V2013
p372
aVEngland U21
p373
aVIEU
p374
aV1
aV90
p375
aV-
aV-
aV-
aV-
aV1
aV80
p376
aV-
aV-
aV6.97
p377
aa(lp378
V2011/2012
p379
aVTottenham
p380
aVEPL
p381
aV0(1)
p382
aV14
p383
aV-
aV-
aV-
aV-
aV-
aV90.9
p384
aV-
aV-
aV6.45
p385
aa(lp386
VTotal / Average
p387
aV
aV
aV150
p388
aV9922
p389
aV5
aV9
aV27
p390
aV1
aV0.5
p391
aV83.7
p392
aV0.7
p393
aV2
aV6.72
p394
aasS'id'
p395
V69877
p396
sb.