(i__main__
Player
p1
(dp2
S'name'
p3
VJunior Stanislas 
p4
sS'offensive_data'
p5
(lp6
(lp7
a(lp8
V2018/2019
p9
aVBournemouth
p10
aVEPL
p11
aV3(8)
p12
aV390
p13
aV1
aV1
aV1
aV-
aV1.3
p14
aV76.2
p15
aV0.4
p16
aV-
aV6.26
p17
aa(lp18
V2017/2018
p19
aVBournemouth
p20
aVEPL
p21
aV17(2)
p22
aV1299
p23
aV5
aV2
aV1
aV-
aV2.4
p24
aV77.3
p25
aV0.5
p26
aV3
aV6.87
p27
aa(lp28
V2016/2017
p29
aVBournemouth
p30
aVEPL
p31
aV18(3)
p32
aV1476
p33
aV7
aV5
aV1
aV-
aV2
aV79.8
p34
aV0.7
p35
aV1
aV6.93
p36
aa(lp37
V2015/2016
p38
aVBournemouth
p39
aVEPL
p40
aV17(4)
p41
aV1442
p42
aV3
aV2
aV1
aV-
aV2.1
p43
aV78.4
p44
aV0.7
p45
aV1
aV6.89
p46
aa(lp47
V2014/2015
p48
aVBournemouth
p49
aVEC
p50
aV6(7)
p51
aV554
p52
aV1
aV-
aV-
aV-
aV1.3
p53
aV79.7
p54
aV0.3
p55
aV-
aV6.45
p56
aa(lp57
V2013/2014
p58
aVBurnley
p59
aVEC
p60
aV7(20)
p61
aV871
p62
aV2
aV3
aV1
aV-
aV1.3
p63
aV74.1
p64
aV0.5
p65
aV1
aV6.52
p66
aa(lp67
V2010/2011
p68
aVWest Ham
p69
aVEPL
p70
aV4(2)
p71
aV349
p72
aV1
aV-
aV-
aV-
aV1.3
p73
aV77.9
p74
aV0.2
p75
aV-
aV6.51
p76
aa(lp77
V2009/2010
p78
aVWest Ham
p79
aVEPL
p80
aV11(15)
p81
aV1241
p82
aV3
aV2
aV2
aV-
aV1.5
p83
aV78.3
p84
aV0.1
p85
aV-
aV6.51
p86
aa(lp87
VTotal / Average
p88
aV
aV
aV144
p89
aV7622
p90
aV23
p91
aV15
p92
aV7
aV0
aV1.7
p93
aV77.6
p94
aV0.4
p95
aV6
aV6.65
p96
aasS'url'
p97
S'https://www.whoscored.com/Players/69912/History/'
p98
sS'passing_data'
p99
(lp100
(lp101
a(lp102
V2018/2019
p103
aVBournemouth
p104
aVEPL
p105
aV3(8)
p106
aV390
p107
aV1
aV1
aV1
aV-
aV1.3
p108
aV76.2
p109
aV0.4
p110
aV-
aV6.26
p111
aa(lp112
V2017/2018
p113
aVBournemouth
p114
aVEPL
p115
aV17(2)
p116
aV1299
p117
aV5
aV2
aV1
aV-
aV2.4
p118
aV77.3
p119
aV0.5
p120
aV3
aV6.87
p121
aa(lp122
V2016/2017
p123
aVBournemouth
p124
aVEPL
p125
aV18(3)
p126
aV1476
p127
aV7
aV5
aV1
aV-
aV2
aV79.8
p128
aV0.7
p129
aV1
aV6.93
p130
aa(lp131
V2015/2016
p132
aVBournemouth
p133
aVEPL
p134
aV17(4)
p135
aV1442
p136
aV3
aV2
aV1
aV-
aV2.1
p137
aV78.4
p138
aV0.7
p139
aV1
aV6.89
p140
aa(lp141
V2014/2015
p142
aVBournemouth
p143
aVEC
p144
aV6(7)
p145
aV554
p146
aV1
aV-
aV-
aV-
aV1.3
p147
aV79.7
p148
aV0.3
p149
aV-
aV6.45
p150
aa(lp151
V2013/2014
p152
aVBurnley
p153
aVEC
p154
aV7(20)
p155
aV871
p156
aV2
aV3
aV1
aV-
aV1.3
p157
aV74.1
p158
aV0.5
p159
aV1
aV6.52
p160
aa(lp161
V2010/2011
p162
aVWest Ham
p163
aVEPL
p164
aV4(2)
p165
aV349
p166
aV1
aV-
aV-
aV-
aV1.3
p167
aV77.9
p168
aV0.2
p169
aV-
aV6.51
p170
aa(lp171
V2009/2010
p172
aVWest Ham
p173
aVEPL
p174
aV11(15)
p175
aV1241
p176
aV3
aV2
aV2
aV-
aV1.5
p177
aV78.3
p178
aV0.1
p179
aV-
aV6.51
p180
aa(lp181
VTotal / Average
p182
aV
aV
aV144
p183
aV7622
p184
aV23
p185
aV15
p186
aV7
aV0
aV1.7
p187
aV77.6
p188
aV0.4
p189
aV6
aV6.65
p190
aasS'defensive_data'
p191
(lp192
(lp193
a(lp194
V2018/2019
p195
aVBournemouth
p196
aVEPL
p197
aV3(8)
p198
aV390
p199
aV1
aV1
aV1
aV-
aV1.3
p200
aV76.2
p201
aV0.4
p202
aV-
aV6.26
p203
aa(lp204
V2017/2018
p205
aVBournemouth
p206
aVEPL
p207
aV17(2)
p208
aV1299
p209
aV5
aV2
aV1
aV-
aV2.4
p210
aV77.3
p211
aV0.5
p212
aV3
aV6.87
p213
aa(lp214
V2016/2017
p215
aVBournemouth
p216
aVEPL
p217
aV18(3)
p218
aV1476
p219
aV7
aV5
aV1
aV-
aV2
aV79.8
p220
aV0.7
p221
aV1
aV6.93
p222
aa(lp223
V2015/2016
p224
aVBournemouth
p225
aVEPL
p226
aV17(4)
p227
aV1442
p228
aV3
aV2
aV1
aV-
aV2.1
p229
aV78.4
p230
aV0.7
p231
aV1
aV6.89
p232
aa(lp233
V2014/2015
p234
aVBournemouth
p235
aVEC
p236
aV6(7)
p237
aV554
p238
aV1
aV-
aV-
aV-
aV1.3
p239
aV79.7
p240
aV0.3
p241
aV-
aV6.45
p242
aa(lp243
V2013/2014
p244
aVBurnley
p245
aVEC
p246
aV7(20)
p247
aV871
p248
aV2
aV3
aV1
aV-
aV1.3
p249
aV74.1
p250
aV0.5
p251
aV1
aV6.52
p252
aa(lp253
V2010/2011
p254
aVWest Ham
p255
aVEPL
p256
aV4(2)
p257
aV349
p258
aV1
aV-
aV-
aV-
aV1.3
p259
aV77.9
p260
aV0.2
p261
aV-
aV6.51
p262
aa(lp263
V2009/2010
p264
aVWest Ham
p265
aVEPL
p266
aV11(15)
p267
aV1241
p268
aV3
aV2
aV2
aV-
aV1.5
p269
aV78.3
p270
aV0.1
p271
aV-
aV6.51
p272
aa(lp273
VTotal / Average
p274
aV
aV
aV144
p275
aV7622
p276
aV23
p277
aV15
p278
aV7
aV0
aV1.7
p279
aV77.6
p280
aV0.4
p281
aV6
aV6.65
p282
aasS'sumary_data'
p283
(lp284
(lp285
a(lp286
V2018/2019
p287
aVBournemouth
p288
aVEPL
p289
aV3(8)
p290
aV390
p291
aV1
aV1
aV1
aV-
aV1.3
p292
aV76.2
p293
aV0.4
p294
aV-
aV6.26
p295
aa(lp296
V2017/2018
p297
aVBournemouth
p298
aVEPL
p299
aV17(2)
p300
aV1299
p301
aV5
aV2
aV1
aV-
aV2.4
p302
aV77.3
p303
aV0.5
p304
aV3
aV6.87
p305
aa(lp306
V2016/2017
p307
aVBournemouth
p308
aVEPL
p309
aV18(3)
p310
aV1476
p311
aV7
aV5
aV1
aV-
aV2
aV79.8
p312
aV0.7
p313
aV1
aV6.93
p314
aa(lp315
V2015/2016
p316
aVBournemouth
p317
aVEPL
p318
aV17(4)
p319
aV1442
p320
aV3
aV2
aV1
aV-
aV2.1
p321
aV78.4
p322
aV0.7
p323
aV1
aV6.89
p324
aa(lp325
V2014/2015
p326
aVBournemouth
p327
aVEC
p328
aV6(7)
p329
aV554
p330
aV1
aV-
aV-
aV-
aV1.3
p331
aV79.7
p332
aV0.3
p333
aV-
aV6.45
p334
aa(lp335
V2013/2014
p336
aVBurnley
p337
aVEC
p338
aV7(20)
p339
aV871
p340
aV2
aV3
aV1
aV-
aV1.3
p341
aV74.1
p342
aV0.5
p343
aV1
aV6.52
p344
aa(lp345
V2010/2011
p346
aVWest Ham
p347
aVEPL
p348
aV4(2)
p349
aV349
p350
aV1
aV-
aV-
aV-
aV1.3
p351
aV77.9
p352
aV0.2
p353
aV-
aV6.51
p354
aa(lp355
V2009/2010
p356
aVWest Ham
p357
aVEPL
p358
aV11(15)
p359
aV1241
p360
aV3
aV2
aV2
aV-
aV1.5
p361
aV78.3
p362
aV0.1
p363
aV-
aV6.51
p364
aa(lp365
VTotal / Average
p366
aV
aV
aV144
p367
aV7622
p368
aV23
p369
aV15
p370
aV7
aV0
aV1.7
p371
aV77.6
p372
aV0.4
p373
aV6
aV6.65
p374
aasS'id'
p375
V69912
p376
sb.