(i__main__
Player
p1
(dp2
S'name'
p3
VToby Alderweireld 
p4
sS'offensive_data'
p5
(lp6
(lp7
a(lp8
V2018/2019
p9
aVTottenham
p10
aVEPL
p11
aV15
p12
aV1341
p13
aV-
aV-
aV1
aV-
aV0.5
p14
aV87.8
p15
aV1.4
p16
aV-
aV6.96
p17
aa(lp18
V2018/2019
p19
aVTottenham
p20
aVUCL
p21
aV5
aV450
p22
aV-
aV-
aV2
aV-
aV0.6
p23
aV89.3
p24
aV2.2
p25
aV-
aV6.20
p26
aa(lp27
V2018/2019
p28
aVBelgium
p29
aVUNL
p30
aV4
aV360
p31
aV-
aV-
aV-
aV-
aV1.3
p32
aV90
p33
aV0.8
p34
aV-
aV6.79
p35
aa(lp36
V2017/2018
p37
aVTottenham
p38
aVUCL
p39
aV4
aV294
p40
aV-
aV1
aV-
aV-
aV0.5
p41
aV81.3
p42
aV1.3
p43
aV-
aV7.00
p44
aa(lp45
V2017/2018
p46
aVTottenham
p47
aVEPL
p48
aV13(1)
p49
aV1177
p50
aV-
aV-
aV3
aV-
aV0.7
p51
aV85.8
p52
aV1
aV-
aV6.68
p53
aa(lp54
V2016/2017
p55
aVTottenham
p56
aVUCL
p57
aV2(1)
p58
aV202
p59
aV1
aV-
aV-
aV-
aV1.7
p60
aV89
p61
aV1.3
p62
aV-
aV7.07
p63
aa(lp64
V2016/2017
p65
aVTottenham
p66
aVEPL
p67
aV30
p68
aV2604
p69
aV1
aV-
aV1
aV-
aV0.9
p70
aV83.2
p71
aV1.4
p72
aV1
aV7.00
p73
aa(lp74
V2016/2017
p75
aVTottenham
p76
aVUEL
p77
aV2
aV180
p78
aV-
aV-
aV-
aV-
aV1.5
p79
aV80.2
p80
aV4
aV-
aV6.68
p81
aa(lp82
V2018
p83
aVBelgium
p84
aVWC
p85
aV6
aV540
p86
aV-
aV1
aV2
aV-
aV0.8
p87
aV90.4
p88
aV0.7
p89
aV-
aV6.93
p90
aa(lp91
V2015/2016
p92
aVTottenham
p93
aVUEL
p94
aV10
p95
aV900
p96
aV-
aV-
aV1
aV-
aV0.7
p97
aV83.1
p98
aV1.1
p99
aV-
aV7.01
p100
aa(lp101
V2015/2016
p102
aVTottenham
p103
aVEPL
p104
aV38
p105
aV3420
p106
aV4
aV2
aV3
aV-
aV1.1
p107
aV80.5
p108
aV1.6
p109
aV1
aV7.16
p110
aa(lp111
V2014/2015
p112
aVSouthampton
p113
aVEPL
p114
aV26
p115
aV2263
p116
aV1
aV-
aV3
aV-
aV0.7
p117
aV80.2
p118
aV1.4
p119
aV1
aV7.07
p120
aa(lp121
V2016
p122
aVBelgium
p123
aVUEC
p124
aV5
aV450
p125
aV1
aV-
aV1
aV-
aV1.2
p126
aV87.9
p127
aV1
aV-
aV7.11
p128
aa(lp129
V2013/2014
p130
aVAtletico Madr..
p131
aVSLL
p132
aV10(2)
p133
aV906
p134
aV1
aV-
aV-
aV-
aV0.4
p135
aV76.9
p136
aV1.6
p137
aV-
aV6.87
p138
aa(lp139
V2013/2014
p140
aVAtletico Madr..
p141
aVUCL
p142
aV3(1)
p143
aV307
p144
aV-
aV-
aV1
aV-
aV0.3
p145
aV59.4
p146
aV2.3
p147
aV-
aV7.07
p148
aa(lp149
V2013/2014
p150
aVAjax
p151
aVNE
p152
aV4
aV360
p153
aV-
aV-
aV-
aV-
aV0.8
p154
aV91
p155
aV1.8
p156
aV-
aV6.94
p157
aa(lp158
V2014
p159
aVBelgium
p160
aVWC
p161
aV4
aV390
p162
aV-
aV-
aV2
aV-
aV0.5
p163
aV79.8
p164
aV1.5
p165
aV-
aV7.08
p166
aa(lp167
V2012/2013
p168
aVAjax
p169
aVUEL
p170
aV2
aV211
p171
aV1
aV-
aV-
aV-
aV0.5
p172
aV88.3
p173
aV1
aV1
aV7.90
p174
aa(lp175
V2012/2013
p176
aVAjax
p177
aVUCL
p178
aV6
aV540
p179
aV-
aV-
aV-
aV-
aV0.3
p180
aV85.5
p181
aV2.3
p182
aV-
aV6.72
p183
aa(lp184
V2011/2012
p185
aVAjax
p186
aVUCL
p187
aV5
aV450
p188
aV-
aV-
aV-
aV-
aV1.6
p189
aV89.2
p190
aV0.8
p191
aV-
aV7.18
p192
aa(lp193
V2010/2011
p194
aVAjax
p195
aVUCL
p196
aV5
aV450
p197
aV2
aV-
aV-
aV-
aV0.6
p198
aV86
p199
aV0.4
p200
aV-
aV7.06
p201
aa(lp202
VTotal / Average
p203
aV
aV
aV204
p204
aV17795
p205
aV12
p206
aV4
aV20
p207
aV0
aV0.8
p208
aV83
p209
aV1.4
p210
aV4
aV6.99
p211
aasS'url'
p212
S'https://www.whoscored.com/Players/69933/History/'
p213
sS'passing_data'
p214
(lp215
(lp216
a(lp217
V2018/2019
p218
aVTottenham
p219
aVEPL
p220
aV15
p221
aV1341
p222
aV-
aV-
aV1
aV-
aV0.5
p223
aV87.8
p224
aV1.4
p225
aV-
aV6.96
p226
aa(lp227
V2018/2019
p228
aVTottenham
p229
aVUCL
p230
aV5
aV450
p231
aV-
aV-
aV2
aV-
aV0.6
p232
aV89.3
p233
aV2.2
p234
aV-
aV6.20
p235
aa(lp236
V2018/2019
p237
aVBelgium
p238
aVUNL
p239
aV4
aV360
p240
aV-
aV-
aV-
aV-
aV1.3
p241
aV90
p242
aV0.8
p243
aV-
aV6.79
p244
aa(lp245
V2017/2018
p246
aVTottenham
p247
aVUCL
p248
aV4
aV294
p249
aV-
aV1
aV-
aV-
aV0.5
p250
aV81.3
p251
aV1.3
p252
aV-
aV7.00
p253
aa(lp254
V2017/2018
p255
aVTottenham
p256
aVEPL
p257
aV13(1)
p258
aV1177
p259
aV-
aV-
aV3
aV-
aV0.7
p260
aV85.8
p261
aV1
aV-
aV6.68
p262
aa(lp263
V2016/2017
p264
aVTottenham
p265
aVUCL
p266
aV2(1)
p267
aV202
p268
aV1
aV-
aV-
aV-
aV1.7
p269
aV89
p270
aV1.3
p271
aV-
aV7.07
p272
aa(lp273
V2016/2017
p274
aVTottenham
p275
aVEPL
p276
aV30
p277
aV2604
p278
aV1
aV-
aV1
aV-
aV0.9
p279
aV83.2
p280
aV1.4
p281
aV1
aV7.00
p282
aa(lp283
V2016/2017
p284
aVTottenham
p285
aVUEL
p286
aV2
aV180
p287
aV-
aV-
aV-
aV-
aV1.5
p288
aV80.2
p289
aV4
aV-
aV6.68
p290
aa(lp291
V2018
p292
aVBelgium
p293
aVWC
p294
aV6
aV540
p295
aV-
aV1
aV2
aV-
aV0.8
p296
aV90.4
p297
aV0.7
p298
aV-
aV6.93
p299
aa(lp300
V2015/2016
p301
aVTottenham
p302
aVUEL
p303
aV10
p304
aV900
p305
aV-
aV-
aV1
aV-
aV0.7
p306
aV83.1
p307
aV1.1
p308
aV-
aV7.01
p309
aa(lp310
V2015/2016
p311
aVTottenham
p312
aVEPL
p313
aV38
p314
aV3420
p315
aV4
aV2
aV3
aV-
aV1.1
p316
aV80.5
p317
aV1.6
p318
aV1
aV7.16
p319
aa(lp320
V2014/2015
p321
aVSouthampton
p322
aVEPL
p323
aV26
p324
aV2263
p325
aV1
aV-
aV3
aV-
aV0.7
p326
aV80.2
p327
aV1.4
p328
aV1
aV7.07
p329
aa(lp330
V2016
p331
aVBelgium
p332
aVUEC
p333
aV5
aV450
p334
aV1
aV-
aV1
aV-
aV1.2
p335
aV87.9
p336
aV1
aV-
aV7.11
p337
aa(lp338
V2013/2014
p339
aVAtletico Madr..
p340
aVSLL
p341
aV10(2)
p342
aV906
p343
aV1
aV-
aV-
aV-
aV0.4
p344
aV76.9
p345
aV1.6
p346
aV-
aV6.87
p347
aa(lp348
V2013/2014
p349
aVAtletico Madr..
p350
aVUCL
p351
aV3(1)
p352
aV307
p353
aV-
aV-
aV1
aV-
aV0.3
p354
aV59.4
p355
aV2.3
p356
aV-
aV7.07
p357
aa(lp358
V2013/2014
p359
aVAjax
p360
aVNE
p361
aV4
aV360
p362
aV-
aV-
aV-
aV-
aV0.8
p363
aV91
p364
aV1.8
p365
aV-
aV6.94
p366
aa(lp367
V2014
p368
aVBelgium
p369
aVWC
p370
aV4
aV390
p371
aV-
aV-
aV2
aV-
aV0.5
p372
aV79.8
p373
aV1.5
p374
aV-
aV7.08
p375
aa(lp376
V2012/2013
p377
aVAjax
p378
aVUEL
p379
aV2
aV211
p380
aV1
aV-
aV-
aV-
aV0.5
p381
aV88.3
p382
aV1
aV1
aV7.90
p383
aa(lp384
V2012/2013
p385
aVAjax
p386
aVUCL
p387
aV6
aV540
p388
aV-
aV-
aV-
aV-
aV0.3
p389
aV85.5
p390
aV2.3
p391
aV-
aV6.72
p392
aa(lp393
V2011/2012
p394
aVAjax
p395
aVUCL
p396
aV5
aV450
p397
aV-
aV-
aV-
aV-
aV1.6
p398
aV89.2
p399
aV0.8
p400
aV-
aV7.18
p401
aa(lp402
V2010/2011
p403
aVAjax
p404
aVUCL
p405
aV5
aV450
p406
aV2
aV-
aV-
aV-
aV0.6
p407
aV86
p408
aV0.4
p409
aV-
aV7.06
p410
aa(lp411
VTotal / Average
p412
aV
aV
aV204
p413
aV17795
p414
aV12
p415
aV4
aV20
p416
aV0
aV0.8
p417
aV83
p418
aV1.4
p419
aV4
aV6.99
p420
aasS'defensive_data'
p421
(lp422
(lp423
a(lp424
V2018/2019
p425
aVTottenham
p426
aVEPL
p427
aV15
p428
aV1341
p429
aV-
aV-
aV1
aV-
aV0.5
p430
aV87.8
p431
aV1.4
p432
aV-
aV6.96
p433
aa(lp434
V2018/2019
p435
aVTottenham
p436
aVUCL
p437
aV5
aV450
p438
aV-
aV-
aV2
aV-
aV0.6
p439
aV89.3
p440
aV2.2
p441
aV-
aV6.20
p442
aa(lp443
V2018/2019
p444
aVBelgium
p445
aVUNL
p446
aV4
aV360
p447
aV-
aV-
aV-
aV-
aV1.3
p448
aV90
p449
aV0.8
p450
aV-
aV6.79
p451
aa(lp452
V2017/2018
p453
aVTottenham
p454
aVUCL
p455
aV4
aV294
p456
aV-
aV1
aV-
aV-
aV0.5
p457
aV81.3
p458
aV1.3
p459
aV-
aV7.00
p460
aa(lp461
V2017/2018
p462
aVTottenham
p463
aVEPL
p464
aV13(1)
p465
aV1177
p466
aV-
aV-
aV3
aV-
aV0.7
p467
aV85.8
p468
aV1
aV-
aV6.68
p469
aa(lp470
V2016/2017
p471
aVTottenham
p472
aVUCL
p473
aV2(1)
p474
aV202
p475
aV1
aV-
aV-
aV-
aV1.7
p476
aV89
p477
aV1.3
p478
aV-
aV7.07
p479
aa(lp480
V2016/2017
p481
aVTottenham
p482
aVEPL
p483
aV30
p484
aV2604
p485
aV1
aV-
aV1
aV-
aV0.9
p486
aV83.2
p487
aV1.4
p488
aV1
aV7.00
p489
aa(lp490
V2016/2017
p491
aVTottenham
p492
aVUEL
p493
aV2
aV180
p494
aV-
aV-
aV-
aV-
aV1.5
p495
aV80.2
p496
aV4
aV-
aV6.68
p497
aa(lp498
V2018
p499
aVBelgium
p500
aVWC
p501
aV6
aV540
p502
aV-
aV1
aV2
aV-
aV0.8
p503
aV90.4
p504
aV0.7
p505
aV-
aV6.93
p506
aa(lp507
V2015/2016
p508
aVTottenham
p509
aVUEL
p510
aV10
p511
aV900
p512
aV-
aV-
aV1
aV-
aV0.7
p513
aV83.1
p514
aV1.1
p515
aV-
aV7.01
p516
aa(lp517
V2015/2016
p518
aVTottenham
p519
aVEPL
p520
aV38
p521
aV3420
p522
aV4
aV2
aV3
aV-
aV1.1
p523
aV80.5
p524
aV1.6
p525
aV1
aV7.16
p526
aa(lp527
V2014/2015
p528
aVSouthampton
p529
aVEPL
p530
aV26
p531
aV2263
p532
aV1
aV-
aV3
aV-
aV0.7
p533
aV80.2
p534
aV1.4
p535
aV1
aV7.07
p536
aa(lp537
V2016
p538
aVBelgium
p539
aVUEC
p540
aV5
aV450
p541
aV1
aV-
aV1
aV-
aV1.2
p542
aV87.9
p543
aV1
aV-
aV7.11
p544
aa(lp545
V2013/2014
p546
aVAtletico Madr..
p547
aVSLL
p548
aV10(2)
p549
aV906
p550
aV1
aV-
aV-
aV-
aV0.4
p551
aV76.9
p552
aV1.6
p553
aV-
aV6.87
p554
aa(lp555
V2013/2014
p556
aVAtletico Madr..
p557
aVUCL
p558
aV3(1)
p559
aV307
p560
aV-
aV-
aV1
aV-
aV0.3
p561
aV59.4
p562
aV2.3
p563
aV-
aV7.07
p564
aa(lp565
V2013/2014
p566
aVAjax
p567
aVNE
p568
aV4
aV360
p569
aV-
aV-
aV-
aV-
aV0.8
p570
aV91
p571
aV1.8
p572
aV-
aV6.94
p573
aa(lp574
V2014
p575
aVBelgium
p576
aVWC
p577
aV4
aV390
p578
aV-
aV-
aV2
aV-
aV0.5
p579
aV79.8
p580
aV1.5
p581
aV-
aV7.08
p582
aa(lp583
V2012/2013
p584
aVAjax
p585
aVUEL
p586
aV2
aV211
p587
aV1
aV-
aV-
aV-
aV0.5
p588
aV88.3
p589
aV1
aV1
aV7.90
p590
aa(lp591
V2012/2013
p592
aVAjax
p593
aVUCL
p594
aV6
aV540
p595
aV-
aV-
aV-
aV-
aV0.3
p596
aV85.5
p597
aV2.3
p598
aV-
aV6.72
p599
aa(lp600
V2011/2012
p601
aVAjax
p602
aVUCL
p603
aV5
aV450
p604
aV-
aV-
aV-
aV-
aV1.6
p605
aV89.2
p606
aV0.8
p607
aV-
aV7.18
p608
aa(lp609
V2010/2011
p610
aVAjax
p611
aVUCL
p612
aV5
aV450
p613
aV2
aV-
aV-
aV-
aV0.6
p614
aV86
p615
aV0.4
p616
aV-
aV7.06
p617
aa(lp618
VTotal / Average
p619
aV
aV
aV204
p620
aV17795
p621
aV12
p622
aV4
aV20
p623
aV0
aV0.8
p624
aV83
p625
aV1.4
p626
aV4
aV6.99
p627
aasS'sumary_data'
p628
(lp629
(lp630
a(lp631
V2018/2019
p632
aVTottenham
p633
aVEPL
p634
aV15
p635
aV1341
p636
aV-
aV-
aV1
aV-
aV0.5
p637
aV87.8
p638
aV1.4
p639
aV-
aV6.96
p640
aa(lp641
V2018/2019
p642
aVTottenham
p643
aVUCL
p644
aV5
aV450
p645
aV-
aV-
aV2
aV-
aV0.6
p646
aV89.3
p647
aV2.2
p648
aV-
aV6.20
p649
aa(lp650
V2018/2019
p651
aVBelgium
p652
aVUNL
p653
aV4
aV360
p654
aV-
aV-
aV-
aV-
aV1.3
p655
aV90
p656
aV0.8
p657
aV-
aV6.79
p658
aa(lp659
V2017/2018
p660
aVTottenham
p661
aVUCL
p662
aV4
aV294
p663
aV-
aV1
aV-
aV-
aV0.5
p664
aV81.3
p665
aV1.3
p666
aV-
aV7.00
p667
aa(lp668
V2017/2018
p669
aVTottenham
p670
aVEPL
p671
aV13(1)
p672
aV1177
p673
aV-
aV-
aV3
aV-
aV0.7
p674
aV85.8
p675
aV1
aV-
aV6.68
p676
aa(lp677
V2016/2017
p678
aVTottenham
p679
aVUCL
p680
aV2(1)
p681
aV202
p682
aV1
aV-
aV-
aV-
aV1.7
p683
aV89
p684
aV1.3
p685
aV-
aV7.07
p686
aa(lp687
V2016/2017
p688
aVTottenham
p689
aVEPL
p690
aV30
p691
aV2604
p692
aV1
aV-
aV1
aV-
aV0.9
p693
aV83.2
p694
aV1.4
p695
aV1
aV7.00
p696
aa(lp697
V2016/2017
p698
aVTottenham
p699
aVUEL
p700
aV2
aV180
p701
aV-
aV-
aV-
aV-
aV1.5
p702
aV80.2
p703
aV4
aV-
aV6.68
p704
aa(lp705
V2018
p706
aVBelgium
p707
aVWC
p708
aV6
aV540
p709
aV-
aV1
aV2
aV-
aV0.8
p710
aV90.4
p711
aV0.7
p712
aV-
aV6.93
p713
aa(lp714
V2015/2016
p715
aVTottenham
p716
aVUEL
p717
aV10
p718
aV900
p719
aV-
aV-
aV1
aV-
aV0.7
p720
aV83.1
p721
aV1.1
p722
aV-
aV7.01
p723
aa(lp724
V2015/2016
p725
aVTottenham
p726
aVEPL
p727
aV38
p728
aV3420
p729
aV4
aV2
aV3
aV-
aV1.1
p730
aV80.5
p731
aV1.6
p732
aV1
aV7.16
p733
aa(lp734
V2014/2015
p735
aVSouthampton
p736
aVEPL
p737
aV26
p738
aV2263
p739
aV1
aV-
aV3
aV-
aV0.7
p740
aV80.2
p741
aV1.4
p742
aV1
aV7.07
p743
aa(lp744
V2016
p745
aVBelgium
p746
aVUEC
p747
aV5
aV450
p748
aV1
aV-
aV1
aV-
aV1.2
p749
aV87.9
p750
aV1
aV-
aV7.11
p751
aa(lp752
V2013/2014
p753
aVAtletico Madr..
p754
aVSLL
p755
aV10(2)
p756
aV906
p757
aV1
aV-
aV-
aV-
aV0.4
p758
aV76.9
p759
aV1.6
p760
aV-
aV6.87
p761
aa(lp762
V2013/2014
p763
aVAtletico Madr..
p764
aVUCL
p765
aV3(1)
p766
aV307
p767
aV-
aV-
aV1
aV-
aV0.3
p768
aV59.4
p769
aV2.3
p770
aV-
aV7.07
p771
aa(lp772
V2013/2014
p773
aVAjax
p774
aVNE
p775
aV4
aV360
p776
aV-
aV-
aV-
aV-
aV0.8
p777
aV91
p778
aV1.8
p779
aV-
aV6.94
p780
aa(lp781
V2014
p782
aVBelgium
p783
aVWC
p784
aV4
aV390
p785
aV-
aV-
aV2
aV-
aV0.5
p786
aV79.8
p787
aV1.5
p788
aV-
aV7.08
p789
aa(lp790
V2012/2013
p791
aVAjax
p792
aVUEL
p793
aV2
aV211
p794
aV1
aV-
aV-
aV-
aV0.5
p795
aV88.3
p796
aV1
aV1
aV7.90
p797
aa(lp798
V2012/2013
p799
aVAjax
p800
aVUCL
p801
aV6
aV540
p802
aV-
aV-
aV-
aV-
aV0.3
p803
aV85.5
p804
aV2.3
p805
aV-
aV6.72
p806
aa(lp807
V2011/2012
p808
aVAjax
p809
aVUCL
p810
aV5
aV450
p811
aV-
aV-
aV-
aV-
aV1.6
p812
aV89.2
p813
aV0.8
p814
aV-
aV7.18
p815
aa(lp816
V2010/2011
p817
aVAjax
p818
aVUCL
p819
aV5
aV450
p820
aV2
aV-
aV-
aV-
aV0.6
p821
aV86
p822
aV0.4
p823
aV-
aV7.06
p824
aa(lp825
VTotal / Average
p826
aV
aV
aV204
p827
aV17795
p828
aV12
p829
aV4
aV20
p830
aV0
aV0.8
p831
aV83
p832
aV1.4
p833
aV4
aV6.99
p834
aasS'id'
p835
V69933
p836
sb.