(i__main__
Player
p1
(dp2
S'name'
p3
VTom Cleverley 
p4
sS'offensive_data'
p5
(lp6
(lp7
a(lp8
V2018/2019
p9
aVWatford
p10
aVEPL
p11
aV0(1)
p12
aV3
aV-
aV-
aV-
aV-
aV1
aV100
p13
aV-
aV-
aV6.13
p14
aa(lp15
V2017/2018
p16
aVWatford
p17
aVEPL
p18
aV22(1)
p19
aV1905
p20
aV1
aV2
aV1
aV1
aV0.7
p21
aV82.3
p22
aV1
aV-
aV6.66
p23
aa(lp24
V2016/2017
p25
aVWatford
p26
aVEPL
p27
aV16(1)
p28
aV1441
p29
aV-
aV2
aV3
aV-
aV0.5
p30
aV82.9
p31
aV0.1
p32
aV-
aV6.60
p33
aa(lp34
V2016/2017
p35
aVEverton
p36
aVEPL
p37
aV4(6)
p38
aV403
p39
aV-
aV-
aV1
aV-
aV0.2
p40
aV83.5
p41
aV0.3
p42
aV-
aV6.26
p43
aa(lp44
V2015/2016
p45
aVEverton
p46
aVEPL
p47
aV17(5)
p48
aV1614
p49
aV2
aV4
aV1
aV-
aV1.1
p50
aV83.1
p51
aV0.9
p52
aV1
aV6.87
p53
aa(lp54
V2014/2015
p55
aVAston Villa
p56
aVEPL
p57
aV31
p58
aV2520
p59
aV3
aV-
aV6
aV-
aV0.7
p60
aV86.3
p61
aV0.4
p62
aV1
aV6.64
p63
aa(lp64
V2014/2015
p65
aVManchester Un..
p66
aVEPL
p67
aV1
aV90
p68
aV-
aV-
aV1
aV-
aV1
aV90.2
p69
aV1
aV-
aV6.57
p70
aa(lp71
V2013/2014
p72
aVManchester Un..
p73
aVUCL
p74
aV2(2)
p75
aV188
p76
aV-
aV-
aV1
aV-
aV0.5
p77
aV87
p78
aV0.5
p79
aV-
aV6.32
p80
aa(lp81
V2013/2014
p82
aVManchester Un..
p83
aVEPL
p84
aV18(4)
p85
aV1581
p86
aV1
aV-
aV3
aV-
aV0.7
p87
aV89.6
p88
aV0.3
p89
aV-
aV6.74
p90
aa(lp91
V2012/2013
p92
aVManchester Un..
p93
aVUCL
p94
aV5
aV389
p95
aV-
aV1
aV-
aV-
aV0.4
p96
aV91.4
p97
aV0.2
p98
aV-
aV7.00
p99
aa(lp100
V2012/2013
p101
aVManchester Un..
p102
aVEPL
p103
aV18(4)
p104
aV1456
p105
aV2
aV2
aV1
aV-
aV0.9
p106
aV90.2
p107
aV0.2
p108
aV-
aV6.83
p109
aa(lp110
V2011/2012
p111
aVManchester Un..
p112
aVEPL
p113
aV5(5)
p114
aV435
p115
aV-
aV1
aV-
aV-
aV0.9
p116
aV91.5
p117
aV-
aV-
aV6.61
p118
aa(lp119
V2010/2011
p120
aVWigan
p121
aVEPL
p122
aV19(6)
p123
aV1634
p124
aV3
aV2
aV1
aV-
aV1.6
p125
aV81.6
p126
aV0.2
p127
aV1
aV6.73
p128
aa(lp129
VTotal / Average
p130
aV
aV
aV193
p131
aV13659
p132
aV12
p133
aV14
p134
aV19
p135
aV1
aV0.8
p136
aV85.7
p137
aV0.4
p138
aV3
aV6.69
p139
aasS'url'
p140
S'https://www.whoscored.com/Players/69956/History/'
p141
sS'passing_data'
p142
(lp143
(lp144
a(lp145
V2018/2019
p146
aVWatford
p147
aVEPL
p148
aV0(1)
p149
aV3
aV-
aV-
aV-
aV-
aV1
aV100
p150
aV-
aV-
aV6.13
p151
aa(lp152
V2017/2018
p153
aVWatford
p154
aVEPL
p155
aV22(1)
p156
aV1905
p157
aV1
aV2
aV1
aV1
aV0.7
p158
aV82.3
p159
aV1
aV-
aV6.66
p160
aa(lp161
V2016/2017
p162
aVWatford
p163
aVEPL
p164
aV16(1)
p165
aV1441
p166
aV-
aV2
aV3
aV-
aV0.5
p167
aV82.9
p168
aV0.1
p169
aV-
aV6.60
p170
aa(lp171
V2016/2017
p172
aVEverton
p173
aVEPL
p174
aV4(6)
p175
aV403
p176
aV-
aV-
aV1
aV-
aV0.2
p177
aV83.5
p178
aV0.3
p179
aV-
aV6.26
p180
aa(lp181
V2015/2016
p182
aVEverton
p183
aVEPL
p184
aV17(5)
p185
aV1614
p186
aV2
aV4
aV1
aV-
aV1.1
p187
aV83.1
p188
aV0.9
p189
aV1
aV6.87
p190
aa(lp191
V2014/2015
p192
aVAston Villa
p193
aVEPL
p194
aV31
p195
aV2520
p196
aV3
aV-
aV6
aV-
aV0.7
p197
aV86.3
p198
aV0.4
p199
aV1
aV6.64
p200
aa(lp201
V2014/2015
p202
aVManchester Un..
p203
aVEPL
p204
aV1
aV90
p205
aV-
aV-
aV1
aV-
aV1
aV90.2
p206
aV1
aV-
aV6.57
p207
aa(lp208
V2013/2014
p209
aVManchester Un..
p210
aVUCL
p211
aV2(2)
p212
aV188
p213
aV-
aV-
aV1
aV-
aV0.5
p214
aV87
p215
aV0.5
p216
aV-
aV6.32
p217
aa(lp218
V2013/2014
p219
aVManchester Un..
p220
aVEPL
p221
aV18(4)
p222
aV1581
p223
aV1
aV-
aV3
aV-
aV0.7
p224
aV89.6
p225
aV0.3
p226
aV-
aV6.74
p227
aa(lp228
V2012/2013
p229
aVManchester Un..
p230
aVUCL
p231
aV5
aV389
p232
aV-
aV1
aV-
aV-
aV0.4
p233
aV91.4
p234
aV0.2
p235
aV-
aV7.00
p236
aa(lp237
V2012/2013
p238
aVManchester Un..
p239
aVEPL
p240
aV18(4)
p241
aV1456
p242
aV2
aV2
aV1
aV-
aV0.9
p243
aV90.2
p244
aV0.2
p245
aV-
aV6.83
p246
aa(lp247
V2011/2012
p248
aVManchester Un..
p249
aVEPL
p250
aV5(5)
p251
aV435
p252
aV-
aV1
aV-
aV-
aV0.9
p253
aV91.5
p254
aV-
aV-
aV6.61
p255
aa(lp256
V2010/2011
p257
aVWigan
p258
aVEPL
p259
aV19(6)
p260
aV1634
p261
aV3
aV2
aV1
aV-
aV1.6
p262
aV81.6
p263
aV0.2
p264
aV1
aV6.73
p265
aa(lp266
VTotal / Average
p267
aV
aV
aV193
p268
aV13659
p269
aV12
p270
aV14
p271
aV19
p272
aV1
aV0.8
p273
aV85.7
p274
aV0.4
p275
aV3
aV6.69
p276
aasS'defensive_data'
p277
(lp278
(lp279
a(lp280
V2018/2019
p281
aVWatford
p282
aVEPL
p283
aV0(1)
p284
aV3
aV-
aV-
aV-
aV-
aV1
aV100
p285
aV-
aV-
aV6.13
p286
aa(lp287
V2017/2018
p288
aVWatford
p289
aVEPL
p290
aV22(1)
p291
aV1905
p292
aV1
aV2
aV1
aV1
aV0.7
p293
aV82.3
p294
aV1
aV-
aV6.66
p295
aa(lp296
V2016/2017
p297
aVWatford
p298
aVEPL
p299
aV16(1)
p300
aV1441
p301
aV-
aV2
aV3
aV-
aV0.5
p302
aV82.9
p303
aV0.1
p304
aV-
aV6.60
p305
aa(lp306
V2016/2017
p307
aVEverton
p308
aVEPL
p309
aV4(6)
p310
aV403
p311
aV-
aV-
aV1
aV-
aV0.2
p312
aV83.5
p313
aV0.3
p314
aV-
aV6.26
p315
aa(lp316
V2015/2016
p317
aVEverton
p318
aVEPL
p319
aV17(5)
p320
aV1614
p321
aV2
aV4
aV1
aV-
aV1.1
p322
aV83.1
p323
aV0.9
p324
aV1
aV6.87
p325
aa(lp326
V2014/2015
p327
aVAston Villa
p328
aVEPL
p329
aV31
p330
aV2520
p331
aV3
aV-
aV6
aV-
aV0.7
p332
aV86.3
p333
aV0.4
p334
aV1
aV6.64
p335
aa(lp336
V2014/2015
p337
aVManchester Un..
p338
aVEPL
p339
aV1
aV90
p340
aV-
aV-
aV1
aV-
aV1
aV90.2
p341
aV1
aV-
aV6.57
p342
aa(lp343
V2013/2014
p344
aVManchester Un..
p345
aVUCL
p346
aV2(2)
p347
aV188
p348
aV-
aV-
aV1
aV-
aV0.5
p349
aV87
p350
aV0.5
p351
aV-
aV6.32
p352
aa(lp353
V2013/2014
p354
aVManchester Un..
p355
aVEPL
p356
aV18(4)
p357
aV1581
p358
aV1
aV-
aV3
aV-
aV0.7
p359
aV89.6
p360
aV0.3
p361
aV-
aV6.74
p362
aa(lp363
V2012/2013
p364
aVManchester Un..
p365
aVUCL
p366
aV5
aV389
p367
aV-
aV1
aV-
aV-
aV0.4
p368
aV91.4
p369
aV0.2
p370
aV-
aV7.00
p371
aa(lp372
V2012/2013
p373
aVManchester Un..
p374
aVEPL
p375
aV18(4)
p376
aV1456
p377
aV2
aV2
aV1
aV-
aV0.9
p378
aV90.2
p379
aV0.2
p380
aV-
aV6.83
p381
aa(lp382
V2011/2012
p383
aVManchester Un..
p384
aVEPL
p385
aV5(5)
p386
aV435
p387
aV-
aV1
aV-
aV-
aV0.9
p388
aV91.5
p389
aV-
aV-
aV6.61
p390
aa(lp391
V2010/2011
p392
aVWigan
p393
aVEPL
p394
aV19(6)
p395
aV1634
p396
aV3
aV2
aV1
aV-
aV1.6
p397
aV81.6
p398
aV0.2
p399
aV1
aV6.73
p400
aa(lp401
VTotal / Average
p402
aV
aV
aV193
p403
aV13659
p404
aV12
p405
aV14
p406
aV19
p407
aV1
aV0.8
p408
aV85.7
p409
aV0.4
p410
aV3
aV6.69
p411
aasS'sumary_data'
p412
(lp413
(lp414
a(lp415
V2018/2019
p416
aVWatford
p417
aVEPL
p418
aV0(1)
p419
aV3
aV-
aV-
aV-
aV-
aV1
aV100
p420
aV-
aV-
aV6.13
p421
aa(lp422
V2017/2018
p423
aVWatford
p424
aVEPL
p425
aV22(1)
p426
aV1905
p427
aV1
aV2
aV1
aV1
aV0.7
p428
aV82.3
p429
aV1
aV-
aV6.66
p430
aa(lp431
V2016/2017
p432
aVWatford
p433
aVEPL
p434
aV16(1)
p435
aV1441
p436
aV-
aV2
aV3
aV-
aV0.5
p437
aV82.9
p438
aV0.1
p439
aV-
aV6.60
p440
aa(lp441
V2016/2017
p442
aVEverton
p443
aVEPL
p444
aV4(6)
p445
aV403
p446
aV-
aV-
aV1
aV-
aV0.2
p447
aV83.5
p448
aV0.3
p449
aV-
aV6.26
p450
aa(lp451
V2015/2016
p452
aVEverton
p453
aVEPL
p454
aV17(5)
p455
aV1614
p456
aV2
aV4
aV1
aV-
aV1.1
p457
aV83.1
p458
aV0.9
p459
aV1
aV6.87
p460
aa(lp461
V2014/2015
p462
aVAston Villa
p463
aVEPL
p464
aV31
p465
aV2520
p466
aV3
aV-
aV6
aV-
aV0.7
p467
aV86.3
p468
aV0.4
p469
aV1
aV6.64
p470
aa(lp471
V2014/2015
p472
aVManchester Un..
p473
aVEPL
p474
aV1
aV90
p475
aV-
aV-
aV1
aV-
aV1
aV90.2
p476
aV1
aV-
aV6.57
p477
aa(lp478
V2013/2014
p479
aVManchester Un..
p480
aVUCL
p481
aV2(2)
p482
aV188
p483
aV-
aV-
aV1
aV-
aV0.5
p484
aV87
p485
aV0.5
p486
aV-
aV6.32
p487
aa(lp488
V2013/2014
p489
aVManchester Un..
p490
aVEPL
p491
aV18(4)
p492
aV1581
p493
aV1
aV-
aV3
aV-
aV0.7
p494
aV89.6
p495
aV0.3
p496
aV-
aV6.74
p497
aa(lp498
V2012/2013
p499
aVManchester Un..
p500
aVUCL
p501
aV5
aV389
p502
aV-
aV1
aV-
aV-
aV0.4
p503
aV91.4
p504
aV0.2
p505
aV-
aV7.00
p506
aa(lp507
V2012/2013
p508
aVManchester Un..
p509
aVEPL
p510
aV18(4)
p511
aV1456
p512
aV2
aV2
aV1
aV-
aV0.9
p513
aV90.2
p514
aV0.2
p515
aV-
aV6.83
p516
aa(lp517
V2011/2012
p518
aVManchester Un..
p519
aVEPL
p520
aV5(5)
p521
aV435
p522
aV-
aV1
aV-
aV-
aV0.9
p523
aV91.5
p524
aV-
aV-
aV6.61
p525
aa(lp526
V2010/2011
p527
aVWigan
p528
aVEPL
p529
aV19(6)
p530
aV1634
p531
aV3
aV2
aV1
aV-
aV1.6
p532
aV81.6
p533
aV0.2
p534
aV1
aV6.73
p535
aa(lp536
VTotal / Average
p537
aV
aV
aV193
p538
aV13659
p539
aV12
p540
aV14
p541
aV19
p542
aV1
aV0.8
p543
aV85.7
p544
aV0.4
p545
aV3
aV6.69
p546
aasS'id'
p547
V69956
p548
sb.