(i__main__
Player
p1
(dp2
S'name'
p3
VMarcos Rojo 
p4
sS'offensive_data'
p5
(lp6
(lp7
a(lp8
V2018/2019
p9
aVManchester Un..
p10
aVEPL
p11
aV1(1)
p12
aV104
p13
aV-
aV-
aV1
aV-
aV1.5
p14
aV76.8
p15
aV0.5
p16
aV-
aV5.69
p17
aa(lp18
V2018/2019
p19
aVManchester Un..
p20
aVUCL
p21
aV1
aV46
p22
aV-
aV-
aV-
aV-
aV-
aV84.6
p23
aV1
aV-
aV6.39
p24
aa(lp25
V2017/2018
p26
aVManchester Un..
p27
aVUCL
p28
aV1
aV90
p29
aV-
aV-
aV-
aV-
aV1
aV89
p30
aV1
aV-
aV6.55
p31
aa(lp32
V2017/2018
p33
aVManchester Un..
p34
aVEPL
p35
aV8(1)
p36
aV642
p37
aV-
aV-
aV6
aV-
aV0.6
p38
aV81.6
p39
aV1.8
p40
aV-
aV6.65
p41
aa(lp42
V2016/2017
p43
aVManchester Un..
p44
aVEPL
p45
aV18(3)
p46
aV1661
p47
aV1
aV-
aV5
aV-
aV0.7
p48
aV86
p49
aV2.2
p50
aV-
aV7.16
p51
aa(lp52
V2016/2017
p53
aVManchester Un..
p54
aVUEL
p55
aV8(2)
p56
aV724
p57
aV-
aV-
aV-
aV-
aV0.5
p58
aV84.3
p59
aV1.2
p60
aV-
aV6.79
p61
aa(lp62
V2018
p63
aVArgentina
p64
aVWC
p65
aV3
aV226
p66
aV1
aV-
aV1
aV-
aV1
aV90.2
p67
aV3.3
p68
aV-
aV6.82
p69
aa(lp70
V2015/2016
p71
aVManchester Un..
p72
aVUEL
p73
aV2(1)
p74
aV163
p75
aV-
aV1
aV-
aV-
aV0.7
p76
aV73.3
p77
aV2.3
p78
aV-
aV6.68
p79
aa(lp80
V2015/2016
p81
aVManchester Un..
p82
aVUCL
p83
aV3(1)
p84
aV309
p85
aV-
aV-
aV-
aV-
aV1
aV81.9
p86
aV2.5
p87
aV-
aV6.99
p88
aa(lp89
V2015/2016
p90
aVManchester Un..
p91
aVEPL
p92
aV15(1)
p93
aV1254
p94
aV-
aV1
aV3
aV-
aV0.5
p95
aV73.1
p96
aV1.9
p97
aV1
aV6.93
p98
aa(lp99
V2015
p100
aVArgentina
p101
aVICA
p102
aV6
aV601
p103
aV1
aV-
aV3
aV-
aV0.7
p104
aV80.2
p105
aV1.8
p106
aV-
aV7.23
p107
aa(lp108
V2014/2015
p109
aVManchester Un..
p110
aVEPL
p111
aV20(2)
p112
aV1765
p113
aV-
aV-
aV6
aV-
aV0.7
p114
aV85.5
p115
aV2.6
p116
aV1
aV7.26
p117
aa(lp118
V2014
p119
aVArgentina
p120
aVWC
p121
aV6
aV618
p122
aV1
aV-
aV2
aV-
aV1.3
p123
aV81
p124
aV1.7
p125
aV-
aV7.55
p126
aa(lp127
V2012/2013
p128
aVSporting CP
p129
aVUEL
p130
aV5
aV450
p131
aV-
aV-
aV2
aV-
aV1
aV86.8
p132
aV0.4
p133
aV-
aV6.81
p134
aa(lp135
VTotal / Average
p136
aV
aV
aV109
p137
aV8653
p138
aV4
aV2
aV29
p139
aV0
aV0.7
p140
aV82.4
p141
aV2
aV2
aV7.01
p142
aasS'url'
p143
S'https://www.whoscored.com/Players/70050/History/'
p144
sS'passing_data'
p145
(lp146
(lp147
a(lp148
V2018/2019
p149
aVManchester Un..
p150
aVEPL
p151
aV1(1)
p152
aV104
p153
aV-
aV-
aV1
aV-
aV1.5
p154
aV76.8
p155
aV0.5
p156
aV-
aV5.69
p157
aa(lp158
V2018/2019
p159
aVManchester Un..
p160
aVUCL
p161
aV1
aV46
p162
aV-
aV-
aV-
aV-
aV-
aV84.6
p163
aV1
aV-
aV6.39
p164
aa(lp165
V2017/2018
p166
aVManchester Un..
p167
aVUCL
p168
aV1
aV90
p169
aV-
aV-
aV-
aV-
aV1
aV89
p170
aV1
aV-
aV6.55
p171
aa(lp172
V2017/2018
p173
aVManchester Un..
p174
aVEPL
p175
aV8(1)
p176
aV642
p177
aV-
aV-
aV6
aV-
aV0.6
p178
aV81.6
p179
aV1.8
p180
aV-
aV6.65
p181
aa(lp182
V2016/2017
p183
aVManchester Un..
p184
aVEPL
p185
aV18(3)
p186
aV1661
p187
aV1
aV-
aV5
aV-
aV0.7
p188
aV86
p189
aV2.2
p190
aV-
aV7.16
p191
aa(lp192
V2016/2017
p193
aVManchester Un..
p194
aVUEL
p195
aV8(2)
p196
aV724
p197
aV-
aV-
aV-
aV-
aV0.5
p198
aV84.3
p199
aV1.2
p200
aV-
aV6.79
p201
aa(lp202
V2018
p203
aVArgentina
p204
aVWC
p205
aV3
aV226
p206
aV1
aV-
aV1
aV-
aV1
aV90.2
p207
aV3.3
p208
aV-
aV6.82
p209
aa(lp210
V2015/2016
p211
aVManchester Un..
p212
aVUEL
p213
aV2(1)
p214
aV163
p215
aV-
aV1
aV-
aV-
aV0.7
p216
aV73.3
p217
aV2.3
p218
aV-
aV6.68
p219
aa(lp220
V2015/2016
p221
aVManchester Un..
p222
aVUCL
p223
aV3(1)
p224
aV309
p225
aV-
aV-
aV-
aV-
aV1
aV81.9
p226
aV2.5
p227
aV-
aV6.99
p228
aa(lp229
V2015/2016
p230
aVManchester Un..
p231
aVEPL
p232
aV15(1)
p233
aV1254
p234
aV-
aV1
aV3
aV-
aV0.5
p235
aV73.1
p236
aV1.9
p237
aV1
aV6.93
p238
aa(lp239
V2015
p240
aVArgentina
p241
aVICA
p242
aV6
aV601
p243
aV1
aV-
aV3
aV-
aV0.7
p244
aV80.2
p245
aV1.8
p246
aV-
aV7.23
p247
aa(lp248
V2014/2015
p249
aVManchester Un..
p250
aVEPL
p251
aV20(2)
p252
aV1765
p253
aV-
aV-
aV6
aV-
aV0.7
p254
aV85.5
p255
aV2.6
p256
aV1
aV7.26
p257
aa(lp258
V2014
p259
aVArgentina
p260
aVWC
p261
aV6
aV618
p262
aV1
aV-
aV2
aV-
aV1.3
p263
aV81
p264
aV1.7
p265
aV-
aV7.55
p266
aa(lp267
V2012/2013
p268
aVSporting CP
p269
aVUEL
p270
aV5
aV450
p271
aV-
aV-
aV2
aV-
aV1
aV86.8
p272
aV0.4
p273
aV-
aV6.81
p274
aa(lp275
VTotal / Average
p276
aV
aV
aV109
p277
aV8653
p278
aV4
aV2
aV29
p279
aV0
aV0.7
p280
aV82.4
p281
aV2
aV2
aV7.01
p282
aasS'defensive_data'
p283
(lp284
(lp285
a(lp286
V2018/2019
p287
aVManchester Un..
p288
aVEPL
p289
aV1(1)
p290
aV104
p291
aV-
aV-
aV1
aV-
aV1.5
p292
aV76.8
p293
aV0.5
p294
aV-
aV5.69
p295
aa(lp296
V2018/2019
p297
aVManchester Un..
p298
aVUCL
p299
aV1
aV46
p300
aV-
aV-
aV-
aV-
aV-
aV84.6
p301
aV1
aV-
aV6.39
p302
aa(lp303
V2017/2018
p304
aVManchester Un..
p305
aVUCL
p306
aV1
aV90
p307
aV-
aV-
aV-
aV-
aV1
aV89
p308
aV1
aV-
aV6.55
p309
aa(lp310
V2017/2018
p311
aVManchester Un..
p312
aVEPL
p313
aV8(1)
p314
aV642
p315
aV-
aV-
aV6
aV-
aV0.6
p316
aV81.6
p317
aV1.8
p318
aV-
aV6.65
p319
aa(lp320
V2016/2017
p321
aVManchester Un..
p322
aVEPL
p323
aV18(3)
p324
aV1661
p325
aV1
aV-
aV5
aV-
aV0.7
p326
aV86
p327
aV2.2
p328
aV-
aV7.16
p329
aa(lp330
V2016/2017
p331
aVManchester Un..
p332
aVUEL
p333
aV8(2)
p334
aV724
p335
aV-
aV-
aV-
aV-
aV0.5
p336
aV84.3
p337
aV1.2
p338
aV-
aV6.79
p339
aa(lp340
V2018
p341
aVArgentina
p342
aVWC
p343
aV3
aV226
p344
aV1
aV-
aV1
aV-
aV1
aV90.2
p345
aV3.3
p346
aV-
aV6.82
p347
aa(lp348
V2015/2016
p349
aVManchester Un..
p350
aVUEL
p351
aV2(1)
p352
aV163
p353
aV-
aV1
aV-
aV-
aV0.7
p354
aV73.3
p355
aV2.3
p356
aV-
aV6.68
p357
aa(lp358
V2015/2016
p359
aVManchester Un..
p360
aVUCL
p361
aV3(1)
p362
aV309
p363
aV-
aV-
aV-
aV-
aV1
aV81.9
p364
aV2.5
p365
aV-
aV6.99
p366
aa(lp367
V2015/2016
p368
aVManchester Un..
p369
aVEPL
p370
aV15(1)
p371
aV1254
p372
aV-
aV1
aV3
aV-
aV0.5
p373
aV73.1
p374
aV1.9
p375
aV1
aV6.93
p376
aa(lp377
V2015
p378
aVArgentina
p379
aVICA
p380
aV6
aV601
p381
aV1
aV-
aV3
aV-
aV0.7
p382
aV80.2
p383
aV1.8
p384
aV-
aV7.23
p385
aa(lp386
V2014/2015
p387
aVManchester Un..
p388
aVEPL
p389
aV20(2)
p390
aV1765
p391
aV-
aV-
aV6
aV-
aV0.7
p392
aV85.5
p393
aV2.6
p394
aV1
aV7.26
p395
aa(lp396
V2014
p397
aVArgentina
p398
aVWC
p399
aV6
aV618
p400
aV1
aV-
aV2
aV-
aV1.3
p401
aV81
p402
aV1.7
p403
aV-
aV7.55
p404
aa(lp405
V2012/2013
p406
aVSporting CP
p407
aVUEL
p408
aV5
aV450
p409
aV-
aV-
aV2
aV-
aV1
aV86.8
p410
aV0.4
p411
aV-
aV6.81
p412
aa(lp413
VTotal / Average
p414
aV
aV
aV109
p415
aV8653
p416
aV4
aV2
aV29
p417
aV0
aV0.7
p418
aV82.4
p419
aV2
aV2
aV7.01
p420
aasS'sumary_data'
p421
(lp422
(lp423
a(lp424
V2018/2019
p425
aVManchester Un..
p426
aVEPL
p427
aV1(1)
p428
aV104
p429
aV-
aV-
aV1
aV-
aV1.5
p430
aV76.8
p431
aV0.5
p432
aV-
aV5.69
p433
aa(lp434
V2018/2019
p435
aVManchester Un..
p436
aVUCL
p437
aV1
aV46
p438
aV-
aV-
aV-
aV-
aV-
aV84.6
p439
aV1
aV-
aV6.39
p440
aa(lp441
V2017/2018
p442
aVManchester Un..
p443
aVUCL
p444
aV1
aV90
p445
aV-
aV-
aV-
aV-
aV1
aV89
p446
aV1
aV-
aV6.55
p447
aa(lp448
V2017/2018
p449
aVManchester Un..
p450
aVEPL
p451
aV8(1)
p452
aV642
p453
aV-
aV-
aV6
aV-
aV0.6
p454
aV81.6
p455
aV1.8
p456
aV-
aV6.65
p457
aa(lp458
V2016/2017
p459
aVManchester Un..
p460
aVEPL
p461
aV18(3)
p462
aV1661
p463
aV1
aV-
aV5
aV-
aV0.7
p464
aV86
p465
aV2.2
p466
aV-
aV7.16
p467
aa(lp468
V2016/2017
p469
aVManchester Un..
p470
aVUEL
p471
aV8(2)
p472
aV724
p473
aV-
aV-
aV-
aV-
aV0.5
p474
aV84.3
p475
aV1.2
p476
aV-
aV6.79
p477
aa(lp478
V2018
p479
aVArgentina
p480
aVWC
p481
aV3
aV226
p482
aV1
aV-
aV1
aV-
aV1
aV90.2
p483
aV3.3
p484
aV-
aV6.82
p485
aa(lp486
V2015/2016
p487
aVManchester Un..
p488
aVUEL
p489
aV2(1)
p490
aV163
p491
aV-
aV1
aV-
aV-
aV0.7
p492
aV73.3
p493
aV2.3
p494
aV-
aV6.68
p495
aa(lp496
V2015/2016
p497
aVManchester Un..
p498
aVUCL
p499
aV3(1)
p500
aV309
p501
aV-
aV-
aV-
aV-
aV1
aV81.9
p502
aV2.5
p503
aV-
aV6.99
p504
aa(lp505
V2015/2016
p506
aVManchester Un..
p507
aVEPL
p508
aV15(1)
p509
aV1254
p510
aV-
aV1
aV3
aV-
aV0.5
p511
aV73.1
p512
aV1.9
p513
aV1
aV6.93
p514
aa(lp515
V2015
p516
aVArgentina
p517
aVICA
p518
aV6
aV601
p519
aV1
aV-
aV3
aV-
aV0.7
p520
aV80.2
p521
aV1.8
p522
aV-
aV7.23
p523
aa(lp524
V2014/2015
p525
aVManchester Un..
p526
aVEPL
p527
aV20(2)
p528
aV1765
p529
aV-
aV-
aV6
aV-
aV0.7
p530
aV85.5
p531
aV2.6
p532
aV1
aV7.26
p533
aa(lp534
V2014
p535
aVArgentina
p536
aVWC
p537
aV6
aV618
p538
aV1
aV-
aV2
aV-
aV1.3
p539
aV81
p540
aV1.7
p541
aV-
aV7.55
p542
aa(lp543
V2012/2013
p544
aVSporting CP
p545
aVUEL
p546
aV5
aV450
p547
aV-
aV-
aV2
aV-
aV1
aV86.8
p548
aV0.4
p549
aV-
aV6.81
p550
aa(lp551
VTotal / Average
p552
aV
aV
aV109
p553
aV8653
p554
aV4
aV2
aV29
p555
aV0
aV0.7
p556
aV82.4
p557
aV2
aV2
aV7.01
p558
aasS'id'
p559
V70050
p560
sb.