(i__main__
Player
p1
(dp2
S'name'
p3
VCiaran Clark 
p4
sS'offensive_data'
p5
(lp6
(lp7
a(lp8
V2018/2019
p9
aVNewcastle Uni..
p10
aVEPL
p11
aV8(2)
p12
aV768
p13
aV2
aV-
aV1
aV-
aV0.6
p14
aV74.1
p15
aV4.2
p16
aV1
aV7.05
p17
aa(lp18
V2018/2019
p19
aVIreland
p20
aVUNL
p21
aV1
aV90
p22
aV-
aV-
aV1
aV-
aV-
aV62.1
p23
aV2
aV-
aV5.86
p24
aa(lp25
V2017/2018
p26
aVNewcastle Uni..
p27
aVEPL
p28
aV19(1)
p29
aV1745
p30
aV2
aV1
aV3
aV-
aV0.6
p31
aV71.7
p32
aV2.1
p33
aV-
aV6.79
p34
aa(lp35
V2016/2017
p36
aVNewcastle Uni..
p37
aVEC
p38
aV34
p39
aV3034
p40
aV3
aV2
aV3
aV-
aV0.7
p41
aV78.6
p42
aV3.7
p43
aV1
aV7.32
p44
aa(lp45
V2015/2016
p46
aVAston Villa
p47
aVEPL
p48
aV16(2)
p49
aV1442
p50
aV1
aV-
aV6
aV-
aV0.6
p51
aV76
p52
aV2.8
p53
aV-
aV6.87
p54
aa(lp55
V2014/2015
p56
aVAston Villa
p57
aVEPL
p58
aV22(3)
p59
aV1994
p60
aV1
aV2
aV8
aV1
aV0.6
p61
aV79
p62
aV3
aV2
aV7.12
p63
aa(lp64
V2016
p65
aVIreland
p66
aVUEC
p67
aV2
aV180
p68
aV-
aV-
aV-
aV-
aV1
aV84
p69
aV1
aV-
aV6.14
p70
aa(lp71
V2013/2014
p72
aVAston Villa
p73
aVEPL
p74
aV23(4)
p75
aV2203
p76
aV-
aV-
aV8
aV-
aV0.5
p77
aV72.9
p78
aV2.4
p79
aV1
aV6.87
p80
aa(lp81
V2012/2013
p82
aVAston Villa
p83
aVEPL
p84
aV28(1)
p85
aV2498
p86
aV1
aV-
aV6
aV1
aV0.4
p87
aV80.5
p88
aV2.6
p89
aV-
aV6.82
p90
aa(lp91
V2011/2012
p92
aVAston Villa
p93
aVEPL
p94
aV13(2)
p95
aV1149
p96
aV1
aV2
aV3
aV-
aV0.5
p97
aV80.6
p98
aV0.5
p99
aV1
aV6.75
p100
aa(lp101
V2010/2011
p102
aVAston Villa
p103
aVEPL
p104
aV16(3)
p105
aV1567
p106
aV3
aV-
aV9
aV-
aV0.6
p107
aV76.9
p108
aV1.6
p109
aV-
aV6.99
p110
aa(lp111
V2009/2010
p112
aVAston Villa
p113
aVEPL
p114
aV1
aV90
p115
aV-
aV-
aV-
aV-
aV1
aV84.8
p116
aV2
aV-
aV7.58
p117
aa(lp118
VTotal / Average
p119
aV
aV
aV201
p120
aV16760
p121
aV14
p122
aV7
aV48
p123
aV2
aV0.6
p124
aV77
p125
aV2.6
p126
aV6
aV6.97
p127
aasS'url'
p128
S'https://www.whoscored.com/Players/70099/History/'
p129
sS'passing_data'
p130
(lp131
(lp132
a(lp133
V2018/2019
p134
aVNewcastle Uni..
p135
aVEPL
p136
aV8(2)
p137
aV768
p138
aV2
aV-
aV1
aV-
aV0.6
p139
aV74.1
p140
aV4.2
p141
aV1
aV7.05
p142
aa(lp143
V2018/2019
p144
aVIreland
p145
aVUNL
p146
aV1
aV90
p147
aV-
aV-
aV1
aV-
aV-
aV62.1
p148
aV2
aV-
aV5.86
p149
aa(lp150
V2017/2018
p151
aVNewcastle Uni..
p152
aVEPL
p153
aV19(1)
p154
aV1745
p155
aV2
aV1
aV3
aV-
aV0.6
p156
aV71.7
p157
aV2.1
p158
aV-
aV6.79
p159
aa(lp160
V2016/2017
p161
aVNewcastle Uni..
p162
aVEC
p163
aV34
p164
aV3034
p165
aV3
aV2
aV3
aV-
aV0.7
p166
aV78.6
p167
aV3.7
p168
aV1
aV7.32
p169
aa(lp170
V2015/2016
p171
aVAston Villa
p172
aVEPL
p173
aV16(2)
p174
aV1442
p175
aV1
aV-
aV6
aV-
aV0.6
p176
aV76
p177
aV2.8
p178
aV-
aV6.87
p179
aa(lp180
V2014/2015
p181
aVAston Villa
p182
aVEPL
p183
aV22(3)
p184
aV1994
p185
aV1
aV2
aV8
aV1
aV0.6
p186
aV79
p187
aV3
aV2
aV7.12
p188
aa(lp189
V2016
p190
aVIreland
p191
aVUEC
p192
aV2
aV180
p193
aV-
aV-
aV-
aV-
aV1
aV84
p194
aV1
aV-
aV6.14
p195
aa(lp196
V2013/2014
p197
aVAston Villa
p198
aVEPL
p199
aV23(4)
p200
aV2203
p201
aV-
aV-
aV8
aV-
aV0.5
p202
aV72.9
p203
aV2.4
p204
aV1
aV6.87
p205
aa(lp206
V2012/2013
p207
aVAston Villa
p208
aVEPL
p209
aV28(1)
p210
aV2498
p211
aV1
aV-
aV6
aV1
aV0.4
p212
aV80.5
p213
aV2.6
p214
aV-
aV6.82
p215
aa(lp216
V2011/2012
p217
aVAston Villa
p218
aVEPL
p219
aV13(2)
p220
aV1149
p221
aV1
aV2
aV3
aV-
aV0.5
p222
aV80.6
p223
aV0.5
p224
aV1
aV6.75
p225
aa(lp226
V2010/2011
p227
aVAston Villa
p228
aVEPL
p229
aV16(3)
p230
aV1567
p231
aV3
aV-
aV9
aV-
aV0.6
p232
aV76.9
p233
aV1.6
p234
aV-
aV6.99
p235
aa(lp236
V2009/2010
p237
aVAston Villa
p238
aVEPL
p239
aV1
aV90
p240
aV-
aV-
aV-
aV-
aV1
aV84.8
p241
aV2
aV-
aV7.58
p242
aa(lp243
VTotal / Average
p244
aV
aV
aV201
p245
aV16760
p246
aV14
p247
aV7
aV48
p248
aV2
aV0.6
p249
aV77
p250
aV2.6
p251
aV6
aV6.97
p252
aasS'defensive_data'
p253
(lp254
(lp255
a(lp256
V2018/2019
p257
aVNewcastle Uni..
p258
aVEPL
p259
aV8(2)
p260
aV768
p261
aV2
aV-
aV1
aV-
aV0.6
p262
aV74.1
p263
aV4.2
p264
aV1
aV7.05
p265
aa(lp266
V2018/2019
p267
aVIreland
p268
aVUNL
p269
aV1
aV90
p270
aV-
aV-
aV1
aV-
aV-
aV62.1
p271
aV2
aV-
aV5.86
p272
aa(lp273
V2017/2018
p274
aVNewcastle Uni..
p275
aVEPL
p276
aV19(1)
p277
aV1745
p278
aV2
aV1
aV3
aV-
aV0.6
p279
aV71.7
p280
aV2.1
p281
aV-
aV6.79
p282
aa(lp283
V2016/2017
p284
aVNewcastle Uni..
p285
aVEC
p286
aV34
p287
aV3034
p288
aV3
aV2
aV3
aV-
aV0.7
p289
aV78.6
p290
aV3.7
p291
aV1
aV7.32
p292
aa(lp293
V2015/2016
p294
aVAston Villa
p295
aVEPL
p296
aV16(2)
p297
aV1442
p298
aV1
aV-
aV6
aV-
aV0.6
p299
aV76
p300
aV2.8
p301
aV-
aV6.87
p302
aa(lp303
V2014/2015
p304
aVAston Villa
p305
aVEPL
p306
aV22(3)
p307
aV1994
p308
aV1
aV2
aV8
aV1
aV0.6
p309
aV79
p310
aV3
aV2
aV7.12
p311
aa(lp312
V2016
p313
aVIreland
p314
aVUEC
p315
aV2
aV180
p316
aV-
aV-
aV-
aV-
aV1
aV84
p317
aV1
aV-
aV6.14
p318
aa(lp319
V2013/2014
p320
aVAston Villa
p321
aVEPL
p322
aV23(4)
p323
aV2203
p324
aV-
aV-
aV8
aV-
aV0.5
p325
aV72.9
p326
aV2.4
p327
aV1
aV6.87
p328
aa(lp329
V2012/2013
p330
aVAston Villa
p331
aVEPL
p332
aV28(1)
p333
aV2498
p334
aV1
aV-
aV6
aV1
aV0.4
p335
aV80.5
p336
aV2.6
p337
aV-
aV6.82
p338
aa(lp339
V2011/2012
p340
aVAston Villa
p341
aVEPL
p342
aV13(2)
p343
aV1149
p344
aV1
aV2
aV3
aV-
aV0.5
p345
aV80.6
p346
aV0.5
p347
aV1
aV6.75
p348
aa(lp349
V2010/2011
p350
aVAston Villa
p351
aVEPL
p352
aV16(3)
p353
aV1567
p354
aV3
aV-
aV9
aV-
aV0.6
p355
aV76.9
p356
aV1.6
p357
aV-
aV6.99
p358
aa(lp359
V2009/2010
p360
aVAston Villa
p361
aVEPL
p362
aV1
aV90
p363
aV-
aV-
aV-
aV-
aV1
aV84.8
p364
aV2
aV-
aV7.58
p365
aa(lp366
VTotal / Average
p367
aV
aV
aV201
p368
aV16760
p369
aV14
p370
aV7
aV48
p371
aV2
aV0.6
p372
aV77
p373
aV2.6
p374
aV6
aV6.97
p375
aasS'sumary_data'
p376
(lp377
(lp378
a(lp379
V2018/2019
p380
aVNewcastle Uni..
p381
aVEPL
p382
aV8(2)
p383
aV768
p384
aV2
aV-
aV1
aV-
aV0.6
p385
aV74.1
p386
aV4.2
p387
aV1
aV7.05
p388
aa(lp389
V2018/2019
p390
aVIreland
p391
aVUNL
p392
aV1
aV90
p393
aV-
aV-
aV1
aV-
aV-
aV62.1
p394
aV2
aV-
aV5.86
p395
aa(lp396
V2017/2018
p397
aVNewcastle Uni..
p398
aVEPL
p399
aV19(1)
p400
aV1745
p401
aV2
aV1
aV3
aV-
aV0.6
p402
aV71.7
p403
aV2.1
p404
aV-
aV6.79
p405
aa(lp406
V2016/2017
p407
aVNewcastle Uni..
p408
aVEC
p409
aV34
p410
aV3034
p411
aV3
aV2
aV3
aV-
aV0.7
p412
aV78.6
p413
aV3.7
p414
aV1
aV7.32
p415
aa(lp416
V2015/2016
p417
aVAston Villa
p418
aVEPL
p419
aV16(2)
p420
aV1442
p421
aV1
aV-
aV6
aV-
aV0.6
p422
aV76
p423
aV2.8
p424
aV-
aV6.87
p425
aa(lp426
V2014/2015
p427
aVAston Villa
p428
aVEPL
p429
aV22(3)
p430
aV1994
p431
aV1
aV2
aV8
aV1
aV0.6
p432
aV79
p433
aV3
aV2
aV7.12
p434
aa(lp435
V2016
p436
aVIreland
p437
aVUEC
p438
aV2
aV180
p439
aV-
aV-
aV-
aV-
aV1
aV84
p440
aV1
aV-
aV6.14
p441
aa(lp442
V2013/2014
p443
aVAston Villa
p444
aVEPL
p445
aV23(4)
p446
aV2203
p447
aV-
aV-
aV8
aV-
aV0.5
p448
aV72.9
p449
aV2.4
p450
aV1
aV6.87
p451
aa(lp452
V2012/2013
p453
aVAston Villa
p454
aVEPL
p455
aV28(1)
p456
aV2498
p457
aV1
aV-
aV6
aV1
aV0.4
p458
aV80.5
p459
aV2.6
p460
aV-
aV6.82
p461
aa(lp462
V2011/2012
p463
aVAston Villa
p464
aVEPL
p465
aV13(2)
p466
aV1149
p467
aV1
aV2
aV3
aV-
aV0.5
p468
aV80.6
p469
aV0.5
p470
aV1
aV6.75
p471
aa(lp472
V2010/2011
p473
aVAston Villa
p474
aVEPL
p475
aV16(3)
p476
aV1567
p477
aV3
aV-
aV9
aV-
aV0.6
p478
aV76.9
p479
aV1.6
p480
aV-
aV6.99
p481
aa(lp482
V2009/2010
p483
aVAston Villa
p484
aVEPL
p485
aV1
aV90
p486
aV-
aV-
aV-
aV-
aV1
aV84.8
p487
aV2
aV-
aV7.58
p488
aa(lp489
VTotal / Average
p490
aV
aV
aV201
p491
aV16760
p492
aV14
p493
aV7
aV48
p494
aV2
aV0.6
p495
aV77
p496
aV2.6
p497
aV6
aV6.97
p498
aasS'id'
p499
V70099
p500
sb.