(i__main__
Player
p1
(dp2
S'name'
p3
VLuka Milivojevic 
p4
sS'offensive_data'
p5
(lp6
(lp7
a(lp8
V2018/2019
p9
aVCrystal Palac..
p10
aVEPL
p11
aV17
p12
aV1530
p13
aV4
aV-
aV4
aV-
aV1.7
p14
aV80.3
p15
aV1.2
p16
aV2
aV7.06
p17
aa(lp18
V2017/2018
p19
aVCrystal Palac..
p20
aVEPL
p21
aV35(1)
p22
aV3082
p23
aV10
p24
aV1
aV8
aV-
aV1.2
p25
aV80.2
p26
aV1.4
p27
aV1
aV7.01
p28
aa(lp29
V2016/2017
p30
aVCrystal Palac..
p31
aVEPL
p32
aV14
p33
aV1227
p34
aV2
aV-
aV4
aV-
aV1
aV72.9
p35
aV1.9
p36
aV-
aV6.94
p37
aa(lp38
V2016/2017
p39
aVOlympiacos
p40
aVUEL
p41
aV4
aV343
p42
aV-
aV1
aV2
aV-
aV1.5
p43
aV84.2
p44
aV3
aV-
aV7.08
p45
aa(lp46
V2018
p47
aVSerbia
p48
aVWC
p49
aV2
aV171
p50
aV-
aV-
aV1
aV-
aV-
aV85.1
p51
aV2
aV-
aV6.77
p52
aa(lp53
V2015/2016
p54
aVOlympiacos
p55
aVUEL
p56
aV2
aV210
p57
aV-
aV-
aV-
aV-
aV2.5
p58
aV86.4
p59
aV2
aV-
aV7.03
p60
aa(lp61
V2015/2016
p62
aVOlympiacos
p63
aVUCL
p64
aV4
aV360
p65
aV-
aV-
aV1
aV-
aV1
aV82
p66
aV1.5
p67
aV-
aV6.70
p68
aa(lp69
V2014/2015
p70
aVOlympiacos
p71
aVUCL
p72
aV5
aV450
p73
aV-
aV-
aV1
aV-
aV1.4
p74
aV85.3
p75
aV2
aV-
aV6.67
p76
aa(lp77
V2014/2015
p78
aVOlympiacos
p79
aVUEL
p80
aV1(1)
p81
aV84
p82
aV-
aV1
aV1
aV1
aV-
aV86.8
p83
aV-
aV-
aV6.08
p84
aa(lp85
V2013/2014
p86
aVAnderlecht
p87
aVUCL
p88
aV3(1)
p89
aV251
p90
aV-
aV-
aV2
aV-
aV0.5
p91
aV81
p92
aV0.3
p93
aV-
aV6.28
p94
aa(lp95
VTotal / Average
p96
aV
aV
aV90
p97
aV7708
p98
aV16
p99
aV3
aV24
p100
aV1
aV1.2
p101
aV80
p102
aV1.5
p103
aV3
aV6.92
p104
aasS'url'
p105
S'https://www.whoscored.com/Players/70493/History/'
p106
sS'passing_data'
p107
(lp108
(lp109
a(lp110
V2018/2019
p111
aVCrystal Palac..
p112
aVEPL
p113
aV17
p114
aV1530
p115
aV4
aV-
aV4
aV-
aV1.7
p116
aV80.3
p117
aV1.2
p118
aV2
aV7.06
p119
aa(lp120
V2017/2018
p121
aVCrystal Palac..
p122
aVEPL
p123
aV35(1)
p124
aV3082
p125
aV10
p126
aV1
aV8
aV-
aV1.2
p127
aV80.2
p128
aV1.4
p129
aV1
aV7.01
p130
aa(lp131
V2016/2017
p132
aVCrystal Palac..
p133
aVEPL
p134
aV14
p135
aV1227
p136
aV2
aV-
aV4
aV-
aV1
aV72.9
p137
aV1.9
p138
aV-
aV6.94
p139
aa(lp140
V2016/2017
p141
aVOlympiacos
p142
aVUEL
p143
aV4
aV343
p144
aV-
aV1
aV2
aV-
aV1.5
p145
aV84.2
p146
aV3
aV-
aV7.08
p147
aa(lp148
V2018
p149
aVSerbia
p150
aVWC
p151
aV2
aV171
p152
aV-
aV-
aV1
aV-
aV-
aV85.1
p153
aV2
aV-
aV6.77
p154
aa(lp155
V2015/2016
p156
aVOlympiacos
p157
aVUEL
p158
aV2
aV210
p159
aV-
aV-
aV-
aV-
aV2.5
p160
aV86.4
p161
aV2
aV-
aV7.03
p162
aa(lp163
V2015/2016
p164
aVOlympiacos
p165
aVUCL
p166
aV4
aV360
p167
aV-
aV-
aV1
aV-
aV1
aV82
p168
aV1.5
p169
aV-
aV6.70
p170
aa(lp171
V2014/2015
p172
aVOlympiacos
p173
aVUCL
p174
aV5
aV450
p175
aV-
aV-
aV1
aV-
aV1.4
p176
aV85.3
p177
aV2
aV-
aV6.67
p178
aa(lp179
V2014/2015
p180
aVOlympiacos
p181
aVUEL
p182
aV1(1)
p183
aV84
p184
aV-
aV1
aV1
aV1
aV-
aV86.8
p185
aV-
aV-
aV6.08
p186
aa(lp187
V2013/2014
p188
aVAnderlecht
p189
aVUCL
p190
aV3(1)
p191
aV251
p192
aV-
aV-
aV2
aV-
aV0.5
p193
aV81
p194
aV0.3
p195
aV-
aV6.28
p196
aa(lp197
VTotal / Average
p198
aV
aV
aV90
p199
aV7708
p200
aV16
p201
aV3
aV24
p202
aV1
aV1.2
p203
aV80
p204
aV1.5
p205
aV3
aV6.92
p206
aasS'defensive_data'
p207
(lp208
(lp209
a(lp210
V2018/2019
p211
aVCrystal Palac..
p212
aVEPL
p213
aV17
p214
aV1530
p215
aV4
aV-
aV4
aV-
aV1.7
p216
aV80.3
p217
aV1.2
p218
aV2
aV7.06
p219
aa(lp220
V2017/2018
p221
aVCrystal Palac..
p222
aVEPL
p223
aV35(1)
p224
aV3082
p225
aV10
p226
aV1
aV8
aV-
aV1.2
p227
aV80.2
p228
aV1.4
p229
aV1
aV7.01
p230
aa(lp231
V2016/2017
p232
aVCrystal Palac..
p233
aVEPL
p234
aV14
p235
aV1227
p236
aV2
aV-
aV4
aV-
aV1
aV72.9
p237
aV1.9
p238
aV-
aV6.94
p239
aa(lp240
V2016/2017
p241
aVOlympiacos
p242
aVUEL
p243
aV4
aV343
p244
aV-
aV1
aV2
aV-
aV1.5
p245
aV84.2
p246
aV3
aV-
aV7.08
p247
aa(lp248
V2018
p249
aVSerbia
p250
aVWC
p251
aV2
aV171
p252
aV-
aV-
aV1
aV-
aV-
aV85.1
p253
aV2
aV-
aV6.77
p254
aa(lp255
V2015/2016
p256
aVOlympiacos
p257
aVUEL
p258
aV2
aV210
p259
aV-
aV-
aV-
aV-
aV2.5
p260
aV86.4
p261
aV2
aV-
aV7.03
p262
aa(lp263
V2015/2016
p264
aVOlympiacos
p265
aVUCL
p266
aV4
aV360
p267
aV-
aV-
aV1
aV-
aV1
aV82
p268
aV1.5
p269
aV-
aV6.70
p270
aa(lp271
V2014/2015
p272
aVOlympiacos
p273
aVUCL
p274
aV5
aV450
p275
aV-
aV-
aV1
aV-
aV1.4
p276
aV85.3
p277
aV2
aV-
aV6.67
p278
aa(lp279
V2014/2015
p280
aVOlympiacos
p281
aVUEL
p282
aV1(1)
p283
aV84
p284
aV-
aV1
aV1
aV1
aV-
aV86.8
p285
aV-
aV-
aV6.08
p286
aa(lp287
V2013/2014
p288
aVAnderlecht
p289
aVUCL
p290
aV3(1)
p291
aV251
p292
aV-
aV-
aV2
aV-
aV0.5
p293
aV81
p294
aV0.3
p295
aV-
aV6.28
p296
aa(lp297
VTotal / Average
p298
aV
aV
aV90
p299
aV7708
p300
aV16
p301
aV3
aV24
p302
aV1
aV1.2
p303
aV80
p304
aV1.5
p305
aV3
aV6.92
p306
aasS'sumary_data'
p307
(lp308
(lp309
a(lp310
V2018/2019
p311
aVCrystal Palac..
p312
aVEPL
p313
aV17
p314
aV1530
p315
aV4
aV-
aV4
aV-
aV1.7
p316
aV80.3
p317
aV1.2
p318
aV2
aV7.06
p319
aa(lp320
V2017/2018
p321
aVCrystal Palac..
p322
aVEPL
p323
aV35(1)
p324
aV3082
p325
aV10
p326
aV1
aV8
aV-
aV1.2
p327
aV80.2
p328
aV1.4
p329
aV1
aV7.01
p330
aa(lp331
V2016/2017
p332
aVCrystal Palac..
p333
aVEPL
p334
aV14
p335
aV1227
p336
aV2
aV-
aV4
aV-
aV1
aV72.9
p337
aV1.9
p338
aV-
aV6.94
p339
aa(lp340
V2016/2017
p341
aVOlympiacos
p342
aVUEL
p343
aV4
aV343
p344
aV-
aV1
aV2
aV-
aV1.5
p345
aV84.2
p346
aV3
aV-
aV7.08
p347
aa(lp348
V2018
p349
aVSerbia
p350
aVWC
p351
aV2
aV171
p352
aV-
aV-
aV1
aV-
aV-
aV85.1
p353
aV2
aV-
aV6.77
p354
aa(lp355
V2015/2016
p356
aVOlympiacos
p357
aVUEL
p358
aV2
aV210
p359
aV-
aV-
aV-
aV-
aV2.5
p360
aV86.4
p361
aV2
aV-
aV7.03
p362
aa(lp363
V2015/2016
p364
aVOlympiacos
p365
aVUCL
p366
aV4
aV360
p367
aV-
aV-
aV1
aV-
aV1
aV82
p368
aV1.5
p369
aV-
aV6.70
p370
aa(lp371
V2014/2015
p372
aVOlympiacos
p373
aVUCL
p374
aV5
aV450
p375
aV-
aV-
aV1
aV-
aV1.4
p376
aV85.3
p377
aV2
aV-
aV6.67
p378
aa(lp379
V2014/2015
p380
aVOlympiacos
p381
aVUEL
p382
aV1(1)
p383
aV84
p384
aV-
aV1
aV1
aV1
aV-
aV86.8
p385
aV-
aV-
aV6.08
p386
aa(lp387
V2013/2014
p388
aVAnderlecht
p389
aVUCL
p390
aV3(1)
p391
aV251
p392
aV-
aV-
aV2
aV-
aV0.5
p393
aV81
p394
aV0.3
p395
aV-
aV6.28
p396
aa(lp397
VTotal / Average
p398
aV
aV
aV90
p399
aV7708
p400
aV16
p401
aV3
aV24
p402
aV1
aV1.2
p403
aV80
p404
aV1.5
p405
aV3
aV6.92
p406
aasS'id'
p407
V70493
p408
sb.