(i__main__
Player
p1
(dp2
S'name'
p3
VPedro Obiang 
p4
sS'offensive_data'
p5
(lp6
(lp7
a(lp8
V2018/2019
p9
aVWest Ham
p10
aVEPL
p11
aV7(4)
p12
aV624
p13
aV-
aV1
aV-
aV-
aV1
aV81.3
p14
aV0.3
p15
aV-
aV6.33
p16
aa(lp17
V2017/2018
p18
aVWest Ham
p19
aVEPL
p20
aV18(3)
p21
aV1565
p22
aV2
aV-
aV3
aV-
aV0.6
p23
aV80.5
p24
aV1
aV2
aV6.85
p25
aa(lp26
V2016/2017
p27
aVWest Ham
p28
aVEPL
p29
aV21(1)
p30
aV1767
p31
aV1
aV1
aV7
aV-
aV0.4
p32
aV81.4
p33
aV1
aV2
aV6.86
p34
aa(lp35
V2015/2016
p36
aVWest Ham
p37
aVEPL
p38
aV11(13)
p39
aV1081
p40
aV-
aV1
aV2
aV-
aV0.3
p41
aV78.6
p42
aV1.3
p43
aV1
aV6.66
p44
aa(lp45
V2014/2015
p46
aVSampdoria
p47
aVISA
p48
aV32(2)
p49
aV2764
p50
aV3
aV1
aV12
p51
aV-
aV0.9
p52
aV82.2
p53
aV0.8
p54
aV3
aV7.07
p55
aa(lp56
V2013/2014
p57
aVSampdoria
p58
aVISA
p59
aV24(3)
p60
aV2118
p61
aV-
aV-
aV7
aV-
aV1
aV79.6
p62
aV1.2
p63
aV-
aV6.73
p64
aa(lp65
V2012/2013
p66
aVSampdoria
p67
aVISA
p68
aV32(2)
p69
aV2896
p70
aV1
aV5
aV6
aV-
aV0.8
p71
aV80.7
p72
aV1
aV-
aV7.15
p73
aa(lp74
V2010/2011
p75
aVSampdoria
p76
aVISA
p77
aV0(4)
p78
aV105
p79
aV-
aV-
aV-
aV-
aV0.5
p80
aV79.1
p81
aV0.3
p82
aV-
aV6.46
p83
aa(lp84
VTotal / Average
p85
aV
aV
aV177
p86
aV12920
p87
aV7
aV9
aV37
p88
aV0
aV0.7
p89
aV80.6
p90
aV1
aV8
aV6.87
p91
aasS'url'
p92
S'https://www.whoscored.com/Players/70676/History/'
p93
sS'passing_data'
p94
(lp95
(lp96
a(lp97
V2018/2019
p98
aVWest Ham
p99
aVEPL
p100
aV7(4)
p101
aV624
p102
aV-
aV1
aV-
aV-
aV1
aV81.3
p103
aV0.3
p104
aV-
aV6.33
p105
aa(lp106
V2017/2018
p107
aVWest Ham
p108
aVEPL
p109
aV18(3)
p110
aV1565
p111
aV2
aV-
aV3
aV-
aV0.6
p112
aV80.5
p113
aV1
aV2
aV6.85
p114
aa(lp115
V2016/2017
p116
aVWest Ham
p117
aVEPL
p118
aV21(1)
p119
aV1767
p120
aV1
aV1
aV7
aV-
aV0.4
p121
aV81.4
p122
aV1
aV2
aV6.86
p123
aa(lp124
V2015/2016
p125
aVWest Ham
p126
aVEPL
p127
aV11(13)
p128
aV1081
p129
aV-
aV1
aV2
aV-
aV0.3
p130
aV78.6
p131
aV1.3
p132
aV1
aV6.66
p133
aa(lp134
V2014/2015
p135
aVSampdoria
p136
aVISA
p137
aV32(2)
p138
aV2764
p139
aV3
aV1
aV12
p140
aV-
aV0.9
p141
aV82.2
p142
aV0.8
p143
aV3
aV7.07
p144
aa(lp145
V2013/2014
p146
aVSampdoria
p147
aVISA
p148
aV24(3)
p149
aV2118
p150
aV-
aV-
aV7
aV-
aV1
aV79.6
p151
aV1.2
p152
aV-
aV6.73
p153
aa(lp154
V2012/2013
p155
aVSampdoria
p156
aVISA
p157
aV32(2)
p158
aV2896
p159
aV1
aV5
aV6
aV-
aV0.8
p160
aV80.7
p161
aV1
aV-
aV7.15
p162
aa(lp163
V2010/2011
p164
aVSampdoria
p165
aVISA
p166
aV0(4)
p167
aV105
p168
aV-
aV-
aV-
aV-
aV0.5
p169
aV79.1
p170
aV0.3
p171
aV-
aV6.46
p172
aa(lp173
VTotal / Average
p174
aV
aV
aV177
p175
aV12920
p176
aV7
aV9
aV37
p177
aV0
aV0.7
p178
aV80.6
p179
aV1
aV8
aV6.87
p180
aasS'defensive_data'
p181
(lp182
(lp183
a(lp184
V2018/2019
p185
aVWest Ham
p186
aVEPL
p187
aV7(4)
p188
aV624
p189
aV-
aV1
aV-
aV-
aV1
aV81.3
p190
aV0.3
p191
aV-
aV6.33
p192
aa(lp193
V2017/2018
p194
aVWest Ham
p195
aVEPL
p196
aV18(3)
p197
aV1565
p198
aV2
aV-
aV3
aV-
aV0.6
p199
aV80.5
p200
aV1
aV2
aV6.85
p201
aa(lp202
V2016/2017
p203
aVWest Ham
p204
aVEPL
p205
aV21(1)
p206
aV1767
p207
aV1
aV1
aV7
aV-
aV0.4
p208
aV81.4
p209
aV1
aV2
aV6.86
p210
aa(lp211
V2015/2016
p212
aVWest Ham
p213
aVEPL
p214
aV11(13)
p215
aV1081
p216
aV-
aV1
aV2
aV-
aV0.3
p217
aV78.6
p218
aV1.3
p219
aV1
aV6.66
p220
aa(lp221
V2014/2015
p222
aVSampdoria
p223
aVISA
p224
aV32(2)
p225
aV2764
p226
aV3
aV1
aV12
p227
aV-
aV0.9
p228
aV82.2
p229
aV0.8
p230
aV3
aV7.07
p231
aa(lp232
V2013/2014
p233
aVSampdoria
p234
aVISA
p235
aV24(3)
p236
aV2118
p237
aV-
aV-
aV7
aV-
aV1
aV79.6
p238
aV1.2
p239
aV-
aV6.73
p240
aa(lp241
V2012/2013
p242
aVSampdoria
p243
aVISA
p244
aV32(2)
p245
aV2896
p246
aV1
aV5
aV6
aV-
aV0.8
p247
aV80.7
p248
aV1
aV-
aV7.15
p249
aa(lp250
V2010/2011
p251
aVSampdoria
p252
aVISA
p253
aV0(4)
p254
aV105
p255
aV-
aV-
aV-
aV-
aV0.5
p256
aV79.1
p257
aV0.3
p258
aV-
aV6.46
p259
aa(lp260
VTotal / Average
p261
aV
aV
aV177
p262
aV12920
p263
aV7
aV9
aV37
p264
aV0
aV0.7
p265
aV80.6
p266
aV1
aV8
aV6.87
p267
aasS'sumary_data'
p268
(lp269
(lp270
a(lp271
V2018/2019
p272
aVWest Ham
p273
aVEPL
p274
aV7(4)
p275
aV624
p276
aV-
aV1
aV-
aV-
aV1
aV81.3
p277
aV0.3
p278
aV-
aV6.33
p279
aa(lp280
V2017/2018
p281
aVWest Ham
p282
aVEPL
p283
aV18(3)
p284
aV1565
p285
aV2
aV-
aV3
aV-
aV0.6
p286
aV80.5
p287
aV1
aV2
aV6.85
p288
aa(lp289
V2016/2017
p290
aVWest Ham
p291
aVEPL
p292
aV21(1)
p293
aV1767
p294
aV1
aV1
aV7
aV-
aV0.4
p295
aV81.4
p296
aV1
aV2
aV6.86
p297
aa(lp298
V2015/2016
p299
aVWest Ham
p300
aVEPL
p301
aV11(13)
p302
aV1081
p303
aV-
aV1
aV2
aV-
aV0.3
p304
aV78.6
p305
aV1.3
p306
aV1
aV6.66
p307
aa(lp308
V2014/2015
p309
aVSampdoria
p310
aVISA
p311
aV32(2)
p312
aV2764
p313
aV3
aV1
aV12
p314
aV-
aV0.9
p315
aV82.2
p316
aV0.8
p317
aV3
aV7.07
p318
aa(lp319
V2013/2014
p320
aVSampdoria
p321
aVISA
p322
aV24(3)
p323
aV2118
p324
aV-
aV-
aV7
aV-
aV1
aV79.6
p325
aV1.2
p326
aV-
aV6.73
p327
aa(lp328
V2012/2013
p329
aVSampdoria
p330
aVISA
p331
aV32(2)
p332
aV2896
p333
aV1
aV5
aV6
aV-
aV0.8
p334
aV80.7
p335
aV1
aV-
aV7.15
p336
aa(lp337
V2010/2011
p338
aVSampdoria
p339
aVISA
p340
aV0(4)
p341
aV105
p342
aV-
aV-
aV-
aV-
aV0.5
p343
aV79.1
p344
aV0.3
p345
aV-
aV6.46
p346
aa(lp347
VTotal / Average
p348
aV
aV
aV177
p349
aV12920
p350
aV7
aV9
aV37
p351
aV0
aV0.7
p352
aV80.6
p353
aV1
aV8
aV6.87
p354
aasS'id'
p355
V70676
p356
sb.