(i__main__
Player
p1
(dp2
S'name'
p3
VAnder Herrera 
p4
sS'offensive_data'
p5
(lp6
(lp7
a(lp8
V2018/2019
p9
aVManchester Un..
p10
aVEPL
p11
aV6(4)
p12
aV546
p13
aV1
aV1
aV1
aV-
aV1.1
p14
aV86.1
p15
aV0.3
p16
aV2
aV6.83
p17
aa(lp18
V2018/2019
p19
aVManchester Un..
p20
aVUCL
p21
aV1
aV79
p22
aV-
aV-
aV1
aV-
aV-
aV95.8
p23
aV-
aV-
aV6.36
p24
aa(lp25
V2017/2018
p26
aVManchester Un..
p27
aVUCL
p28
aV5(1)
p29
aV375
p30
aV-
aV-
aV-
aV-
aV0.3
p31
aV91.6
p32
aV0.5
p33
aV-
aV7.05
p34
aa(lp35
V2017/2018
p36
aVManchester Un..
p37
aVEPL
p38
aV13(13)
p39
aV1262
p40
aV-
aV2
aV5
aV-
aV0.5
p41
aV87.6
p42
aV0.3
p43
aV-
aV6.60
p44
aa(lp45
V2016/2017
p46
aVManchester Un..
p47
aVEPL
p48
aV27(4)
p49
aV2467
p50
aV1
aV6
aV5
aV1
aV1.2
p51
aV87.6
p52
aV0.9
p53
aV5
aV7.36
p54
aa(lp55
V2016/2017
p56
aVManchester Un..
p57
aVUEL
p58
aV9
aV810
p59
aV-
aV1
aV5
aV-
aV0.6
p60
aV86.2
p61
aV0.6
p62
aV-
aV7.25
p63
aa(lp64
V2015/2016
p65
aVManchester Un..
p66
aVUEL
p67
aV2(1)
p68
aV173
p69
aV1
aV-
aV-
aV-
aV1.7
p70
aV91.5
p71
aV-
aV-
aV6.82
p72
aa(lp73
V2015/2016
p74
aVManchester Un..
p75
aVUCL
p76
aV2(1)
p77
aV166
p78
aV-
aV-
aV1
aV-
aV1
aV94.5
p79
aV0.3
p80
aV-
aV6.75
p81
aa(lp82
V2015/2016
p83
aVManchester Un..
p84
aVEPL
p85
aV17(10)
p86
aV1538
p87
aV3
aV2
aV4
aV-
aV0.9
p88
aV84
p89
aV0.3
p90
aV2
aV6.77
p91
aa(lp92
V2014/2015
p93
aVManchester Un..
p94
aVEPL
p95
aV19(7)
p96
aV1869
p97
aV6
aV4
aV6
aV-
aV1.4
p98
aV89.2
p99
aV0.5
p100
aV4
aV7.33
p101
aa(lp102
V2013/2014
p103
aVAthletic Bilb..
p104
aVSLL
p105
aV31(2)
p106
aV2577
p107
aV5
aV5
aV7
aV-
aV2.1
p108
aV80.6
p109
aV1
aV3
aV7.40
p110
aa(lp111
V2012/2013
p112
aVAthletic Bilb..
p113
aVSLL
p114
aV29
p115
aV2436
p116
aV1
aV2
aV10
p117
aV2
aV1.9
p118
aV80.9
p119
aV0.7
p120
aV2
aV7.14
p121
aa(lp122
V2012/2013
p123
aVAthletic Bilb..
p124
aVUEL
p125
aV2(1)
p126
aV208
p127
aV1
aV-
aV2
aV-
aV0.7
p128
aV80.5
p129
aV0.3
p130
aV1
aV7.15
p131
aa(lp132
V2011/2012
p133
aVAthletic Bilb..
p134
aVSLL
p135
aV25(7)
p136
aV2163
p137
aV1
aV7
aV10
p138
aV-
aV1.2
p139
aV81.1
p140
aV0.5
p141
aV2
aV7.05
p142
aa(lp143
V2010/2011
p144
aVReal Zaragoza
p145
aVSLL
p146
aV30(3)
p147
aV2625
p148
aV2
aV3
aV13
p149
aV2
aV1.7
p150
aV75.5
p151
aV1.2
p152
aV-
aV7.12
p153
aa(lp154
V2009/2010
p155
aVReal Zaragoza
p156
aVSLL
p157
aV23(7)
p158
aV2223
p159
aV2
aV-
aV9
aV1
aV1.1
p160
aV76.7
p161
aV0.8
p162
aV2
aV6.88
p163
aa(lp164
VTotal / Average
p165
aV
aV
aV302
p166
aV21517
p167
aV24
p168
aV33
p169
aV79
p170
aV6
aV1.3
p171
aV83
p172
aV0.7
p173
aV23
p174
aV7.07
p175
aasS'url'
p176
S'https://www.whoscored.com/Players/71174/History/'
p177
sS'passing_data'
p178
(lp179
(lp180
a(lp181
V2018/2019
p182
aVManchester Un..
p183
aVEPL
p184
aV6(4)
p185
aV546
p186
aV1
aV1
aV1
aV-
aV1.1
p187
aV86.1
p188
aV0.3
p189
aV2
aV6.83
p190
aa(lp191
V2018/2019
p192
aVManchester Un..
p193
aVUCL
p194
aV1
aV79
p195
aV-
aV-
aV1
aV-
aV-
aV95.8
p196
aV-
aV-
aV6.36
p197
aa(lp198
V2017/2018
p199
aVManchester Un..
p200
aVUCL
p201
aV5(1)
p202
aV375
p203
aV-
aV-
aV-
aV-
aV0.3
p204
aV91.6
p205
aV0.5
p206
aV-
aV7.05
p207
aa(lp208
V2017/2018
p209
aVManchester Un..
p210
aVEPL
p211
aV13(13)
p212
aV1262
p213
aV-
aV2
aV5
aV-
aV0.5
p214
aV87.6
p215
aV0.3
p216
aV-
aV6.60
p217
aa(lp218
V2016/2017
p219
aVManchester Un..
p220
aVEPL
p221
aV27(4)
p222
aV2467
p223
aV1
aV6
aV5
aV1
aV1.2
p224
aV87.6
p225
aV0.9
p226
aV5
aV7.36
p227
aa(lp228
V2016/2017
p229
aVManchester Un..
p230
aVUEL
p231
aV9
aV810
p232
aV-
aV1
aV5
aV-
aV0.6
p233
aV86.2
p234
aV0.6
p235
aV-
aV7.25
p236
aa(lp237
V2015/2016
p238
aVManchester Un..
p239
aVUEL
p240
aV2(1)
p241
aV173
p242
aV1
aV-
aV-
aV-
aV1.7
p243
aV91.5
p244
aV-
aV-
aV6.82
p245
aa(lp246
V2015/2016
p247
aVManchester Un..
p248
aVUCL
p249
aV2(1)
p250
aV166
p251
aV-
aV-
aV1
aV-
aV1
aV94.5
p252
aV0.3
p253
aV-
aV6.75
p254
aa(lp255
V2015/2016
p256
aVManchester Un..
p257
aVEPL
p258
aV17(10)
p259
aV1538
p260
aV3
aV2
aV4
aV-
aV0.9
p261
aV84
p262
aV0.3
p263
aV2
aV6.77
p264
aa(lp265
V2014/2015
p266
aVManchester Un..
p267
aVEPL
p268
aV19(7)
p269
aV1869
p270
aV6
aV4
aV6
aV-
aV1.4
p271
aV89.2
p272
aV0.5
p273
aV4
aV7.33
p274
aa(lp275
V2013/2014
p276
aVAthletic Bilb..
p277
aVSLL
p278
aV31(2)
p279
aV2577
p280
aV5
aV5
aV7
aV-
aV2.1
p281
aV80.6
p282
aV1
aV3
aV7.40
p283
aa(lp284
V2012/2013
p285
aVAthletic Bilb..
p286
aVSLL
p287
aV29
p288
aV2436
p289
aV1
aV2
aV10
p290
aV2
aV1.9
p291
aV80.9
p292
aV0.7
p293
aV2
aV7.14
p294
aa(lp295
V2012/2013
p296
aVAthletic Bilb..
p297
aVUEL
p298
aV2(1)
p299
aV208
p300
aV1
aV-
aV2
aV-
aV0.7
p301
aV80.5
p302
aV0.3
p303
aV1
aV7.15
p304
aa(lp305
V2011/2012
p306
aVAthletic Bilb..
p307
aVSLL
p308
aV25(7)
p309
aV2163
p310
aV1
aV7
aV10
p311
aV-
aV1.2
p312
aV81.1
p313
aV0.5
p314
aV2
aV7.05
p315
aa(lp316
V2010/2011
p317
aVReal Zaragoza
p318
aVSLL
p319
aV30(3)
p320
aV2625
p321
aV2
aV3
aV13
p322
aV2
aV1.7
p323
aV75.5
p324
aV1.2
p325
aV-
aV7.12
p326
aa(lp327
V2009/2010
p328
aVReal Zaragoza
p329
aVSLL
p330
aV23(7)
p331
aV2223
p332
aV2
aV-
aV9
aV1
aV1.1
p333
aV76.7
p334
aV0.8
p335
aV2
aV6.88
p336
aa(lp337
VTotal / Average
p338
aV
aV
aV302
p339
aV21517
p340
aV24
p341
aV33
p342
aV79
p343
aV6
aV1.3
p344
aV83
p345
aV0.7
p346
aV23
p347
aV7.07
p348
aasS'defensive_data'
p349
(lp350
(lp351
a(lp352
V2018/2019
p353
aVManchester Un..
p354
aVEPL
p355
aV6(4)
p356
aV546
p357
aV1
aV1
aV1
aV-
aV1.1
p358
aV86.1
p359
aV0.3
p360
aV2
aV6.83
p361
aa(lp362
V2018/2019
p363
aVManchester Un..
p364
aVUCL
p365
aV1
aV79
p366
aV-
aV-
aV1
aV-
aV-
aV95.8
p367
aV-
aV-
aV6.36
p368
aa(lp369
V2017/2018
p370
aVManchester Un..
p371
aVUCL
p372
aV5(1)
p373
aV375
p374
aV-
aV-
aV-
aV-
aV0.3
p375
aV91.6
p376
aV0.5
p377
aV-
aV7.05
p378
aa(lp379
V2017/2018
p380
aVManchester Un..
p381
aVEPL
p382
aV13(13)
p383
aV1262
p384
aV-
aV2
aV5
aV-
aV0.5
p385
aV87.6
p386
aV0.3
p387
aV-
aV6.60
p388
aa(lp389
V2016/2017
p390
aVManchester Un..
p391
aVEPL
p392
aV27(4)
p393
aV2467
p394
aV1
aV6
aV5
aV1
aV1.2
p395
aV87.6
p396
aV0.9
p397
aV5
aV7.36
p398
aa(lp399
V2016/2017
p400
aVManchester Un..
p401
aVUEL
p402
aV9
aV810
p403
aV-
aV1
aV5
aV-
aV0.6
p404
aV86.2
p405
aV0.6
p406
aV-
aV7.25
p407
aa(lp408
V2015/2016
p409
aVManchester Un..
p410
aVUEL
p411
aV2(1)
p412
aV173
p413
aV1
aV-
aV-
aV-
aV1.7
p414
aV91.5
p415
aV-
aV-
aV6.82
p416
aa(lp417
V2015/2016
p418
aVManchester Un..
p419
aVUCL
p420
aV2(1)
p421
aV166
p422
aV-
aV-
aV1
aV-
aV1
aV94.5
p423
aV0.3
p424
aV-
aV6.75
p425
aa(lp426
V2015/2016
p427
aVManchester Un..
p428
aVEPL
p429
aV17(10)
p430
aV1538
p431
aV3
aV2
aV4
aV-
aV0.9
p432
aV84
p433
aV0.3
p434
aV2
aV6.77
p435
aa(lp436
V2014/2015
p437
aVManchester Un..
p438
aVEPL
p439
aV19(7)
p440
aV1869
p441
aV6
aV4
aV6
aV-
aV1.4
p442
aV89.2
p443
aV0.5
p444
aV4
aV7.33
p445
aa(lp446
V2013/2014
p447
aVAthletic Bilb..
p448
aVSLL
p449
aV31(2)
p450
aV2577
p451
aV5
aV5
aV7
aV-
aV2.1
p452
aV80.6
p453
aV1
aV3
aV7.40
p454
aa(lp455
V2012/2013
p456
aVAthletic Bilb..
p457
aVSLL
p458
aV29
p459
aV2436
p460
aV1
aV2
aV10
p461
aV2
aV1.9
p462
aV80.9
p463
aV0.7
p464
aV2
aV7.14
p465
aa(lp466
V2012/2013
p467
aVAthletic Bilb..
p468
aVUEL
p469
aV2(1)
p470
aV208
p471
aV1
aV-
aV2
aV-
aV0.7
p472
aV80.5
p473
aV0.3
p474
aV1
aV7.15
p475
aa(lp476
V2011/2012
p477
aVAthletic Bilb..
p478
aVSLL
p479
aV25(7)
p480
aV2163
p481
aV1
aV7
aV10
p482
aV-
aV1.2
p483
aV81.1
p484
aV0.5
p485
aV2
aV7.05
p486
aa(lp487
V2010/2011
p488
aVReal Zaragoza
p489
aVSLL
p490
aV30(3)
p491
aV2625
p492
aV2
aV3
aV13
p493
aV2
aV1.7
p494
aV75.5
p495
aV1.2
p496
aV-
aV7.12
p497
aa(lp498
V2009/2010
p499
aVReal Zaragoza
p500
aVSLL
p501
aV23(7)
p502
aV2223
p503
aV2
aV-
aV9
aV1
aV1.1
p504
aV76.7
p505
aV0.8
p506
aV2
aV6.88
p507
aa(lp508
VTotal / Average
p509
aV
aV
aV302
p510
aV21517
p511
aV24
p512
aV33
p513
aV79
p514
aV6
aV1.3
p515
aV83
p516
aV0.7
p517
aV23
p518
aV7.07
p519
aasS'sumary_data'
p520
(lp521
(lp522
a(lp523
V2018/2019
p524
aVManchester Un..
p525
aVEPL
p526
aV6(4)
p527
aV546
p528
aV1
aV1
aV1
aV-
aV1.1
p529
aV86.1
p530
aV0.3
p531
aV2
aV6.83
p532
aa(lp533
V2018/2019
p534
aVManchester Un..
p535
aVUCL
p536
aV1
aV79
p537
aV-
aV-
aV1
aV-
aV-
aV95.8
p538
aV-
aV-
aV6.36
p539
aa(lp540
V2017/2018
p541
aVManchester Un..
p542
aVUCL
p543
aV5(1)
p544
aV375
p545
aV-
aV-
aV-
aV-
aV0.3
p546
aV91.6
p547
aV0.5
p548
aV-
aV7.05
p549
aa(lp550
V2017/2018
p551
aVManchester Un..
p552
aVEPL
p553
aV13(13)
p554
aV1262
p555
aV-
aV2
aV5
aV-
aV0.5
p556
aV87.6
p557
aV0.3
p558
aV-
aV6.60
p559
aa(lp560
V2016/2017
p561
aVManchester Un..
p562
aVEPL
p563
aV27(4)
p564
aV2467
p565
aV1
aV6
aV5
aV1
aV1.2
p566
aV87.6
p567
aV0.9
p568
aV5
aV7.36
p569
aa(lp570
V2016/2017
p571
aVManchester Un..
p572
aVUEL
p573
aV9
aV810
p574
aV-
aV1
aV5
aV-
aV0.6
p575
aV86.2
p576
aV0.6
p577
aV-
aV7.25
p578
aa(lp579
V2015/2016
p580
aVManchester Un..
p581
aVUEL
p582
aV2(1)
p583
aV173
p584
aV1
aV-
aV-
aV-
aV1.7
p585
aV91.5
p586
aV-
aV-
aV6.82
p587
aa(lp588
V2015/2016
p589
aVManchester Un..
p590
aVUCL
p591
aV2(1)
p592
aV166
p593
aV-
aV-
aV1
aV-
aV1
aV94.5
p594
aV0.3
p595
aV-
aV6.75
p596
aa(lp597
V2015/2016
p598
aVManchester Un..
p599
aVEPL
p600
aV17(10)
p601
aV1538
p602
aV3
aV2
aV4
aV-
aV0.9
p603
aV84
p604
aV0.3
p605
aV2
aV6.77
p606
aa(lp607
V2014/2015
p608
aVManchester Un..
p609
aVEPL
p610
aV19(7)
p611
aV1869
p612
aV6
aV4
aV6
aV-
aV1.4
p613
aV89.2
p614
aV0.5
p615
aV4
aV7.33
p616
aa(lp617
V2013/2014
p618
aVAthletic Bilb..
p619
aVSLL
p620
aV31(2)
p621
aV2577
p622
aV5
aV5
aV7
aV-
aV2.1
p623
aV80.6
p624
aV1
aV3
aV7.40
p625
aa(lp626
V2012/2013
p627
aVAthletic Bilb..
p628
aVSLL
p629
aV29
p630
aV2436
p631
aV1
aV2
aV10
p632
aV2
aV1.9
p633
aV80.9
p634
aV0.7
p635
aV2
aV7.14
p636
aa(lp637
V2012/2013
p638
aVAthletic Bilb..
p639
aVUEL
p640
aV2(1)
p641
aV208
p642
aV1
aV-
aV2
aV-
aV0.7
p643
aV80.5
p644
aV0.3
p645
aV1
aV7.15
p646
aa(lp647
V2011/2012
p648
aVAthletic Bilb..
p649
aVSLL
p650
aV25(7)
p651
aV2163
p652
aV1
aV7
aV10
p653
aV-
aV1.2
p654
aV81.1
p655
aV0.5
p656
aV2
aV7.05
p657
aa(lp658
V2010/2011
p659
aVReal Zaragoza
p660
aVSLL
p661
aV30(3)
p662
aV2625
p663
aV2
aV3
aV13
p664
aV2
aV1.7
p665
aV75.5
p666
aV1.2
p667
aV-
aV7.12
p668
aa(lp669
V2009/2010
p670
aVReal Zaragoza
p671
aVSLL
p672
aV23(7)
p673
aV2223
p674
aV2
aV-
aV9
aV1
aV1.1
p675
aV76.7
p676
aV0.8
p677
aV2
aV6.88
p678
aa(lp679
VTotal / Average
p680
aV
aV
aV302
p681
aV21517
p682
aV24
p683
aV33
p684
aV79
p685
aV6
aV1.3
p686
aV83
p687
aV0.7
p688
aV23
p689
aV7.07
p690
aasS'id'
p691
V71174
p692
sb.