(i__main__
Player
p1
(dp2
S'name'
p3
VChris Smalling 
p4
sS'offensive_data'
p5
(lp6
(lp7
a(lp8
V2018/2019
p9
aVManchester Un..
p10
aVEPL
p11
aV13
p12
aV1138
p13
aV1
aV-
aV1
aV-
aV0.5
p14
aV86.6
p15
aV4.2
p16
aV1
aV6.81
p17
aa(lp18
V2018/2019
p19
aVManchester Un..
p20
aVUCL
p21
aV5
aV450
p22
aV-
aV-
aV-
aV-
aV0.6
p23
aV85.5
p24
aV4
aV-
aV7.08
p25
aa(lp26
V2017/2018
p27
aVManchester Un..
p28
aVUCL
p29
aV8
aV720
p30
aV-
aV-
aV-
aV-
aV0.9
p31
aV93.2
p32
aV2.4
p33
aV-
aV6.84
p34
aa(lp35
V2017/2018
p36
aVManchester Un..
p37
aVEPL
p38
aV28(1)
p39
aV2536
p40
aV4
aV-
aV4
aV-
aV0.4
p41
aV87.6
p42
aV3.7
p43
aV1
aV7.24
p44
aa(lp45
V2016/2017
p46
aVManchester Un..
p47
aVEPL
p48
aV13(5)
p49
aV1215
p50
aV1
aV1
aV-
aV-
aV0.4
p51
aV88.4
p52
aV2.7
p53
aV-
aV6.72
p54
aa(lp55
V2016/2017
p56
aVManchester Un..
p57
aVUEL
p58
aV8(2)
p59
aV678
p60
aV-
aV1
aV-
aV-
aV0.2
p61
aV83.9
p62
aV2.5
p63
aV-
aV6.95
p64
aa(lp65
V2015/2016
p66
aVManchester Un..
p67
aVUEL
p68
aV3
aV270
p69
aV-
aV-
aV1
aV-
aV-
aV83
p70
aV1.3
p71
aV-
aV6.78
p72
aa(lp73
V2015/2016
p74
aVManchester Un..
p75
aVUCL
p76
aV6
aV540
p77
aV1
aV-
aV1
aV-
aV0.7
p78
aV88
p79
aV3.8
p80
aV2
aV7.42
p81
aa(lp82
V2015/2016
p83
aVManchester Un..
p84
aVEPL
p85
aV35
p86
aV3150
p87
aV-
aV1
aV8
aV-
aV0.5
p88
aV82.4
p89
aV3.5
p90
aV1
aV7.17
p91
aa(lp92
V2014/2015
p93
aVManchester Un..
p94
aVEPL
p95
aV21(4)
p96
aV1880
p97
aV4
aV-
aV1
aV1
aV0.7
p98
aV88.6
p99
aV2.8
p100
aV2
aV7.34
p101
aa(lp102
V2016
p103
aVEngland
p104
aVUEC
p105
aV4
aV360
p106
aV-
aV-
aV-
aV-
aV0.8
p107
aV92.1
p108
aV8
aV-
aV7.26
p109
aa(lp110
V2013/2014
p111
aVManchester Un..
p112
aVUCL
p113
aV6(1)
p114
aV571
p115
aV1
aV-
aV-
aV-
aV0.4
p116
aV73.7
p117
aV2.7
p118
aV-
aV7.08
p119
aa(lp120
V2013/2014
p121
aVManchester Un..
p122
aVEPL
p123
aV21(4)
p124
aV1938
p125
aV1
aV-
aV2
aV-
aV0.5
p126
aV82.7
p127
aV2.5
p128
aV-
aV7.16
p129
aa(lp130
V2014
p131
aVEngland
p132
aVWC
p133
aV1
aV90
p134
aV-
aV-
aV-
aV-
aV-
aV86.4
p135
aV3
aV-
aV7.47
p136
aa(lp137
V2012/2013
p138
aVManchester Un..
p139
aVUCL
p140
aV2
aV180
p141
aV-
aV-
aV1
aV-
aV0.5
p142
aV94
p143
aV0.5
p144
aV-
aV6.39
p145
aa(lp146
V2012/2013
p147
aVManchester Un..
p148
aVEPL
p149
aV10(5)
p150
aV1013
p151
aV-
aV-
aV1
aV-
aV0.5
p152
aV85
p153
aV2
aV-
aV6.85
p154
aa(lp155
V2011/2012
p156
aVManchester Un..
p157
aVUCL
p158
aV3(1)
p159
aV278
p160
aV-
aV-
aV-
aV-
aV0.3
p161
aV88.8
p162
aV2.8
p163
aV-
aV6.58
p164
aa(lp165
V2011/2012
p166
aVManchester Un..
p167
aVEPL
p168
aV14(5)
p169
aV1294
p170
aV1
aV-
aV1
aV-
aV0.4
p171
aV83.1
p172
aV1.2
p173
aV-
aV6.84
p174
aa(lp175
V2010/2011
p176
aVManchester Un..
p177
aVUCL
p178
aV7(2)
p179
aV671
p180
aV-
aV-
aV-
aV-
aV0.4
p181
aV83.7
p182
aV1.7
p183
aV-
aV6.89
p184
aa(lp185
V2010/2011
p186
aVManchester Un..
p187
aVEPL
p188
aV11(5)
p189
aV1082
p190
aV-
aV-
aV-
aV-
aV0.6
p191
aV77.5
p192
aV3.1
p193
aV-
aV7.02
p194
aa(lp195
V2009/2010
p196
aVFulham
p197
aVEPL
p198
aV9(3)
p199
aV870
p200
aV-
aV-
aV-
aV-
aV0.4
p201
aV73.7
p202
aV2.3
p203
aV-
aV6.47
p204
aa(lp205
VTotal / Average
p206
aV
aV
aV266
p207
aV20924
p208
aV14
p209
aV3
aV21
p210
aV1
aV0.5
p211
aV84.4
p212
aV2.9
p213
aV7
aV7.02
p214
aasS'url'
p215
S'https://www.whoscored.com/Players/71345/History/'
p216
sS'passing_data'
p217
(lp218
(lp219
a(lp220
V2018/2019
p221
aVManchester Un..
p222
aVEPL
p223
aV13
p224
aV1138
p225
aV1
aV-
aV1
aV-
aV0.5
p226
aV86.6
p227
aV4.2
p228
aV1
aV6.81
p229
aa(lp230
V2018/2019
p231
aVManchester Un..
p232
aVUCL
p233
aV5
aV450
p234
aV-
aV-
aV-
aV-
aV0.6
p235
aV85.5
p236
aV4
aV-
aV7.08
p237
aa(lp238
V2017/2018
p239
aVManchester Un..
p240
aVUCL
p241
aV8
aV720
p242
aV-
aV-
aV-
aV-
aV0.9
p243
aV93.2
p244
aV2.4
p245
aV-
aV6.84
p246
aa(lp247
V2017/2018
p248
aVManchester Un..
p249
aVEPL
p250
aV28(1)
p251
aV2536
p252
aV4
aV-
aV4
aV-
aV0.4
p253
aV87.6
p254
aV3.7
p255
aV1
aV7.24
p256
aa(lp257
V2016/2017
p258
aVManchester Un..
p259
aVEPL
p260
aV13(5)
p261
aV1215
p262
aV1
aV1
aV-
aV-
aV0.4
p263
aV88.4
p264
aV2.7
p265
aV-
aV6.72
p266
aa(lp267
V2016/2017
p268
aVManchester Un..
p269
aVUEL
p270
aV8(2)
p271
aV678
p272
aV-
aV1
aV-
aV-
aV0.2
p273
aV83.9
p274
aV2.5
p275
aV-
aV6.95
p276
aa(lp277
V2015/2016
p278
aVManchester Un..
p279
aVUEL
p280
aV3
aV270
p281
aV-
aV-
aV1
aV-
aV-
aV83
p282
aV1.3
p283
aV-
aV6.78
p284
aa(lp285
V2015/2016
p286
aVManchester Un..
p287
aVUCL
p288
aV6
aV540
p289
aV1
aV-
aV1
aV-
aV0.7
p290
aV88
p291
aV3.8
p292
aV2
aV7.42
p293
aa(lp294
V2015/2016
p295
aVManchester Un..
p296
aVEPL
p297
aV35
p298
aV3150
p299
aV-
aV1
aV8
aV-
aV0.5
p300
aV82.4
p301
aV3.5
p302
aV1
aV7.17
p303
aa(lp304
V2014/2015
p305
aVManchester Un..
p306
aVEPL
p307
aV21(4)
p308
aV1880
p309
aV4
aV-
aV1
aV1
aV0.7
p310
aV88.6
p311
aV2.8
p312
aV2
aV7.34
p313
aa(lp314
V2016
p315
aVEngland
p316
aVUEC
p317
aV4
aV360
p318
aV-
aV-
aV-
aV-
aV0.8
p319
aV92.1
p320
aV8
aV-
aV7.26
p321
aa(lp322
V2013/2014
p323
aVManchester Un..
p324
aVUCL
p325
aV6(1)
p326
aV571
p327
aV1
aV-
aV-
aV-
aV0.4
p328
aV73.7
p329
aV2.7
p330
aV-
aV7.08
p331
aa(lp332
V2013/2014
p333
aVManchester Un..
p334
aVEPL
p335
aV21(4)
p336
aV1938
p337
aV1
aV-
aV2
aV-
aV0.5
p338
aV82.7
p339
aV2.5
p340
aV-
aV7.16
p341
aa(lp342
V2014
p343
aVEngland
p344
aVWC
p345
aV1
aV90
p346
aV-
aV-
aV-
aV-
aV-
aV86.4
p347
aV3
aV-
aV7.47
p348
aa(lp349
V2012/2013
p350
aVManchester Un..
p351
aVUCL
p352
aV2
aV180
p353
aV-
aV-
aV1
aV-
aV0.5
p354
aV94
p355
aV0.5
p356
aV-
aV6.39
p357
aa(lp358
V2012/2013
p359
aVManchester Un..
p360
aVEPL
p361
aV10(5)
p362
aV1013
p363
aV-
aV-
aV1
aV-
aV0.5
p364
aV85
p365
aV2
aV-
aV6.85
p366
aa(lp367
V2011/2012
p368
aVManchester Un..
p369
aVUCL
p370
aV3(1)
p371
aV278
p372
aV-
aV-
aV-
aV-
aV0.3
p373
aV88.8
p374
aV2.8
p375
aV-
aV6.58
p376
aa(lp377
V2011/2012
p378
aVManchester Un..
p379
aVEPL
p380
aV14(5)
p381
aV1294
p382
aV1
aV-
aV1
aV-
aV0.4
p383
aV83.1
p384
aV1.2
p385
aV-
aV6.84
p386
aa(lp387
V2010/2011
p388
aVManchester Un..
p389
aVUCL
p390
aV7(2)
p391
aV671
p392
aV-
aV-
aV-
aV-
aV0.4
p393
aV83.7
p394
aV1.7
p395
aV-
aV6.89
p396
aa(lp397
V2010/2011
p398
aVManchester Un..
p399
aVEPL
p400
aV11(5)
p401
aV1082
p402
aV-
aV-
aV-
aV-
aV0.6
p403
aV77.5
p404
aV3.1
p405
aV-
aV7.02
p406
aa(lp407
V2009/2010
p408
aVFulham
p409
aVEPL
p410
aV9(3)
p411
aV870
p412
aV-
aV-
aV-
aV-
aV0.4
p413
aV73.7
p414
aV2.3
p415
aV-
aV6.47
p416
aa(lp417
VTotal / Average
p418
aV
aV
aV266
p419
aV20924
p420
aV14
p421
aV3
aV21
p422
aV1
aV0.5
p423
aV84.4
p424
aV2.9
p425
aV7
aV7.02
p426
aasS'defensive_data'
p427
(lp428
(lp429
a(lp430
V2018/2019
p431
aVManchester Un..
p432
aVEPL
p433
aV13
p434
aV1138
p435
aV1
aV-
aV1
aV-
aV0.5
p436
aV86.6
p437
aV4.2
p438
aV1
aV6.81
p439
aa(lp440
V2018/2019
p441
aVManchester Un..
p442
aVUCL
p443
aV5
aV450
p444
aV-
aV-
aV-
aV-
aV0.6
p445
aV85.5
p446
aV4
aV-
aV7.08
p447
aa(lp448
V2017/2018
p449
aVManchester Un..
p450
aVUCL
p451
aV8
aV720
p452
aV-
aV-
aV-
aV-
aV0.9
p453
aV93.2
p454
aV2.4
p455
aV-
aV6.84
p456
aa(lp457
V2017/2018
p458
aVManchester Un..
p459
aVEPL
p460
aV28(1)
p461
aV2536
p462
aV4
aV-
aV4
aV-
aV0.4
p463
aV87.6
p464
aV3.7
p465
aV1
aV7.24
p466
aa(lp467
V2016/2017
p468
aVManchester Un..
p469
aVEPL
p470
aV13(5)
p471
aV1215
p472
aV1
aV1
aV-
aV-
aV0.4
p473
aV88.4
p474
aV2.7
p475
aV-
aV6.72
p476
aa(lp477
V2016/2017
p478
aVManchester Un..
p479
aVUEL
p480
aV8(2)
p481
aV678
p482
aV-
aV1
aV-
aV-
aV0.2
p483
aV83.9
p484
aV2.5
p485
aV-
aV6.95
p486
aa(lp487
V2015/2016
p488
aVManchester Un..
p489
aVUEL
p490
aV3
aV270
p491
aV-
aV-
aV1
aV-
aV-
aV83
p492
aV1.3
p493
aV-
aV6.78
p494
aa(lp495
V2015/2016
p496
aVManchester Un..
p497
aVUCL
p498
aV6
aV540
p499
aV1
aV-
aV1
aV-
aV0.7
p500
aV88
p501
aV3.8
p502
aV2
aV7.42
p503
aa(lp504
V2015/2016
p505
aVManchester Un..
p506
aVEPL
p507
aV35
p508
aV3150
p509
aV-
aV1
aV8
aV-
aV0.5
p510
aV82.4
p511
aV3.5
p512
aV1
aV7.17
p513
aa(lp514
V2014/2015
p515
aVManchester Un..
p516
aVEPL
p517
aV21(4)
p518
aV1880
p519
aV4
aV-
aV1
aV1
aV0.7
p520
aV88.6
p521
aV2.8
p522
aV2
aV7.34
p523
aa(lp524
V2016
p525
aVEngland
p526
aVUEC
p527
aV4
aV360
p528
aV-
aV-
aV-
aV-
aV0.8
p529
aV92.1
p530
aV8
aV-
aV7.26
p531
aa(lp532
V2013/2014
p533
aVManchester Un..
p534
aVUCL
p535
aV6(1)
p536
aV571
p537
aV1
aV-
aV-
aV-
aV0.4
p538
aV73.7
p539
aV2.7
p540
aV-
aV7.08
p541
aa(lp542
V2013/2014
p543
aVManchester Un..
p544
aVEPL
p545
aV21(4)
p546
aV1938
p547
aV1
aV-
aV2
aV-
aV0.5
p548
aV82.7
p549
aV2.5
p550
aV-
aV7.16
p551
aa(lp552
V2014
p553
aVEngland
p554
aVWC
p555
aV1
aV90
p556
aV-
aV-
aV-
aV-
aV-
aV86.4
p557
aV3
aV-
aV7.47
p558
aa(lp559
V2012/2013
p560
aVManchester Un..
p561
aVUCL
p562
aV2
aV180
p563
aV-
aV-
aV1
aV-
aV0.5
p564
aV94
p565
aV0.5
p566
aV-
aV6.39
p567
aa(lp568
V2012/2013
p569
aVManchester Un..
p570
aVEPL
p571
aV10(5)
p572
aV1013
p573
aV-
aV-
aV1
aV-
aV0.5
p574
aV85
p575
aV2
aV-
aV6.85
p576
aa(lp577
V2011/2012
p578
aVManchester Un..
p579
aVUCL
p580
aV3(1)
p581
aV278
p582
aV-
aV-
aV-
aV-
aV0.3
p583
aV88.8
p584
aV2.8
p585
aV-
aV6.58
p586
aa(lp587
V2011/2012
p588
aVManchester Un..
p589
aVEPL
p590
aV14(5)
p591
aV1294
p592
aV1
aV-
aV1
aV-
aV0.4
p593
aV83.1
p594
aV1.2
p595
aV-
aV6.84
p596
aa(lp597
V2010/2011
p598
aVManchester Un..
p599
aVUCL
p600
aV7(2)
p601
aV671
p602
aV-
aV-
aV-
aV-
aV0.4
p603
aV83.7
p604
aV1.7
p605
aV-
aV6.89
p606
aa(lp607
V2010/2011
p608
aVManchester Un..
p609
aVEPL
p610
aV11(5)
p611
aV1082
p612
aV-
aV-
aV-
aV-
aV0.6
p613
aV77.5
p614
aV3.1
p615
aV-
aV7.02
p616
aa(lp617
V2009/2010
p618
aVFulham
p619
aVEPL
p620
aV9(3)
p621
aV870
p622
aV-
aV-
aV-
aV-
aV0.4
p623
aV73.7
p624
aV2.3
p625
aV-
aV6.47
p626
aa(lp627
VTotal / Average
p628
aV
aV
aV266
p629
aV20924
p630
aV14
p631
aV3
aV21
p632
aV1
aV0.5
p633
aV84.4
p634
aV2.9
p635
aV7
aV7.02
p636
aasS'sumary_data'
p637
(lp638
(lp639
a(lp640
V2018/2019
p641
aVManchester Un..
p642
aVEPL
p643
aV13
p644
aV1138
p645
aV1
aV-
aV1
aV-
aV0.5
p646
aV86.6
p647
aV4.2
p648
aV1
aV6.81
p649
aa(lp650
V2018/2019
p651
aVManchester Un..
p652
aVUCL
p653
aV5
aV450
p654
aV-
aV-
aV-
aV-
aV0.6
p655
aV85.5
p656
aV4
aV-
aV7.08
p657
aa(lp658
V2017/2018
p659
aVManchester Un..
p660
aVUCL
p661
aV8
aV720
p662
aV-
aV-
aV-
aV-
aV0.9
p663
aV93.2
p664
aV2.4
p665
aV-
aV6.84
p666
aa(lp667
V2017/2018
p668
aVManchester Un..
p669
aVEPL
p670
aV28(1)
p671
aV2536
p672
aV4
aV-
aV4
aV-
aV0.4
p673
aV87.6
p674
aV3.7
p675
aV1
aV7.24
p676
aa(lp677
V2016/2017
p678
aVManchester Un..
p679
aVEPL
p680
aV13(5)
p681
aV1215
p682
aV1
aV1
aV-
aV-
aV0.4
p683
aV88.4
p684
aV2.7
p685
aV-
aV6.72
p686
aa(lp687
V2016/2017
p688
aVManchester Un..
p689
aVUEL
p690
aV8(2)
p691
aV678
p692
aV-
aV1
aV-
aV-
aV0.2
p693
aV83.9
p694
aV2.5
p695
aV-
aV6.95
p696
aa(lp697
V2015/2016
p698
aVManchester Un..
p699
aVUEL
p700
aV3
aV270
p701
aV-
aV-
aV1
aV-
aV-
aV83
p702
aV1.3
p703
aV-
aV6.78
p704
aa(lp705
V2015/2016
p706
aVManchester Un..
p707
aVUCL
p708
aV6
aV540
p709
aV1
aV-
aV1
aV-
aV0.7
p710
aV88
p711
aV3.8
p712
aV2
aV7.42
p713
aa(lp714
V2015/2016
p715
aVManchester Un..
p716
aVEPL
p717
aV35
p718
aV3150
p719
aV-
aV1
aV8
aV-
aV0.5
p720
aV82.4
p721
aV3.5
p722
aV1
aV7.17
p723
aa(lp724
V2014/2015
p725
aVManchester Un..
p726
aVEPL
p727
aV21(4)
p728
aV1880
p729
aV4
aV-
aV1
aV1
aV0.7
p730
aV88.6
p731
aV2.8
p732
aV2
aV7.34
p733
aa(lp734
V2016
p735
aVEngland
p736
aVUEC
p737
aV4
aV360
p738
aV-
aV-
aV-
aV-
aV0.8
p739
aV92.1
p740
aV8
aV-
aV7.26
p741
aa(lp742
V2013/2014
p743
aVManchester Un..
p744
aVUCL
p745
aV6(1)
p746
aV571
p747
aV1
aV-
aV-
aV-
aV0.4
p748
aV73.7
p749
aV2.7
p750
aV-
aV7.08
p751
aa(lp752
V2013/2014
p753
aVManchester Un..
p754
aVEPL
p755
aV21(4)
p756
aV1938
p757
aV1
aV-
aV2
aV-
aV0.5
p758
aV82.7
p759
aV2.5
p760
aV-
aV7.16
p761
aa(lp762
V2014
p763
aVEngland
p764
aVWC
p765
aV1
aV90
p766
aV-
aV-
aV-
aV-
aV-
aV86.4
p767
aV3
aV-
aV7.47
p768
aa(lp769
V2012/2013
p770
aVManchester Un..
p771
aVUCL
p772
aV2
aV180
p773
aV-
aV-
aV1
aV-
aV0.5
p774
aV94
p775
aV0.5
p776
aV-
aV6.39
p777
aa(lp778
V2012/2013
p779
aVManchester Un..
p780
aVEPL
p781
aV10(5)
p782
aV1013
p783
aV-
aV-
aV1
aV-
aV0.5
p784
aV85
p785
aV2
aV-
aV6.85
p786
aa(lp787
V2011/2012
p788
aVManchester Un..
p789
aVUCL
p790
aV3(1)
p791
aV278
p792
aV-
aV-
aV-
aV-
aV0.3
p793
aV88.8
p794
aV2.8
p795
aV-
aV6.58
p796
aa(lp797
V2011/2012
p798
aVManchester Un..
p799
aVEPL
p800
aV14(5)
p801
aV1294
p802
aV1
aV-
aV1
aV-
aV0.4
p803
aV83.1
p804
aV1.2
p805
aV-
aV6.84
p806
aa(lp807
V2010/2011
p808
aVManchester Un..
p809
aVUCL
p810
aV7(2)
p811
aV671
p812
aV-
aV-
aV-
aV-
aV0.4
p813
aV83.7
p814
aV1.7
p815
aV-
aV6.89
p816
aa(lp817
V2010/2011
p818
aVManchester Un..
p819
aVEPL
p820
aV11(5)
p821
aV1082
p822
aV-
aV-
aV-
aV-
aV0.6
p823
aV77.5
p824
aV3.1
p825
aV-
aV7.02
p826
aa(lp827
V2009/2010
p828
aVFulham
p829
aVEPL
p830
aV9(3)
p831
aV870
p832
aV-
aV-
aV-
aV-
aV0.4
p833
aV73.7
p834
aV2.3
p835
aV-
aV6.47
p836
aa(lp837
VTotal / Average
p838
aV
aV
aV266
p839
aV20924
p840
aV14
p841
aV3
aV21
p842
aV1
aV0.5
p843
aV84.4
p844
aV2.9
p845
aV7
aV7.02
p846
aasS'id'
p847
V71345
p848
sb.