(i__main__
Player
p1
(dp2
S'name'
p3
VAndros Townsend 
p4
sS'offensive_data'
p5
(lp6
(lp7
a(lp8
V2018/2019
p9
aVCrystal Palac..
p10
aVEPL
p11
aV17
p12
aV1495
p13
aV2
aV2
aV1
aV-
aV1.7
p14
aV80.9
p15
aV0.1
p16
aV-
aV6.89
p17
aa(lp18
V2017/2018
p19
aVCrystal Palac..
p20
aVEPL
p21
aV35(1)
p22
aV3129
p23
aV2
aV7
aV3
aV-
aV1.7
p24
aV78.6
p25
aV0.1
p26
aV1
aV7.11
p27
aa(lp28
V2016/2017
p29
aVCrystal Palac..
p30
aVEPL
p31
aV30(6)
p32
aV2529
p33
aV3
aV4
aV4
aV-
aV1.6
p34
aV75.2
p35
aV0.1
p36
aV4
aV7.06
p37
aa(lp38
V2015/2016
p39
aVTottenham
p40
aVUEL
p41
aV2(1)
p42
aV168
p43
aV-
aV1
aV-
aV-
aV0.3
p44
aV88.7
p45
aV-
aV-
aV6.90
p46
aa(lp47
V2015/2016
p48
aVTottenham
p49
aVEPL
p50
aV0(3)
p51
aV64
p52
aV-
aV-
aV-
aV-
aV1.7
p53
aV82.1
p54
aV-
aV-
aV6.60
p55
aa(lp56
V2015/2016
p57
aVNewcastle Uni..
p58
aVEPL
p59
aV12(1)
p60
aV1089
p61
aV4
aV2
aV-
aV-
aV1.8
p62
aV81.3
p63
aV-
aV1
aV7.35
p64
aa(lp65
V2014/2015
p66
aVTottenham
p67
aVUEL
p68
aV6(1)
p69
aV512
p70
aV1
aV1
aV1
aV-
aV1.9
p71
aV86
p72
aV-
aV1
aV7.26
p73
aa(lp74
V2014/2015
p75
aVTottenham
p76
aVEPL
p77
aV10(7)
p78
aV754
p79
aV2
aV2
aV2
aV-
aV0.9
p80
aV80.9
p81
aV0.1
p82
aV-
aV6.54
p83
aa(lp84
V2013/2014
p85
aVTottenham
p86
aVUEL
p87
aV5
aV406
p88
aV-
aV1
aV-
aV-
aV2.8
p89
aV84.5
p90
aV0.2
p91
aV1
aV7.44
p92
aa(lp93
V2013/2014
p94
aVTottenham
p95
aVEPL
p96
aV12(13)
p97
aV1226
p98
aV1
aV-
aV2
aV-
aV2.2
p99
aV84.9
p100
aV-
aV3
aV6.92
p101
aa(lp102
V2012/2013
p103
aVTottenham
p104
aVUEL
p105
aV1(2)
p106
aV68
p107
aV-
aV-
aV1
aV-
aV0.3
p108
aV90.9
p109
aV-
aV-
aV6.13
p110
aa(lp111
V2012/2013
p112
aVTottenham
p113
aVEPL
p114
aV0(5)
p115
aV29
p116
aV-
aV-
aV-
aV-
aV0.4
p117
aV100
p118
aV-
aV-
aV6.26
p119
aa(lp120
V2012/2013
p121
aVQueens Park R..
p122
aVEPL
p123
aV12
p124
aV1019
p125
aV2
aV1
aV2
aV-
aV2.9
p126
aV78.1
p127
aV-
aV3
aV7.37
p128
aa(lp129
VTotal / Average
p130
aV
aV
aV182
p131
aV12488
p132
aV17
p133
aV21
p134
aV16
p135
aV0
aV1.7
p136
aV80.8
p137
aV0.1
p138
aV14
p139
aV7.00
p140
aasS'url'
p141
S'https://www.whoscored.com/Players/71522/History/'
p142
sS'passing_data'
p143
(lp144
(lp145
a(lp146
V2018/2019
p147
aVCrystal Palac..
p148
aVEPL
p149
aV17
p150
aV1495
p151
aV2
aV2
aV1
aV-
aV1.7
p152
aV80.9
p153
aV0.1
p154
aV-
aV6.89
p155
aa(lp156
V2017/2018
p157
aVCrystal Palac..
p158
aVEPL
p159
aV35(1)
p160
aV3129
p161
aV2
aV7
aV3
aV-
aV1.7
p162
aV78.6
p163
aV0.1
p164
aV1
aV7.11
p165
aa(lp166
V2016/2017
p167
aVCrystal Palac..
p168
aVEPL
p169
aV30(6)
p170
aV2529
p171
aV3
aV4
aV4
aV-
aV1.6
p172
aV75.2
p173
aV0.1
p174
aV4
aV7.06
p175
aa(lp176
V2015/2016
p177
aVTottenham
p178
aVUEL
p179
aV2(1)
p180
aV168
p181
aV-
aV1
aV-
aV-
aV0.3
p182
aV88.7
p183
aV-
aV-
aV6.90
p184
aa(lp185
V2015/2016
p186
aVTottenham
p187
aVEPL
p188
aV0(3)
p189
aV64
p190
aV-
aV-
aV-
aV-
aV1.7
p191
aV82.1
p192
aV-
aV-
aV6.60
p193
aa(lp194
V2015/2016
p195
aVNewcastle Uni..
p196
aVEPL
p197
aV12(1)
p198
aV1089
p199
aV4
aV2
aV-
aV-
aV1.8
p200
aV81.3
p201
aV-
aV1
aV7.35
p202
aa(lp203
V2014/2015
p204
aVTottenham
p205
aVUEL
p206
aV6(1)
p207
aV512
p208
aV1
aV1
aV1
aV-
aV1.9
p209
aV86
p210
aV-
aV1
aV7.26
p211
aa(lp212
V2014/2015
p213
aVTottenham
p214
aVEPL
p215
aV10(7)
p216
aV754
p217
aV2
aV2
aV2
aV-
aV0.9
p218
aV80.9
p219
aV0.1
p220
aV-
aV6.54
p221
aa(lp222
V2013/2014
p223
aVTottenham
p224
aVUEL
p225
aV5
aV406
p226
aV-
aV1
aV-
aV-
aV2.8
p227
aV84.5
p228
aV0.2
p229
aV1
aV7.44
p230
aa(lp231
V2013/2014
p232
aVTottenham
p233
aVEPL
p234
aV12(13)
p235
aV1226
p236
aV1
aV-
aV2
aV-
aV2.2
p237
aV84.9
p238
aV-
aV3
aV6.92
p239
aa(lp240
V2012/2013
p241
aVTottenham
p242
aVUEL
p243
aV1(2)
p244
aV68
p245
aV-
aV-
aV1
aV-
aV0.3
p246
aV90.9
p247
aV-
aV-
aV6.13
p248
aa(lp249
V2012/2013
p250
aVTottenham
p251
aVEPL
p252
aV0(5)
p253
aV29
p254
aV-
aV-
aV-
aV-
aV0.4
p255
aV100
p256
aV-
aV-
aV6.26
p257
aa(lp258
V2012/2013
p259
aVQueens Park R..
p260
aVEPL
p261
aV12
p262
aV1019
p263
aV2
aV1
aV2
aV-
aV2.9
p264
aV78.1
p265
aV-
aV3
aV7.37
p266
aa(lp267
VTotal / Average
p268
aV
aV
aV182
p269
aV12488
p270
aV17
p271
aV21
p272
aV16
p273
aV0
aV1.7
p274
aV80.8
p275
aV0.1
p276
aV14
p277
aV7.00
p278
aasS'defensive_data'
p279
(lp280
(lp281
a(lp282
V2018/2019
p283
aVCrystal Palac..
p284
aVEPL
p285
aV17
p286
aV1495
p287
aV2
aV2
aV1
aV-
aV1.7
p288
aV80.9
p289
aV0.1
p290
aV-
aV6.89
p291
aa(lp292
V2017/2018
p293
aVCrystal Palac..
p294
aVEPL
p295
aV35(1)
p296
aV3129
p297
aV2
aV7
aV3
aV-
aV1.7
p298
aV78.6
p299
aV0.1
p300
aV1
aV7.11
p301
aa(lp302
V2016/2017
p303
aVCrystal Palac..
p304
aVEPL
p305
aV30(6)
p306
aV2529
p307
aV3
aV4
aV4
aV-
aV1.6
p308
aV75.2
p309
aV0.1
p310
aV4
aV7.06
p311
aa(lp312
V2015/2016
p313
aVTottenham
p314
aVUEL
p315
aV2(1)
p316
aV168
p317
aV-
aV1
aV-
aV-
aV0.3
p318
aV88.7
p319
aV-
aV-
aV6.90
p320
aa(lp321
V2015/2016
p322
aVTottenham
p323
aVEPL
p324
aV0(3)
p325
aV64
p326
aV-
aV-
aV-
aV-
aV1.7
p327
aV82.1
p328
aV-
aV-
aV6.60
p329
aa(lp330
V2015/2016
p331
aVNewcastle Uni..
p332
aVEPL
p333
aV12(1)
p334
aV1089
p335
aV4
aV2
aV-
aV-
aV1.8
p336
aV81.3
p337
aV-
aV1
aV7.35
p338
aa(lp339
V2014/2015
p340
aVTottenham
p341
aVUEL
p342
aV6(1)
p343
aV512
p344
aV1
aV1
aV1
aV-
aV1.9
p345
aV86
p346
aV-
aV1
aV7.26
p347
aa(lp348
V2014/2015
p349
aVTottenham
p350
aVEPL
p351
aV10(7)
p352
aV754
p353
aV2
aV2
aV2
aV-
aV0.9
p354
aV80.9
p355
aV0.1
p356
aV-
aV6.54
p357
aa(lp358
V2013/2014
p359
aVTottenham
p360
aVUEL
p361
aV5
aV406
p362
aV-
aV1
aV-
aV-
aV2.8
p363
aV84.5
p364
aV0.2
p365
aV1
aV7.44
p366
aa(lp367
V2013/2014
p368
aVTottenham
p369
aVEPL
p370
aV12(13)
p371
aV1226
p372
aV1
aV-
aV2
aV-
aV2.2
p373
aV84.9
p374
aV-
aV3
aV6.92
p375
aa(lp376
V2012/2013
p377
aVTottenham
p378
aVUEL
p379
aV1(2)
p380
aV68
p381
aV-
aV-
aV1
aV-
aV0.3
p382
aV90.9
p383
aV-
aV-
aV6.13
p384
aa(lp385
V2012/2013
p386
aVTottenham
p387
aVEPL
p388
aV0(5)
p389
aV29
p390
aV-
aV-
aV-
aV-
aV0.4
p391
aV100
p392
aV-
aV-
aV6.26
p393
aa(lp394
V2012/2013
p395
aVQueens Park R..
p396
aVEPL
p397
aV12
p398
aV1019
p399
aV2
aV1
aV2
aV-
aV2.9
p400
aV78.1
p401
aV-
aV3
aV7.37
p402
aa(lp403
VTotal / Average
p404
aV
aV
aV182
p405
aV12488
p406
aV17
p407
aV21
p408
aV16
p409
aV0
aV1.7
p410
aV80.8
p411
aV0.1
p412
aV14
p413
aV7.00
p414
aasS'sumary_data'
p415
(lp416
(lp417
a(lp418
V2018/2019
p419
aVCrystal Palac..
p420
aVEPL
p421
aV17
p422
aV1495
p423
aV2
aV2
aV1
aV-
aV1.7
p424
aV80.9
p425
aV0.1
p426
aV-
aV6.89
p427
aa(lp428
V2017/2018
p429
aVCrystal Palac..
p430
aVEPL
p431
aV35(1)
p432
aV3129
p433
aV2
aV7
aV3
aV-
aV1.7
p434
aV78.6
p435
aV0.1
p436
aV1
aV7.11
p437
aa(lp438
V2016/2017
p439
aVCrystal Palac..
p440
aVEPL
p441
aV30(6)
p442
aV2529
p443
aV3
aV4
aV4
aV-
aV1.6
p444
aV75.2
p445
aV0.1
p446
aV4
aV7.06
p447
aa(lp448
V2015/2016
p449
aVTottenham
p450
aVUEL
p451
aV2(1)
p452
aV168
p453
aV-
aV1
aV-
aV-
aV0.3
p454
aV88.7
p455
aV-
aV-
aV6.90
p456
aa(lp457
V2015/2016
p458
aVTottenham
p459
aVEPL
p460
aV0(3)
p461
aV64
p462
aV-
aV-
aV-
aV-
aV1.7
p463
aV82.1
p464
aV-
aV-
aV6.60
p465
aa(lp466
V2015/2016
p467
aVNewcastle Uni..
p468
aVEPL
p469
aV12(1)
p470
aV1089
p471
aV4
aV2
aV-
aV-
aV1.8
p472
aV81.3
p473
aV-
aV1
aV7.35
p474
aa(lp475
V2014/2015
p476
aVTottenham
p477
aVUEL
p478
aV6(1)
p479
aV512
p480
aV1
aV1
aV1
aV-
aV1.9
p481
aV86
p482
aV-
aV1
aV7.26
p483
aa(lp484
V2014/2015
p485
aVTottenham
p486
aVEPL
p487
aV10(7)
p488
aV754
p489
aV2
aV2
aV2
aV-
aV0.9
p490
aV80.9
p491
aV0.1
p492
aV-
aV6.54
p493
aa(lp494
V2013/2014
p495
aVTottenham
p496
aVUEL
p497
aV5
aV406
p498
aV-
aV1
aV-
aV-
aV2.8
p499
aV84.5
p500
aV0.2
p501
aV1
aV7.44
p502
aa(lp503
V2013/2014
p504
aVTottenham
p505
aVEPL
p506
aV12(13)
p507
aV1226
p508
aV1
aV-
aV2
aV-
aV2.2
p509
aV84.9
p510
aV-
aV3
aV6.92
p511
aa(lp512
V2012/2013
p513
aVTottenham
p514
aVUEL
p515
aV1(2)
p516
aV68
p517
aV-
aV-
aV1
aV-
aV0.3
p518
aV90.9
p519
aV-
aV-
aV6.13
p520
aa(lp521
V2012/2013
p522
aVTottenham
p523
aVEPL
p524
aV0(5)
p525
aV29
p526
aV-
aV-
aV-
aV-
aV0.4
p527
aV100
p528
aV-
aV-
aV6.26
p529
aa(lp530
V2012/2013
p531
aVQueens Park R..
p532
aVEPL
p533
aV12
p534
aV1019
p535
aV2
aV1
aV2
aV-
aV2.9
p536
aV78.1
p537
aV-
aV3
aV7.37
p538
aa(lp539
VTotal / Average
p540
aV
aV
aV182
p541
aV12488
p542
aV17
p543
aV21
p544
aV16
p545
aV0
aV1.7
p546
aV80.8
p547
aV0.1
p548
aV14
p549
aV7.00
p550
aasS'id'
p551
V71522
p552
sb.