(i__main__
Player
p1
(dp2
S'name'
p3
VVictor Wanyama 
p4
sS'offensive_data'
p5
(lp6
(lp7
a(lp8
V2018/2019
p9
aVTottenham
p10
aVEPL
p11
aV1(3)
p12
aV147
p13
aV-
aV-
aV-
aV-
aV0.5
p14
aV76.8
p15
aV1.5
p16
aV-
aV6.50
p17
aa(lp18
V2018/2019
p19
aVTottenham
p20
aVUCL
p21
aV1
aV57
p22
aV-
aV-
aV1
aV-
aV-
aV87
p23
aV-
aV-
aV5.60
p24
aa(lp25
V2017/2018
p26
aVTottenham
p27
aVUCL
p28
aV0(1)
p29
aV1
aV-
aV-
aV-
aV-
aV-
aV-
aV-
aV-
aV6.00
p30
aa(lp31
V2017/2018
p32
aVTottenham
p33
aVEPL
p34
aV8(10)
p35
aV839
p36
aV1
aV-
aV2
aV-
aV0.7
p37
aV87.2
p38
aV1
aV-
aV6.64
p39
aa(lp40
V2016/2017
p41
aVTottenham
p42
aVUCL
p43
aV5
aV428
p44
aV-
aV-
aV1
aV-
aV-
aV87.7
p45
aV0.6
p46
aV-
aV6.91
p47
aa(lp48
V2016/2017
p49
aVTottenham
p50
aVEPL
p51
aV35(1)
p52
aV3016
p53
aV4
aV1
aV10
p54
aV-
aV1.1
p55
aV87.5
p56
aV1.7
p57
aV2
aV7.21
p58
aa(lp59
V2016/2017
p60
aVTottenham
p61
aVUEL
p62
aV2
aV180
p63
aV1
aV-
aV1
aV-
aV1
aV82.8
p64
aV1
aV-
aV7.24
p65
aa(lp66
V2015/2016
p67
aVSouthampton
p68
aVEPL
p69
aV29(1)
p70
aV2501
p71
aV1
aV1
aV4
aV3
aV1
aV82.4
p72
aV2.1
p73
aV1
aV7.02
p74
aa(lp75
V2014/2015
p76
aVSouthampton
p77
aVEPL
p78
aV26(6)
p79
aV2362
p80
aV3
aV1
aV10
p81
aV-
aV0.9
p82
aV84.1
p83
aV2.2
p84
aV2
aV7.12
p85
aa(lp86
V2013/2014
p87
aVSouthampton
p88
aVEPL
p89
aV19(4)
p90
aV1661
p91
aV-
aV-
aV7
aV-
aV0.8
p92
aV84.3
p93
aV2.3
p94
aV-
aV6.88
p95
aa(lp96
V2012/2013
p97
aVCeltic
p98
aVUCL
p99
aV7
aV566
p100
aV1
aV-
aV3
aV-
aV1.1
p101
aV80.7
p102
aV2.1
p103
aV-
aV7.13
p104
aa(lp105
VTotal / Average
p106
aV
aV
aV159
p107
aV11758
p108
aV11
p109
aV3
aV39
p110
aV3
aV0.9
p111
aV84.2
p112
aV1.8
p113
aV5
aV7.00
p114
aasS'url'
p115
S'https://www.whoscored.com/Players/71714/History/'
p116
sS'passing_data'
p117
(lp118
(lp119
a(lp120
V2018/2019
p121
aVTottenham
p122
aVEPL
p123
aV1(3)
p124
aV147
p125
aV-
aV-
aV-
aV-
aV0.5
p126
aV76.8
p127
aV1.5
p128
aV-
aV6.50
p129
aa(lp130
V2018/2019
p131
aVTottenham
p132
aVUCL
p133
aV1
aV57
p134
aV-
aV-
aV1
aV-
aV-
aV87
p135
aV-
aV-
aV5.60
p136
aa(lp137
V2017/2018
p138
aVTottenham
p139
aVUCL
p140
aV0(1)
p141
aV1
aV-
aV-
aV-
aV-
aV-
aV-
aV-
aV-
aV6.00
p142
aa(lp143
V2017/2018
p144
aVTottenham
p145
aVEPL
p146
aV8(10)
p147
aV839
p148
aV1
aV-
aV2
aV-
aV0.7
p149
aV87.2
p150
aV1
aV-
aV6.64
p151
aa(lp152
V2016/2017
p153
aVTottenham
p154
aVUCL
p155
aV5
aV428
p156
aV-
aV-
aV1
aV-
aV-
aV87.7
p157
aV0.6
p158
aV-
aV6.91
p159
aa(lp160
V2016/2017
p161
aVTottenham
p162
aVEPL
p163
aV35(1)
p164
aV3016
p165
aV4
aV1
aV10
p166
aV-
aV1.1
p167
aV87.5
p168
aV1.7
p169
aV2
aV7.21
p170
aa(lp171
V2016/2017
p172
aVTottenham
p173
aVUEL
p174
aV2
aV180
p175
aV1
aV-
aV1
aV-
aV1
aV82.8
p176
aV1
aV-
aV7.24
p177
aa(lp178
V2015/2016
p179
aVSouthampton
p180
aVEPL
p181
aV29(1)
p182
aV2501
p183
aV1
aV1
aV4
aV3
aV1
aV82.4
p184
aV2.1
p185
aV1
aV7.02
p186
aa(lp187
V2014/2015
p188
aVSouthampton
p189
aVEPL
p190
aV26(6)
p191
aV2362
p192
aV3
aV1
aV10
p193
aV-
aV0.9
p194
aV84.1
p195
aV2.2
p196
aV2
aV7.12
p197
aa(lp198
V2013/2014
p199
aVSouthampton
p200
aVEPL
p201
aV19(4)
p202
aV1661
p203
aV-
aV-
aV7
aV-
aV0.8
p204
aV84.3
p205
aV2.3
p206
aV-
aV6.88
p207
aa(lp208
V2012/2013
p209
aVCeltic
p210
aVUCL
p211
aV7
aV566
p212
aV1
aV-
aV3
aV-
aV1.1
p213
aV80.7
p214
aV2.1
p215
aV-
aV7.13
p216
aa(lp217
VTotal / Average
p218
aV
aV
aV159
p219
aV11758
p220
aV11
p221
aV3
aV39
p222
aV3
aV0.9
p223
aV84.2
p224
aV1.8
p225
aV5
aV7.00
p226
aasS'defensive_data'
p227
(lp228
(lp229
a(lp230
V2018/2019
p231
aVTottenham
p232
aVEPL
p233
aV1(3)
p234
aV147
p235
aV-
aV-
aV-
aV-
aV0.5
p236
aV76.8
p237
aV1.5
p238
aV-
aV6.50
p239
aa(lp240
V2018/2019
p241
aVTottenham
p242
aVUCL
p243
aV1
aV57
p244
aV-
aV-
aV1
aV-
aV-
aV87
p245
aV-
aV-
aV5.60
p246
aa(lp247
V2017/2018
p248
aVTottenham
p249
aVUCL
p250
aV0(1)
p251
aV1
aV-
aV-
aV-
aV-
aV-
aV-
aV-
aV-
aV6.00
p252
aa(lp253
V2017/2018
p254
aVTottenham
p255
aVEPL
p256
aV8(10)
p257
aV839
p258
aV1
aV-
aV2
aV-
aV0.7
p259
aV87.2
p260
aV1
aV-
aV6.64
p261
aa(lp262
V2016/2017
p263
aVTottenham
p264
aVUCL
p265
aV5
aV428
p266
aV-
aV-
aV1
aV-
aV-
aV87.7
p267
aV0.6
p268
aV-
aV6.91
p269
aa(lp270
V2016/2017
p271
aVTottenham
p272
aVEPL
p273
aV35(1)
p274
aV3016
p275
aV4
aV1
aV10
p276
aV-
aV1.1
p277
aV87.5
p278
aV1.7
p279
aV2
aV7.21
p280
aa(lp281
V2016/2017
p282
aVTottenham
p283
aVUEL
p284
aV2
aV180
p285
aV1
aV-
aV1
aV-
aV1
aV82.8
p286
aV1
aV-
aV7.24
p287
aa(lp288
V2015/2016
p289
aVSouthampton
p290
aVEPL
p291
aV29(1)
p292
aV2501
p293
aV1
aV1
aV4
aV3
aV1
aV82.4
p294
aV2.1
p295
aV1
aV7.02
p296
aa(lp297
V2014/2015
p298
aVSouthampton
p299
aVEPL
p300
aV26(6)
p301
aV2362
p302
aV3
aV1
aV10
p303
aV-
aV0.9
p304
aV84.1
p305
aV2.2
p306
aV2
aV7.12
p307
aa(lp308
V2013/2014
p309
aVSouthampton
p310
aVEPL
p311
aV19(4)
p312
aV1661
p313
aV-
aV-
aV7
aV-
aV0.8
p314
aV84.3
p315
aV2.3
p316
aV-
aV6.88
p317
aa(lp318
V2012/2013
p319
aVCeltic
p320
aVUCL
p321
aV7
aV566
p322
aV1
aV-
aV3
aV-
aV1.1
p323
aV80.7
p324
aV2.1
p325
aV-
aV7.13
p326
aa(lp327
VTotal / Average
p328
aV
aV
aV159
p329
aV11758
p330
aV11
p331
aV3
aV39
p332
aV3
aV0.9
p333
aV84.2
p334
aV1.8
p335
aV5
aV7.00
p336
aasS'sumary_data'
p337
(lp338
(lp339
a(lp340
V2018/2019
p341
aVTottenham
p342
aVEPL
p343
aV1(3)
p344
aV147
p345
aV-
aV-
aV-
aV-
aV0.5
p346
aV76.8
p347
aV1.5
p348
aV-
aV6.50
p349
aa(lp350
V2018/2019
p351
aVTottenham
p352
aVUCL
p353
aV1
aV57
p354
aV-
aV-
aV1
aV-
aV-
aV87
p355
aV-
aV-
aV5.60
p356
aa(lp357
V2017/2018
p358
aVTottenham
p359
aVUCL
p360
aV0(1)
p361
aV1
aV-
aV-
aV-
aV-
aV-
aV-
aV-
aV-
aV6.00
p362
aa(lp363
V2017/2018
p364
aVTottenham
p365
aVEPL
p366
aV8(10)
p367
aV839
p368
aV1
aV-
aV2
aV-
aV0.7
p369
aV87.2
p370
aV1
aV-
aV6.64
p371
aa(lp372
V2016/2017
p373
aVTottenham
p374
aVUCL
p375
aV5
aV428
p376
aV-
aV-
aV1
aV-
aV-
aV87.7
p377
aV0.6
p378
aV-
aV6.91
p379
aa(lp380
V2016/2017
p381
aVTottenham
p382
aVEPL
p383
aV35(1)
p384
aV3016
p385
aV4
aV1
aV10
p386
aV-
aV1.1
p387
aV87.5
p388
aV1.7
p389
aV2
aV7.21
p390
aa(lp391
V2016/2017
p392
aVTottenham
p393
aVUEL
p394
aV2
aV180
p395
aV1
aV-
aV1
aV-
aV1
aV82.8
p396
aV1
aV-
aV7.24
p397
aa(lp398
V2015/2016
p399
aVSouthampton
p400
aVEPL
p401
aV29(1)
p402
aV2501
p403
aV1
aV1
aV4
aV3
aV1
aV82.4
p404
aV2.1
p405
aV1
aV7.02
p406
aa(lp407
V2014/2015
p408
aVSouthampton
p409
aVEPL
p410
aV26(6)
p411
aV2362
p412
aV3
aV1
aV10
p413
aV-
aV0.9
p414
aV84.1
p415
aV2.2
p416
aV2
aV7.12
p417
aa(lp418
V2013/2014
p419
aVSouthampton
p420
aVEPL
p421
aV19(4)
p422
aV1661
p423
aV-
aV-
aV7
aV-
aV0.8
p424
aV84.3
p425
aV2.3
p426
aV-
aV6.88
p427
aa(lp428
V2012/2013
p429
aVCeltic
p430
aVUCL
p431
aV7
aV566
p432
aV1
aV-
aV3
aV-
aV1.1
p433
aV80.7
p434
aV2.1
p435
aV-
aV7.13
p436
aa(lp437
VTotal / Average
p438
aV
aV
aV159
p439
aV11758
p440
aV11
p441
aV3
aV39
p442
aV3
aV0.9
p443
aV84.2
p444
aV1.8
p445
aV5
aV7.00
p446
aasS'id'
p447
V71714
p448
sb.