(i__main__
Player
p1
(dp2
S'name'
p3
VAlexandre Lacazette 
p4
sS'offensive_data'
p5
(lp6
(lp7
a(lp8
V2018/2019
p9
aVArsenal
p10
aVEPL
p11
aV10(6)
p12
aV1058
p13
aV6
aV3
aV1
aV-
aV1.9
p14
aV72.6
p15
aV1.6
p16
aV2
aV7.11
p17
aa(lp18
V2018/2019
p19
aVArsenal
p20
aVUEL
p21
aV1(2)
p22
aV91
p23
aV1
aV1
aV-
aV-
aV0.7
p24
aV75.9
p25
aV-
aV-
aV6.54
p26
aa(lp27
V2017/2018
p28
aVArsenal
p29
aVUEL
p30
aV4
aV331
p31
aV3
aV-
aV-
aV-
aV3
aV84.3
p32
aV2
aV1
aV7.33
p33
aa(lp34
V2017/2018
p35
aVArsenal
p36
aVEPL
p37
aV26(6)
p38
aV2212
p39
aV14
p40
aV4
aV1
aV-
aV2.1
p41
aV76.7
p42
aV0.9
p43
aV1
aV7.09
p44
aa(lp45
V2016/2017
p46
aVLyon
p47
aVUCL
p48
aV4
aV342
p49
aV1
aV-
aV1
aV-
aV2.5
p50
aV74.5
p51
aV0.8
p52
aV-
aV6.98
p53
aa(lp54
V2016/2017
p55
aVLyon
p56
aVFL1
p57
aV28(2)
p58
aV2408
p59
aV28
p60
aV3
aV3
aV-
aV2.8
p61
aV78
p62
aV0.9
p63
aV7
aV7.57
p64
aa(lp65
V2016/2017
p66
aVLyon
p67
aVUEL
p68
aV6(2)
p69
aV539
p70
aV6
aV1
aV1
aV-
aV2.3
p71
aV75.6
p72
aV0.9
p73
aV3
aV7.74
p74
aa(lp75
V2015/2016
p76
aVLyon
p77
aVUCL
p78
aV6
aV501
p79
aV2
aV-
aV-
aV-
aV3.5
p80
aV82.7
p81
aV0.7
p82
aV-
aV6.79
p83
aa(lp84
V2015/2016
p85
aVLyon
p86
aVFL1
p87
aV34
p88
aV2959
p89
aV21
p90
aV3
aV5
aV-
aV2.8
p91
aV77.6
p92
aV0.9
p93
aV2
aV7.36
p94
aa(lp95
V2014/2015
p96
aVLyon
p97
aVFL1
p98
aV33
p99
aV2849
p100
aV27
p101
aV6
aV6
aV-
aV2.9
p102
aV78.8
p103
aV1.1
p104
aV8
aV7.69
p105
aa(lp106
V2013/2014
p107
aVLyon
p108
aVUEL
p109
aV8
aV662
p110
aV2
aV1
aV1
aV-
aV3.3
p111
aV70.7
p112
aV0.5
p113
aV1
aV7.18
p114
aa(lp115
V2013/2014
p116
aVLyon
p117
aVFL1
p118
aV35(1)
p119
aV2910
p120
aV15
p121
aV3
aV5
aV2
aV2.3
p122
aV77
p123
aV0.9
p124
aV3
aV7.13
p125
aa(lp126
V2012/2013
p127
aVLyon
p128
aVUEL
p129
aV4(1)
p130
aV353
p131
aV1
aV-
aV1
aV-
aV1.4
p132
aV69
p133
aV0.8
p134
aV-
aV7.22
p135
aa(lp136
V2012/2013
p137
aVLyon
p138
aVFL1
p139
aV27(4)
p140
aV2289
p141
aV3
aV4
aV-
aV-
aV1.2
p142
aV77.2
p143
aV0.9
p144
aV-
aV6.95
p145
aa(lp146
V2011/2012
p147
aVLyon
p148
aVUCL
p149
aV2(4)
p150
aV192
p151
aV1
aV1
aV-
aV-
aV1.5
p152
aV81.1
p153
aV0.3
p154
aV1
aV6.76
p155
aa(lp156
V2011/2012
p157
aVLyon
p158
aVFL1
p159
aV15(14)
p160
aV1399
p161
aV5
aV2
aV6
aV-
aV1.1
p162
aV75.9
p163
aV0.4
p164
aV1
aV6.62
p165
aa(lp166
V2010/2011
p167
aVLyon
p168
aVUCL
p169
aV0(2)
p170
aV41
p171
aV1
aV2
aV-
aV-
aV0.5
p172
aV66.7
p173
aV0.5
p174
aV-
aV7.19
p175
aa(lp176
V2010/2011
p177
aVLyon
p178
aVFL1
p179
aV0(9)
p180
aV142
p181
aV1
aV-
aV-
aV-
aV1
aV73.8
p182
aV0.3
p183
aV1
aV6.29
p184
aa(lp185
V2009/2010
p186
aVLyon
p187
aVFL1
p188
aV0(1)
p189
aV12
p190
aV-
aV-
aV-
aV-
aV1
aV33.3
p191
aV-
aV-
aV5.94
p192
aa(lp193
VTotal / Average
p194
aV
aV
aV297
p195
aV21290
p196
aV138
p197
aV34
p198
aV31
p199
aV2
aV2.2
p200
aV76.6
p201
aV0.9
p202
aV31
p203
aV7.16
p204
aasS'url'
p205
S'https://www.whoscored.com/Players/73078/History/'
p206
sS'passing_data'
p207
(lp208
(lp209
a(lp210
V2018/2019
p211
aVArsenal
p212
aVEPL
p213
aV10(6)
p214
aV1058
p215
aV6
aV3
aV1
aV-
aV1.9
p216
aV72.6
p217
aV1.6
p218
aV2
aV7.11
p219
aa(lp220
V2018/2019
p221
aVArsenal
p222
aVUEL
p223
aV1(2)
p224
aV91
p225
aV1
aV1
aV-
aV-
aV0.7
p226
aV75.9
p227
aV-
aV-
aV6.54
p228
aa(lp229
V2017/2018
p230
aVArsenal
p231
aVUEL
p232
aV4
aV331
p233
aV3
aV-
aV-
aV-
aV3
aV84.3
p234
aV2
aV1
aV7.33
p235
aa(lp236
V2017/2018
p237
aVArsenal
p238
aVEPL
p239
aV26(6)
p240
aV2212
p241
aV14
p242
aV4
aV1
aV-
aV2.1
p243
aV76.7
p244
aV0.9
p245
aV1
aV7.09
p246
aa(lp247
V2016/2017
p248
aVLyon
p249
aVUCL
p250
aV4
aV342
p251
aV1
aV-
aV1
aV-
aV2.5
p252
aV74.5
p253
aV0.8
p254
aV-
aV6.98
p255
aa(lp256
V2016/2017
p257
aVLyon
p258
aVFL1
p259
aV28(2)
p260
aV2408
p261
aV28
p262
aV3
aV3
aV-
aV2.8
p263
aV78
p264
aV0.9
p265
aV7
aV7.57
p266
aa(lp267
V2016/2017
p268
aVLyon
p269
aVUEL
p270
aV6(2)
p271
aV539
p272
aV6
aV1
aV1
aV-
aV2.3
p273
aV75.6
p274
aV0.9
p275
aV3
aV7.74
p276
aa(lp277
V2015/2016
p278
aVLyon
p279
aVUCL
p280
aV6
aV501
p281
aV2
aV-
aV-
aV-
aV3.5
p282
aV82.7
p283
aV0.7
p284
aV-
aV6.79
p285
aa(lp286
V2015/2016
p287
aVLyon
p288
aVFL1
p289
aV34
p290
aV2959
p291
aV21
p292
aV3
aV5
aV-
aV2.8
p293
aV77.6
p294
aV0.9
p295
aV2
aV7.36
p296
aa(lp297
V2014/2015
p298
aVLyon
p299
aVFL1
p300
aV33
p301
aV2849
p302
aV27
p303
aV6
aV6
aV-
aV2.9
p304
aV78.8
p305
aV1.1
p306
aV8
aV7.69
p307
aa(lp308
V2013/2014
p309
aVLyon
p310
aVUEL
p311
aV8
aV662
p312
aV2
aV1
aV1
aV-
aV3.3
p313
aV70.7
p314
aV0.5
p315
aV1
aV7.18
p316
aa(lp317
V2013/2014
p318
aVLyon
p319
aVFL1
p320
aV35(1)
p321
aV2910
p322
aV15
p323
aV3
aV5
aV2
aV2.3
p324
aV77
p325
aV0.9
p326
aV3
aV7.13
p327
aa(lp328
V2012/2013
p329
aVLyon
p330
aVUEL
p331
aV4(1)
p332
aV353
p333
aV1
aV-
aV1
aV-
aV1.4
p334
aV69
p335
aV0.8
p336
aV-
aV7.22
p337
aa(lp338
V2012/2013
p339
aVLyon
p340
aVFL1
p341
aV27(4)
p342
aV2289
p343
aV3
aV4
aV-
aV-
aV1.2
p344
aV77.2
p345
aV0.9
p346
aV-
aV6.95
p347
aa(lp348
V2011/2012
p349
aVLyon
p350
aVUCL
p351
aV2(4)
p352
aV192
p353
aV1
aV1
aV-
aV-
aV1.5
p354
aV81.1
p355
aV0.3
p356
aV1
aV6.76
p357
aa(lp358
V2011/2012
p359
aVLyon
p360
aVFL1
p361
aV15(14)
p362
aV1399
p363
aV5
aV2
aV6
aV-
aV1.1
p364
aV75.9
p365
aV0.4
p366
aV1
aV6.62
p367
aa(lp368
V2010/2011
p369
aVLyon
p370
aVUCL
p371
aV0(2)
p372
aV41
p373
aV1
aV2
aV-
aV-
aV0.5
p374
aV66.7
p375
aV0.5
p376
aV-
aV7.19
p377
aa(lp378
V2010/2011
p379
aVLyon
p380
aVFL1
p381
aV0(9)
p382
aV142
p383
aV1
aV-
aV-
aV-
aV1
aV73.8
p384
aV0.3
p385
aV1
aV6.29
p386
aa(lp387
V2009/2010
p388
aVLyon
p389
aVFL1
p390
aV0(1)
p391
aV12
p392
aV-
aV-
aV-
aV-
aV1
aV33.3
p393
aV-
aV-
aV5.94
p394
aa(lp395
VTotal / Average
p396
aV
aV
aV297
p397
aV21290
p398
aV138
p399
aV34
p400
aV31
p401
aV2
aV2.2
p402
aV76.6
p403
aV0.9
p404
aV31
p405
aV7.16
p406
aasS'defensive_data'
p407
(lp408
(lp409
a(lp410
V2018/2019
p411
aVArsenal
p412
aVEPL
p413
aV10(6)
p414
aV1058
p415
aV6
aV3
aV1
aV-
aV1.9
p416
aV72.6
p417
aV1.6
p418
aV2
aV7.11
p419
aa(lp420
V2018/2019
p421
aVArsenal
p422
aVUEL
p423
aV1(2)
p424
aV91
p425
aV1
aV1
aV-
aV-
aV0.7
p426
aV75.9
p427
aV-
aV-
aV6.54
p428
aa(lp429
V2017/2018
p430
aVArsenal
p431
aVUEL
p432
aV4
aV331
p433
aV3
aV-
aV-
aV-
aV3
aV84.3
p434
aV2
aV1
aV7.33
p435
aa(lp436
V2017/2018
p437
aVArsenal
p438
aVEPL
p439
aV26(6)
p440
aV2212
p441
aV14
p442
aV4
aV1
aV-
aV2.1
p443
aV76.7
p444
aV0.9
p445
aV1
aV7.09
p446
aa(lp447
V2016/2017
p448
aVLyon
p449
aVUCL
p450
aV4
aV342
p451
aV1
aV-
aV1
aV-
aV2.5
p452
aV74.5
p453
aV0.8
p454
aV-
aV6.98
p455
aa(lp456
V2016/2017
p457
aVLyon
p458
aVFL1
p459
aV28(2)
p460
aV2408
p461
aV28
p462
aV3
aV3
aV-
aV2.8
p463
aV78
p464
aV0.9
p465
aV7
aV7.57
p466
aa(lp467
V2016/2017
p468
aVLyon
p469
aVUEL
p470
aV6(2)
p471
aV539
p472
aV6
aV1
aV1
aV-
aV2.3
p473
aV75.6
p474
aV0.9
p475
aV3
aV7.74
p476
aa(lp477
V2015/2016
p478
aVLyon
p479
aVUCL
p480
aV6
aV501
p481
aV2
aV-
aV-
aV-
aV3.5
p482
aV82.7
p483
aV0.7
p484
aV-
aV6.79
p485
aa(lp486
V2015/2016
p487
aVLyon
p488
aVFL1
p489
aV34
p490
aV2959
p491
aV21
p492
aV3
aV5
aV-
aV2.8
p493
aV77.6
p494
aV0.9
p495
aV2
aV7.36
p496
aa(lp497
V2014/2015
p498
aVLyon
p499
aVFL1
p500
aV33
p501
aV2849
p502
aV27
p503
aV6
aV6
aV-
aV2.9
p504
aV78.8
p505
aV1.1
p506
aV8
aV7.69
p507
aa(lp508
V2013/2014
p509
aVLyon
p510
aVUEL
p511
aV8
aV662
p512
aV2
aV1
aV1
aV-
aV3.3
p513
aV70.7
p514
aV0.5
p515
aV1
aV7.18
p516
aa(lp517
V2013/2014
p518
aVLyon
p519
aVFL1
p520
aV35(1)
p521
aV2910
p522
aV15
p523
aV3
aV5
aV2
aV2.3
p524
aV77
p525
aV0.9
p526
aV3
aV7.13
p527
aa(lp528
V2012/2013
p529
aVLyon
p530
aVUEL
p531
aV4(1)
p532
aV353
p533
aV1
aV-
aV1
aV-
aV1.4
p534
aV69
p535
aV0.8
p536
aV-
aV7.22
p537
aa(lp538
V2012/2013
p539
aVLyon
p540
aVFL1
p541
aV27(4)
p542
aV2289
p543
aV3
aV4
aV-
aV-
aV1.2
p544
aV77.2
p545
aV0.9
p546
aV-
aV6.95
p547
aa(lp548
V2011/2012
p549
aVLyon
p550
aVUCL
p551
aV2(4)
p552
aV192
p553
aV1
aV1
aV-
aV-
aV1.5
p554
aV81.1
p555
aV0.3
p556
aV1
aV6.76
p557
aa(lp558
V2011/2012
p559
aVLyon
p560
aVFL1
p561
aV15(14)
p562
aV1399
p563
aV5
aV2
aV6
aV-
aV1.1
p564
aV75.9
p565
aV0.4
p566
aV1
aV6.62
p567
aa(lp568
V2010/2011
p569
aVLyon
p570
aVUCL
p571
aV0(2)
p572
aV41
p573
aV1
aV2
aV-
aV-
aV0.5
p574
aV66.7
p575
aV0.5
p576
aV-
aV7.19
p577
aa(lp578
V2010/2011
p579
aVLyon
p580
aVFL1
p581
aV0(9)
p582
aV142
p583
aV1
aV-
aV-
aV-
aV1
aV73.8
p584
aV0.3
p585
aV1
aV6.29
p586
aa(lp587
V2009/2010
p588
aVLyon
p589
aVFL1
p590
aV0(1)
p591
aV12
p592
aV-
aV-
aV-
aV-
aV1
aV33.3
p593
aV-
aV-
aV5.94
p594
aa(lp595
VTotal / Average
p596
aV
aV
aV297
p597
aV21290
p598
aV138
p599
aV34
p600
aV31
p601
aV2
aV2.2
p602
aV76.6
p603
aV0.9
p604
aV31
p605
aV7.16
p606
aasS'sumary_data'
p607
(lp608
(lp609
a(lp610
V2018/2019
p611
aVArsenal
p612
aVEPL
p613
aV10(6)
p614
aV1058
p615
aV6
aV3
aV1
aV-
aV1.9
p616
aV72.6
p617
aV1.6
p618
aV2
aV7.11
p619
aa(lp620
V2018/2019
p621
aVArsenal
p622
aVUEL
p623
aV1(2)
p624
aV91
p625
aV1
aV1
aV-
aV-
aV0.7
p626
aV75.9
p627
aV-
aV-
aV6.54
p628
aa(lp629
V2017/2018
p630
aVArsenal
p631
aVUEL
p632
aV4
aV331
p633
aV3
aV-
aV-
aV-
aV3
aV84.3
p634
aV2
aV1
aV7.33
p635
aa(lp636
V2017/2018
p637
aVArsenal
p638
aVEPL
p639
aV26(6)
p640
aV2212
p641
aV14
p642
aV4
aV1
aV-
aV2.1
p643
aV76.7
p644
aV0.9
p645
aV1
aV7.09
p646
aa(lp647
V2016/2017
p648
aVLyon
p649
aVUCL
p650
aV4
aV342
p651
aV1
aV-
aV1
aV-
aV2.5
p652
aV74.5
p653
aV0.8
p654
aV-
aV6.98
p655
aa(lp656
V2016/2017
p657
aVLyon
p658
aVFL1
p659
aV28(2)
p660
aV2408
p661
aV28
p662
aV3
aV3
aV-
aV2.8
p663
aV78
p664
aV0.9
p665
aV7
aV7.57
p666
aa(lp667
V2016/2017
p668
aVLyon
p669
aVUEL
p670
aV6(2)
p671
aV539
p672
aV6
aV1
aV1
aV-
aV2.3
p673
aV75.6
p674
aV0.9
p675
aV3
aV7.74
p676
aa(lp677
V2015/2016
p678
aVLyon
p679
aVUCL
p680
aV6
aV501
p681
aV2
aV-
aV-
aV-
aV3.5
p682
aV82.7
p683
aV0.7
p684
aV-
aV6.79
p685
aa(lp686
V2015/2016
p687
aVLyon
p688
aVFL1
p689
aV34
p690
aV2959
p691
aV21
p692
aV3
aV5
aV-
aV2.8
p693
aV77.6
p694
aV0.9
p695
aV2
aV7.36
p696
aa(lp697
V2014/2015
p698
aVLyon
p699
aVFL1
p700
aV33
p701
aV2849
p702
aV27
p703
aV6
aV6
aV-
aV2.9
p704
aV78.8
p705
aV1.1
p706
aV8
aV7.69
p707
aa(lp708
V2013/2014
p709
aVLyon
p710
aVUEL
p711
aV8
aV662
p712
aV2
aV1
aV1
aV-
aV3.3
p713
aV70.7
p714
aV0.5
p715
aV1
aV7.18
p716
aa(lp717
V2013/2014
p718
aVLyon
p719
aVFL1
p720
aV35(1)
p721
aV2910
p722
aV15
p723
aV3
aV5
aV2
aV2.3
p724
aV77
p725
aV0.9
p726
aV3
aV7.13
p727
aa(lp728
V2012/2013
p729
aVLyon
p730
aVUEL
p731
aV4(1)
p732
aV353
p733
aV1
aV-
aV1
aV-
aV1.4
p734
aV69
p735
aV0.8
p736
aV-
aV7.22
p737
aa(lp738
V2012/2013
p739
aVLyon
p740
aVFL1
p741
aV27(4)
p742
aV2289
p743
aV3
aV4
aV-
aV-
aV1.2
p744
aV77.2
p745
aV0.9
p746
aV-
aV6.95
p747
aa(lp748
V2011/2012
p749
aVLyon
p750
aVUCL
p751
aV2(4)
p752
aV192
p753
aV1
aV1
aV-
aV-
aV1.5
p754
aV81.1
p755
aV0.3
p756
aV1
aV6.76
p757
aa(lp758
V2011/2012
p759
aVLyon
p760
aVFL1
p761
aV15(14)
p762
aV1399
p763
aV5
aV2
aV6
aV-
aV1.1
p764
aV75.9
p765
aV0.4
p766
aV1
aV6.62
p767
aa(lp768
V2010/2011
p769
aVLyon
p770
aVUCL
p771
aV0(2)
p772
aV41
p773
aV1
aV2
aV-
aV-
aV0.5
p774
aV66.7
p775
aV0.5
p776
aV-
aV7.19
p777
aa(lp778
V2010/2011
p779
aVLyon
p780
aVFL1
p781
aV0(9)
p782
aV142
p783
aV1
aV-
aV-
aV-
aV1
aV73.8
p784
aV0.3
p785
aV1
aV6.29
p786
aa(lp787
V2009/2010
p788
aVLyon
p789
aVFL1
p790
aV0(1)
p791
aV12
p792
aV-
aV-
aV-
aV-
aV1
aV33.3
p793
aV-
aV-
aV5.94
p794
aa(lp795
VTotal / Average
p796
aV
aV
aV297
p797
aV21290
p798
aV138
p799
aV34
p800
aV31
p801
aV2
aV2.2
p802
aV76.6
p803
aV0.9
p804
aV31
p805
aV7.16
p806
aasS'id'
p807
V73078
p808
sb.