(i__main__
Player
p1
(dp2
S'name'
p3
VKevin De Bruyne 
p4
sS'offensive_data'
p5
(lp6
(lp7
a(lp8
V2018/2019
p9
aVManchester Ci..
p10
aVEPL
p11
aV0(4)
p12
aV98
p13
aV-
aV-
aV1
aV-
aV0.5
p14
aV86.3
p15
aV0.3
p16
aV-
aV6.20
p17
aa(lp18
V2018/2019
p19
aVManchester Ci..
p20
aVUCL
p21
aV1
aV69
p22
aV-
aV1
aV-
aV-
aV-
aV76.7
p23
aV1
aV-
aV7.20
p24
aa(lp25
V2017/2018
p26
aVManchester Ci..
p27
aVUCL
p28
aV8
aV667
p29
aV1
aV4
aV4
aV-
aV2.1
p30
aV82.8
p31
aV0.8
p32
aV2
aV7.66
p33
aa(lp34
V2017/2018
p35
aVManchester Ci..
p36
aVEPL
p37
aV36(1)
p38
aV3085
p39
aV8
aV16
p40
aV2
aV-
aV2.5
p41
aV83.4
p42
aV0.4
p43
aV8
aV7.80
p44
aa(lp45
V2016/2017
p46
aVManchester Ci..
p47
aVUCL
p48
aV6
aV539
p49
aV1
aV1
aV1
aV-
aV1.7
p50
aV84.1
p51
aV0.3
p52
aV-
aV7.19
p53
aa(lp54
V2016/2017
p55
aVManchester Ci..
p56
aVEPL
p57
aV33(3)
p58
aV2885
p59
aV6
aV18
p60
aV4
aV-
aV2.4
p61
aV82
p62
aV0.4
p63
aV9
aV7.55
p64
aa(lp65
V2018
p66
aVBelgium
p67
aVWC
p68
aV6
aV540
p69
aV1
aV2
aV1
aV-
aV2.2
p70
aV79.6
p71
aV0.7
p72
aV-
aV7.65
p73
aa(lp74
V2015/2016
p75
aVWolfsburg
p76
aVGB
p77
aV2
aV165
p78
aV-
aV-
aV1
aV-
aV2
aV74
p79
aV-
aV-
aV6.69
p80
aa(lp81
V2015/2016
p82
aVManchester Ci..
p83
aVUCL
p84
aV8(2)
p85
aV712
p86
aV3
aV-
aV1
aV-
aV1.4
p87
aV78.3
p88
aV0.4
p89
aV1
aV6.90
p90
aa(lp91
V2015/2016
p92
aVManchester Ci..
p93
aVEPL
p94
aV22(3)
p95
aV2004
p96
aV7
aV9
aV2
aV-
aV2
aV78.3
p97
aV0.5
p98
aV4
aV7.45
p99
aa(lp100
V2014/2015
p101
aVWolfsburg
p102
aVGB
p103
aV34
p104
aV3052
p105
aV10
p106
aV20
p107
aV3
aV-
aV2.8
p108
aV74.5
p109
aV0.5
p110
aV6
aV7.95
p111
aa(lp112
V2014/2015
p113
aVWolfsburg
p114
aVUEL
p115
aV11
p116
aV982
p117
aV5
aV5
aV2
aV-
aV3.5
p118
aV79.9
p119
aV0.3
p120
aV3
aV7.95
p121
aa(lp122
V2016
p123
aVBelgium
p124
aVUEC
p125
aV5
aV450
p126
aV-
aV3
aV-
aV-
aV4.2
p127
aV77.2
p128
aV0.4
p129
aV2
aV7.97
p130
aa(lp131
V2013/2014
p132
aVChelsea
p133
aVUCL
p134
aV0(3)
p135
aV26
p136
aV-
aV-
aV-
aV-
aV-
aV85
p137
aV-
aV-
aV6.08
p138
aa(lp139
V2013/2014
p140
aVWolfsburg
p141
aVGB
p142
aV16
p143
aV1420
p144
aV3
aV6
aV2
aV1
aV2.1
p145
aV74.2
p146
aV1.1
p147
aV1
aV7.71
p148
aa(lp149
V2013/2014
p150
aVChelsea
p151
aVEPL
p152
aV2(1)
p153
aV132
p154
aV-
aV1
aV1
aV-
aV1.3
p155
aV82.9
p156
aV-
aV-
aV6.62
p157
aa(lp158
V2014
p159
aVBelgium
p160
aVWC
p161
aV4
aV390
p162
aV1
aV2
aV-
aV-
aV2.8
p163
aV80.3
p164
aV0.5
p165
aV-
aV7.85
p166
aa(lp167
V2012/2013
p168
aVWerder Bremen
p169
aVGB
p170
aV33
p171
aV2966
p172
aV10
p173
aV9
aV4
aV-
aV2.7
p174
aV76.5
p175
aV0.8
p176
aV7
aV7.57
p177
aa(lp178
V2011/2012
p179
aVGenk
p180
aVUCL
p181
aV4
aV360
p182
aV-
aV-
aV1
aV-
aV2
aV75.8
p183
aV0.8
p184
aV-
aV5.92
p185
aa(lp186
VTotal / Average
p187
aV
aV
aV248
p188
aV20542
p189
aV56
p190
aV97
p191
aV30
p192
aV1
aV2.4
p193
aV79.2
p194
aV0.5
p195
aV43
p196
aV7.56
p197
aasS'url'
p198
S'https://www.whoscored.com/Players/73084/History/'
p199
sS'passing_data'
p200
(lp201
(lp202
a(lp203
V2018/2019
p204
aVManchester Ci..
p205
aVEPL
p206
aV0(4)
p207
aV98
p208
aV-
aV-
aV1
aV-
aV0.5
p209
aV86.3
p210
aV0.3
p211
aV-
aV6.20
p212
aa(lp213
V2018/2019
p214
aVManchester Ci..
p215
aVUCL
p216
aV1
aV69
p217
aV-
aV1
aV-
aV-
aV-
aV76.7
p218
aV1
aV-
aV7.20
p219
aa(lp220
V2017/2018
p221
aVManchester Ci..
p222
aVUCL
p223
aV8
aV667
p224
aV1
aV4
aV4
aV-
aV2.1
p225
aV82.8
p226
aV0.8
p227
aV2
aV7.66
p228
aa(lp229
V2017/2018
p230
aVManchester Ci..
p231
aVEPL
p232
aV36(1)
p233
aV3085
p234
aV8
aV16
p235
aV2
aV-
aV2.5
p236
aV83.4
p237
aV0.4
p238
aV8
aV7.80
p239
aa(lp240
V2016/2017
p241
aVManchester Ci..
p242
aVUCL
p243
aV6
aV539
p244
aV1
aV1
aV1
aV-
aV1.7
p245
aV84.1
p246
aV0.3
p247
aV-
aV7.19
p248
aa(lp249
V2016/2017
p250
aVManchester Ci..
p251
aVEPL
p252
aV33(3)
p253
aV2885
p254
aV6
aV18
p255
aV4
aV-
aV2.4
p256
aV82
p257
aV0.4
p258
aV9
aV7.55
p259
aa(lp260
V2018
p261
aVBelgium
p262
aVWC
p263
aV6
aV540
p264
aV1
aV2
aV1
aV-
aV2.2
p265
aV79.6
p266
aV0.7
p267
aV-
aV7.65
p268
aa(lp269
V2015/2016
p270
aVWolfsburg
p271
aVGB
p272
aV2
aV165
p273
aV-
aV-
aV1
aV-
aV2
aV74
p274
aV-
aV-
aV6.69
p275
aa(lp276
V2015/2016
p277
aVManchester Ci..
p278
aVUCL
p279
aV8(2)
p280
aV712
p281
aV3
aV-
aV1
aV-
aV1.4
p282
aV78.3
p283
aV0.4
p284
aV1
aV6.90
p285
aa(lp286
V2015/2016
p287
aVManchester Ci..
p288
aVEPL
p289
aV22(3)
p290
aV2004
p291
aV7
aV9
aV2
aV-
aV2
aV78.3
p292
aV0.5
p293
aV4
aV7.45
p294
aa(lp295
V2014/2015
p296
aVWolfsburg
p297
aVGB
p298
aV34
p299
aV3052
p300
aV10
p301
aV20
p302
aV3
aV-
aV2.8
p303
aV74.5
p304
aV0.5
p305
aV6
aV7.95
p306
aa(lp307
V2014/2015
p308
aVWolfsburg
p309
aVUEL
p310
aV11
p311
aV982
p312
aV5
aV5
aV2
aV-
aV3.5
p313
aV79.9
p314
aV0.3
p315
aV3
aV7.95
p316
aa(lp317
V2016
p318
aVBelgium
p319
aVUEC
p320
aV5
aV450
p321
aV-
aV3
aV-
aV-
aV4.2
p322
aV77.2
p323
aV0.4
p324
aV2
aV7.97
p325
aa(lp326
V2013/2014
p327
aVChelsea
p328
aVUCL
p329
aV0(3)
p330
aV26
p331
aV-
aV-
aV-
aV-
aV-
aV85
p332
aV-
aV-
aV6.08
p333
aa(lp334
V2013/2014
p335
aVWolfsburg
p336
aVGB
p337
aV16
p338
aV1420
p339
aV3
aV6
aV2
aV1
aV2.1
p340
aV74.2
p341
aV1.1
p342
aV1
aV7.71
p343
aa(lp344
V2013/2014
p345
aVChelsea
p346
aVEPL
p347
aV2(1)
p348
aV132
p349
aV-
aV1
aV1
aV-
aV1.3
p350
aV82.9
p351
aV-
aV-
aV6.62
p352
aa(lp353
V2014
p354
aVBelgium
p355
aVWC
p356
aV4
aV390
p357
aV1
aV2
aV-
aV-
aV2.8
p358
aV80.3
p359
aV0.5
p360
aV-
aV7.85
p361
aa(lp362
V2012/2013
p363
aVWerder Bremen
p364
aVGB
p365
aV33
p366
aV2966
p367
aV10
p368
aV9
aV4
aV-
aV2.7
p369
aV76.5
p370
aV0.8
p371
aV7
aV7.57
p372
aa(lp373
V2011/2012
p374
aVGenk
p375
aVUCL
p376
aV4
aV360
p377
aV-
aV-
aV1
aV-
aV2
aV75.8
p378
aV0.8
p379
aV-
aV5.92
p380
aa(lp381
VTotal / Average
p382
aV
aV
aV248
p383
aV20542
p384
aV56
p385
aV97
p386
aV30
p387
aV1
aV2.4
p388
aV79.2
p389
aV0.5
p390
aV43
p391
aV7.56
p392
aasS'defensive_data'
p393
(lp394
(lp395
a(lp396
V2018/2019
p397
aVManchester Ci..
p398
aVEPL
p399
aV0(4)
p400
aV98
p401
aV-
aV-
aV1
aV-
aV0.5
p402
aV86.3
p403
aV0.3
p404
aV-
aV6.20
p405
aa(lp406
V2018/2019
p407
aVManchester Ci..
p408
aVUCL
p409
aV1
aV69
p410
aV-
aV1
aV-
aV-
aV-
aV76.7
p411
aV1
aV-
aV7.20
p412
aa(lp413
V2017/2018
p414
aVManchester Ci..
p415
aVUCL
p416
aV8
aV667
p417
aV1
aV4
aV4
aV-
aV2.1
p418
aV82.8
p419
aV0.8
p420
aV2
aV7.66
p421
aa(lp422
V2017/2018
p423
aVManchester Ci..
p424
aVEPL
p425
aV36(1)
p426
aV3085
p427
aV8
aV16
p428
aV2
aV-
aV2.5
p429
aV83.4
p430
aV0.4
p431
aV8
aV7.80
p432
aa(lp433
V2016/2017
p434
aVManchester Ci..
p435
aVUCL
p436
aV6
aV539
p437
aV1
aV1
aV1
aV-
aV1.7
p438
aV84.1
p439
aV0.3
p440
aV-
aV7.19
p441
aa(lp442
V2016/2017
p443
aVManchester Ci..
p444
aVEPL
p445
aV33(3)
p446
aV2885
p447
aV6
aV18
p448
aV4
aV-
aV2.4
p449
aV82
p450
aV0.4
p451
aV9
aV7.55
p452
aa(lp453
V2018
p454
aVBelgium
p455
aVWC
p456
aV6
aV540
p457
aV1
aV2
aV1
aV-
aV2.2
p458
aV79.6
p459
aV0.7
p460
aV-
aV7.65
p461
aa(lp462
V2015/2016
p463
aVWolfsburg
p464
aVGB
p465
aV2
aV165
p466
aV-
aV-
aV1
aV-
aV2
aV74
p467
aV-
aV-
aV6.69
p468
aa(lp469
V2015/2016
p470
aVManchester Ci..
p471
aVUCL
p472
aV8(2)
p473
aV712
p474
aV3
aV-
aV1
aV-
aV1.4
p475
aV78.3
p476
aV0.4
p477
aV1
aV6.90
p478
aa(lp479
V2015/2016
p480
aVManchester Ci..
p481
aVEPL
p482
aV22(3)
p483
aV2004
p484
aV7
aV9
aV2
aV-
aV2
aV78.3
p485
aV0.5
p486
aV4
aV7.45
p487
aa(lp488
V2014/2015
p489
aVWolfsburg
p490
aVGB
p491
aV34
p492
aV3052
p493
aV10
p494
aV20
p495
aV3
aV-
aV2.8
p496
aV74.5
p497
aV0.5
p498
aV6
aV7.95
p499
aa(lp500
V2014/2015
p501
aVWolfsburg
p502
aVUEL
p503
aV11
p504
aV982
p505
aV5
aV5
aV2
aV-
aV3.5
p506
aV79.9
p507
aV0.3
p508
aV3
aV7.95
p509
aa(lp510
V2016
p511
aVBelgium
p512
aVUEC
p513
aV5
aV450
p514
aV-
aV3
aV-
aV-
aV4.2
p515
aV77.2
p516
aV0.4
p517
aV2
aV7.97
p518
aa(lp519
V2013/2014
p520
aVChelsea
p521
aVUCL
p522
aV0(3)
p523
aV26
p524
aV-
aV-
aV-
aV-
aV-
aV85
p525
aV-
aV-
aV6.08
p526
aa(lp527
V2013/2014
p528
aVWolfsburg
p529
aVGB
p530
aV16
p531
aV1420
p532
aV3
aV6
aV2
aV1
aV2.1
p533
aV74.2
p534
aV1.1
p535
aV1
aV7.71
p536
aa(lp537
V2013/2014
p538
aVChelsea
p539
aVEPL
p540
aV2(1)
p541
aV132
p542
aV-
aV1
aV1
aV-
aV1.3
p543
aV82.9
p544
aV-
aV-
aV6.62
p545
aa(lp546
V2014
p547
aVBelgium
p548
aVWC
p549
aV4
aV390
p550
aV1
aV2
aV-
aV-
aV2.8
p551
aV80.3
p552
aV0.5
p553
aV-
aV7.85
p554
aa(lp555
V2012/2013
p556
aVWerder Bremen
p557
aVGB
p558
aV33
p559
aV2966
p560
aV10
p561
aV9
aV4
aV-
aV2.7
p562
aV76.5
p563
aV0.8
p564
aV7
aV7.57
p565
aa(lp566
V2011/2012
p567
aVGenk
p568
aVUCL
p569
aV4
aV360
p570
aV-
aV-
aV1
aV-
aV2
aV75.8
p571
aV0.8
p572
aV-
aV5.92
p573
aa(lp574
VTotal / Average
p575
aV
aV
aV248
p576
aV20542
p577
aV56
p578
aV97
p579
aV30
p580
aV1
aV2.4
p581
aV79.2
p582
aV0.5
p583
aV43
p584
aV7.56
p585
aasS'sumary_data'
p586
(lp587
(lp588
a(lp589
V2018/2019
p590
aVManchester Ci..
p591
aVEPL
p592
aV0(4)
p593
aV98
p594
aV-
aV-
aV1
aV-
aV0.5
p595
aV86.3
p596
aV0.3
p597
aV-
aV6.20
p598
aa(lp599
V2018/2019
p600
aVManchester Ci..
p601
aVUCL
p602
aV1
aV69
p603
aV-
aV1
aV-
aV-
aV-
aV76.7
p604
aV1
aV-
aV7.20
p605
aa(lp606
V2017/2018
p607
aVManchester Ci..
p608
aVUCL
p609
aV8
aV667
p610
aV1
aV4
aV4
aV-
aV2.1
p611
aV82.8
p612
aV0.8
p613
aV2
aV7.66
p614
aa(lp615
V2017/2018
p616
aVManchester Ci..
p617
aVEPL
p618
aV36(1)
p619
aV3085
p620
aV8
aV16
p621
aV2
aV-
aV2.5
p622
aV83.4
p623
aV0.4
p624
aV8
aV7.80
p625
aa(lp626
V2016/2017
p627
aVManchester Ci..
p628
aVUCL
p629
aV6
aV539
p630
aV1
aV1
aV1
aV-
aV1.7
p631
aV84.1
p632
aV0.3
p633
aV-
aV7.19
p634
aa(lp635
V2016/2017
p636
aVManchester Ci..
p637
aVEPL
p638
aV33(3)
p639
aV2885
p640
aV6
aV18
p641
aV4
aV-
aV2.4
p642
aV82
p643
aV0.4
p644
aV9
aV7.55
p645
aa(lp646
V2018
p647
aVBelgium
p648
aVWC
p649
aV6
aV540
p650
aV1
aV2
aV1
aV-
aV2.2
p651
aV79.6
p652
aV0.7
p653
aV-
aV7.65
p654
aa(lp655
V2015/2016
p656
aVWolfsburg
p657
aVGB
p658
aV2
aV165
p659
aV-
aV-
aV1
aV-
aV2
aV74
p660
aV-
aV-
aV6.69
p661
aa(lp662
V2015/2016
p663
aVManchester Ci..
p664
aVUCL
p665
aV8(2)
p666
aV712
p667
aV3
aV-
aV1
aV-
aV1.4
p668
aV78.3
p669
aV0.4
p670
aV1
aV6.90
p671
aa(lp672
V2015/2016
p673
aVManchester Ci..
p674
aVEPL
p675
aV22(3)
p676
aV2004
p677
aV7
aV9
aV2
aV-
aV2
aV78.3
p678
aV0.5
p679
aV4
aV7.45
p680
aa(lp681
V2014/2015
p682
aVWolfsburg
p683
aVGB
p684
aV34
p685
aV3052
p686
aV10
p687
aV20
p688
aV3
aV-
aV2.8
p689
aV74.5
p690
aV0.5
p691
aV6
aV7.95
p692
aa(lp693
V2014/2015
p694
aVWolfsburg
p695
aVUEL
p696
aV11
p697
aV982
p698
aV5
aV5
aV2
aV-
aV3.5
p699
aV79.9
p700
aV0.3
p701
aV3
aV7.95
p702
aa(lp703
V2016
p704
aVBelgium
p705
aVUEC
p706
aV5
aV450
p707
aV-
aV3
aV-
aV-
aV4.2
p708
aV77.2
p709
aV0.4
p710
aV2
aV7.97
p711
aa(lp712
V2013/2014
p713
aVChelsea
p714
aVUCL
p715
aV0(3)
p716
aV26
p717
aV-
aV-
aV-
aV-
aV-
aV85
p718
aV-
aV-
aV6.08
p719
aa(lp720
V2013/2014
p721
aVWolfsburg
p722
aVGB
p723
aV16
p724
aV1420
p725
aV3
aV6
aV2
aV1
aV2.1
p726
aV74.2
p727
aV1.1
p728
aV1
aV7.71
p729
aa(lp730
V2013/2014
p731
aVChelsea
p732
aVEPL
p733
aV2(1)
p734
aV132
p735
aV-
aV1
aV1
aV-
aV1.3
p736
aV82.9
p737
aV-
aV-
aV6.62
p738
aa(lp739
V2014
p740
aVBelgium
p741
aVWC
p742
aV4
aV390
p743
aV1
aV2
aV-
aV-
aV2.8
p744
aV80.3
p745
aV0.5
p746
aV-
aV7.85
p747
aa(lp748
V2012/2013
p749
aVWerder Bremen
p750
aVGB
p751
aV33
p752
aV2966
p753
aV10
p754
aV9
aV4
aV-
aV2.7
p755
aV76.5
p756
aV0.8
p757
aV7
aV7.57
p758
aa(lp759
V2011/2012
p760
aVGenk
p761
aVUCL
p762
aV4
aV360
p763
aV-
aV-
aV1
aV-
aV2
aV75.8
p764
aV0.8
p765
aV-
aV5.92
p766
aa(lp767
VTotal / Average
p768
aV
aV
aV248
p769
aV20542
p770
aV56
p771
aV97
p772
aV30
p773
aV1
aV2.4
p774
aV79.2
p775
aV0.5
p776
aV43
p777
aV7.56
p778
aasS'id'
p779
V73084
p780
sb.