(i__main__
Player
p1
(dp2
S'name'
p3
VConnor Wickham 
p4
sS'offensive_data'
p5
(lp6
(lp7
a(lp8
V2018/2019
p9
aVCrystal Palac..
p10
aVEPL
p11
aV0(1)
p12
aV1
aV-
aV-
aV-
aV-
aV-
aV-
aV-
aV-
aV5.80
p13
aa(lp14
V2016/2017
p15
aVCrystal Palac..
p16
aVEPL
p17
aV4(4)
p18
aV411
p19
aV2
aV-
aV1
aV-
aV1.3
p20
aV72.4
p21
aV2
aV-
aV6.52
p22
aa(lp23
V2015/2016
p24
aVCrystal Palac..
p25
aVEPL
p26
aV15(6)
p27
aV1327
p28
aV5
aV3
aV1
aV-
aV1.6
p29
aV66.7
p30
aV2.6
p31
aV1
aV6.68
p32
aa(lp33
V2014/2015
p34
aVSunderland
p35
aVEPL
p36
aV31(5)
p37
aV2774
p38
aV5
aV1
aV8
aV-
aV2.3
p39
aV65
p40
aV2.8
p41
aV-
aV6.81
p42
aa(lp43
V2013/2014
p44
aVLeeds
p45
aVEC
p46
aV5
aV446
p47
aV-
aV1
aV-
aV-
aV2.4
p48
aV64.4
p49
aV1.2
p50
aV-
aV6.73
p51
aa(lp52
V2013/2014
p53
aVSheffield Wed..
p54
aVEC
p55
aV11
p56
aV990
p57
aV8
aV2
aV2
aV-
aV4.7
p58
aV60.1
p59
aV2.9
p60
aV2
aV7.59
p61
aa(lp62
V2013/2014
p63
aVSunderland
p64
aVEPL
p65
aV10(5)
p66
aV848
p67
aV5
aV1
aV1
aV-
aV1.7
p68
aV68.5
p69
aV1.7
p70
aV2
aV6.81
p71
aa(lp72
V2013
p73
aVEngland U21
p74
aVIEU
p75
aV2(1)
p76
aV217
p77
aV-
aV-
aV-
aV-
aV3.3
p78
aV73.6
p79
aV3.7
p80
aV-
aV6.63
p81
aa(lp82
V2012/2013
p83
aVSunderland
p84
aVEPL
p85
aV3(9)
p86
aV451
p87
aV-
aV-
aV-
aV-
aV1.1
p88
aV63
p89
aV1.7
p90
aV-
aV6.26
p91
aa(lp92
V2011/2012
p93
aVSunderland
p94
aVEPL
p95
aV5(11)
p96
aV520
p97
aV1
aV-
aV-
aV-
aV0.9
p98
aV67.7
p99
aV0.6
p100
aV-
aV6.37
p101
aa(lp102
VTotal / Average
p103
aV
aV
aV128
p104
aV7985
p105
aV26
p106
aV8
aV13
p107
aV0
aV2
aV65.6
p108
aV2.2
p109
aV5
aV6.72
p110
aasS'url'
p111
S'https://www.whoscored.com/Players/73382/History/'
p112
sS'passing_data'
p113
(lp114
(lp115
a(lp116
V2018/2019
p117
aVCrystal Palac..
p118
aVEPL
p119
aV0(1)
p120
aV1
aV-
aV-
aV-
aV-
aV-
aV-
aV-
aV-
aV5.80
p121
aa(lp122
V2016/2017
p123
aVCrystal Palac..
p124
aVEPL
p125
aV4(4)
p126
aV411
p127
aV2
aV-
aV1
aV-
aV1.3
p128
aV72.4
p129
aV2
aV-
aV6.52
p130
aa(lp131
V2015/2016
p132
aVCrystal Palac..
p133
aVEPL
p134
aV15(6)
p135
aV1327
p136
aV5
aV3
aV1
aV-
aV1.6
p137
aV66.7
p138
aV2.6
p139
aV1
aV6.68
p140
aa(lp141
V2014/2015
p142
aVSunderland
p143
aVEPL
p144
aV31(5)
p145
aV2774
p146
aV5
aV1
aV8
aV-
aV2.3
p147
aV65
p148
aV2.8
p149
aV-
aV6.81
p150
aa(lp151
V2013/2014
p152
aVLeeds
p153
aVEC
p154
aV5
aV446
p155
aV-
aV1
aV-
aV-
aV2.4
p156
aV64.4
p157
aV1.2
p158
aV-
aV6.73
p159
aa(lp160
V2013/2014
p161
aVSheffield Wed..
p162
aVEC
p163
aV11
p164
aV990
p165
aV8
aV2
aV2
aV-
aV4.7
p166
aV60.1
p167
aV2.9
p168
aV2
aV7.59
p169
aa(lp170
V2013/2014
p171
aVSunderland
p172
aVEPL
p173
aV10(5)
p174
aV848
p175
aV5
aV1
aV1
aV-
aV1.7
p176
aV68.5
p177
aV1.7
p178
aV2
aV6.81
p179
aa(lp180
V2013
p181
aVEngland U21
p182
aVIEU
p183
aV2(1)
p184
aV217
p185
aV-
aV-
aV-
aV-
aV3.3
p186
aV73.6
p187
aV3.7
p188
aV-
aV6.63
p189
aa(lp190
V2012/2013
p191
aVSunderland
p192
aVEPL
p193
aV3(9)
p194
aV451
p195
aV-
aV-
aV-
aV-
aV1.1
p196
aV63
p197
aV1.7
p198
aV-
aV6.26
p199
aa(lp200
V2011/2012
p201
aVSunderland
p202
aVEPL
p203
aV5(11)
p204
aV520
p205
aV1
aV-
aV-
aV-
aV0.9
p206
aV67.7
p207
aV0.6
p208
aV-
aV6.37
p209
aa(lp210
VTotal / Average
p211
aV
aV
aV128
p212
aV7985
p213
aV26
p214
aV8
aV13
p215
aV0
aV2
aV65.6
p216
aV2.2
p217
aV5
aV6.72
p218
aasS'defensive_data'
p219
(lp220
(lp221
a(lp222
V2018/2019
p223
aVCrystal Palac..
p224
aVEPL
p225
aV0(1)
p226
aV1
aV-
aV-
aV-
aV-
aV-
aV-
aV-
aV-
aV5.80
p227
aa(lp228
V2016/2017
p229
aVCrystal Palac..
p230
aVEPL
p231
aV4(4)
p232
aV411
p233
aV2
aV-
aV1
aV-
aV1.3
p234
aV72.4
p235
aV2
aV-
aV6.52
p236
aa(lp237
V2015/2016
p238
aVCrystal Palac..
p239
aVEPL
p240
aV15(6)
p241
aV1327
p242
aV5
aV3
aV1
aV-
aV1.6
p243
aV66.7
p244
aV2.6
p245
aV1
aV6.68
p246
aa(lp247
V2014/2015
p248
aVSunderland
p249
aVEPL
p250
aV31(5)
p251
aV2774
p252
aV5
aV1
aV8
aV-
aV2.3
p253
aV65
p254
aV2.8
p255
aV-
aV6.81
p256
aa(lp257
V2013/2014
p258
aVLeeds
p259
aVEC
p260
aV5
aV446
p261
aV-
aV1
aV-
aV-
aV2.4
p262
aV64.4
p263
aV1.2
p264
aV-
aV6.73
p265
aa(lp266
V2013/2014
p267
aVSheffield Wed..
p268
aVEC
p269
aV11
p270
aV990
p271
aV8
aV2
aV2
aV-
aV4.7
p272
aV60.1
p273
aV2.9
p274
aV2
aV7.59
p275
aa(lp276
V2013/2014
p277
aVSunderland
p278
aVEPL
p279
aV10(5)
p280
aV848
p281
aV5
aV1
aV1
aV-
aV1.7
p282
aV68.5
p283
aV1.7
p284
aV2
aV6.81
p285
aa(lp286
V2013
p287
aVEngland U21
p288
aVIEU
p289
aV2(1)
p290
aV217
p291
aV-
aV-
aV-
aV-
aV3.3
p292
aV73.6
p293
aV3.7
p294
aV-
aV6.63
p295
aa(lp296
V2012/2013
p297
aVSunderland
p298
aVEPL
p299
aV3(9)
p300
aV451
p301
aV-
aV-
aV-
aV-
aV1.1
p302
aV63
p303
aV1.7
p304
aV-
aV6.26
p305
aa(lp306
V2011/2012
p307
aVSunderland
p308
aVEPL
p309
aV5(11)
p310
aV520
p311
aV1
aV-
aV-
aV-
aV0.9
p312
aV67.7
p313
aV0.6
p314
aV-
aV6.37
p315
aa(lp316
VTotal / Average
p317
aV
aV
aV128
p318
aV7985
p319
aV26
p320
aV8
aV13
p321
aV0
aV2
aV65.6
p322
aV2.2
p323
aV5
aV6.72
p324
aasS'sumary_data'
p325
(lp326
(lp327
a(lp328
V2018/2019
p329
aVCrystal Palac..
p330
aVEPL
p331
aV0(1)
p332
aV1
aV-
aV-
aV-
aV-
aV-
aV-
aV-
aV-
aV5.80
p333
aa(lp334
V2016/2017
p335
aVCrystal Palac..
p336
aVEPL
p337
aV4(4)
p338
aV411
p339
aV2
aV-
aV1
aV-
aV1.3
p340
aV72.4
p341
aV2
aV-
aV6.52
p342
aa(lp343
V2015/2016
p344
aVCrystal Palac..
p345
aVEPL
p346
aV15(6)
p347
aV1327
p348
aV5
aV3
aV1
aV-
aV1.6
p349
aV66.7
p350
aV2.6
p351
aV1
aV6.68
p352
aa(lp353
V2014/2015
p354
aVSunderland
p355
aVEPL
p356
aV31(5)
p357
aV2774
p358
aV5
aV1
aV8
aV-
aV2.3
p359
aV65
p360
aV2.8
p361
aV-
aV6.81
p362
aa(lp363
V2013/2014
p364
aVLeeds
p365
aVEC
p366
aV5
aV446
p367
aV-
aV1
aV-
aV-
aV2.4
p368
aV64.4
p369
aV1.2
p370
aV-
aV6.73
p371
aa(lp372
V2013/2014
p373
aVSheffield Wed..
p374
aVEC
p375
aV11
p376
aV990
p377
aV8
aV2
aV2
aV-
aV4.7
p378
aV60.1
p379
aV2.9
p380
aV2
aV7.59
p381
aa(lp382
V2013/2014
p383
aVSunderland
p384
aVEPL
p385
aV10(5)
p386
aV848
p387
aV5
aV1
aV1
aV-
aV1.7
p388
aV68.5
p389
aV1.7
p390
aV2
aV6.81
p391
aa(lp392
V2013
p393
aVEngland U21
p394
aVIEU
p395
aV2(1)
p396
aV217
p397
aV-
aV-
aV-
aV-
aV3.3
p398
aV73.6
p399
aV3.7
p400
aV-
aV6.63
p401
aa(lp402
V2012/2013
p403
aVSunderland
p404
aVEPL
p405
aV3(9)
p406
aV451
p407
aV-
aV-
aV-
aV-
aV1.1
p408
aV63
p409
aV1.7
p410
aV-
aV6.26
p411
aa(lp412
V2011/2012
p413
aVSunderland
p414
aVEPL
p415
aV5(11)
p416
aV520
p417
aV1
aV-
aV-
aV-
aV0.9
p418
aV67.7
p419
aV0.6
p420
aV-
aV6.37
p421
aa(lp422
VTotal / Average
p423
aV
aV
aV128
p424
aV7985
p425
aV26
p426
aV8
aV13
p427
aV0
aV2
aV65.6
p428
aV2.2
p429
aV5
aV6.72
p430
aasS'id'
p431
V73382
p432
sb.