(i__main__
Player
p1
(dp2
S'name'
p3
VChris Wood 
p4
sS'offensive_data'
p5
(lp6
(lp7
a(lp8
V2018/2019
p9
aVBurnley
p10
aVEPL
p11
aV9(8)
p12
aV887
p13
aV1
aV-
aV-
aV-
aV1.3
p14
aV65.7
p15
aV2.8
p16
aV-
aV6.30
p17
aa(lp18
V2017/2018
p19
aVLeeds
p20
aVEC
p21
aV3
aV270
p22
aV1
aV1
aV-
aV-
aV2.3
p23
aV69.6
p24
aV1.3
p25
aV-
aV6.62
p26
aa(lp27
V2017/2018
p28
aVBurnley
p29
aVEPL
p30
aV20(4)
p31
aV1634
p32
aV10
p33
aV1
aV1
aV-
aV1.6
p34
aV60.2
p35
aV3.5
p36
aV1
aV6.79
p37
aa(lp38
V2016/2017
p39
aVLeeds
p40
aVEC
p41
aV41(3)
p42
aV3627
p43
aV27
p44
aV4
aV3
aV-
aV2.4
p45
aV61.7
p46
aV3.3
p47
aV6
aV7.00
p48
aa(lp49
V2015/2016
p50
aVLeeds
p51
aVEC
p52
aV33(3)
p53
aV2883
p54
aV13
p55
aV4
aV1
aV-
aV2.9
p56
aV60.1
p57
aV3.7
p58
aV1
aV6.78
p59
aa(lp60
V2014/2015
p61
aVIpswich
p62
aVEC
p63
aV3(5)
p64
aV268
p65
aV-
aV-
aV-
aV-
aV0.6
p66
aV53.8
p67
aV1.5
p68
aV-
aV5.96
p69
aa(lp70
V2014/2015
p71
aVLeicester
p72
aVEPL
p73
aV0(7)
p74
aV107
p75
aV1
aV-
aV-
aV-
aV0.7
p76
aV57.9
p77
aV1.4
p78
aV-
aV6.17
p79
aa(lp80
V2013/2014
p81
aVLeicester
p82
aVEC
p83
aV7(19)
p84
aV919
p85
aV4
aV4
aV-
aV-
aV1.2
p86
aV66.7
p87
aV1.7
p88
aV-
aV6.46
p89
aa(lp90
V2010/2011
p91
aVWest Bromwich..
p92
aVEPL
p93
aV0(1)
p94
aV8
aV-
aV-
aV-
aV-
aV-
aV66.7
p95
aV-
aV-
aV6.05
p96
aa(lp97
VTotal / Average
p98
aV
aV
aV166
p99
aV10603
p100
aV57
p101
aV14
p102
aV5
aV0
aV1.9
p103
aV62
p104
aV2.9
p105
aV8
aV6.67
p106
aasS'url'
p107
S'https://www.whoscored.com/Players/73380/History/'
p108
sS'passing_data'
p109
(lp110
(lp111
a(lp112
V2018/2019
p113
aVBurnley
p114
aVEPL
p115
aV9(8)
p116
aV887
p117
aV1
aV-
aV-
aV-
aV1.3
p118
aV65.7
p119
aV2.8
p120
aV-
aV6.30
p121
aa(lp122
V2017/2018
p123
aVLeeds
p124
aVEC
p125
aV3
aV270
p126
aV1
aV1
aV-
aV-
aV2.3
p127
aV69.6
p128
aV1.3
p129
aV-
aV6.62
p130
aa(lp131
V2017/2018
p132
aVBurnley
p133
aVEPL
p134
aV20(4)
p135
aV1634
p136
aV10
p137
aV1
aV1
aV-
aV1.6
p138
aV60.2
p139
aV3.5
p140
aV1
aV6.79
p141
aa(lp142
V2016/2017
p143
aVLeeds
p144
aVEC
p145
aV41(3)
p146
aV3627
p147
aV27
p148
aV4
aV3
aV-
aV2.4
p149
aV61.7
p150
aV3.3
p151
aV6
aV7.00
p152
aa(lp153
V2015/2016
p154
aVLeeds
p155
aVEC
p156
aV33(3)
p157
aV2883
p158
aV13
p159
aV4
aV1
aV-
aV2.9
p160
aV60.1
p161
aV3.7
p162
aV1
aV6.78
p163
aa(lp164
V2014/2015
p165
aVIpswich
p166
aVEC
p167
aV3(5)
p168
aV268
p169
aV-
aV-
aV-
aV-
aV0.6
p170
aV53.8
p171
aV1.5
p172
aV-
aV5.96
p173
aa(lp174
V2014/2015
p175
aVLeicester
p176
aVEPL
p177
aV0(7)
p178
aV107
p179
aV1
aV-
aV-
aV-
aV0.7
p180
aV57.9
p181
aV1.4
p182
aV-
aV6.17
p183
aa(lp184
V2013/2014
p185
aVLeicester
p186
aVEC
p187
aV7(19)
p188
aV919
p189
aV4
aV4
aV-
aV-
aV1.2
p190
aV66.7
p191
aV1.7
p192
aV-
aV6.46
p193
aa(lp194
V2010/2011
p195
aVWest Bromwich..
p196
aVEPL
p197
aV0(1)
p198
aV8
aV-
aV-
aV-
aV-
aV-
aV66.7
p199
aV-
aV-
aV6.05
p200
aa(lp201
VTotal / Average
p202
aV
aV
aV166
p203
aV10603
p204
aV57
p205
aV14
p206
aV5
aV0
aV1.9
p207
aV62
p208
aV2.9
p209
aV8
aV6.67
p210
aasS'defensive_data'
p211
(lp212
(lp213
a(lp214
V2018/2019
p215
aVBurnley
p216
aVEPL
p217
aV9(8)
p218
aV887
p219
aV1
aV-
aV-
aV-
aV1.3
p220
aV65.7
p221
aV2.8
p222
aV-
aV6.30
p223
aa(lp224
V2017/2018
p225
aVLeeds
p226
aVEC
p227
aV3
aV270
p228
aV1
aV1
aV-
aV-
aV2.3
p229
aV69.6
p230
aV1.3
p231
aV-
aV6.62
p232
aa(lp233
V2017/2018
p234
aVBurnley
p235
aVEPL
p236
aV20(4)
p237
aV1634
p238
aV10
p239
aV1
aV1
aV-
aV1.6
p240
aV60.2
p241
aV3.5
p242
aV1
aV6.79
p243
aa(lp244
V2016/2017
p245
aVLeeds
p246
aVEC
p247
aV41(3)
p248
aV3627
p249
aV27
p250
aV4
aV3
aV-
aV2.4
p251
aV61.7
p252
aV3.3
p253
aV6
aV7.00
p254
aa(lp255
V2015/2016
p256
aVLeeds
p257
aVEC
p258
aV33(3)
p259
aV2883
p260
aV13
p261
aV4
aV1
aV-
aV2.9
p262
aV60.1
p263
aV3.7
p264
aV1
aV6.78
p265
aa(lp266
V2014/2015
p267
aVIpswich
p268
aVEC
p269
aV3(5)
p270
aV268
p271
aV-
aV-
aV-
aV-
aV0.6
p272
aV53.8
p273
aV1.5
p274
aV-
aV5.96
p275
aa(lp276
V2014/2015
p277
aVLeicester
p278
aVEPL
p279
aV0(7)
p280
aV107
p281
aV1
aV-
aV-
aV-
aV0.7
p282
aV57.9
p283
aV1.4
p284
aV-
aV6.17
p285
aa(lp286
V2013/2014
p287
aVLeicester
p288
aVEC
p289
aV7(19)
p290
aV919
p291
aV4
aV4
aV-
aV-
aV1.2
p292
aV66.7
p293
aV1.7
p294
aV-
aV6.46
p295
aa(lp296
V2010/2011
p297
aVWest Bromwich..
p298
aVEPL
p299
aV0(1)
p300
aV8
aV-
aV-
aV-
aV-
aV-
aV66.7
p301
aV-
aV-
aV6.05
p302
aa(lp303
VTotal / Average
p304
aV
aV
aV166
p305
aV10603
p306
aV57
p307
aV14
p308
aV5
aV0
aV1.9
p309
aV62
p310
aV2.9
p311
aV8
aV6.67
p312
aasS'sumary_data'
p313
(lp314
(lp315
a(lp316
V2018/2019
p317
aVBurnley
p318
aVEPL
p319
aV9(8)
p320
aV887
p321
aV1
aV-
aV-
aV-
aV1.3
p322
aV65.7
p323
aV2.8
p324
aV-
aV6.30
p325
aa(lp326
V2017/2018
p327
aVLeeds
p328
aVEC
p329
aV3
aV270
p330
aV1
aV1
aV-
aV-
aV2.3
p331
aV69.6
p332
aV1.3
p333
aV-
aV6.62
p334
aa(lp335
V2017/2018
p336
aVBurnley
p337
aVEPL
p338
aV20(4)
p339
aV1634
p340
aV10
p341
aV1
aV1
aV-
aV1.6
p342
aV60.2
p343
aV3.5
p344
aV1
aV6.79
p345
aa(lp346
V2016/2017
p347
aVLeeds
p348
aVEC
p349
aV41(3)
p350
aV3627
p351
aV27
p352
aV4
aV3
aV-
aV2.4
p353
aV61.7
p354
aV3.3
p355
aV6
aV7.00
p356
aa(lp357
V2015/2016
p358
aVLeeds
p359
aVEC
p360
aV33(3)
p361
aV2883
p362
aV13
p363
aV4
aV1
aV-
aV2.9
p364
aV60.1
p365
aV3.7
p366
aV1
aV6.78
p367
aa(lp368
V2014/2015
p369
aVIpswich
p370
aVEC
p371
aV3(5)
p372
aV268
p373
aV-
aV-
aV-
aV-
aV0.6
p374
aV53.8
p375
aV1.5
p376
aV-
aV5.96
p377
aa(lp378
V2014/2015
p379
aVLeicester
p380
aVEPL
p381
aV0(7)
p382
aV107
p383
aV1
aV-
aV-
aV-
aV0.7
p384
aV57.9
p385
aV1.4
p386
aV-
aV6.17
p387
aa(lp388
V2013/2014
p389
aVLeicester
p390
aVEC
p391
aV7(19)
p392
aV919
p393
aV4
aV4
aV-
aV-
aV1.2
p394
aV66.7
p395
aV1.7
p396
aV-
aV6.46
p397
aa(lp398
V2010/2011
p399
aVWest Bromwich..
p400
aVEPL
p401
aV0(1)
p402
aV8
aV-
aV-
aV-
aV-
aV-
aV66.7
p403
aV-
aV-
aV6.05
p404
aa(lp405
VTotal / Average
p406
aV
aV
aV166
p407
aV10603
p408
aV57
p409
aV14
p410
aV5
aV0
aV1.9
p411
aV62
p412
aV2.9
p413
aV8
aV6.67
p414
aasS'id'
p415
V73380
p416
sb.