(i__main__
Player
p1
(dp2
S'name'
p3
VJoel Matip 
p4
sS'offensive_data'
p5
(lp6
(lp7
a(lp8
V2018/2019
p9
aVLiverpool
p10
aVEPL
p11
aV3(5)
p12
aV275
p13
aV1
aV-
aV-
aV-
aV0.1
p14
aV83.9
p15
aV2.3
p16
aV1
aV6.71
p17
aa(lp18
V2018/2019
p19
aVLiverpool
p20
aVUCL
p21
aV2
aV180
p22
aV-
aV-
aV-
aV-
aV1
aV81.6
p23
aV7.5
p24
aV-
aV6.99
p25
aa(lp26
V2017/2018
p27
aVLiverpool
p28
aVUCL
p29
aV5(1)
p30
aV466
p31
aV-
aV-
aV-
aV-
aV-
aV91.2
p32
aV2
aV-
aV6.78
p33
aa(lp34
V2017/2018
p35
aVLiverpool
p36
aVEPL
p37
aV22(3)
p38
aV1995
p39
aV1
aV-
aV3
aV-
aV0.4
p40
aV88.7
p41
aV2.3
p42
aV-
aV6.92
p43
aa(lp44
V2016/2017
p45
aVLiverpool
p46
aVEPL
p47
aV27(2)
p48
aV2456
p49
aV1
aV-
aV3
aV-
aV0.9
p50
aV87.2
p51
aV2.2
p52
aV-
aV7.11
p53
aa(lp54
V2015/2016
p55
aVSchalke 04
p56
aVGB
p57
aV34
p58
aV3060
p59
aV3
aV3
aV3
aV-
aV0.9
p60
aV83.5
p61
aV3.5
p62
aV2
aV7.32
p63
aa(lp64
V2015/2016
p65
aVSchalke 04
p66
aVUEL
p67
aV5
aV450
p68
aV1
aV-
aV-
aV-
aV1.6
p69
aV89.9
p70
aV3.4
p71
aV-
aV7.04
p72
aa(lp73
V2014/2015
p74
aVSchalke 04
p75
aVGB
p76
aV17(4)
p77
aV1546
p78
aV2
aV-
aV2
aV1
aV0.8
p79
aV81.6
p80
aV3.1
p81
aV-
aV7.00
p82
aa(lp83
V2014/2015
p84
aVSchalke 04
p85
aVUCL
p86
aV3
aV270
p87
aV-
aV-
aV-
aV-
aV-
aV89.3
p88
aV1.7
p89
aV-
aV6.64
p90
aa(lp91
V2013/2014
p92
aVSchalke 04
p93
aVUCL
p94
aV6
aV540
p95
aV1
aV-
aV1
aV-
aV0.3
p96
aV91.7
p97
aV1.2
p98
aV-
aV6.66
p99
aa(lp100
V2013/2014
p101
aVSchalke 04
p102
aVGB
p103
aV31
p104
aV2790
p105
aV3
aV2
aV4
aV-
aV0.5
p106
aV80.8
p107
aV4.3
p108
aV1
aV7.45
p109
aa(lp110
V2014
p111
aVCameroon
p112
aVWC
p113
aV2
aV180
p114
aV1
aV-
aV-
aV-
aV1
aV78
p115
aV2
aV-
aV6.80
p116
aa(lp117
V2012/2013
p118
aVSchalke 04
p119
aVGB
p120
aV32
p121
aV2873
p122
aV3
aV-
aV4
aV-
aV0.4
p123
aV82
p124
aV1.4
p125
aV2
aV7.09
p126
aa(lp127
V2012/2013
p128
aVSchalke 04
p129
aVUCL
p130
aV6
aV540
p131
aV-
aV-
aV2
aV-
aV0.7
p132
aV83.8
p133
aV1.2
p134
aV-
aV7.08
p135
aa(lp136
V2011/2012
p137
aVSchalke 04
p138
aVGB
p139
aV30
p140
aV2631
p141
aV3
aV4
aV6
aV-
aV0.3
p142
aV81.3
p143
aV1
aV3
aV7.34
p144
aa(lp145
V2010/2011
p146
aVSchalke 04
p147
aVGB
p148
aV14(12)
p149
aV1500
p150
aV-
aV1
aV1
aV-
aV0.3
p151
aV79.1
p152
aV0.3
p153
aV-
aV6.44
p154
aa(lp155
V2010/2011
p156
aVSchalke 04
p157
aVUCL
p158
aV6(5)
p159
aV617
p160
aV1
aV-
aV1
aV-
aV0.5
p161
aV78.3
p162
aV0.5
p163
aV-
aV6.87
p164
aa(lp165
V2009/2010
p166
aVSchalke 04
p167
aVGB
p168
aV17(3)
p169
aV1392
p170
aV3
aV-
aV2
aV-
aV0.4
p171
aV75
p172
aV1.1
p173
aV2
aV6.80
p174
aa(lp175
VTotal / Average
p176
aV
aV
aV297
p177
aV23761
p178
aV24
p179
aV10
p180
aV32
p181
aV1
aV0.6
p182
aV82.8
p183
aV2.1
p184
aV11
p185
aV7.04
p186
aasS'url'
p187
S'https://www.whoscored.com/Players/74341/History/'
p188
sS'passing_data'
p189
(lp190
(lp191
a(lp192
V2018/2019
p193
aVLiverpool
p194
aVEPL
p195
aV3(5)
p196
aV275
p197
aV1
aV-
aV-
aV-
aV0.1
p198
aV83.9
p199
aV2.3
p200
aV1
aV6.71
p201
aa(lp202
V2018/2019
p203
aVLiverpool
p204
aVUCL
p205
aV2
aV180
p206
aV-
aV-
aV-
aV-
aV1
aV81.6
p207
aV7.5
p208
aV-
aV6.99
p209
aa(lp210
V2017/2018
p211
aVLiverpool
p212
aVUCL
p213
aV5(1)
p214
aV466
p215
aV-
aV-
aV-
aV-
aV-
aV91.2
p216
aV2
aV-
aV6.78
p217
aa(lp218
V2017/2018
p219
aVLiverpool
p220
aVEPL
p221
aV22(3)
p222
aV1995
p223
aV1
aV-
aV3
aV-
aV0.4
p224
aV88.7
p225
aV2.3
p226
aV-
aV6.92
p227
aa(lp228
V2016/2017
p229
aVLiverpool
p230
aVEPL
p231
aV27(2)
p232
aV2456
p233
aV1
aV-
aV3
aV-
aV0.9
p234
aV87.2
p235
aV2.2
p236
aV-
aV7.11
p237
aa(lp238
V2015/2016
p239
aVSchalke 04
p240
aVGB
p241
aV34
p242
aV3060
p243
aV3
aV3
aV3
aV-
aV0.9
p244
aV83.5
p245
aV3.5
p246
aV2
aV7.32
p247
aa(lp248
V2015/2016
p249
aVSchalke 04
p250
aVUEL
p251
aV5
aV450
p252
aV1
aV-
aV-
aV-
aV1.6
p253
aV89.9
p254
aV3.4
p255
aV-
aV7.04
p256
aa(lp257
V2014/2015
p258
aVSchalke 04
p259
aVGB
p260
aV17(4)
p261
aV1546
p262
aV2
aV-
aV2
aV1
aV0.8
p263
aV81.6
p264
aV3.1
p265
aV-
aV7.00
p266
aa(lp267
V2014/2015
p268
aVSchalke 04
p269
aVUCL
p270
aV3
aV270
p271
aV-
aV-
aV-
aV-
aV-
aV89.3
p272
aV1.7
p273
aV-
aV6.64
p274
aa(lp275
V2013/2014
p276
aVSchalke 04
p277
aVUCL
p278
aV6
aV540
p279
aV1
aV-
aV1
aV-
aV0.3
p280
aV91.7
p281
aV1.2
p282
aV-
aV6.66
p283
aa(lp284
V2013/2014
p285
aVSchalke 04
p286
aVGB
p287
aV31
p288
aV2790
p289
aV3
aV2
aV4
aV-
aV0.5
p290
aV80.8
p291
aV4.3
p292
aV1
aV7.45
p293
aa(lp294
V2014
p295
aVCameroon
p296
aVWC
p297
aV2
aV180
p298
aV1
aV-
aV-
aV-
aV1
aV78
p299
aV2
aV-
aV6.80
p300
aa(lp301
V2012/2013
p302
aVSchalke 04
p303
aVGB
p304
aV32
p305
aV2873
p306
aV3
aV-
aV4
aV-
aV0.4
p307
aV82
p308
aV1.4
p309
aV2
aV7.09
p310
aa(lp311
V2012/2013
p312
aVSchalke 04
p313
aVUCL
p314
aV6
aV540
p315
aV-
aV-
aV2
aV-
aV0.7
p316
aV83.8
p317
aV1.2
p318
aV-
aV7.08
p319
aa(lp320
V2011/2012
p321
aVSchalke 04
p322
aVGB
p323
aV30
p324
aV2631
p325
aV3
aV4
aV6
aV-
aV0.3
p326
aV81.3
p327
aV1
aV3
aV7.34
p328
aa(lp329
V2010/2011
p330
aVSchalke 04
p331
aVGB
p332
aV14(12)
p333
aV1500
p334
aV-
aV1
aV1
aV-
aV0.3
p335
aV79.1
p336
aV0.3
p337
aV-
aV6.44
p338
aa(lp339
V2010/2011
p340
aVSchalke 04
p341
aVUCL
p342
aV6(5)
p343
aV617
p344
aV1
aV-
aV1
aV-
aV0.5
p345
aV78.3
p346
aV0.5
p347
aV-
aV6.87
p348
aa(lp349
V2009/2010
p350
aVSchalke 04
p351
aVGB
p352
aV17(3)
p353
aV1392
p354
aV3
aV-
aV2
aV-
aV0.4
p355
aV75
p356
aV1.1
p357
aV2
aV6.80
p358
aa(lp359
VTotal / Average
p360
aV
aV
aV297
p361
aV23761
p362
aV24
p363
aV10
p364
aV32
p365
aV1
aV0.6
p366
aV82.8
p367
aV2.1
p368
aV11
p369
aV7.04
p370
aasS'defensive_data'
p371
(lp372
(lp373
a(lp374
V2018/2019
p375
aVLiverpool
p376
aVEPL
p377
aV3(5)
p378
aV275
p379
aV1
aV-
aV-
aV-
aV0.1
p380
aV83.9
p381
aV2.3
p382
aV1
aV6.71
p383
aa(lp384
V2018/2019
p385
aVLiverpool
p386
aVUCL
p387
aV2
aV180
p388
aV-
aV-
aV-
aV-
aV1
aV81.6
p389
aV7.5
p390
aV-
aV6.99
p391
aa(lp392
V2017/2018
p393
aVLiverpool
p394
aVUCL
p395
aV5(1)
p396
aV466
p397
aV-
aV-
aV-
aV-
aV-
aV91.2
p398
aV2
aV-
aV6.78
p399
aa(lp400
V2017/2018
p401
aVLiverpool
p402
aVEPL
p403
aV22(3)
p404
aV1995
p405
aV1
aV-
aV3
aV-
aV0.4
p406
aV88.7
p407
aV2.3
p408
aV-
aV6.92
p409
aa(lp410
V2016/2017
p411
aVLiverpool
p412
aVEPL
p413
aV27(2)
p414
aV2456
p415
aV1
aV-
aV3
aV-
aV0.9
p416
aV87.2
p417
aV2.2
p418
aV-
aV7.11
p419
aa(lp420
V2015/2016
p421
aVSchalke 04
p422
aVGB
p423
aV34
p424
aV3060
p425
aV3
aV3
aV3
aV-
aV0.9
p426
aV83.5
p427
aV3.5
p428
aV2
aV7.32
p429
aa(lp430
V2015/2016
p431
aVSchalke 04
p432
aVUEL
p433
aV5
aV450
p434
aV1
aV-
aV-
aV-
aV1.6
p435
aV89.9
p436
aV3.4
p437
aV-
aV7.04
p438
aa(lp439
V2014/2015
p440
aVSchalke 04
p441
aVGB
p442
aV17(4)
p443
aV1546
p444
aV2
aV-
aV2
aV1
aV0.8
p445
aV81.6
p446
aV3.1
p447
aV-
aV7.00
p448
aa(lp449
V2014/2015
p450
aVSchalke 04
p451
aVUCL
p452
aV3
aV270
p453
aV-
aV-
aV-
aV-
aV-
aV89.3
p454
aV1.7
p455
aV-
aV6.64
p456
aa(lp457
V2013/2014
p458
aVSchalke 04
p459
aVUCL
p460
aV6
aV540
p461
aV1
aV-
aV1
aV-
aV0.3
p462
aV91.7
p463
aV1.2
p464
aV-
aV6.66
p465
aa(lp466
V2013/2014
p467
aVSchalke 04
p468
aVGB
p469
aV31
p470
aV2790
p471
aV3
aV2
aV4
aV-
aV0.5
p472
aV80.8
p473
aV4.3
p474
aV1
aV7.45
p475
aa(lp476
V2014
p477
aVCameroon
p478
aVWC
p479
aV2
aV180
p480
aV1
aV-
aV-
aV-
aV1
aV78
p481
aV2
aV-
aV6.80
p482
aa(lp483
V2012/2013
p484
aVSchalke 04
p485
aVGB
p486
aV32
p487
aV2873
p488
aV3
aV-
aV4
aV-
aV0.4
p489
aV82
p490
aV1.4
p491
aV2
aV7.09
p492
aa(lp493
V2012/2013
p494
aVSchalke 04
p495
aVUCL
p496
aV6
aV540
p497
aV-
aV-
aV2
aV-
aV0.7
p498
aV83.8
p499
aV1.2
p500
aV-
aV7.08
p501
aa(lp502
V2011/2012
p503
aVSchalke 04
p504
aVGB
p505
aV30
p506
aV2631
p507
aV3
aV4
aV6
aV-
aV0.3
p508
aV81.3
p509
aV1
aV3
aV7.34
p510
aa(lp511
V2010/2011
p512
aVSchalke 04
p513
aVGB
p514
aV14(12)
p515
aV1500
p516
aV-
aV1
aV1
aV-
aV0.3
p517
aV79.1
p518
aV0.3
p519
aV-
aV6.44
p520
aa(lp521
V2010/2011
p522
aVSchalke 04
p523
aVUCL
p524
aV6(5)
p525
aV617
p526
aV1
aV-
aV1
aV-
aV0.5
p527
aV78.3
p528
aV0.5
p529
aV-
aV6.87
p530
aa(lp531
V2009/2010
p532
aVSchalke 04
p533
aVGB
p534
aV17(3)
p535
aV1392
p536
aV3
aV-
aV2
aV-
aV0.4
p537
aV75
p538
aV1.1
p539
aV2
aV6.80
p540
aa(lp541
VTotal / Average
p542
aV
aV
aV297
p543
aV23761
p544
aV24
p545
aV10
p546
aV32
p547
aV1
aV0.6
p548
aV82.8
p549
aV2.1
p550
aV11
p551
aV7.04
p552
aasS'sumary_data'
p553
(lp554
(lp555
a(lp556
V2018/2019
p557
aVLiverpool
p558
aVEPL
p559
aV3(5)
p560
aV275
p561
aV1
aV-
aV-
aV-
aV0.1
p562
aV83.9
p563
aV2.3
p564
aV1
aV6.71
p565
aa(lp566
V2018/2019
p567
aVLiverpool
p568
aVUCL
p569
aV2
aV180
p570
aV-
aV-
aV-
aV-
aV1
aV81.6
p571
aV7.5
p572
aV-
aV6.99
p573
aa(lp574
V2017/2018
p575
aVLiverpool
p576
aVUCL
p577
aV5(1)
p578
aV466
p579
aV-
aV-
aV-
aV-
aV-
aV91.2
p580
aV2
aV-
aV6.78
p581
aa(lp582
V2017/2018
p583
aVLiverpool
p584
aVEPL
p585
aV22(3)
p586
aV1995
p587
aV1
aV-
aV3
aV-
aV0.4
p588
aV88.7
p589
aV2.3
p590
aV-
aV6.92
p591
aa(lp592
V2016/2017
p593
aVLiverpool
p594
aVEPL
p595
aV27(2)
p596
aV2456
p597
aV1
aV-
aV3
aV-
aV0.9
p598
aV87.2
p599
aV2.2
p600
aV-
aV7.11
p601
aa(lp602
V2015/2016
p603
aVSchalke 04
p604
aVGB
p605
aV34
p606
aV3060
p607
aV3
aV3
aV3
aV-
aV0.9
p608
aV83.5
p609
aV3.5
p610
aV2
aV7.32
p611
aa(lp612
V2015/2016
p613
aVSchalke 04
p614
aVUEL
p615
aV5
aV450
p616
aV1
aV-
aV-
aV-
aV1.6
p617
aV89.9
p618
aV3.4
p619
aV-
aV7.04
p620
aa(lp621
V2014/2015
p622
aVSchalke 04
p623
aVGB
p624
aV17(4)
p625
aV1546
p626
aV2
aV-
aV2
aV1
aV0.8
p627
aV81.6
p628
aV3.1
p629
aV-
aV7.00
p630
aa(lp631
V2014/2015
p632
aVSchalke 04
p633
aVUCL
p634
aV3
aV270
p635
aV-
aV-
aV-
aV-
aV-
aV89.3
p636
aV1.7
p637
aV-
aV6.64
p638
aa(lp639
V2013/2014
p640
aVSchalke 04
p641
aVUCL
p642
aV6
aV540
p643
aV1
aV-
aV1
aV-
aV0.3
p644
aV91.7
p645
aV1.2
p646
aV-
aV6.66
p647
aa(lp648
V2013/2014
p649
aVSchalke 04
p650
aVGB
p651
aV31
p652
aV2790
p653
aV3
aV2
aV4
aV-
aV0.5
p654
aV80.8
p655
aV4.3
p656
aV1
aV7.45
p657
aa(lp658
V2014
p659
aVCameroon
p660
aVWC
p661
aV2
aV180
p662
aV1
aV-
aV-
aV-
aV1
aV78
p663
aV2
aV-
aV6.80
p664
aa(lp665
V2012/2013
p666
aVSchalke 04
p667
aVGB
p668
aV32
p669
aV2873
p670
aV3
aV-
aV4
aV-
aV0.4
p671
aV82
p672
aV1.4
p673
aV2
aV7.09
p674
aa(lp675
V2012/2013
p676
aVSchalke 04
p677
aVUCL
p678
aV6
aV540
p679
aV-
aV-
aV2
aV-
aV0.7
p680
aV83.8
p681
aV1.2
p682
aV-
aV7.08
p683
aa(lp684
V2011/2012
p685
aVSchalke 04
p686
aVGB
p687
aV30
p688
aV2631
p689
aV3
aV4
aV6
aV-
aV0.3
p690
aV81.3
p691
aV1
aV3
aV7.34
p692
aa(lp693
V2010/2011
p694
aVSchalke 04
p695
aVGB
p696
aV14(12)
p697
aV1500
p698
aV-
aV1
aV1
aV-
aV0.3
p699
aV79.1
p700
aV0.3
p701
aV-
aV6.44
p702
aa(lp703
V2010/2011
p704
aVSchalke 04
p705
aVUCL
p706
aV6(5)
p707
aV617
p708
aV1
aV-
aV1
aV-
aV0.5
p709
aV78.3
p710
aV0.5
p711
aV-
aV6.87
p712
aa(lp713
V2009/2010
p714
aVSchalke 04
p715
aVGB
p716
aV17(3)
p717
aV1392
p718
aV3
aV-
aV2
aV-
aV0.4
p719
aV75
p720
aV1.1
p721
aV2
aV6.80
p722
aa(lp723
VTotal / Average
p724
aV
aV
aV297
p725
aV23761
p726
aV24
p727
aV10
p728
aV32
p729
aV1
aV0.6
p730
aV82.8
p731
aV2.1
p732
aV11
p733
aV7.04
p734
aasS'id'
p735
V74341
p736
sb.