(i__main__
Player
p1
(dp2
S'name'
p3
VJoselu 
p4
sS'offensive_data'
p5
(lp6
(lp7
a(lp8
V2018/2019
p9
aVNewcastle Uni..
p10
aVEPL
p11
aV4(9)
p12
aV488
p13
aV2
aV-
aV1
aV-
aV1.2
p14
aV62
p15
aV2.7
p16
aV-
aV6.43
p17
aa(lp18
V2017/2018
p19
aVNewcastle Uni..
p20
aVEPL
p21
aV19(11)
p22
aV1716
p23
aV4
aV1
aV2
aV-
aV1.6
p24
aV62.7
p25
aV4.8
p26
aV-
aV6.74
p27
aa(lp28
V2016/2017
p29
aVDeportivo La ..
p30
aVSLL
p31
aV9(11)
p32
aV892
p33
aV5
aV1
aV7
aV-
aV1.5
p34
aV62.6
p35
aV3.2
p36
aV2
aV6.60
p37
aa(lp38
V2015/2016
p39
aVStoke
p40
aVEPL
p41
aV10(12)
p42
aV1090
p43
aV4
aV1
aV-
aV-
aV1.3
p44
aV71.8
p45
aV2.6
p46
aV1
aV6.59
p47
aa(lp48
V2014/2015
p49
aVHannover 96
p50
aVGB
p51
aV28(2)
p52
aV2476
p53
aV8
aV3
aV4
aV-
aV2.6
p54
aV65.1
p55
aV6.9
p56
aV2
aV7.21
p57
aa(lp58
V2013/2014
p59
aVEintracht Fra..
p60
aVUEL
p61
aV3(3)
p62
aV271
p63
aV1
aV1
aV-
aV-
aV0.8
p64
aV74.5
p65
aV1
aV-
aV6.59
p66
aa(lp67
V2013/2014
p68
aVEintracht Fra..
p69
aVGB
p70
aV18(6)
p71
aV1672
p72
aV9
aV2
aV3
aV-
aV2.8
p73
aV72.1
p74
aV6
aV3
aV7.16
p75
aa(lp76
V2012/2013
p77
aVHoffenheim
p78
aVGB
p79
aV17(8)
p80
aV1613
p81
aV5
aV2
aV2
aV-
aV2.1
p82
aV71.6
p83
aV2.5
p84
aV2
aV6.69
p85
aa(lp86
V2010/2011
p87
aVReal Madrid
p88
aVSLL
p89
aV0(1)
p90
aV5
aV1
aV-
aV-
aV-
aV1
aV-
aV-
aV-
aV6.79
p91
aa(lp92
VTotal / Average
p93
aV
aV
aV171
p94
aV10223
p95
aV39
p96
aV11
p97
aV19
p98
aV0
aV1.9
p99
aV66.9
p100
aV4.2
p101
aV10
p102
aV6.81
p103
aasS'url'
p104
S'https://www.whoscored.com/Players/74603/History/'
p105
sS'passing_data'
p106
(lp107
(lp108
a(lp109
V2018/2019
p110
aVNewcastle Uni..
p111
aVEPL
p112
aV4(9)
p113
aV488
p114
aV2
aV-
aV1
aV-
aV1.2
p115
aV62
p116
aV2.7
p117
aV-
aV6.43
p118
aa(lp119
V2017/2018
p120
aVNewcastle Uni..
p121
aVEPL
p122
aV19(11)
p123
aV1716
p124
aV4
aV1
aV2
aV-
aV1.6
p125
aV62.7
p126
aV4.8
p127
aV-
aV6.74
p128
aa(lp129
V2016/2017
p130
aVDeportivo La ..
p131
aVSLL
p132
aV9(11)
p133
aV892
p134
aV5
aV1
aV7
aV-
aV1.5
p135
aV62.6
p136
aV3.2
p137
aV2
aV6.60
p138
aa(lp139
V2015/2016
p140
aVStoke
p141
aVEPL
p142
aV10(12)
p143
aV1090
p144
aV4
aV1
aV-
aV-
aV1.3
p145
aV71.8
p146
aV2.6
p147
aV1
aV6.59
p148
aa(lp149
V2014/2015
p150
aVHannover 96
p151
aVGB
p152
aV28(2)
p153
aV2476
p154
aV8
aV3
aV4
aV-
aV2.6
p155
aV65.1
p156
aV6.9
p157
aV2
aV7.21
p158
aa(lp159
V2013/2014
p160
aVEintracht Fra..
p161
aVUEL
p162
aV3(3)
p163
aV271
p164
aV1
aV1
aV-
aV-
aV0.8
p165
aV74.5
p166
aV1
aV-
aV6.59
p167
aa(lp168
V2013/2014
p169
aVEintracht Fra..
p170
aVGB
p171
aV18(6)
p172
aV1672
p173
aV9
aV2
aV3
aV-
aV2.8
p174
aV72.1
p175
aV6
aV3
aV7.16
p176
aa(lp177
V2012/2013
p178
aVHoffenheim
p179
aVGB
p180
aV17(8)
p181
aV1613
p182
aV5
aV2
aV2
aV-
aV2.1
p183
aV71.6
p184
aV2.5
p185
aV2
aV6.69
p186
aa(lp187
V2010/2011
p188
aVReal Madrid
p189
aVSLL
p190
aV0(1)
p191
aV5
aV1
aV-
aV-
aV-
aV1
aV-
aV-
aV-
aV6.79
p192
aa(lp193
VTotal / Average
p194
aV
aV
aV171
p195
aV10223
p196
aV39
p197
aV11
p198
aV19
p199
aV0
aV1.9
p200
aV66.9
p201
aV4.2
p202
aV10
p203
aV6.81
p204
aasS'defensive_data'
p205
(lp206
(lp207
a(lp208
V2018/2019
p209
aVNewcastle Uni..
p210
aVEPL
p211
aV4(9)
p212
aV488
p213
aV2
aV-
aV1
aV-
aV1.2
p214
aV62
p215
aV2.7
p216
aV-
aV6.43
p217
aa(lp218
V2017/2018
p219
aVNewcastle Uni..
p220
aVEPL
p221
aV19(11)
p222
aV1716
p223
aV4
aV1
aV2
aV-
aV1.6
p224
aV62.7
p225
aV4.8
p226
aV-
aV6.74
p227
aa(lp228
V2016/2017
p229
aVDeportivo La ..
p230
aVSLL
p231
aV9(11)
p232
aV892
p233
aV5
aV1
aV7
aV-
aV1.5
p234
aV62.6
p235
aV3.2
p236
aV2
aV6.60
p237
aa(lp238
V2015/2016
p239
aVStoke
p240
aVEPL
p241
aV10(12)
p242
aV1090
p243
aV4
aV1
aV-
aV-
aV1.3
p244
aV71.8
p245
aV2.6
p246
aV1
aV6.59
p247
aa(lp248
V2014/2015
p249
aVHannover 96
p250
aVGB
p251
aV28(2)
p252
aV2476
p253
aV8
aV3
aV4
aV-
aV2.6
p254
aV65.1
p255
aV6.9
p256
aV2
aV7.21
p257
aa(lp258
V2013/2014
p259
aVEintracht Fra..
p260
aVUEL
p261
aV3(3)
p262
aV271
p263
aV1
aV1
aV-
aV-
aV0.8
p264
aV74.5
p265
aV1
aV-
aV6.59
p266
aa(lp267
V2013/2014
p268
aVEintracht Fra..
p269
aVGB
p270
aV18(6)
p271
aV1672
p272
aV9
aV2
aV3
aV-
aV2.8
p273
aV72.1
p274
aV6
aV3
aV7.16
p275
aa(lp276
V2012/2013
p277
aVHoffenheim
p278
aVGB
p279
aV17(8)
p280
aV1613
p281
aV5
aV2
aV2
aV-
aV2.1
p282
aV71.6
p283
aV2.5
p284
aV2
aV6.69
p285
aa(lp286
V2010/2011
p287
aVReal Madrid
p288
aVSLL
p289
aV0(1)
p290
aV5
aV1
aV-
aV-
aV-
aV1
aV-
aV-
aV-
aV6.79
p291
aa(lp292
VTotal / Average
p293
aV
aV
aV171
p294
aV10223
p295
aV39
p296
aV11
p297
aV19
p298
aV0
aV1.9
p299
aV66.9
p300
aV4.2
p301
aV10
p302
aV6.81
p303
aasS'sumary_data'
p304
(lp305
(lp306
a(lp307
V2018/2019
p308
aVNewcastle Uni..
p309
aVEPL
p310
aV4(9)
p311
aV488
p312
aV2
aV-
aV1
aV-
aV1.2
p313
aV62
p314
aV2.7
p315
aV-
aV6.43
p316
aa(lp317
V2017/2018
p318
aVNewcastle Uni..
p319
aVEPL
p320
aV19(11)
p321
aV1716
p322
aV4
aV1
aV2
aV-
aV1.6
p323
aV62.7
p324
aV4.8
p325
aV-
aV6.74
p326
aa(lp327
V2016/2017
p328
aVDeportivo La ..
p329
aVSLL
p330
aV9(11)
p331
aV892
p332
aV5
aV1
aV7
aV-
aV1.5
p333
aV62.6
p334
aV3.2
p335
aV2
aV6.60
p336
aa(lp337
V2015/2016
p338
aVStoke
p339
aVEPL
p340
aV10(12)
p341
aV1090
p342
aV4
aV1
aV-
aV-
aV1.3
p343
aV71.8
p344
aV2.6
p345
aV1
aV6.59
p346
aa(lp347
V2014/2015
p348
aVHannover 96
p349
aVGB
p350
aV28(2)
p351
aV2476
p352
aV8
aV3
aV4
aV-
aV2.6
p353
aV65.1
p354
aV6.9
p355
aV2
aV7.21
p356
aa(lp357
V2013/2014
p358
aVEintracht Fra..
p359
aVUEL
p360
aV3(3)
p361
aV271
p362
aV1
aV1
aV-
aV-
aV0.8
p363
aV74.5
p364
aV1
aV-
aV6.59
p365
aa(lp366
V2013/2014
p367
aVEintracht Fra..
p368
aVGB
p369
aV18(6)
p370
aV1672
p371
aV9
aV2
aV3
aV-
aV2.8
p372
aV72.1
p373
aV6
aV3
aV7.16
p374
aa(lp375
V2012/2013
p376
aVHoffenheim
p377
aVGB
p378
aV17(8)
p379
aV1613
p380
aV5
aV2
aV2
aV-
aV2.1
p381
aV71.6
p382
aV2.5
p383
aV2
aV6.69
p384
aa(lp385
V2010/2011
p386
aVReal Madrid
p387
aVSLL
p388
aV0(1)
p389
aV5
aV1
aV-
aV-
aV-
aV1
aV-
aV-
aV-
aV6.79
p390
aa(lp391
VTotal / Average
p392
aV
aV
aV171
p393
aV10223
p394
aV39
p395
aV11
p396
aV19
p397
aV0
aV1.9
p398
aV66.9
p399
aV4.2
p400
aV10
p401
aV6.81
p402
aasS'id'
p403
V74603
p404
sb.