(i__main__
Player
p1
(dp2
S'name'
p3
VKevin Long 
p4
sS'offensive_data'
p5
(lp6
(lp7
a(lp8
V2018/2019
p9
aVBurnley
p10
aVEPL
p11
aV4(1)
p12
aV423
p13
aV-
aV-
aV-
aV-
aV0.2
p14
aV80.6
p15
aV3.4
p16
aV-
aV6.97
p17
aa(lp18
V2018/2019
p19
aVIreland
p20
aVUNL
p21
aV3
aV256
p22
aV-
aV-
aV1
aV-
aV-
aV76.1
p23
aV2.7
p24
aV-
aV6.83
p25
aa(lp26
V2017/2018
p27
aVBurnley
p28
aVEPL
p29
aV16
p30
aV1440
p31
aV1
aV2
aV1
aV-
aV0.6
p32
aV71.7
p33
aV5
aV3
aV7.16
p34
aa(lp35
V2016/2017
p36
aVBurnley
p37
aVEPL
p38
aV3
aV270
p39
aV-
aV-
aV-
aV-
aV0.3
p40
aV69.4
p41
aV2.7
p42
aV-
aV6.67
p43
aa(lp44
V2015/2016
p45
aVMilton Keynes..
p46
aVEC
p47
aV2
aV180
p48
aV-
aV-
aV-
aV-
aV1
aV85.4
p49
aV2
aV-
aV6.45
p50
aa(lp51
V2014/2015
p52
aVBurnley
p53
aVEPL
p54
aV0(1)
p55
aV20
p56
aV-
aV-
aV-
aV-
aV-
aV66.7
p57
aV1
aV-
aV6.31
p58
aa(lp59
V2013/2014
p60
aVBurnley
p61
aVEC
p62
aV5(2)
p63
aV458
p64
aV-
aV-
aV-
aV-
aV0.1
p65
aV77.6
p66
aV2.1
p67
aV-
aV6.69
p68
aa(lp69
VTotal / Average
p70
aV
aV
aV37
p71
aV3047
p72
aV1
aV2
aV2
aV0
aV0.4
p73
aV74.8
p74
aV3.6
p75
aV3
aV6.92
p76
aasS'url'
p77
S'https://www.whoscored.com/Players/74606/History/'
p78
sS'passing_data'
p79
(lp80
(lp81
a(lp82
V2018/2019
p83
aVBurnley
p84
aVEPL
p85
aV4(1)
p86
aV423
p87
aV-
aV-
aV-
aV-
aV0.2
p88
aV80.6
p89
aV3.4
p90
aV-
aV6.97
p91
aa(lp92
V2018/2019
p93
aVIreland
p94
aVUNL
p95
aV3
aV256
p96
aV-
aV-
aV1
aV-
aV-
aV76.1
p97
aV2.7
p98
aV-
aV6.83
p99
aa(lp100
V2017/2018
p101
aVBurnley
p102
aVEPL
p103
aV16
p104
aV1440
p105
aV1
aV2
aV1
aV-
aV0.6
p106
aV71.7
p107
aV5
aV3
aV7.16
p108
aa(lp109
V2016/2017
p110
aVBurnley
p111
aVEPL
p112
aV3
aV270
p113
aV-
aV-
aV-
aV-
aV0.3
p114
aV69.4
p115
aV2.7
p116
aV-
aV6.67
p117
aa(lp118
V2015/2016
p119
aVMilton Keynes..
p120
aVEC
p121
aV2
aV180
p122
aV-
aV-
aV-
aV-
aV1
aV85.4
p123
aV2
aV-
aV6.45
p124
aa(lp125
V2014/2015
p126
aVBurnley
p127
aVEPL
p128
aV0(1)
p129
aV20
p130
aV-
aV-
aV-
aV-
aV-
aV66.7
p131
aV1
aV-
aV6.31
p132
aa(lp133
V2013/2014
p134
aVBurnley
p135
aVEC
p136
aV5(2)
p137
aV458
p138
aV-
aV-
aV-
aV-
aV0.1
p139
aV77.6
p140
aV2.1
p141
aV-
aV6.69
p142
aa(lp143
VTotal / Average
p144
aV
aV
aV37
p145
aV3047
p146
aV1
aV2
aV2
aV0
aV0.4
p147
aV74.8
p148
aV3.6
p149
aV3
aV6.92
p150
aasS'defensive_data'
p151
(lp152
(lp153
a(lp154
V2018/2019
p155
aVBurnley
p156
aVEPL
p157
aV4(1)
p158
aV423
p159
aV-
aV-
aV-
aV-
aV0.2
p160
aV80.6
p161
aV3.4
p162
aV-
aV6.97
p163
aa(lp164
V2018/2019
p165
aVIreland
p166
aVUNL
p167
aV3
aV256
p168
aV-
aV-
aV1
aV-
aV-
aV76.1
p169
aV2.7
p170
aV-
aV6.83
p171
aa(lp172
V2017/2018
p173
aVBurnley
p174
aVEPL
p175
aV16
p176
aV1440
p177
aV1
aV2
aV1
aV-
aV0.6
p178
aV71.7
p179
aV5
aV3
aV7.16
p180
aa(lp181
V2016/2017
p182
aVBurnley
p183
aVEPL
p184
aV3
aV270
p185
aV-
aV-
aV-
aV-
aV0.3
p186
aV69.4
p187
aV2.7
p188
aV-
aV6.67
p189
aa(lp190
V2015/2016
p191
aVMilton Keynes..
p192
aVEC
p193
aV2
aV180
p194
aV-
aV-
aV-
aV-
aV1
aV85.4
p195
aV2
aV-
aV6.45
p196
aa(lp197
V2014/2015
p198
aVBurnley
p199
aVEPL
p200
aV0(1)
p201
aV20
p202
aV-
aV-
aV-
aV-
aV-
aV66.7
p203
aV1
aV-
aV6.31
p204
aa(lp205
V2013/2014
p206
aVBurnley
p207
aVEC
p208
aV5(2)
p209
aV458
p210
aV-
aV-
aV-
aV-
aV0.1
p211
aV77.6
p212
aV2.1
p213
aV-
aV6.69
p214
aa(lp215
VTotal / Average
p216
aV
aV
aV37
p217
aV3047
p218
aV1
aV2
aV2
aV0
aV0.4
p219
aV74.8
p220
aV3.6
p221
aV3
aV6.92
p222
aasS'sumary_data'
p223
(lp224
(lp225
a(lp226
V2018/2019
p227
aVBurnley
p228
aVEPL
p229
aV4(1)
p230
aV423
p231
aV-
aV-
aV-
aV-
aV0.2
p232
aV80.6
p233
aV3.4
p234
aV-
aV6.97
p235
aa(lp236
V2018/2019
p237
aVIreland
p238
aVUNL
p239
aV3
aV256
p240
aV-
aV-
aV1
aV-
aV-
aV76.1
p241
aV2.7
p242
aV-
aV6.83
p243
aa(lp244
V2017/2018
p245
aVBurnley
p246
aVEPL
p247
aV16
p248
aV1440
p249
aV1
aV2
aV1
aV-
aV0.6
p250
aV71.7
p251
aV5
aV3
aV7.16
p252
aa(lp253
V2016/2017
p254
aVBurnley
p255
aVEPL
p256
aV3
aV270
p257
aV-
aV-
aV-
aV-
aV0.3
p258
aV69.4
p259
aV2.7
p260
aV-
aV6.67
p261
aa(lp262
V2015/2016
p263
aVMilton Keynes..
p264
aVEC
p265
aV2
aV180
p266
aV-
aV-
aV-
aV-
aV1
aV85.4
p267
aV2
aV-
aV6.45
p268
aa(lp269
V2014/2015
p270
aVBurnley
p271
aVEPL
p272
aV0(1)
p273
aV20
p274
aV-
aV-
aV-
aV-
aV-
aV66.7
p275
aV1
aV-
aV6.31
p276
aa(lp277
V2013/2014
p278
aVBurnley
p279
aVEC
p280
aV5(2)
p281
aV458
p282
aV-
aV-
aV-
aV-
aV0.1
p283
aV77.6
p284
aV2.1
p285
aV-
aV6.69
p286
aa(lp287
VTotal / Average
p288
aV
aV
aV37
p289
aV3047
p290
aV1
aV2
aV2
aV0
aV0.4
p291
aV74.8
p292
aV3.6
p293
aV3
aV6.92
p294
aasS'id'
p295
V74606
p296
sb.