(i__main__
Player
p1
(dp2
S'name'
p3
VManolo Gabbiadini 
p4
sS'offensive_data'
p5
(lp6
(lp7
a(lp8
V2018/2019
p9
aVSouthampton
p10
aVEPL
p11
aV4(8)
p12
aV471
p13
aV1
aV-
aV-
aV-
aV1.7
p14
aV67.8
p15
aV0.7
p16
aV1
aV6.25
p17
aa(lp18
V2017/2018
p19
aVSouthampton
p20
aVEPL
p21
aV11(17)
p22
aV1076
p23
aV5
aV-
aV2
aV-
aV0.8
p24
aV70.9
p25
aV0.5
p26
aV-
aV6.30
p27
aa(lp28
V2016/2017
p29
aVNapoli
p30
aVISA
p31
aV7(6)
p32
aV514
p33
aV3
aV-
aV-
aV1
aV1.8
p34
aV70.1
p35
aV0.1
p36
aV-
aV6.36
p37
aa(lp38
V2016/2017
p39
aVNapoli
p40
aVUCL
p41
aV2(3)
p42
aV177
p43
aV1
aV-
aV-
aV-
aV2
aV60.6
p44
aV0.2
p45
aV-
aV6.31
p46
aa(lp47
V2016/2017
p48
aVSouthampton
p49
aVEPL
p50
aV10(1)
p51
aV731
p52
aV4
aV-
aV1
aV-
aV2.6
p53
aV70.1
p54
aV0.8
p55
aV1
aV6.58
p56
aa(lp57
V2015/2016
p58
aVNapoli
p59
aVISA
p60
aV4(19)
p61
aV543
p62
aV5
aV3
aV1
aV-
aV1.3
p63
aV76.2
p64
aV0.2
p65
aV-
aV6.40
p66
aa(lp67
V2015/2016
p68
aVNapoli
p69
aVUEL
p70
aV4(2)
p71
aV366
p72
aV4
aV-
aV-
aV-
aV3.5
p73
aV77.5
p74
aV1
aV2
aV7.35
p75
aa(lp76
V2014/2015
p77
aVSampdoria
p78
aVISA
p79
aV11(2)
p80
aV979
p81
aV7
aV2
aV4
aV-
aV3.8
p82
aV74
p83
aV0.5
p84
aV1
aV7.22
p85
aa(lp86
V2014/2015
p87
aVNapoli
p88
aVISA
p89
aV8(12)
p90
aV857
p91
aV8
aV1
aV1
aV-
aV1.9
p92
aV80.4
p93
aV0.1
p94
aV-
aV6.86
p95
aa(lp96
V2014/2015
p97
aVNapoli
p98
aVUEL
p99
aV3(3)
p100
aV266
p101
aV2
aV1
aV1
aV-
aV1.2
p102
aV76.9
p103
aV0.7
p104
aV-
aV7.10
p105
aa(lp106
V2013/2014
p107
aVSampdoria
p108
aVISA
p109
aV32(2)
p110
aV2731
p111
aV9
aV4
aV6
aV-
aV3.7
p112
aV73.4
p113
aV1.1
p114
aV1
aV7.01
p115
aa(lp116
V2013
p117
aVItaly U21
p118
aVIEU
p119
aV1(4)
p120
aV166
p121
aV2
aV-
aV1
aV-
aV2.6
p122
aV78.2
p123
aV0.2
p124
aV1
aV6.78
p125
aa(lp126
V2012/2013
p127
aVBologna
p128
aVISA
p129
aV19(11)
p130
aV1729
p131
aV6
aV2
aV8
aV-
aV1.6
p132
aV75.8
p133
aV1.6
p134
aV1
aV6.74
p135
aa(lp136
V2011/2012
p137
aVAtalanta
p138
aVISA
p139
aV8(15)
p140
aV809
p141
aV1
aV2
aV-
aV-
aV1
aV80.6
p142
aV0.2
p143
aV-
aV6.26
p144
aa(lp145
V2009/2010
p146
aVAtalanta
p147
aVISA
p148
aV0(2)
p149
aV23
p150
aV-
aV-
aV-
aV-
aV-
aV45.5
p151
aV0.5
p152
aV-
aV6.13
p153
aa(lp154
VTotal / Average
p155
aV
aV
aV231
p156
aV11438
p157
aV58
p158
aV15
p159
aV25
p160
aV1
aV2
aV74.2
p161
aV0.6
p162
aV8
aV6.64
p163
aasS'url'
p164
S'https://www.whoscored.com/Players/74921/History/'
p165
sS'passing_data'
p166
(lp167
(lp168
a(lp169
V2018/2019
p170
aVSouthampton
p171
aVEPL
p172
aV4(8)
p173
aV471
p174
aV1
aV-
aV-
aV-
aV1.7
p175
aV67.8
p176
aV0.7
p177
aV1
aV6.25
p178
aa(lp179
V2017/2018
p180
aVSouthampton
p181
aVEPL
p182
aV11(17)
p183
aV1076
p184
aV5
aV-
aV2
aV-
aV0.8
p185
aV70.9
p186
aV0.5
p187
aV-
aV6.30
p188
aa(lp189
V2016/2017
p190
aVNapoli
p191
aVISA
p192
aV7(6)
p193
aV514
p194
aV3
aV-
aV-
aV1
aV1.8
p195
aV70.1
p196
aV0.1
p197
aV-
aV6.36
p198
aa(lp199
V2016/2017
p200
aVNapoli
p201
aVUCL
p202
aV2(3)
p203
aV177
p204
aV1
aV-
aV-
aV-
aV2
aV60.6
p205
aV0.2
p206
aV-
aV6.31
p207
aa(lp208
V2016/2017
p209
aVSouthampton
p210
aVEPL
p211
aV10(1)
p212
aV731
p213
aV4
aV-
aV1
aV-
aV2.6
p214
aV70.1
p215
aV0.8
p216
aV1
aV6.58
p217
aa(lp218
V2015/2016
p219
aVNapoli
p220
aVISA
p221
aV4(19)
p222
aV543
p223
aV5
aV3
aV1
aV-
aV1.3
p224
aV76.2
p225
aV0.2
p226
aV-
aV6.40
p227
aa(lp228
V2015/2016
p229
aVNapoli
p230
aVUEL
p231
aV4(2)
p232
aV366
p233
aV4
aV-
aV-
aV-
aV3.5
p234
aV77.5
p235
aV1
aV2
aV7.35
p236
aa(lp237
V2014/2015
p238
aVSampdoria
p239
aVISA
p240
aV11(2)
p241
aV979
p242
aV7
aV2
aV4
aV-
aV3.8
p243
aV74
p244
aV0.5
p245
aV1
aV7.22
p246
aa(lp247
V2014/2015
p248
aVNapoli
p249
aVISA
p250
aV8(12)
p251
aV857
p252
aV8
aV1
aV1
aV-
aV1.9
p253
aV80.4
p254
aV0.1
p255
aV-
aV6.86
p256
aa(lp257
V2014/2015
p258
aVNapoli
p259
aVUEL
p260
aV3(3)
p261
aV266
p262
aV2
aV1
aV1
aV-
aV1.2
p263
aV76.9
p264
aV0.7
p265
aV-
aV7.10
p266
aa(lp267
V2013/2014
p268
aVSampdoria
p269
aVISA
p270
aV32(2)
p271
aV2731
p272
aV9
aV4
aV6
aV-
aV3.7
p273
aV73.4
p274
aV1.1
p275
aV1
aV7.01
p276
aa(lp277
V2013
p278
aVItaly U21
p279
aVIEU
p280
aV1(4)
p281
aV166
p282
aV2
aV-
aV1
aV-
aV2.6
p283
aV78.2
p284
aV0.2
p285
aV1
aV6.78
p286
aa(lp287
V2012/2013
p288
aVBologna
p289
aVISA
p290
aV19(11)
p291
aV1729
p292
aV6
aV2
aV8
aV-
aV1.6
p293
aV75.8
p294
aV1.6
p295
aV1
aV6.74
p296
aa(lp297
V2011/2012
p298
aVAtalanta
p299
aVISA
p300
aV8(15)
p301
aV809
p302
aV1
aV2
aV-
aV-
aV1
aV80.6
p303
aV0.2
p304
aV-
aV6.26
p305
aa(lp306
V2009/2010
p307
aVAtalanta
p308
aVISA
p309
aV0(2)
p310
aV23
p311
aV-
aV-
aV-
aV-
aV-
aV45.5
p312
aV0.5
p313
aV-
aV6.13
p314
aa(lp315
VTotal / Average
p316
aV
aV
aV231
p317
aV11438
p318
aV58
p319
aV15
p320
aV25
p321
aV1
aV2
aV74.2
p322
aV0.6
p323
aV8
aV6.64
p324
aasS'defensive_data'
p325
(lp326
(lp327
a(lp328
V2018/2019
p329
aVSouthampton
p330
aVEPL
p331
aV4(8)
p332
aV471
p333
aV1
aV-
aV-
aV-
aV1.7
p334
aV67.8
p335
aV0.7
p336
aV1
aV6.25
p337
aa(lp338
V2017/2018
p339
aVSouthampton
p340
aVEPL
p341
aV11(17)
p342
aV1076
p343
aV5
aV-
aV2
aV-
aV0.8
p344
aV70.9
p345
aV0.5
p346
aV-
aV6.30
p347
aa(lp348
V2016/2017
p349
aVNapoli
p350
aVISA
p351
aV7(6)
p352
aV514
p353
aV3
aV-
aV-
aV1
aV1.8
p354
aV70.1
p355
aV0.1
p356
aV-
aV6.36
p357
aa(lp358
V2016/2017
p359
aVNapoli
p360
aVUCL
p361
aV2(3)
p362
aV177
p363
aV1
aV-
aV-
aV-
aV2
aV60.6
p364
aV0.2
p365
aV-
aV6.31
p366
aa(lp367
V2016/2017
p368
aVSouthampton
p369
aVEPL
p370
aV10(1)
p371
aV731
p372
aV4
aV-
aV1
aV-
aV2.6
p373
aV70.1
p374
aV0.8
p375
aV1
aV6.58
p376
aa(lp377
V2015/2016
p378
aVNapoli
p379
aVISA
p380
aV4(19)
p381
aV543
p382
aV5
aV3
aV1
aV-
aV1.3
p383
aV76.2
p384
aV0.2
p385
aV-
aV6.40
p386
aa(lp387
V2015/2016
p388
aVNapoli
p389
aVUEL
p390
aV4(2)
p391
aV366
p392
aV4
aV-
aV-
aV-
aV3.5
p393
aV77.5
p394
aV1
aV2
aV7.35
p395
aa(lp396
V2014/2015
p397
aVSampdoria
p398
aVISA
p399
aV11(2)
p400
aV979
p401
aV7
aV2
aV4
aV-
aV3.8
p402
aV74
p403
aV0.5
p404
aV1
aV7.22
p405
aa(lp406
V2014/2015
p407
aVNapoli
p408
aVISA
p409
aV8(12)
p410
aV857
p411
aV8
aV1
aV1
aV-
aV1.9
p412
aV80.4
p413
aV0.1
p414
aV-
aV6.86
p415
aa(lp416
V2014/2015
p417
aVNapoli
p418
aVUEL
p419
aV3(3)
p420
aV266
p421
aV2
aV1
aV1
aV-
aV1.2
p422
aV76.9
p423
aV0.7
p424
aV-
aV7.10
p425
aa(lp426
V2013/2014
p427
aVSampdoria
p428
aVISA
p429
aV32(2)
p430
aV2731
p431
aV9
aV4
aV6
aV-
aV3.7
p432
aV73.4
p433
aV1.1
p434
aV1
aV7.01
p435
aa(lp436
V2013
p437
aVItaly U21
p438
aVIEU
p439
aV1(4)
p440
aV166
p441
aV2
aV-
aV1
aV-
aV2.6
p442
aV78.2
p443
aV0.2
p444
aV1
aV6.78
p445
aa(lp446
V2012/2013
p447
aVBologna
p448
aVISA
p449
aV19(11)
p450
aV1729
p451
aV6
aV2
aV8
aV-
aV1.6
p452
aV75.8
p453
aV1.6
p454
aV1
aV6.74
p455
aa(lp456
V2011/2012
p457
aVAtalanta
p458
aVISA
p459
aV8(15)
p460
aV809
p461
aV1
aV2
aV-
aV-
aV1
aV80.6
p462
aV0.2
p463
aV-
aV6.26
p464
aa(lp465
V2009/2010
p466
aVAtalanta
p467
aVISA
p468
aV0(2)
p469
aV23
p470
aV-
aV-
aV-
aV-
aV-
aV45.5
p471
aV0.5
p472
aV-
aV6.13
p473
aa(lp474
VTotal / Average
p475
aV
aV
aV231
p476
aV11438
p477
aV58
p478
aV15
p479
aV25
p480
aV1
aV2
aV74.2
p481
aV0.6
p482
aV8
aV6.64
p483
aasS'sumary_data'
p484
(lp485
(lp486
a(lp487
V2018/2019
p488
aVSouthampton
p489
aVEPL
p490
aV4(8)
p491
aV471
p492
aV1
aV-
aV-
aV-
aV1.7
p493
aV67.8
p494
aV0.7
p495
aV1
aV6.25
p496
aa(lp497
V2017/2018
p498
aVSouthampton
p499
aVEPL
p500
aV11(17)
p501
aV1076
p502
aV5
aV-
aV2
aV-
aV0.8
p503
aV70.9
p504
aV0.5
p505
aV-
aV6.30
p506
aa(lp507
V2016/2017
p508
aVNapoli
p509
aVISA
p510
aV7(6)
p511
aV514
p512
aV3
aV-
aV-
aV1
aV1.8
p513
aV70.1
p514
aV0.1
p515
aV-
aV6.36
p516
aa(lp517
V2016/2017
p518
aVNapoli
p519
aVUCL
p520
aV2(3)
p521
aV177
p522
aV1
aV-
aV-
aV-
aV2
aV60.6
p523
aV0.2
p524
aV-
aV6.31
p525
aa(lp526
V2016/2017
p527
aVSouthampton
p528
aVEPL
p529
aV10(1)
p530
aV731
p531
aV4
aV-
aV1
aV-
aV2.6
p532
aV70.1
p533
aV0.8
p534
aV1
aV6.58
p535
aa(lp536
V2015/2016
p537
aVNapoli
p538
aVISA
p539
aV4(19)
p540
aV543
p541
aV5
aV3
aV1
aV-
aV1.3
p542
aV76.2
p543
aV0.2
p544
aV-
aV6.40
p545
aa(lp546
V2015/2016
p547
aVNapoli
p548
aVUEL
p549
aV4(2)
p550
aV366
p551
aV4
aV-
aV-
aV-
aV3.5
p552
aV77.5
p553
aV1
aV2
aV7.35
p554
aa(lp555
V2014/2015
p556
aVSampdoria
p557
aVISA
p558
aV11(2)
p559
aV979
p560
aV7
aV2
aV4
aV-
aV3.8
p561
aV74
p562
aV0.5
p563
aV1
aV7.22
p564
aa(lp565
V2014/2015
p566
aVNapoli
p567
aVISA
p568
aV8(12)
p569
aV857
p570
aV8
aV1
aV1
aV-
aV1.9
p571
aV80.4
p572
aV0.1
p573
aV-
aV6.86
p574
aa(lp575
V2014/2015
p576
aVNapoli
p577
aVUEL
p578
aV3(3)
p579
aV266
p580
aV2
aV1
aV1
aV-
aV1.2
p581
aV76.9
p582
aV0.7
p583
aV-
aV7.10
p584
aa(lp585
V2013/2014
p586
aVSampdoria
p587
aVISA
p588
aV32(2)
p589
aV2731
p590
aV9
aV4
aV6
aV-
aV3.7
p591
aV73.4
p592
aV1.1
p593
aV1
aV7.01
p594
aa(lp595
V2013
p596
aVItaly U21
p597
aVIEU
p598
aV1(4)
p599
aV166
p600
aV2
aV-
aV1
aV-
aV2.6
p601
aV78.2
p602
aV0.2
p603
aV1
aV6.78
p604
aa(lp605
V2012/2013
p606
aVBologna
p607
aVISA
p608
aV19(11)
p609
aV1729
p610
aV6
aV2
aV8
aV-
aV1.6
p611
aV75.8
p612
aV1.6
p613
aV1
aV6.74
p614
aa(lp615
V2011/2012
p616
aVAtalanta
p617
aVISA
p618
aV8(15)
p619
aV809
p620
aV1
aV2
aV-
aV-
aV1
aV80.6
p621
aV0.2
p622
aV-
aV6.26
p623
aa(lp624
V2009/2010
p625
aVAtalanta
p626
aVISA
p627
aV0(2)
p628
aV23
p629
aV-
aV-
aV-
aV-
aV-
aV45.5
p630
aV0.5
p631
aV-
aV6.13
p632
aa(lp633
VTotal / Average
p634
aV
aV
aV231
p635
aV11438
p636
aV58
p637
aV15
p638
aV25
p639
aV1
aV2
aV74.2
p640
aV0.6
p641
aV8
aV6.64
p642
aasS'id'
p643
V74921
p644
sb.