(i__main__
Player
p1
(dp2
S'name'
p3
VShane Duffy 
p4
sS'offensive_data'
p5
(lp6
(lp7
a(lp8
V2018/2019
p9
aVBrighton
p10
aVEPL
p11
aV15
p12
aV1288
p13
aV3
aV1
aV3
aV1
aV0.7
p14
aV76
p15
aV4.5
p16
aV4
aV7.20
p17
aa(lp18
V2018/2019
p19
aVIreland
p20
aVUNL
p21
aV4
aV360
p22
aV-
aV-
aV1
aV-
aV1.3
p23
aV78.6
p24
aV4.5
p25
aV-
aV6.71
p26
aa(lp27
V2017/2018
p28
aVBrighton
p29
aVEPL
p30
aV37
p31
aV3294
p32
aV-
aV1
aV8
aV-
aV0.8
p33
aV76.4
p34
aV5.4
p35
aV3
aV7.18
p36
aa(lp37
V2016/2017
p38
aVBlackburn
p39
aVEC
p40
aV3
aV270
p41
aV-
aV-
aV1
aV1
aV1
aV76.6
p42
aV7.7
p43
aV-
aV6.16
p44
aa(lp45
V2016/2017
p46
aVBrighton
p47
aVEC
p48
aV31
p49
aV2790
p50
aV2
aV-
aV5
aV-
aV0.9
p51
aV79.2
p52
aV6.1
p53
aV2
aV7.56
p54
aa(lp55
V2015/2016
p56
aVBlackburn
p57
aVEC
p58
aV41
p59
aV3611
p60
aV4
aV2
aV10
p61
aV1
aV1.8
p62
aV62.2
p63
aV7.4
p64
aV7
aV7.40
p65
aa(lp66
V2014/2015
p67
aVBlackburn
p68
aVEC
p69
aV18(1)
p70
aV1621
p71
aV1
aV1
aV5
aV-
aV1.1
p72
aV65.2
p73
aV5.6
p74
aV2
aV7.41
p75
aa(lp76
V2016
p77
aVIreland
p78
aVUEC
p79
aV2
aV156
p80
aV-
aV-
aV-
aV1
aV1.5
p81
aV52.3
p82
aV8
aV-
aV6.52
p83
aa(lp84
V2013/2014
p85
aVYeovil
p86
aVEC
p87
aV37
p88
aV3330
p89
aV1
aV2
aV7
aV-
aV1
aV61.2
p90
aV6.5
p91
aV9
aV7.72
p92
aa(lp93
V2012/2013
p94
aVEverton
p95
aVEPL
p96
aV0(1)
p97
aV1
aV-
aV-
aV-
aV-
aV-
aV-
aV-
aV-
aV6.00
p98
aa(lp99
V2011/2012
p100
aVEverton
p101
aVEPL
p102
aV2(2)
p103
aV212
p104
aV-
aV-
aV-
aV-
aV0.8
p105
aV61.9
p106
aV1
aV-
aV6.63
p107
aa(lp108
VTotal / Average
p109
aV
aV
aV194
p110
aV16933
p111
aV11
p112
aV7
aV40
p113
aV4
aV1.1
p114
aV68.9
p115
aV6
aV27
p116
aV7.36
p117
aasS'url'
p118
S'https://www.whoscored.com/Players/75692/History/'
p119
sS'passing_data'
p120
(lp121
(lp122
a(lp123
V2018/2019
p124
aVBrighton
p125
aVEPL
p126
aV15
p127
aV1288
p128
aV3
aV1
aV3
aV1
aV0.7
p129
aV76
p130
aV4.5
p131
aV4
aV7.20
p132
aa(lp133
V2018/2019
p134
aVIreland
p135
aVUNL
p136
aV4
aV360
p137
aV-
aV-
aV1
aV-
aV1.3
p138
aV78.6
p139
aV4.5
p140
aV-
aV6.71
p141
aa(lp142
V2017/2018
p143
aVBrighton
p144
aVEPL
p145
aV37
p146
aV3294
p147
aV-
aV1
aV8
aV-
aV0.8
p148
aV76.4
p149
aV5.4
p150
aV3
aV7.18
p151
aa(lp152
V2016/2017
p153
aVBlackburn
p154
aVEC
p155
aV3
aV270
p156
aV-
aV-
aV1
aV1
aV1
aV76.6
p157
aV7.7
p158
aV-
aV6.16
p159
aa(lp160
V2016/2017
p161
aVBrighton
p162
aVEC
p163
aV31
p164
aV2790
p165
aV2
aV-
aV5
aV-
aV0.9
p166
aV79.2
p167
aV6.1
p168
aV2
aV7.56
p169
aa(lp170
V2015/2016
p171
aVBlackburn
p172
aVEC
p173
aV41
p174
aV3611
p175
aV4
aV2
aV10
p176
aV1
aV1.8
p177
aV62.2
p178
aV7.4
p179
aV7
aV7.40
p180
aa(lp181
V2014/2015
p182
aVBlackburn
p183
aVEC
p184
aV18(1)
p185
aV1621
p186
aV1
aV1
aV5
aV-
aV1.1
p187
aV65.2
p188
aV5.6
p189
aV2
aV7.41
p190
aa(lp191
V2016
p192
aVIreland
p193
aVUEC
p194
aV2
aV156
p195
aV-
aV-
aV-
aV1
aV1.5
p196
aV52.3
p197
aV8
aV-
aV6.52
p198
aa(lp199
V2013/2014
p200
aVYeovil
p201
aVEC
p202
aV37
p203
aV3330
p204
aV1
aV2
aV7
aV-
aV1
aV61.2
p205
aV6.5
p206
aV9
aV7.72
p207
aa(lp208
V2012/2013
p209
aVEverton
p210
aVEPL
p211
aV0(1)
p212
aV1
aV-
aV-
aV-
aV-
aV-
aV-
aV-
aV-
aV6.00
p213
aa(lp214
V2011/2012
p215
aVEverton
p216
aVEPL
p217
aV2(2)
p218
aV212
p219
aV-
aV-
aV-
aV-
aV0.8
p220
aV61.9
p221
aV1
aV-
aV6.63
p222
aa(lp223
VTotal / Average
p224
aV
aV
aV194
p225
aV16933
p226
aV11
p227
aV7
aV40
p228
aV4
aV1.1
p229
aV68.9
p230
aV6
aV27
p231
aV7.36
p232
aasS'defensive_data'
p233
(lp234
(lp235
a(lp236
V2018/2019
p237
aVBrighton
p238
aVEPL
p239
aV15
p240
aV1288
p241
aV3
aV1
aV3
aV1
aV0.7
p242
aV76
p243
aV4.5
p244
aV4
aV7.20
p245
aa(lp246
V2018/2019
p247
aVIreland
p248
aVUNL
p249
aV4
aV360
p250
aV-
aV-
aV1
aV-
aV1.3
p251
aV78.6
p252
aV4.5
p253
aV-
aV6.71
p254
aa(lp255
V2017/2018
p256
aVBrighton
p257
aVEPL
p258
aV37
p259
aV3294
p260
aV-
aV1
aV8
aV-
aV0.8
p261
aV76.4
p262
aV5.4
p263
aV3
aV7.18
p264
aa(lp265
V2016/2017
p266
aVBlackburn
p267
aVEC
p268
aV3
aV270
p269
aV-
aV-
aV1
aV1
aV1
aV76.6
p270
aV7.7
p271
aV-
aV6.16
p272
aa(lp273
V2016/2017
p274
aVBrighton
p275
aVEC
p276
aV31
p277
aV2790
p278
aV2
aV-
aV5
aV-
aV0.9
p279
aV79.2
p280
aV6.1
p281
aV2
aV7.56
p282
aa(lp283
V2015/2016
p284
aVBlackburn
p285
aVEC
p286
aV41
p287
aV3611
p288
aV4
aV2
aV10
p289
aV1
aV1.8
p290
aV62.2
p291
aV7.4
p292
aV7
aV7.40
p293
aa(lp294
V2014/2015
p295
aVBlackburn
p296
aVEC
p297
aV18(1)
p298
aV1621
p299
aV1
aV1
aV5
aV-
aV1.1
p300
aV65.2
p301
aV5.6
p302
aV2
aV7.41
p303
aa(lp304
V2016
p305
aVIreland
p306
aVUEC
p307
aV2
aV156
p308
aV-
aV-
aV-
aV1
aV1.5
p309
aV52.3
p310
aV8
aV-
aV6.52
p311
aa(lp312
V2013/2014
p313
aVYeovil
p314
aVEC
p315
aV37
p316
aV3330
p317
aV1
aV2
aV7
aV-
aV1
aV61.2
p318
aV6.5
p319
aV9
aV7.72
p320
aa(lp321
V2012/2013
p322
aVEverton
p323
aVEPL
p324
aV0(1)
p325
aV1
aV-
aV-
aV-
aV-
aV-
aV-
aV-
aV-
aV6.00
p326
aa(lp327
V2011/2012
p328
aVEverton
p329
aVEPL
p330
aV2(2)
p331
aV212
p332
aV-
aV-
aV-
aV-
aV0.8
p333
aV61.9
p334
aV1
aV-
aV6.63
p335
aa(lp336
VTotal / Average
p337
aV
aV
aV194
p338
aV16933
p339
aV11
p340
aV7
aV40
p341
aV4
aV1.1
p342
aV68.9
p343
aV6
aV27
p344
aV7.36
p345
aasS'sumary_data'
p346
(lp347
(lp348
a(lp349
V2018/2019
p350
aVBrighton
p351
aVEPL
p352
aV15
p353
aV1288
p354
aV3
aV1
aV3
aV1
aV0.7
p355
aV76
p356
aV4.5
p357
aV4
aV7.20
p358
aa(lp359
V2018/2019
p360
aVIreland
p361
aVUNL
p362
aV4
aV360
p363
aV-
aV-
aV1
aV-
aV1.3
p364
aV78.6
p365
aV4.5
p366
aV-
aV6.71
p367
aa(lp368
V2017/2018
p369
aVBrighton
p370
aVEPL
p371
aV37
p372
aV3294
p373
aV-
aV1
aV8
aV-
aV0.8
p374
aV76.4
p375
aV5.4
p376
aV3
aV7.18
p377
aa(lp378
V2016/2017
p379
aVBlackburn
p380
aVEC
p381
aV3
aV270
p382
aV-
aV-
aV1
aV1
aV1
aV76.6
p383
aV7.7
p384
aV-
aV6.16
p385
aa(lp386
V2016/2017
p387
aVBrighton
p388
aVEC
p389
aV31
p390
aV2790
p391
aV2
aV-
aV5
aV-
aV0.9
p392
aV79.2
p393
aV6.1
p394
aV2
aV7.56
p395
aa(lp396
V2015/2016
p397
aVBlackburn
p398
aVEC
p399
aV41
p400
aV3611
p401
aV4
aV2
aV10
p402
aV1
aV1.8
p403
aV62.2
p404
aV7.4
p405
aV7
aV7.40
p406
aa(lp407
V2014/2015
p408
aVBlackburn
p409
aVEC
p410
aV18(1)
p411
aV1621
p412
aV1
aV1
aV5
aV-
aV1.1
p413
aV65.2
p414
aV5.6
p415
aV2
aV7.41
p416
aa(lp417
V2016
p418
aVIreland
p419
aVUEC
p420
aV2
aV156
p421
aV-
aV-
aV-
aV1
aV1.5
p422
aV52.3
p423
aV8
aV-
aV6.52
p424
aa(lp425
V2013/2014
p426
aVYeovil
p427
aVEC
p428
aV37
p429
aV3330
p430
aV1
aV2
aV7
aV-
aV1
aV61.2
p431
aV6.5
p432
aV9
aV7.72
p433
aa(lp434
V2012/2013
p435
aVEverton
p436
aVEPL
p437
aV0(1)
p438
aV1
aV-
aV-
aV-
aV-
aV-
aV-
aV-
aV-
aV6.00
p439
aa(lp440
V2011/2012
p441
aVEverton
p442
aVEPL
p443
aV2(2)
p444
aV212
p445
aV-
aV-
aV-
aV-
aV0.8
p446
aV61.9
p447
aV1
aV-
aV6.63
p448
aa(lp449
VTotal / Average
p450
aV
aV
aV194
p451
aV16933
p452
aV11
p453
aV7
aV40
p454
aV4
aV1.1
p455
aV68.9
p456
aV6
aV27
p457
aV7.36
p458
aasS'id'
p459
V75692
p460
sb.