(i__main__
Player
p1
(dp2
S'name'
p3
VErik Lamela 
p4
sS'offensive_data'
p5
(lp6
(lp7
a(lp8
V2018/2019
p9
aVTottenham
p10
aVEPL
p11
aV5(5)
p12
aV521
p13
aV4
aV1
aV-
aV-
aV2.2
p14
aV83
p15
aV0.3
p16
aV1
aV6.85
p17
aa(lp18
V2018/2019
p19
aVTottenham
p20
aVUCL
p21
aV3(3)
p22
aV304
p23
aV1
aV2
aV2
aV-
aV1.5
p24
aV78.1
p25
aV0.3
p26
aV-
aV6.56
p27
aa(lp28
V2017/2018
p29
aVTottenham
p30
aVUCL
p31
aV1(1)
p32
aV105
p33
aV-
aV-
aV-
aV-
aV-
aV87.5
p34
aV-
aV-
aV6.59
p35
aa(lp36
V2017/2018
p37
aVTottenham
p38
aVEPL
p39
aV7(18)
p40
aV832
p41
aV2
aV2
aV4
aV-
aV0.8
p42
aV82.7
p43
aV0.2
p44
aV-
aV6.52
p45
aa(lp46
V2016/2017
p47
aVTottenham
p48
aVUCL
p49
aV3
aV232
p50
aV-
aV2
aV1
aV-
aV1.7
p51
aV80.5
p52
aV0.7
p53
aV-
aV7.37
p54
aa(lp55
V2016/2017
p56
aVTottenham
p57
aVEPL
p58
aV6(3)
p59
aV593
p60
aV1
aV1
aV1
aV-
aV2
aV80
p61
aV0.3
p62
aV-
aV6.99
p63
aa(lp64
V2015/2016
p65
aVTottenham
p66
aVUEL
p67
aV7(1)
p68
aV573
p69
aV6
aV-
aV2
aV-
aV1.5
p70
aV78.3
p71
aV0.6
p72
aV2
aV7.47
p73
aa(lp74
V2015/2016
p75
aVTottenham
p76
aVEPL
p77
aV28(6)
p78
aV2385
p79
aV5
aV9
aV9
aV-
aV1.7
p80
aV78.6
p81
aV0.4
p82
aV2
aV7.15
p83
aa(lp84
V2015
p85
aVArgentina
p86
aVICA
p87
aV0(1)
p88
aV6
aV-
aV-
aV-
aV-
aV-
aV100
p89
aV-
aV-
aV6.12
p90
aa(lp91
V2014/2015
p92
aVTottenham
p93
aVUEL
p94
aV4(3)
p95
aV371
p96
aV2
aV-
aV-
aV-
aV2.1
p97
aV81.3
p98
aV0.3
p99
aV1
aV7.21
p100
aa(lp101
V2014/2015
p102
aVTottenham
p103
aVEPL
p104
aV25(8)
p105
aV2302
p106
aV2
aV7
aV6
aV-
aV1.2
p107
aV82.8
p108
aV0.2
p109
aV4
aV7.07
p110
aa(lp111
V2013/2014
p112
aVTottenham
p113
aVUEL
p114
aV5(1)
p115
aV415
p116
aV1
aV2
aV-
aV-
aV1.2
p117
aV84.9
p118
aV0.7
p119
aV1
aV7.58
p120
aa(lp121
V2013/2014
p122
aVTottenham
p123
aVEPL
p124
aV3(6)
p125
aV329
p126
aV-
aV1
aV1
aV-
aV0.9
p127
aV80.1
p128
aV0.1
p129
aV-
aV6.35
p130
aa(lp131
V2012/2013
p132
aVRoma
p133
aVISA
p134
aV30(3)
p135
aV2600
p136
aV15
p137
aV5
aV7
aV-
aV2.6
p138
aV82
p139
aV0.4
p140
aV5
aV7.59
p141
aa(lp142
V2011/2012
p143
aVRoma
p144
aVISA
p145
aV23(6)
p146
aV1892
p147
aV4
aV6
aV1
aV-
aV1.8
p148
aV83.4
p149
aV0.2
p150
aV1
aV6.94
p151
aa(lp152
VTotal / Average
p153
aV
aV
aV215
p154
aV13460
p155
aV43
p156
aV38
p157
aV34
p158
aV0
aV1.6
p159
aV81.7
p160
aV0.3
p161
aV17
p162
aV7.05
p163
aasS'url'
p164
S'https://www.whoscored.com/Players/75830/History/'
p165
sS'passing_data'
p166
(lp167
(lp168
a(lp169
V2018/2019
p170
aVTottenham
p171
aVEPL
p172
aV5(5)
p173
aV521
p174
aV4
aV1
aV-
aV-
aV2.2
p175
aV83
p176
aV0.3
p177
aV1
aV6.85
p178
aa(lp179
V2018/2019
p180
aVTottenham
p181
aVUCL
p182
aV3(3)
p183
aV304
p184
aV1
aV2
aV2
aV-
aV1.5
p185
aV78.1
p186
aV0.3
p187
aV-
aV6.56
p188
aa(lp189
V2017/2018
p190
aVTottenham
p191
aVUCL
p192
aV1(1)
p193
aV105
p194
aV-
aV-
aV-
aV-
aV-
aV87.5
p195
aV-
aV-
aV6.59
p196
aa(lp197
V2017/2018
p198
aVTottenham
p199
aVEPL
p200
aV7(18)
p201
aV832
p202
aV2
aV2
aV4
aV-
aV0.8
p203
aV82.7
p204
aV0.2
p205
aV-
aV6.52
p206
aa(lp207
V2016/2017
p208
aVTottenham
p209
aVUCL
p210
aV3
aV232
p211
aV-
aV2
aV1
aV-
aV1.7
p212
aV80.5
p213
aV0.7
p214
aV-
aV7.37
p215
aa(lp216
V2016/2017
p217
aVTottenham
p218
aVEPL
p219
aV6(3)
p220
aV593
p221
aV1
aV1
aV1
aV-
aV2
aV80
p222
aV0.3
p223
aV-
aV6.99
p224
aa(lp225
V2015/2016
p226
aVTottenham
p227
aVUEL
p228
aV7(1)
p229
aV573
p230
aV6
aV-
aV2
aV-
aV1.5
p231
aV78.3
p232
aV0.6
p233
aV2
aV7.47
p234
aa(lp235
V2015/2016
p236
aVTottenham
p237
aVEPL
p238
aV28(6)
p239
aV2385
p240
aV5
aV9
aV9
aV-
aV1.7
p241
aV78.6
p242
aV0.4
p243
aV2
aV7.15
p244
aa(lp245
V2015
p246
aVArgentina
p247
aVICA
p248
aV0(1)
p249
aV6
aV-
aV-
aV-
aV-
aV-
aV100
p250
aV-
aV-
aV6.12
p251
aa(lp252
V2014/2015
p253
aVTottenham
p254
aVUEL
p255
aV4(3)
p256
aV371
p257
aV2
aV-
aV-
aV-
aV2.1
p258
aV81.3
p259
aV0.3
p260
aV1
aV7.21
p261
aa(lp262
V2014/2015
p263
aVTottenham
p264
aVEPL
p265
aV25(8)
p266
aV2302
p267
aV2
aV7
aV6
aV-
aV1.2
p268
aV82.8
p269
aV0.2
p270
aV4
aV7.07
p271
aa(lp272
V2013/2014
p273
aVTottenham
p274
aVUEL
p275
aV5(1)
p276
aV415
p277
aV1
aV2
aV-
aV-
aV1.2
p278
aV84.9
p279
aV0.7
p280
aV1
aV7.58
p281
aa(lp282
V2013/2014
p283
aVTottenham
p284
aVEPL
p285
aV3(6)
p286
aV329
p287
aV-
aV1
aV1
aV-
aV0.9
p288
aV80.1
p289
aV0.1
p290
aV-
aV6.35
p291
aa(lp292
V2012/2013
p293
aVRoma
p294
aVISA
p295
aV30(3)
p296
aV2600
p297
aV15
p298
aV5
aV7
aV-
aV2.6
p299
aV82
p300
aV0.4
p301
aV5
aV7.59
p302
aa(lp303
V2011/2012
p304
aVRoma
p305
aVISA
p306
aV23(6)
p307
aV1892
p308
aV4
aV6
aV1
aV-
aV1.8
p309
aV83.4
p310
aV0.2
p311
aV1
aV6.94
p312
aa(lp313
VTotal / Average
p314
aV
aV
aV215
p315
aV13460
p316
aV43
p317
aV38
p318
aV34
p319
aV0
aV1.6
p320
aV81.7
p321
aV0.3
p322
aV17
p323
aV7.05
p324
aasS'defensive_data'
p325
(lp326
(lp327
a(lp328
V2018/2019
p329
aVTottenham
p330
aVEPL
p331
aV5(5)
p332
aV521
p333
aV4
aV1
aV-
aV-
aV2.2
p334
aV83
p335
aV0.3
p336
aV1
aV6.85
p337
aa(lp338
V2018/2019
p339
aVTottenham
p340
aVUCL
p341
aV3(3)
p342
aV304
p343
aV1
aV2
aV2
aV-
aV1.5
p344
aV78.1
p345
aV0.3
p346
aV-
aV6.56
p347
aa(lp348
V2017/2018
p349
aVTottenham
p350
aVUCL
p351
aV1(1)
p352
aV105
p353
aV-
aV-
aV-
aV-
aV-
aV87.5
p354
aV-
aV-
aV6.59
p355
aa(lp356
V2017/2018
p357
aVTottenham
p358
aVEPL
p359
aV7(18)
p360
aV832
p361
aV2
aV2
aV4
aV-
aV0.8
p362
aV82.7
p363
aV0.2
p364
aV-
aV6.52
p365
aa(lp366
V2016/2017
p367
aVTottenham
p368
aVUCL
p369
aV3
aV232
p370
aV-
aV2
aV1
aV-
aV1.7
p371
aV80.5
p372
aV0.7
p373
aV-
aV7.37
p374
aa(lp375
V2016/2017
p376
aVTottenham
p377
aVEPL
p378
aV6(3)
p379
aV593
p380
aV1
aV1
aV1
aV-
aV2
aV80
p381
aV0.3
p382
aV-
aV6.99
p383
aa(lp384
V2015/2016
p385
aVTottenham
p386
aVUEL
p387
aV7(1)
p388
aV573
p389
aV6
aV-
aV2
aV-
aV1.5
p390
aV78.3
p391
aV0.6
p392
aV2
aV7.47
p393
aa(lp394
V2015/2016
p395
aVTottenham
p396
aVEPL
p397
aV28(6)
p398
aV2385
p399
aV5
aV9
aV9
aV-
aV1.7
p400
aV78.6
p401
aV0.4
p402
aV2
aV7.15
p403
aa(lp404
V2015
p405
aVArgentina
p406
aVICA
p407
aV0(1)
p408
aV6
aV-
aV-
aV-
aV-
aV-
aV100
p409
aV-
aV-
aV6.12
p410
aa(lp411
V2014/2015
p412
aVTottenham
p413
aVUEL
p414
aV4(3)
p415
aV371
p416
aV2
aV-
aV-
aV-
aV2.1
p417
aV81.3
p418
aV0.3
p419
aV1
aV7.21
p420
aa(lp421
V2014/2015
p422
aVTottenham
p423
aVEPL
p424
aV25(8)
p425
aV2302
p426
aV2
aV7
aV6
aV-
aV1.2
p427
aV82.8
p428
aV0.2
p429
aV4
aV7.07
p430
aa(lp431
V2013/2014
p432
aVTottenham
p433
aVUEL
p434
aV5(1)
p435
aV415
p436
aV1
aV2
aV-
aV-
aV1.2
p437
aV84.9
p438
aV0.7
p439
aV1
aV7.58
p440
aa(lp441
V2013/2014
p442
aVTottenham
p443
aVEPL
p444
aV3(6)
p445
aV329
p446
aV-
aV1
aV1
aV-
aV0.9
p447
aV80.1
p448
aV0.1
p449
aV-
aV6.35
p450
aa(lp451
V2012/2013
p452
aVRoma
p453
aVISA
p454
aV30(3)
p455
aV2600
p456
aV15
p457
aV5
aV7
aV-
aV2.6
p458
aV82
p459
aV0.4
p460
aV5
aV7.59
p461
aa(lp462
V2011/2012
p463
aVRoma
p464
aVISA
p465
aV23(6)
p466
aV1892
p467
aV4
aV6
aV1
aV-
aV1.8
p468
aV83.4
p469
aV0.2
p470
aV1
aV6.94
p471
aa(lp472
VTotal / Average
p473
aV
aV
aV215
p474
aV13460
p475
aV43
p476
aV38
p477
aV34
p478
aV0
aV1.6
p479
aV81.7
p480
aV0.3
p481
aV17
p482
aV7.05
p483
aasS'sumary_data'
p484
(lp485
(lp486
a(lp487
V2018/2019
p488
aVTottenham
p489
aVEPL
p490
aV5(5)
p491
aV521
p492
aV4
aV1
aV-
aV-
aV2.2
p493
aV83
p494
aV0.3
p495
aV1
aV6.85
p496
aa(lp497
V2018/2019
p498
aVTottenham
p499
aVUCL
p500
aV3(3)
p501
aV304
p502
aV1
aV2
aV2
aV-
aV1.5
p503
aV78.1
p504
aV0.3
p505
aV-
aV6.56
p506
aa(lp507
V2017/2018
p508
aVTottenham
p509
aVUCL
p510
aV1(1)
p511
aV105
p512
aV-
aV-
aV-
aV-
aV-
aV87.5
p513
aV-
aV-
aV6.59
p514
aa(lp515
V2017/2018
p516
aVTottenham
p517
aVEPL
p518
aV7(18)
p519
aV832
p520
aV2
aV2
aV4
aV-
aV0.8
p521
aV82.7
p522
aV0.2
p523
aV-
aV6.52
p524
aa(lp525
V2016/2017
p526
aVTottenham
p527
aVUCL
p528
aV3
aV232
p529
aV-
aV2
aV1
aV-
aV1.7
p530
aV80.5
p531
aV0.7
p532
aV-
aV7.37
p533
aa(lp534
V2016/2017
p535
aVTottenham
p536
aVEPL
p537
aV6(3)
p538
aV593
p539
aV1
aV1
aV1
aV-
aV2
aV80
p540
aV0.3
p541
aV-
aV6.99
p542
aa(lp543
V2015/2016
p544
aVTottenham
p545
aVUEL
p546
aV7(1)
p547
aV573
p548
aV6
aV-
aV2
aV-
aV1.5
p549
aV78.3
p550
aV0.6
p551
aV2
aV7.47
p552
aa(lp553
V2015/2016
p554
aVTottenham
p555
aVEPL
p556
aV28(6)
p557
aV2385
p558
aV5
aV9
aV9
aV-
aV1.7
p559
aV78.6
p560
aV0.4
p561
aV2
aV7.15
p562
aa(lp563
V2015
p564
aVArgentina
p565
aVICA
p566
aV0(1)
p567
aV6
aV-
aV-
aV-
aV-
aV-
aV100
p568
aV-
aV-
aV6.12
p569
aa(lp570
V2014/2015
p571
aVTottenham
p572
aVUEL
p573
aV4(3)
p574
aV371
p575
aV2
aV-
aV-
aV-
aV2.1
p576
aV81.3
p577
aV0.3
p578
aV1
aV7.21
p579
aa(lp580
V2014/2015
p581
aVTottenham
p582
aVEPL
p583
aV25(8)
p584
aV2302
p585
aV2
aV7
aV6
aV-
aV1.2
p586
aV82.8
p587
aV0.2
p588
aV4
aV7.07
p589
aa(lp590
V2013/2014
p591
aVTottenham
p592
aVUEL
p593
aV5(1)
p594
aV415
p595
aV1
aV2
aV-
aV-
aV1.2
p596
aV84.9
p597
aV0.7
p598
aV1
aV7.58
p599
aa(lp600
V2013/2014
p601
aVTottenham
p602
aVEPL
p603
aV3(6)
p604
aV329
p605
aV-
aV1
aV1
aV-
aV0.9
p606
aV80.1
p607
aV0.1
p608
aV-
aV6.35
p609
aa(lp610
V2012/2013
p611
aVRoma
p612
aVISA
p613
aV30(3)
p614
aV2600
p615
aV15
p616
aV5
aV7
aV-
aV2.6
p617
aV82
p618
aV0.4
p619
aV5
aV7.59
p620
aa(lp621
V2011/2012
p622
aVRoma
p623
aVISA
p624
aV23(6)
p625
aV1892
p626
aV4
aV6
aV1
aV-
aV1.8
p627
aV83.4
p628
aV0.2
p629
aV1
aV6.94
p630
aa(lp631
VTotal / Average
p632
aV
aV
aV215
p633
aV13460
p634
aV43
p635
aV38
p636
aV34
p637
aV0
aV1.6
p638
aV81.7
p639
aV0.3
p640
aV17
p641
aV7.05
p642
aasS'id'
p643
V75830
p644
sb.