(i__main__
Player
p1
(dp2
S'name'
p3
VXherdan Shaqiri 
p4
sS'offensive_data'
p5
(lp6
(lp7
a(lp8
V2018/2019
p9
aVLiverpool
p10
aVEPL
p11
aV7(6)
p12
aV627
p13
aV5
aV2
aV1
aV-
aV1.4
p14
aV79.5
p15
aV0.2
p16
aV1
aV6.89
p17
aa(lp18
V2018/2019
p19
aVLiverpool
p20
aVUCL
p21
aV1(2)
p22
aV86
p23
aV-
aV1
aV-
aV-
aV0.7
p24
aV72
p25
aV-
aV-
aV6.58
p26
aa(lp27
V2018/2019
p28
aVSwitzerland
p29
aVUNL
p30
aV4
aV360
p31
aV1
aV3
aV-
aV-
aV3.8
p32
aV87.2
p33
aV-
aV-
aV8.28
p34
aa(lp35
V2017/2018
p36
aVStoke
p37
aVEPL
p38
aV36
p39
aV3049
p40
aV8
aV7
aV5
aV-
aV1.9
p41
aV79.5
p42
aV0.1
p43
aV2
aV6.87
p44
aa(lp45
V2016/2017
p46
aVStoke
p47
aVEPL
p48
aV21
p49
aV1709
p50
aV4
aV2
aV2
aV-
aV2.3
p51
aV78.7
p52
aV0.1
p53
aV1
aV6.96
p54
aa(lp55
V2018
p56
aVSwitzerland
p57
aVWC
p58
aV4
aV351
p59
aV1
aV1
aV1
aV-
aV3.3
p60
aV81.1
p61
aV-
aV1
aV7.10
p62
aa(lp63
V2015/2016
p64
aVStoke
p65
aVEPL
p66
aV27
p67
aV2039
p68
aV3
aV6
aV3
aV-
aV1.5
p69
aV82.3
p70
aV0.1
p71
aV2
aV6.82
p72
aa(lp73
V2014/2015
p74
aVInter
p75
aVISA
p76
aV8(7)
p77
aV746
p78
aV1
aV2
aV3
aV-
aV1.3
p79
aV82.9
p80
aV0.1
p81
aV-
aV6.69
p82
aa(lp83
V2014/2015
p84
aVBayern Munich
p85
aVGB
p86
aV3(6)
p87
aV338
p88
aV1
aV2
aV-
aV-
aV1.3
p89
aV84.4
p90
aV0.2
p91
aV-
aV6.72
p92
aa(lp93
V2014/2015
p94
aVBayern Munich
p95
aVUCL
p96
aV0(4)
p97
aV48
p98
aV1
aV-
aV-
aV-
aV1.5
p99
aV86.1
p100
aV-
aV-
aV6.47
p101
aa(lp102
V2014/2015
p103
aVInter
p104
aVUEL
p105
aV3
aV262
p106
aV1
aV-
aV1
aV-
aV3
aV85.5
p107
aV0.7
p108
aV-
aV7.23
p109
aa(lp110
V2016
p111
aVSwitzerland
p112
aVUEC
p113
aV4
aV377
p114
aV1
aV1
aV-
aV-
aV2.5
p115
aV86.3
p116
aV0.3
p117
aV-
aV7.38
p118
aa(lp119
V2013/2014
p120
aVBayern Munich
p121
aVUCL
p122
aV0(3)
p123
aV45
p124
aV-
aV-
aV-
aV-
aV1
aV96
p125
aV-
aV-
aV6.11
p126
aa(lp127
V2013/2014
p128
aVBayern Munich
p129
aVGB
p130
aV10(7)
p131
aV793
p132
aV6
aV2
aV-
aV-
aV1.7
p133
aV84.7
p134
aV0.3
p135
aV2
aV7.20
p136
aa(lp137
V2014
p138
aVSwitzerland
p139
aVWC
p140
aV4
aV387
p141
aV3
aV-
aV-
aV-
aV5
aV86.9
p142
aV0.3
p143
aV1
aV7.74
p144
aa(lp145
V2012/2013
p146
aVBayern Munich
p147
aVGB
p148
aV13(13)
p149
aV1393
p150
aV4
aV5
aV1
aV-
aV1.5
p151
aV86.4
p152
aV0.2
p153
aV1
aV7.24
p154
aa(lp155
V2012/2013
p156
aVBayern Munich
p157
aVUCL
p158
aV1(6)
p159
aV211
p160
aV1
aV2
aV1
aV-
aV0.7
p161
aV90.2
p162
aV0.3
p163
aV1
aV6.92
p164
aa(lp165
V2011/2012
p166
aVFC Basel 1893
p167
aVUCL
p168
aV6
aV515
p169
aV-
aV1
aV1
aV-
aV3.5
p170
aV79.4
p171
aV-
aV1
aV7.08
p172
aa(lp173
V2010/2011
p174
aVFC Basel 1893
p175
aVUCL
p176
aV6
aV512
p177
aV1
aV1
aV-
aV-
aV3
aV85.8
p178
aV-
aV-
aV6.89
p179
aa(lp180
VTotal / Average
p181
aV
aV
aV212
p182
aV13848
p183
aV42
p184
aV38
p185
aV19
p186
aV0
aV1.9
p187
aV82.8
p188
aV0.1
p189
aV13
p190
aV6.97
p191
aasS'url'
p192
S'https://www.whoscored.com/Players/76304/History/'
p193
sS'passing_data'
p194
(lp195
(lp196
a(lp197
V2018/2019
p198
aVLiverpool
p199
aVEPL
p200
aV7(6)
p201
aV627
p202
aV5
aV2
aV1
aV-
aV1.4
p203
aV79.5
p204
aV0.2
p205
aV1
aV6.89
p206
aa(lp207
V2018/2019
p208
aVLiverpool
p209
aVUCL
p210
aV1(2)
p211
aV86
p212
aV-
aV1
aV-
aV-
aV0.7
p213
aV72
p214
aV-
aV-
aV6.58
p215
aa(lp216
V2018/2019
p217
aVSwitzerland
p218
aVUNL
p219
aV4
aV360
p220
aV1
aV3
aV-
aV-
aV3.8
p221
aV87.2
p222
aV-
aV-
aV8.28
p223
aa(lp224
V2017/2018
p225
aVStoke
p226
aVEPL
p227
aV36
p228
aV3049
p229
aV8
aV7
aV5
aV-
aV1.9
p230
aV79.5
p231
aV0.1
p232
aV2
aV6.87
p233
aa(lp234
V2016/2017
p235
aVStoke
p236
aVEPL
p237
aV21
p238
aV1709
p239
aV4
aV2
aV2
aV-
aV2.3
p240
aV78.7
p241
aV0.1
p242
aV1
aV6.96
p243
aa(lp244
V2018
p245
aVSwitzerland
p246
aVWC
p247
aV4
aV351
p248
aV1
aV1
aV1
aV-
aV3.3
p249
aV81.1
p250
aV-
aV1
aV7.10
p251
aa(lp252
V2015/2016
p253
aVStoke
p254
aVEPL
p255
aV27
p256
aV2039
p257
aV3
aV6
aV3
aV-
aV1.5
p258
aV82.3
p259
aV0.1
p260
aV2
aV6.82
p261
aa(lp262
V2014/2015
p263
aVInter
p264
aVISA
p265
aV8(7)
p266
aV746
p267
aV1
aV2
aV3
aV-
aV1.3
p268
aV82.9
p269
aV0.1
p270
aV-
aV6.69
p271
aa(lp272
V2014/2015
p273
aVBayern Munich
p274
aVGB
p275
aV3(6)
p276
aV338
p277
aV1
aV2
aV-
aV-
aV1.3
p278
aV84.4
p279
aV0.2
p280
aV-
aV6.72
p281
aa(lp282
V2014/2015
p283
aVBayern Munich
p284
aVUCL
p285
aV0(4)
p286
aV48
p287
aV1
aV-
aV-
aV-
aV1.5
p288
aV86.1
p289
aV-
aV-
aV6.47
p290
aa(lp291
V2014/2015
p292
aVInter
p293
aVUEL
p294
aV3
aV262
p295
aV1
aV-
aV1
aV-
aV3
aV85.5
p296
aV0.7
p297
aV-
aV7.23
p298
aa(lp299
V2016
p300
aVSwitzerland
p301
aVUEC
p302
aV4
aV377
p303
aV1
aV1
aV-
aV-
aV2.5
p304
aV86.3
p305
aV0.3
p306
aV-
aV7.38
p307
aa(lp308
V2013/2014
p309
aVBayern Munich
p310
aVUCL
p311
aV0(3)
p312
aV45
p313
aV-
aV-
aV-
aV-
aV1
aV96
p314
aV-
aV-
aV6.11
p315
aa(lp316
V2013/2014
p317
aVBayern Munich
p318
aVGB
p319
aV10(7)
p320
aV793
p321
aV6
aV2
aV-
aV-
aV1.7
p322
aV84.7
p323
aV0.3
p324
aV2
aV7.20
p325
aa(lp326
V2014
p327
aVSwitzerland
p328
aVWC
p329
aV4
aV387
p330
aV3
aV-
aV-
aV-
aV5
aV86.9
p331
aV0.3
p332
aV1
aV7.74
p333
aa(lp334
V2012/2013
p335
aVBayern Munich
p336
aVGB
p337
aV13(13)
p338
aV1393
p339
aV4
aV5
aV1
aV-
aV1.5
p340
aV86.4
p341
aV0.2
p342
aV1
aV7.24
p343
aa(lp344
V2012/2013
p345
aVBayern Munich
p346
aVUCL
p347
aV1(6)
p348
aV211
p349
aV1
aV2
aV1
aV-
aV0.7
p350
aV90.2
p351
aV0.3
p352
aV1
aV6.92
p353
aa(lp354
V2011/2012
p355
aVFC Basel 1893
p356
aVUCL
p357
aV6
aV515
p358
aV-
aV1
aV1
aV-
aV3.5
p359
aV79.4
p360
aV-
aV1
aV7.08
p361
aa(lp362
V2010/2011
p363
aVFC Basel 1893
p364
aVUCL
p365
aV6
aV512
p366
aV1
aV1
aV-
aV-
aV3
aV85.8
p367
aV-
aV-
aV6.89
p368
aa(lp369
VTotal / Average
p370
aV
aV
aV212
p371
aV13848
p372
aV42
p373
aV38
p374
aV19
p375
aV0
aV1.9
p376
aV82.8
p377
aV0.1
p378
aV13
p379
aV6.97
p380
aasS'defensive_data'
p381
(lp382
(lp383
a(lp384
V2018/2019
p385
aVLiverpool
p386
aVEPL
p387
aV7(6)
p388
aV627
p389
aV5
aV2
aV1
aV-
aV1.4
p390
aV79.5
p391
aV0.2
p392
aV1
aV6.89
p393
aa(lp394
V2018/2019
p395
aVLiverpool
p396
aVUCL
p397
aV1(2)
p398
aV86
p399
aV-
aV1
aV-
aV-
aV0.7
p400
aV72
p401
aV-
aV-
aV6.58
p402
aa(lp403
V2018/2019
p404
aVSwitzerland
p405
aVUNL
p406
aV4
aV360
p407
aV1
aV3
aV-
aV-
aV3.8
p408
aV87.2
p409
aV-
aV-
aV8.28
p410
aa(lp411
V2017/2018
p412
aVStoke
p413
aVEPL
p414
aV36
p415
aV3049
p416
aV8
aV7
aV5
aV-
aV1.9
p417
aV79.5
p418
aV0.1
p419
aV2
aV6.87
p420
aa(lp421
V2016/2017
p422
aVStoke
p423
aVEPL
p424
aV21
p425
aV1709
p426
aV4
aV2
aV2
aV-
aV2.3
p427
aV78.7
p428
aV0.1
p429
aV1
aV6.96
p430
aa(lp431
V2018
p432
aVSwitzerland
p433
aVWC
p434
aV4
aV351
p435
aV1
aV1
aV1
aV-
aV3.3
p436
aV81.1
p437
aV-
aV1
aV7.10
p438
aa(lp439
V2015/2016
p440
aVStoke
p441
aVEPL
p442
aV27
p443
aV2039
p444
aV3
aV6
aV3
aV-
aV1.5
p445
aV82.3
p446
aV0.1
p447
aV2
aV6.82
p448
aa(lp449
V2014/2015
p450
aVInter
p451
aVISA
p452
aV8(7)
p453
aV746
p454
aV1
aV2
aV3
aV-
aV1.3
p455
aV82.9
p456
aV0.1
p457
aV-
aV6.69
p458
aa(lp459
V2014/2015
p460
aVBayern Munich
p461
aVGB
p462
aV3(6)
p463
aV338
p464
aV1
aV2
aV-
aV-
aV1.3
p465
aV84.4
p466
aV0.2
p467
aV-
aV6.72
p468
aa(lp469
V2014/2015
p470
aVBayern Munich
p471
aVUCL
p472
aV0(4)
p473
aV48
p474
aV1
aV-
aV-
aV-
aV1.5
p475
aV86.1
p476
aV-
aV-
aV6.47
p477
aa(lp478
V2014/2015
p479
aVInter
p480
aVUEL
p481
aV3
aV262
p482
aV1
aV-
aV1
aV-
aV3
aV85.5
p483
aV0.7
p484
aV-
aV7.23
p485
aa(lp486
V2016
p487
aVSwitzerland
p488
aVUEC
p489
aV4
aV377
p490
aV1
aV1
aV-
aV-
aV2.5
p491
aV86.3
p492
aV0.3
p493
aV-
aV7.38
p494
aa(lp495
V2013/2014
p496
aVBayern Munich
p497
aVUCL
p498
aV0(3)
p499
aV45
p500
aV-
aV-
aV-
aV-
aV1
aV96
p501
aV-
aV-
aV6.11
p502
aa(lp503
V2013/2014
p504
aVBayern Munich
p505
aVGB
p506
aV10(7)
p507
aV793
p508
aV6
aV2
aV-
aV-
aV1.7
p509
aV84.7
p510
aV0.3
p511
aV2
aV7.20
p512
aa(lp513
V2014
p514
aVSwitzerland
p515
aVWC
p516
aV4
aV387
p517
aV3
aV-
aV-
aV-
aV5
aV86.9
p518
aV0.3
p519
aV1
aV7.74
p520
aa(lp521
V2012/2013
p522
aVBayern Munich
p523
aVGB
p524
aV13(13)
p525
aV1393
p526
aV4
aV5
aV1
aV-
aV1.5
p527
aV86.4
p528
aV0.2
p529
aV1
aV7.24
p530
aa(lp531
V2012/2013
p532
aVBayern Munich
p533
aVUCL
p534
aV1(6)
p535
aV211
p536
aV1
aV2
aV1
aV-
aV0.7
p537
aV90.2
p538
aV0.3
p539
aV1
aV6.92
p540
aa(lp541
V2011/2012
p542
aVFC Basel 1893
p543
aVUCL
p544
aV6
aV515
p545
aV-
aV1
aV1
aV-
aV3.5
p546
aV79.4
p547
aV-
aV1
aV7.08
p548
aa(lp549
V2010/2011
p550
aVFC Basel 1893
p551
aVUCL
p552
aV6
aV512
p553
aV1
aV1
aV-
aV-
aV3
aV85.8
p554
aV-
aV-
aV6.89
p555
aa(lp556
VTotal / Average
p557
aV
aV
aV212
p558
aV13848
p559
aV42
p560
aV38
p561
aV19
p562
aV0
aV1.9
p563
aV82.8
p564
aV0.1
p565
aV13
p566
aV6.97
p567
aasS'sumary_data'
p568
(lp569
(lp570
a(lp571
V2018/2019
p572
aVLiverpool
p573
aVEPL
p574
aV7(6)
p575
aV627
p576
aV5
aV2
aV1
aV-
aV1.4
p577
aV79.5
p578
aV0.2
p579
aV1
aV6.89
p580
aa(lp581
V2018/2019
p582
aVLiverpool
p583
aVUCL
p584
aV1(2)
p585
aV86
p586
aV-
aV1
aV-
aV-
aV0.7
p587
aV72
p588
aV-
aV-
aV6.58
p589
aa(lp590
V2018/2019
p591
aVSwitzerland
p592
aVUNL
p593
aV4
aV360
p594
aV1
aV3
aV-
aV-
aV3.8
p595
aV87.2
p596
aV-
aV-
aV8.28
p597
aa(lp598
V2017/2018
p599
aVStoke
p600
aVEPL
p601
aV36
p602
aV3049
p603
aV8
aV7
aV5
aV-
aV1.9
p604
aV79.5
p605
aV0.1
p606
aV2
aV6.87
p607
aa(lp608
V2016/2017
p609
aVStoke
p610
aVEPL
p611
aV21
p612
aV1709
p613
aV4
aV2
aV2
aV-
aV2.3
p614
aV78.7
p615
aV0.1
p616
aV1
aV6.96
p617
aa(lp618
V2018
p619
aVSwitzerland
p620
aVWC
p621
aV4
aV351
p622
aV1
aV1
aV1
aV-
aV3.3
p623
aV81.1
p624
aV-
aV1
aV7.10
p625
aa(lp626
V2015/2016
p627
aVStoke
p628
aVEPL
p629
aV27
p630
aV2039
p631
aV3
aV6
aV3
aV-
aV1.5
p632
aV82.3
p633
aV0.1
p634
aV2
aV6.82
p635
aa(lp636
V2014/2015
p637
aVInter
p638
aVISA
p639
aV8(7)
p640
aV746
p641
aV1
aV2
aV3
aV-
aV1.3
p642
aV82.9
p643
aV0.1
p644
aV-
aV6.69
p645
aa(lp646
V2014/2015
p647
aVBayern Munich
p648
aVGB
p649
aV3(6)
p650
aV338
p651
aV1
aV2
aV-
aV-
aV1.3
p652
aV84.4
p653
aV0.2
p654
aV-
aV6.72
p655
aa(lp656
V2014/2015
p657
aVBayern Munich
p658
aVUCL
p659
aV0(4)
p660
aV48
p661
aV1
aV-
aV-
aV-
aV1.5
p662
aV86.1
p663
aV-
aV-
aV6.47
p664
aa(lp665
V2014/2015
p666
aVInter
p667
aVUEL
p668
aV3
aV262
p669
aV1
aV-
aV1
aV-
aV3
aV85.5
p670
aV0.7
p671
aV-
aV7.23
p672
aa(lp673
V2016
p674
aVSwitzerland
p675
aVUEC
p676
aV4
aV377
p677
aV1
aV1
aV-
aV-
aV2.5
p678
aV86.3
p679
aV0.3
p680
aV-
aV7.38
p681
aa(lp682
V2013/2014
p683
aVBayern Munich
p684
aVUCL
p685
aV0(3)
p686
aV45
p687
aV-
aV-
aV-
aV-
aV1
aV96
p688
aV-
aV-
aV6.11
p689
aa(lp690
V2013/2014
p691
aVBayern Munich
p692
aVGB
p693
aV10(7)
p694
aV793
p695
aV6
aV2
aV-
aV-
aV1.7
p696
aV84.7
p697
aV0.3
p698
aV2
aV7.20
p699
aa(lp700
V2014
p701
aVSwitzerland
p702
aVWC
p703
aV4
aV387
p704
aV3
aV-
aV-
aV-
aV5
aV86.9
p705
aV0.3
p706
aV1
aV7.74
p707
aa(lp708
V2012/2013
p709
aVBayern Munich
p710
aVGB
p711
aV13(13)
p712
aV1393
p713
aV4
aV5
aV1
aV-
aV1.5
p714
aV86.4
p715
aV0.2
p716
aV1
aV7.24
p717
aa(lp718
V2012/2013
p719
aVBayern Munich
p720
aVUCL
p721
aV1(6)
p722
aV211
p723
aV1
aV2
aV1
aV-
aV0.7
p724
aV90.2
p725
aV0.3
p726
aV1
aV6.92
p727
aa(lp728
V2011/2012
p729
aVFC Basel 1893
p730
aVUCL
p731
aV6
aV515
p732
aV-
aV1
aV1
aV-
aV3.5
p733
aV79.4
p734
aV-
aV1
aV7.08
p735
aa(lp736
V2010/2011
p737
aVFC Basel 1893
p738
aVUCL
p739
aV6
aV512
p740
aV1
aV1
aV-
aV-
aV3
aV85.8
p741
aV-
aV-
aV6.89
p742
aa(lp743
VTotal / Average
p744
aV
aV
aV212
p745
aV13848
p746
aV42
p747
aV38
p748
aV19
p749
aV0
aV1.9
p750
aV82.8
p751
aV0.1
p752
aV13
p753
aV6.97
p754
aasS'id'
p755
V76304
p756
sb.