(i__main__
Player
p1
(dp2
S'name'
p3
VCenk Tosun 
p4
sS'offensive_data'
p5
(lp6
(lp7
a(lp8
V2018/2019
p9
aVEverton
p10
aVEPL
p11
aV6(7)
p12
aV607
p13
aV2
aV2
aV1
aV-
aV1.8
p14
aV73.9
p15
aV1.3
p16
aV-
aV6.50
p17
aa(lp18
V2018/2019
p19
aVTurkey
p20
aVUNL
p21
aV4
aV360
p22
aV-
aV1
aV1
aV-
aV1
aV69.4
p23
aV1.5
p24
aV-
aV6.30
p25
aa(lp26
V2017/2018
p27
aVBesiktas
p28
aVTS
p29
aV12(4)
p30
aV1153
p31
aV8
aV1
aV2
aV-
aV3.2
p32
aV78.2
p33
aV1.6
p34
aV1
aV6.92
p35
aa(lp36
V2017/2018
p37
aVBesiktas
p38
aVUCL
p39
aV5(1)
p40
aV449
p41
aV4
aV2
aV-
aV-
aV2.5
p42
aV71.3
p43
aV2
aV1
aV7.41
p44
aa(lp45
V2017/2018
p46
aVEverton
p47
aVEPL
p48
aV12(2)
p49
aV991
p50
aV5
aV-
aV-
aV-
aV1.4
p51
aV70.3
p52
aV2.2
p53
aV-
aV6.74
p54
aa(lp55
V2016/2017
p56
aVBesiktas
p57
aVTS
p58
aV29(4)
p59
aV2538
p60
aV20
p61
aV5
aV5
aV-
aV2.8
p62
aV74.7
p63
aV1.2
p64
aV5
aV7.09
p65
aa(lp66
V2016/2017
p67
aVBesiktas
p68
aVUCL
p69
aV0(6)
p70
aV221
p71
aV1
aV-
aV1
aV-
aV0.7
p72
aV79.7
p73
aV0.8
p74
aV-
aV6.42
p75
aa(lp76
V2016/2017
p77
aVBesiktas
p78
aVUEL
p79
aV3(3)
p80
aV324
p81
aV3
aV-
aV-
aV-
aV1.8
p82
aV83.5
p83
aV1.2
p84
aV1
aV7.15
p85
aa(lp86
V2015/2016
p87
aVBesiktas
p88
aVTS
p89
aV3(26)
p90
aV696
p91
aV8
aV4
aV2
aV-
aV2
aV81.7
p92
aV0.6
p93
aV1
aV6.60
p94
aa(lp95
V2015/2016
p96
aVBesiktas
p97
aVUEL
p98
aV2(4)
p99
aV215
p100
aV2
aV1
aV-
aV-
aV2
aV71.1
p101
aV0.7
p102
aV1
aV6.66
p103
aa(lp104
V2014/2015
p105
aVBesiktas
p106
aVTS
p107
aV6(12)
p108
aV713
p109
aV5
aV-
aV1
aV-
aV1.8
p110
aV69.6
p111
aV1.1
p112
aV1
aV6.52
p113
aa(lp114
V2014/2015
p115
aVBesiktas
p116
aVUEL
p117
aV1(3)
p118
aV188
p119
aV1
aV-
aV-
aV-
aV1.5
p120
aV81.8
p121
aV0.5
p122
aV-
aV6.57
p123
aa(lp124
V2016
p125
aVTurkey
p126
aVUEC
p127
aV1(1)
p128
aV70
p129
aV-
aV-
aV1
aV-
aV0.5
p130
aV58.3
p131
aV1
aV-
aV5.90
p132
aa(lp133
V2009/2010
p134
aVEintracht Fra..
p135
aVGB
p136
aV0(1)
p137
aV16
p138
aV-
aV-
aV-
aV-
aV2
aV83.3
p139
aV1
aV-
aV6.28
p140
aa(lp141
VTotal / Average
p142
aV
aV
aV158
p143
aV8541
p144
aV59
p145
aV16
p146
aV14
p147
aV0
aV2.1
p148
aV75.5
p149
aV1.2
p150
aV11
p151
aV6.76
p152
aasS'url'
p153
S'https://www.whoscored.com/Players/77438/History/'
p154
sS'passing_data'
p155
(lp156
(lp157
a(lp158
V2018/2019
p159
aVEverton
p160
aVEPL
p161
aV6(7)
p162
aV607
p163
aV2
aV2
aV1
aV-
aV1.8
p164
aV73.9
p165
aV1.3
p166
aV-
aV6.50
p167
aa(lp168
V2018/2019
p169
aVTurkey
p170
aVUNL
p171
aV4
aV360
p172
aV-
aV1
aV1
aV-
aV1
aV69.4
p173
aV1.5
p174
aV-
aV6.30
p175
aa(lp176
V2017/2018
p177
aVBesiktas
p178
aVTS
p179
aV12(4)
p180
aV1153
p181
aV8
aV1
aV2
aV-
aV3.2
p182
aV78.2
p183
aV1.6
p184
aV1
aV6.92
p185
aa(lp186
V2017/2018
p187
aVBesiktas
p188
aVUCL
p189
aV5(1)
p190
aV449
p191
aV4
aV2
aV-
aV-
aV2.5
p192
aV71.3
p193
aV2
aV1
aV7.41
p194
aa(lp195
V2017/2018
p196
aVEverton
p197
aVEPL
p198
aV12(2)
p199
aV991
p200
aV5
aV-
aV-
aV-
aV1.4
p201
aV70.3
p202
aV2.2
p203
aV-
aV6.74
p204
aa(lp205
V2016/2017
p206
aVBesiktas
p207
aVTS
p208
aV29(4)
p209
aV2538
p210
aV20
p211
aV5
aV5
aV-
aV2.8
p212
aV74.7
p213
aV1.2
p214
aV5
aV7.09
p215
aa(lp216
V2016/2017
p217
aVBesiktas
p218
aVUCL
p219
aV0(6)
p220
aV221
p221
aV1
aV-
aV1
aV-
aV0.7
p222
aV79.7
p223
aV0.8
p224
aV-
aV6.42
p225
aa(lp226
V2016/2017
p227
aVBesiktas
p228
aVUEL
p229
aV3(3)
p230
aV324
p231
aV3
aV-
aV-
aV-
aV1.8
p232
aV83.5
p233
aV1.2
p234
aV1
aV7.15
p235
aa(lp236
V2015/2016
p237
aVBesiktas
p238
aVTS
p239
aV3(26)
p240
aV696
p241
aV8
aV4
aV2
aV-
aV2
aV81.7
p242
aV0.6
p243
aV1
aV6.60
p244
aa(lp245
V2015/2016
p246
aVBesiktas
p247
aVUEL
p248
aV2(4)
p249
aV215
p250
aV2
aV1
aV-
aV-
aV2
aV71.1
p251
aV0.7
p252
aV1
aV6.66
p253
aa(lp254
V2014/2015
p255
aVBesiktas
p256
aVTS
p257
aV6(12)
p258
aV713
p259
aV5
aV-
aV1
aV-
aV1.8
p260
aV69.6
p261
aV1.1
p262
aV1
aV6.52
p263
aa(lp264
V2014/2015
p265
aVBesiktas
p266
aVUEL
p267
aV1(3)
p268
aV188
p269
aV1
aV-
aV-
aV-
aV1.5
p270
aV81.8
p271
aV0.5
p272
aV-
aV6.57
p273
aa(lp274
V2016
p275
aVTurkey
p276
aVUEC
p277
aV1(1)
p278
aV70
p279
aV-
aV-
aV1
aV-
aV0.5
p280
aV58.3
p281
aV1
aV-
aV5.90
p282
aa(lp283
V2009/2010
p284
aVEintracht Fra..
p285
aVGB
p286
aV0(1)
p287
aV16
p288
aV-
aV-
aV-
aV-
aV2
aV83.3
p289
aV1
aV-
aV6.28
p290
aa(lp291
VTotal / Average
p292
aV
aV
aV158
p293
aV8541
p294
aV59
p295
aV16
p296
aV14
p297
aV0
aV2.1
p298
aV75.5
p299
aV1.2
p300
aV11
p301
aV6.76
p302
aasS'defensive_data'
p303
(lp304
(lp305
a(lp306
V2018/2019
p307
aVEverton
p308
aVEPL
p309
aV6(7)
p310
aV607
p311
aV2
aV2
aV1
aV-
aV1.8
p312
aV73.9
p313
aV1.3
p314
aV-
aV6.50
p315
aa(lp316
V2018/2019
p317
aVTurkey
p318
aVUNL
p319
aV4
aV360
p320
aV-
aV1
aV1
aV-
aV1
aV69.4
p321
aV1.5
p322
aV-
aV6.30
p323
aa(lp324
V2017/2018
p325
aVBesiktas
p326
aVTS
p327
aV12(4)
p328
aV1153
p329
aV8
aV1
aV2
aV-
aV3.2
p330
aV78.2
p331
aV1.6
p332
aV1
aV6.92
p333
aa(lp334
V2017/2018
p335
aVBesiktas
p336
aVUCL
p337
aV5(1)
p338
aV449
p339
aV4
aV2
aV-
aV-
aV2.5
p340
aV71.3
p341
aV2
aV1
aV7.41
p342
aa(lp343
V2017/2018
p344
aVEverton
p345
aVEPL
p346
aV12(2)
p347
aV991
p348
aV5
aV-
aV-
aV-
aV1.4
p349
aV70.3
p350
aV2.2
p351
aV-
aV6.74
p352
aa(lp353
V2016/2017
p354
aVBesiktas
p355
aVTS
p356
aV29(4)
p357
aV2538
p358
aV20
p359
aV5
aV5
aV-
aV2.8
p360
aV74.7
p361
aV1.2
p362
aV5
aV7.09
p363
aa(lp364
V2016/2017
p365
aVBesiktas
p366
aVUCL
p367
aV0(6)
p368
aV221
p369
aV1
aV-
aV1
aV-
aV0.7
p370
aV79.7
p371
aV0.8
p372
aV-
aV6.42
p373
aa(lp374
V2016/2017
p375
aVBesiktas
p376
aVUEL
p377
aV3(3)
p378
aV324
p379
aV3
aV-
aV-
aV-
aV1.8
p380
aV83.5
p381
aV1.2
p382
aV1
aV7.15
p383
aa(lp384
V2015/2016
p385
aVBesiktas
p386
aVTS
p387
aV3(26)
p388
aV696
p389
aV8
aV4
aV2
aV-
aV2
aV81.7
p390
aV0.6
p391
aV1
aV6.60
p392
aa(lp393
V2015/2016
p394
aVBesiktas
p395
aVUEL
p396
aV2(4)
p397
aV215
p398
aV2
aV1
aV-
aV-
aV2
aV71.1
p399
aV0.7
p400
aV1
aV6.66
p401
aa(lp402
V2014/2015
p403
aVBesiktas
p404
aVTS
p405
aV6(12)
p406
aV713
p407
aV5
aV-
aV1
aV-
aV1.8
p408
aV69.6
p409
aV1.1
p410
aV1
aV6.52
p411
aa(lp412
V2014/2015
p413
aVBesiktas
p414
aVUEL
p415
aV1(3)
p416
aV188
p417
aV1
aV-
aV-
aV-
aV1.5
p418
aV81.8
p419
aV0.5
p420
aV-
aV6.57
p421
aa(lp422
V2016
p423
aVTurkey
p424
aVUEC
p425
aV1(1)
p426
aV70
p427
aV-
aV-
aV1
aV-
aV0.5
p428
aV58.3
p429
aV1
aV-
aV5.90
p430
aa(lp431
V2009/2010
p432
aVEintracht Fra..
p433
aVGB
p434
aV0(1)
p435
aV16
p436
aV-
aV-
aV-
aV-
aV2
aV83.3
p437
aV1
aV-
aV6.28
p438
aa(lp439
VTotal / Average
p440
aV
aV
aV158
p441
aV8541
p442
aV59
p443
aV16
p444
aV14
p445
aV0
aV2.1
p446
aV75.5
p447
aV1.2
p448
aV11
p449
aV6.76
p450
aasS'sumary_data'
p451
(lp452
(lp453
a(lp454
V2018/2019
p455
aVEverton
p456
aVEPL
p457
aV6(7)
p458
aV607
p459
aV2
aV2
aV1
aV-
aV1.8
p460
aV73.9
p461
aV1.3
p462
aV-
aV6.50
p463
aa(lp464
V2018/2019
p465
aVTurkey
p466
aVUNL
p467
aV4
aV360
p468
aV-
aV1
aV1
aV-
aV1
aV69.4
p469
aV1.5
p470
aV-
aV6.30
p471
aa(lp472
V2017/2018
p473
aVBesiktas
p474
aVTS
p475
aV12(4)
p476
aV1153
p477
aV8
aV1
aV2
aV-
aV3.2
p478
aV78.2
p479
aV1.6
p480
aV1
aV6.92
p481
aa(lp482
V2017/2018
p483
aVBesiktas
p484
aVUCL
p485
aV5(1)
p486
aV449
p487
aV4
aV2
aV-
aV-
aV2.5
p488
aV71.3
p489
aV2
aV1
aV7.41
p490
aa(lp491
V2017/2018
p492
aVEverton
p493
aVEPL
p494
aV12(2)
p495
aV991
p496
aV5
aV-
aV-
aV-
aV1.4
p497
aV70.3
p498
aV2.2
p499
aV-
aV6.74
p500
aa(lp501
V2016/2017
p502
aVBesiktas
p503
aVTS
p504
aV29(4)
p505
aV2538
p506
aV20
p507
aV5
aV5
aV-
aV2.8
p508
aV74.7
p509
aV1.2
p510
aV5
aV7.09
p511
aa(lp512
V2016/2017
p513
aVBesiktas
p514
aVUCL
p515
aV0(6)
p516
aV221
p517
aV1
aV-
aV1
aV-
aV0.7
p518
aV79.7
p519
aV0.8
p520
aV-
aV6.42
p521
aa(lp522
V2016/2017
p523
aVBesiktas
p524
aVUEL
p525
aV3(3)
p526
aV324
p527
aV3
aV-
aV-
aV-
aV1.8
p528
aV83.5
p529
aV1.2
p530
aV1
aV7.15
p531
aa(lp532
V2015/2016
p533
aVBesiktas
p534
aVTS
p535
aV3(26)
p536
aV696
p537
aV8
aV4
aV2
aV-
aV2
aV81.7
p538
aV0.6
p539
aV1
aV6.60
p540
aa(lp541
V2015/2016
p542
aVBesiktas
p543
aVUEL
p544
aV2(4)
p545
aV215
p546
aV2
aV1
aV-
aV-
aV2
aV71.1
p547
aV0.7
p548
aV1
aV6.66
p549
aa(lp550
V2014/2015
p551
aVBesiktas
p552
aVTS
p553
aV6(12)
p554
aV713
p555
aV5
aV-
aV1
aV-
aV1.8
p556
aV69.6
p557
aV1.1
p558
aV1
aV6.52
p559
aa(lp560
V2014/2015
p561
aVBesiktas
p562
aVUEL
p563
aV1(3)
p564
aV188
p565
aV1
aV-
aV-
aV-
aV1.5
p566
aV81.8
p567
aV0.5
p568
aV-
aV6.57
p569
aa(lp570
V2016
p571
aVTurkey
p572
aVUEC
p573
aV1(1)
p574
aV70
p575
aV-
aV-
aV1
aV-
aV0.5
p576
aV58.3
p577
aV1
aV-
aV5.90
p578
aa(lp579
V2009/2010
p580
aVEintracht Fra..
p581
aVGB
p582
aV0(1)
p583
aV16
p584
aV-
aV-
aV-
aV-
aV2
aV83.3
p585
aV1
aV-
aV6.28
p586
aa(lp587
VTotal / Average
p588
aV
aV
aV158
p589
aV8541
p590
aV59
p591
aV16
p592
aV14
p593
aV0
aV2.1
p594
aV75.5
p595
aV1.2
p596
aV11
p597
aV6.76
p598
aasS'id'
p599
V77438
p600
sb.