(i__main__
Player
p1
(dp2
S'name'
p3
VJazz Richards 
p4
sS'offensive_data'
p5
(lp6
(lp7
a(lp8
V2018/2019
p9
aVCardiff
p10
aVEPL
p11
aV0(3)
p12
aV97
p13
aV-
aV-
aV-
aV-
aV-
aV82.4
p14
aV-
aV-
aV6.03
p15
aa(lp16
V2017/2018
p17
aVCardiff
p18
aVEC
p19
aV5(1)
p20
aV477
p21
aV-
aV-
aV2
aV-
aV0.7
p22
aV70.1
p23
aV2.3
p24
aV-
aV6.85
p25
aa(lp26
V2016/2017
p27
aVCardiff
p28
aVEC
p29
aV25(1)
p30
aV2232
p31
aV-
aV1
aV2
aV-
aV0.2
p32
aV72.6
p33
aV1.4
p34
aV-
aV6.75
p35
aa(lp36
V2015/2016
p37
aVFulham
p38
aVEC
p39
aV21(1)
p40
aV1781
p41
aV-
aV1
aV1
aV-
aV0.1
p42
aV77.1
p43
aV1.8
p44
aV1
aV6.65
p45
aa(lp46
V2014/2015
p47
aVFulham
p48
aVEC
p49
aV14
p50
aV1260
p51
aV-
aV-
aV2
aV-
aV0.1
p52
aV78.6
p53
aV2
aV-
aV6.95
p54
aa(lp55
V2014/2015
p56
aVSwansea
p57
aVEPL
p58
aV7(3)
p59
aV636
p60
aV-
aV1
aV1
aV-
aV-
aV84.1
p61
aV1.1
p62
aV-
aV6.65
p63
aa(lp64
V2016
p65
aVWales
p66
aVUEC
p67
aV0(1)
p68
aV2
aV-
aV-
aV-
aV-
aV-
aV-
aV-
aV-
aV5.97
p69
aa(lp70
V2013/2014
p71
aVHuddersfield
p72
aVEC
p73
aV7(2)
p74
aV610
p75
aV-
aV-
aV1
aV-
aV-
aV84.8
p76
aV0.8
p77
aV-
aV6.83
p78
aa(lp79
V2011/2012
p80
aVSwansea
p81
aVEPL
p82
aV6(2)
p83
aV575
p84
aV-
aV-
aV4
aV-
aV-
aV87.8
p85
aV0.3
p86
aV-
aV6.53
p87
aa(lp88
VTotal / Average
p89
aV
aV
aV99
p90
aV7670
p91
aV0
aV3
aV13
p92
aV0
aV0.1
p93
aV77.4
p94
aV1.4
p95
aV1
aV6.71
p96
aasS'url'
p97
S'https://www.whoscored.com/Players/78089/History/'
p98
sS'passing_data'
p99
(lp100
(lp101
a(lp102
V2018/2019
p103
aVCardiff
p104
aVEPL
p105
aV0(3)
p106
aV97
p107
aV-
aV-
aV-
aV-
aV-
aV82.4
p108
aV-
aV-
aV6.03
p109
aa(lp110
V2017/2018
p111
aVCardiff
p112
aVEC
p113
aV5(1)
p114
aV477
p115
aV-
aV-
aV2
aV-
aV0.7
p116
aV70.1
p117
aV2.3
p118
aV-
aV6.85
p119
aa(lp120
V2016/2017
p121
aVCardiff
p122
aVEC
p123
aV25(1)
p124
aV2232
p125
aV-
aV1
aV2
aV-
aV0.2
p126
aV72.6
p127
aV1.4
p128
aV-
aV6.75
p129
aa(lp130
V2015/2016
p131
aVFulham
p132
aVEC
p133
aV21(1)
p134
aV1781
p135
aV-
aV1
aV1
aV-
aV0.1
p136
aV77.1
p137
aV1.8
p138
aV1
aV6.65
p139
aa(lp140
V2014/2015
p141
aVFulham
p142
aVEC
p143
aV14
p144
aV1260
p145
aV-
aV-
aV2
aV-
aV0.1
p146
aV78.6
p147
aV2
aV-
aV6.95
p148
aa(lp149
V2014/2015
p150
aVSwansea
p151
aVEPL
p152
aV7(3)
p153
aV636
p154
aV-
aV1
aV1
aV-
aV-
aV84.1
p155
aV1.1
p156
aV-
aV6.65
p157
aa(lp158
V2016
p159
aVWales
p160
aVUEC
p161
aV0(1)
p162
aV2
aV-
aV-
aV-
aV-
aV-
aV-
aV-
aV-
aV5.97
p163
aa(lp164
V2013/2014
p165
aVHuddersfield
p166
aVEC
p167
aV7(2)
p168
aV610
p169
aV-
aV-
aV1
aV-
aV-
aV84.8
p170
aV0.8
p171
aV-
aV6.83
p172
aa(lp173
V2011/2012
p174
aVSwansea
p175
aVEPL
p176
aV6(2)
p177
aV575
p178
aV-
aV-
aV4
aV-
aV-
aV87.8
p179
aV0.3
p180
aV-
aV6.53
p181
aa(lp182
VTotal / Average
p183
aV
aV
aV99
p184
aV7670
p185
aV0
aV3
aV13
p186
aV0
aV0.1
p187
aV77.4
p188
aV1.4
p189
aV1
aV6.71
p190
aasS'defensive_data'
p191
(lp192
(lp193
a(lp194
V2018/2019
p195
aVCardiff
p196
aVEPL
p197
aV0(3)
p198
aV97
p199
aV-
aV-
aV-
aV-
aV-
aV82.4
p200
aV-
aV-
aV6.03
p201
aa(lp202
V2017/2018
p203
aVCardiff
p204
aVEC
p205
aV5(1)
p206
aV477
p207
aV-
aV-
aV2
aV-
aV0.7
p208
aV70.1
p209
aV2.3
p210
aV-
aV6.85
p211
aa(lp212
V2016/2017
p213
aVCardiff
p214
aVEC
p215
aV25(1)
p216
aV2232
p217
aV-
aV1
aV2
aV-
aV0.2
p218
aV72.6
p219
aV1.4
p220
aV-
aV6.75
p221
aa(lp222
V2015/2016
p223
aVFulham
p224
aVEC
p225
aV21(1)
p226
aV1781
p227
aV-
aV1
aV1
aV-
aV0.1
p228
aV77.1
p229
aV1.8
p230
aV1
aV6.65
p231
aa(lp232
V2014/2015
p233
aVFulham
p234
aVEC
p235
aV14
p236
aV1260
p237
aV-
aV-
aV2
aV-
aV0.1
p238
aV78.6
p239
aV2
aV-
aV6.95
p240
aa(lp241
V2014/2015
p242
aVSwansea
p243
aVEPL
p244
aV7(3)
p245
aV636
p246
aV-
aV1
aV1
aV-
aV-
aV84.1
p247
aV1.1
p248
aV-
aV6.65
p249
aa(lp250
V2016
p251
aVWales
p252
aVUEC
p253
aV0(1)
p254
aV2
aV-
aV-
aV-
aV-
aV-
aV-
aV-
aV-
aV5.97
p255
aa(lp256
V2013/2014
p257
aVHuddersfield
p258
aVEC
p259
aV7(2)
p260
aV610
p261
aV-
aV-
aV1
aV-
aV-
aV84.8
p262
aV0.8
p263
aV-
aV6.83
p264
aa(lp265
V2011/2012
p266
aVSwansea
p267
aVEPL
p268
aV6(2)
p269
aV575
p270
aV-
aV-
aV4
aV-
aV-
aV87.8
p271
aV0.3
p272
aV-
aV6.53
p273
aa(lp274
VTotal / Average
p275
aV
aV
aV99
p276
aV7670
p277
aV0
aV3
aV13
p278
aV0
aV0.1
p279
aV77.4
p280
aV1.4
p281
aV1
aV6.71
p282
aasS'sumary_data'
p283
(lp284
(lp285
a(lp286
V2018/2019
p287
aVCardiff
p288
aVEPL
p289
aV0(3)
p290
aV97
p291
aV-
aV-
aV-
aV-
aV-
aV82.4
p292
aV-
aV-
aV6.03
p293
aa(lp294
V2017/2018
p295
aVCardiff
p296
aVEC
p297
aV5(1)
p298
aV477
p299
aV-
aV-
aV2
aV-
aV0.7
p300
aV70.1
p301
aV2.3
p302
aV-
aV6.85
p303
aa(lp304
V2016/2017
p305
aVCardiff
p306
aVEC
p307
aV25(1)
p308
aV2232
p309
aV-
aV1
aV2
aV-
aV0.2
p310
aV72.6
p311
aV1.4
p312
aV-
aV6.75
p313
aa(lp314
V2015/2016
p315
aVFulham
p316
aVEC
p317
aV21(1)
p318
aV1781
p319
aV-
aV1
aV1
aV-
aV0.1
p320
aV77.1
p321
aV1.8
p322
aV1
aV6.65
p323
aa(lp324
V2014/2015
p325
aVFulham
p326
aVEC
p327
aV14
p328
aV1260
p329
aV-
aV-
aV2
aV-
aV0.1
p330
aV78.6
p331
aV2
aV-
aV6.95
p332
aa(lp333
V2014/2015
p334
aVSwansea
p335
aVEPL
p336
aV7(3)
p337
aV636
p338
aV-
aV1
aV1
aV-
aV-
aV84.1
p339
aV1.1
p340
aV-
aV6.65
p341
aa(lp342
V2016
p343
aVWales
p344
aVUEC
p345
aV0(1)
p346
aV2
aV-
aV-
aV-
aV-
aV-
aV-
aV-
aV-
aV5.97
p347
aa(lp348
V2013/2014
p349
aVHuddersfield
p350
aVEC
p351
aV7(2)
p352
aV610
p353
aV-
aV-
aV1
aV-
aV-
aV84.8
p354
aV0.8
p355
aV-
aV6.83
p356
aa(lp357
V2011/2012
p358
aVSwansea
p359
aVEPL
p360
aV6(2)
p361
aV575
p362
aV-
aV-
aV4
aV-
aV-
aV87.8
p363
aV0.3
p364
aV-
aV6.53
p365
aa(lp366
VTotal / Average
p367
aV
aV
aV99
p368
aV7670
p369
aV0
aV3
aV13
p370
aV0
aV0.1
p371
aV77.4
p372
aV1.4
p373
aV1
aV6.71
p374
aasS'id'
p375
V78089
p376
sb.