(i__main__
Player
p1
(dp2
S'name'
p3
VPatrick van Aanholt 
p4
sS'offensive_data'
p5
(lp6
(lp7
a(lp8
V2018/2019
p9
aVCrystal Palac..
p10
aVEPL
p11
aV17
p12
aV1495
p13
aV1
aV1
aV2
aV-
aV1.3
p14
aV79.9
p15
aV0.2
p16
aV-
aV6.61
p17
aa(lp18
V2017/2018
p19
aVCrystal Palac..
p20
aVEPL
p21
aV25(3)
p22
aV2186
p23
aV5
aV1
aV7
aV-
aV1.2
p24
aV77.2
p25
aV0.2
p26
aV1
aV6.80
p27
aa(lp28
V2016/2017
p29
aVSunderland
p30
aVEPL
p31
aV20(1)
p32
aV1784
p33
aV3
aV1
aV2
aV-
aV1.1
p34
aV77.6
p35
aV0.2
p36
aV-
aV6.94
p37
aa(lp38
V2016/2017
p39
aVCrystal Palac..
p40
aVEPL
p41
aV8(3)
p42
aV715
p43
aV2
aV-
aV1
aV-
aV0.9
p44
aV83.1
p45
aV0.5
p46
aV1
aV6.64
p47
aa(lp48
V2015/2016
p49
aVSunderland
p50
aVEPL
p51
aV33
p52
aV2970
p53
aV4
aV3
aV2
aV-
aV1.4
p54
aV77.4
p55
aV0.4
p56
aV1
aV7.11
p57
aa(lp58
V2014/2015
p59
aVSunderland
p60
aVEPL
p61
aV26(2)
p62
aV2306
p63
aV-
aV5
aV4
aV-
aV1.1
p64
aV81.5
p65
aV0.4
p66
aV2
aV7.09
p67
aa(lp68
V2013/2014
p69
aVVitesse
p70
aVNE
p71
aV29
p72
aV2536
p73
aV4
aV3
aV2
aV1
aV1.8
p74
aV85.1
p75
aV0.6
p76
aV1
aV7.12
p77
aa(lp78
V2013
p79
aVNetherlands U..
p80
aVIEU
p81
aV1
aV90
p82
aV-
aV-
aV-
aV-
aV1
aV90
p83
aV-
aV-
aV6.32
p84
aa(lp85
V2011/2012
p86
aVWigan
p87
aVEPL
p88
aV3
aV270
p89
aV-
aV-
aV-
aV-
aV1.3
p90
aV82.4
p91
aV-
aV-
aV6.38
p92
aa(lp93
V2010/2011
p94
aVChelsea
p95
aVUCL
p96
aV1(3)
p97
aV105
p98
aV-
aV-
aV-
aV-
aV0.3
p99
aV88.6
p100
aV0.3
p101
aV-
aV6.28
p102
aa(lp103
V2009/2010
p104
aVChelsea
p105
aVEPL
p106
aV0(2)
p107
aV32
p108
aV-
aV-
aV-
aV-
aV-
aV83.3
p109
aV0.5
p110
aV-
aV6.54
p111
aa(lp112
VTotal / Average
p113
aV
aV
aV177
p114
aV14489
p115
aV19
p116
aV14
p117
aV20
p118
aV1
aV1.3
p119
aV80.4
p120
aV0.4
p121
aV6
aV6.92
p122
aasS'url'
p123
S'https://www.whoscored.com/Players/78221/History/'
p124
sS'passing_data'
p125
(lp126
(lp127
a(lp128
V2018/2019
p129
aVCrystal Palac..
p130
aVEPL
p131
aV17
p132
aV1495
p133
aV1
aV1
aV2
aV-
aV1.3
p134
aV79.9
p135
aV0.2
p136
aV-
aV6.61
p137
aa(lp138
V2017/2018
p139
aVCrystal Palac..
p140
aVEPL
p141
aV25(3)
p142
aV2186
p143
aV5
aV1
aV7
aV-
aV1.2
p144
aV77.2
p145
aV0.2
p146
aV1
aV6.80
p147
aa(lp148
V2016/2017
p149
aVSunderland
p150
aVEPL
p151
aV20(1)
p152
aV1784
p153
aV3
aV1
aV2
aV-
aV1.1
p154
aV77.6
p155
aV0.2
p156
aV-
aV6.94
p157
aa(lp158
V2016/2017
p159
aVCrystal Palac..
p160
aVEPL
p161
aV8(3)
p162
aV715
p163
aV2
aV-
aV1
aV-
aV0.9
p164
aV83.1
p165
aV0.5
p166
aV1
aV6.64
p167
aa(lp168
V2015/2016
p169
aVSunderland
p170
aVEPL
p171
aV33
p172
aV2970
p173
aV4
aV3
aV2
aV-
aV1.4
p174
aV77.4
p175
aV0.4
p176
aV1
aV7.11
p177
aa(lp178
V2014/2015
p179
aVSunderland
p180
aVEPL
p181
aV26(2)
p182
aV2306
p183
aV-
aV5
aV4
aV-
aV1.1
p184
aV81.5
p185
aV0.4
p186
aV2
aV7.09
p187
aa(lp188
V2013/2014
p189
aVVitesse
p190
aVNE
p191
aV29
p192
aV2536
p193
aV4
aV3
aV2
aV1
aV1.8
p194
aV85.1
p195
aV0.6
p196
aV1
aV7.12
p197
aa(lp198
V2013
p199
aVNetherlands U..
p200
aVIEU
p201
aV1
aV90
p202
aV-
aV-
aV-
aV-
aV1
aV90
p203
aV-
aV-
aV6.32
p204
aa(lp205
V2011/2012
p206
aVWigan
p207
aVEPL
p208
aV3
aV270
p209
aV-
aV-
aV-
aV-
aV1.3
p210
aV82.4
p211
aV-
aV-
aV6.38
p212
aa(lp213
V2010/2011
p214
aVChelsea
p215
aVUCL
p216
aV1(3)
p217
aV105
p218
aV-
aV-
aV-
aV-
aV0.3
p219
aV88.6
p220
aV0.3
p221
aV-
aV6.28
p222
aa(lp223
V2009/2010
p224
aVChelsea
p225
aVEPL
p226
aV0(2)
p227
aV32
p228
aV-
aV-
aV-
aV-
aV-
aV83.3
p229
aV0.5
p230
aV-
aV6.54
p231
aa(lp232
VTotal / Average
p233
aV
aV
aV177
p234
aV14489
p235
aV19
p236
aV14
p237
aV20
p238
aV1
aV1.3
p239
aV80.4
p240
aV0.4
p241
aV6
aV6.92
p242
aasS'defensive_data'
p243
(lp244
(lp245
a(lp246
V2018/2019
p247
aVCrystal Palac..
p248
aVEPL
p249
aV17
p250
aV1495
p251
aV1
aV1
aV2
aV-
aV1.3
p252
aV79.9
p253
aV0.2
p254
aV-
aV6.61
p255
aa(lp256
V2017/2018
p257
aVCrystal Palac..
p258
aVEPL
p259
aV25(3)
p260
aV2186
p261
aV5
aV1
aV7
aV-
aV1.2
p262
aV77.2
p263
aV0.2
p264
aV1
aV6.80
p265
aa(lp266
V2016/2017
p267
aVSunderland
p268
aVEPL
p269
aV20(1)
p270
aV1784
p271
aV3
aV1
aV2
aV-
aV1.1
p272
aV77.6
p273
aV0.2
p274
aV-
aV6.94
p275
aa(lp276
V2016/2017
p277
aVCrystal Palac..
p278
aVEPL
p279
aV8(3)
p280
aV715
p281
aV2
aV-
aV1
aV-
aV0.9
p282
aV83.1
p283
aV0.5
p284
aV1
aV6.64
p285
aa(lp286
V2015/2016
p287
aVSunderland
p288
aVEPL
p289
aV33
p290
aV2970
p291
aV4
aV3
aV2
aV-
aV1.4
p292
aV77.4
p293
aV0.4
p294
aV1
aV7.11
p295
aa(lp296
V2014/2015
p297
aVSunderland
p298
aVEPL
p299
aV26(2)
p300
aV2306
p301
aV-
aV5
aV4
aV-
aV1.1
p302
aV81.5
p303
aV0.4
p304
aV2
aV7.09
p305
aa(lp306
V2013/2014
p307
aVVitesse
p308
aVNE
p309
aV29
p310
aV2536
p311
aV4
aV3
aV2
aV1
aV1.8
p312
aV85.1
p313
aV0.6
p314
aV1
aV7.12
p315
aa(lp316
V2013
p317
aVNetherlands U..
p318
aVIEU
p319
aV1
aV90
p320
aV-
aV-
aV-
aV-
aV1
aV90
p321
aV-
aV-
aV6.32
p322
aa(lp323
V2011/2012
p324
aVWigan
p325
aVEPL
p326
aV3
aV270
p327
aV-
aV-
aV-
aV-
aV1.3
p328
aV82.4
p329
aV-
aV-
aV6.38
p330
aa(lp331
V2010/2011
p332
aVChelsea
p333
aVUCL
p334
aV1(3)
p335
aV105
p336
aV-
aV-
aV-
aV-
aV0.3
p337
aV88.6
p338
aV0.3
p339
aV-
aV6.28
p340
aa(lp341
V2009/2010
p342
aVChelsea
p343
aVEPL
p344
aV0(2)
p345
aV32
p346
aV-
aV-
aV-
aV-
aV-
aV83.3
p347
aV0.5
p348
aV-
aV6.54
p349
aa(lp350
VTotal / Average
p351
aV
aV
aV177
p352
aV14489
p353
aV19
p354
aV14
p355
aV20
p356
aV1
aV1.3
p357
aV80.4
p358
aV0.4
p359
aV6
aV6.92
p360
aasS'sumary_data'
p361
(lp362
(lp363
a(lp364
V2018/2019
p365
aVCrystal Palac..
p366
aVEPL
p367
aV17
p368
aV1495
p369
aV1
aV1
aV2
aV-
aV1.3
p370
aV79.9
p371
aV0.2
p372
aV-
aV6.61
p373
aa(lp374
V2017/2018
p375
aVCrystal Palac..
p376
aVEPL
p377
aV25(3)
p378
aV2186
p379
aV5
aV1
aV7
aV-
aV1.2
p380
aV77.2
p381
aV0.2
p382
aV1
aV6.80
p383
aa(lp384
V2016/2017
p385
aVSunderland
p386
aVEPL
p387
aV20(1)
p388
aV1784
p389
aV3
aV1
aV2
aV-
aV1.1
p390
aV77.6
p391
aV0.2
p392
aV-
aV6.94
p393
aa(lp394
V2016/2017
p395
aVCrystal Palac..
p396
aVEPL
p397
aV8(3)
p398
aV715
p399
aV2
aV-
aV1
aV-
aV0.9
p400
aV83.1
p401
aV0.5
p402
aV1
aV6.64
p403
aa(lp404
V2015/2016
p405
aVSunderland
p406
aVEPL
p407
aV33
p408
aV2970
p409
aV4
aV3
aV2
aV-
aV1.4
p410
aV77.4
p411
aV0.4
p412
aV1
aV7.11
p413
aa(lp414
V2014/2015
p415
aVSunderland
p416
aVEPL
p417
aV26(2)
p418
aV2306
p419
aV-
aV5
aV4
aV-
aV1.1
p420
aV81.5
p421
aV0.4
p422
aV2
aV7.09
p423
aa(lp424
V2013/2014
p425
aVVitesse
p426
aVNE
p427
aV29
p428
aV2536
p429
aV4
aV3
aV2
aV1
aV1.8
p430
aV85.1
p431
aV0.6
p432
aV1
aV7.12
p433
aa(lp434
V2013
p435
aVNetherlands U..
p436
aVIEU
p437
aV1
aV90
p438
aV-
aV-
aV-
aV-
aV1
aV90
p439
aV-
aV-
aV6.32
p440
aa(lp441
V2011/2012
p442
aVWigan
p443
aVEPL
p444
aV3
aV270
p445
aV-
aV-
aV-
aV-
aV1.3
p446
aV82.4
p447
aV-
aV-
aV6.38
p448
aa(lp449
V2010/2011
p450
aVChelsea
p451
aVUCL
p452
aV1(3)
p453
aV105
p454
aV-
aV-
aV-
aV-
aV0.3
p455
aV88.6
p456
aV0.3
p457
aV-
aV6.28
p458
aa(lp459
V2009/2010
p460
aVChelsea
p461
aVEPL
p462
aV0(2)
p463
aV32
p464
aV-
aV-
aV-
aV-
aV-
aV83.3
p465
aV0.5
p466
aV-
aV6.54
p467
aa(lp468
VTotal / Average
p469
aV
aV
aV177
p470
aV14489
p471
aV19
p472
aV14
p473
aV20
p474
aV1
aV1.3
p475
aV80.4
p476
aV0.4
p477
aV6
aV6.92
p478
aasS'id'
p479
V78221
p480
sb.