(i__main__
Player
p1
(dp2
S'name'
p3
VDanny Ward 
p4
sS'offensive_data'
p5
(lp6
(lp7
a(lp8
V2018/2019
p9
aVCardiff
p10
aVEPL
p11
aV3(6)
p12
aV325
p13
aV1
aV-
aV-
aV-
aV0.4
p14
aV53.6
p15
aV2
aV-
aV6.31
p16
aa(lp17
V2017/2018
p18
aVCardiff
p19
aVEC
p20
aV6(12)
p21
aV586
p22
aV4
aV-
aV-
aV-
aV0.9
p23
aV67.2
p24
aV1.4
p25
aV-
aV6.43
p26
aa(lp27
V2016/2017
p28
aVRotherham
p29
aVEC
p30
aV40(1)
p31
aV3469
p32
aV10
p33
aV4
aV4
aV-
aV2.7
p34
aV58.4
p35
aV4.5
p36
aV1
aV6.74
p37
aa(lp38
V2015/2016
p39
aVRotherham
p40
aVEC
p41
aV22(12)
p42
aV2011
p43
aV4
aV8
aV2
aV-
aV1.5
p44
aV53.8
p45
aV3.6
p46
aV-
aV6.71
p47
aa(lp48
V2014/2015
p49
aVRotherham
p50
aVEC
p51
aV10(6)
p52
aV931
p53
aV3
aV2
aV1
aV-
aV1.9
p54
aV55.3
p55
aV4.4
p56
aV1
aV6.69
p57
aa(lp58
V2014/2015
p59
aVHuddersfield
p60
aVEC
p61
aV2(10)
p62
aV274
p63
aV-
aV1
aV-
aV-
aV0.8
p64
aV67.1
p65
aV1
aV-
aV6.16
p66
aa(lp67
V2013/2014
p68
aVHuddersfield
p69
aVEC
p70
aV27(11)
p71
aV2461
p72
aV10
p73
aV5
aV1
aV-
aV2.9
p74
aV71.3
p75
aV2.3
p76
aV2
aV6.84
p77
aa(lp78
V2009/2010
p79
aVBolton
p80
aVEPL
p81
aV0(2)
p82
aV16
p83
aV-
aV-
aV-
aV-
aV0.5
p84
aV42.9
p85
aV-
aV-
aV6.00
p86
aa(lp87
VTotal / Average
p88
aV
aV
aV170
p89
aV10073
p90
aV32
p91
aV20
p92
aV8
aV0
aV2
aV61.2
p93
aV3
aV4
aV6.65
p94
aasS'url'
p95
S'https://www.whoscored.com/Players/78471/History/'
p96
sS'passing_data'
p97
(lp98
(lp99
a(lp100
V2018/2019
p101
aVCardiff
p102
aVEPL
p103
aV3(6)
p104
aV325
p105
aV1
aV-
aV-
aV-
aV0.4
p106
aV53.6
p107
aV2
aV-
aV6.31
p108
aa(lp109
V2017/2018
p110
aVCardiff
p111
aVEC
p112
aV6(12)
p113
aV586
p114
aV4
aV-
aV-
aV-
aV0.9
p115
aV67.2
p116
aV1.4
p117
aV-
aV6.43
p118
aa(lp119
V2016/2017
p120
aVRotherham
p121
aVEC
p122
aV40(1)
p123
aV3469
p124
aV10
p125
aV4
aV4
aV-
aV2.7
p126
aV58.4
p127
aV4.5
p128
aV1
aV6.74
p129
aa(lp130
V2015/2016
p131
aVRotherham
p132
aVEC
p133
aV22(12)
p134
aV2011
p135
aV4
aV8
aV2
aV-
aV1.5
p136
aV53.8
p137
aV3.6
p138
aV-
aV6.71
p139
aa(lp140
V2014/2015
p141
aVRotherham
p142
aVEC
p143
aV10(6)
p144
aV931
p145
aV3
aV2
aV1
aV-
aV1.9
p146
aV55.3
p147
aV4.4
p148
aV1
aV6.69
p149
aa(lp150
V2014/2015
p151
aVHuddersfield
p152
aVEC
p153
aV2(10)
p154
aV274
p155
aV-
aV1
aV-
aV-
aV0.8
p156
aV67.1
p157
aV1
aV-
aV6.16
p158
aa(lp159
V2013/2014
p160
aVHuddersfield
p161
aVEC
p162
aV27(11)
p163
aV2461
p164
aV10
p165
aV5
aV1
aV-
aV2.9
p166
aV71.3
p167
aV2.3
p168
aV2
aV6.84
p169
aa(lp170
V2009/2010
p171
aVBolton
p172
aVEPL
p173
aV0(2)
p174
aV16
p175
aV-
aV-
aV-
aV-
aV0.5
p176
aV42.9
p177
aV-
aV-
aV6.00
p178
aa(lp179
VTotal / Average
p180
aV
aV
aV170
p181
aV10073
p182
aV32
p183
aV20
p184
aV8
aV0
aV2
aV61.2
p185
aV3
aV4
aV6.65
p186
aasS'defensive_data'
p187
(lp188
(lp189
a(lp190
V2018/2019
p191
aVCardiff
p192
aVEPL
p193
aV3(6)
p194
aV325
p195
aV1
aV-
aV-
aV-
aV0.4
p196
aV53.6
p197
aV2
aV-
aV6.31
p198
aa(lp199
V2017/2018
p200
aVCardiff
p201
aVEC
p202
aV6(12)
p203
aV586
p204
aV4
aV-
aV-
aV-
aV0.9
p205
aV67.2
p206
aV1.4
p207
aV-
aV6.43
p208
aa(lp209
V2016/2017
p210
aVRotherham
p211
aVEC
p212
aV40(1)
p213
aV3469
p214
aV10
p215
aV4
aV4
aV-
aV2.7
p216
aV58.4
p217
aV4.5
p218
aV1
aV6.74
p219
aa(lp220
V2015/2016
p221
aVRotherham
p222
aVEC
p223
aV22(12)
p224
aV2011
p225
aV4
aV8
aV2
aV-
aV1.5
p226
aV53.8
p227
aV3.6
p228
aV-
aV6.71
p229
aa(lp230
V2014/2015
p231
aVRotherham
p232
aVEC
p233
aV10(6)
p234
aV931
p235
aV3
aV2
aV1
aV-
aV1.9
p236
aV55.3
p237
aV4.4
p238
aV1
aV6.69
p239
aa(lp240
V2014/2015
p241
aVHuddersfield
p242
aVEC
p243
aV2(10)
p244
aV274
p245
aV-
aV1
aV-
aV-
aV0.8
p246
aV67.1
p247
aV1
aV-
aV6.16
p248
aa(lp249
V2013/2014
p250
aVHuddersfield
p251
aVEC
p252
aV27(11)
p253
aV2461
p254
aV10
p255
aV5
aV1
aV-
aV2.9
p256
aV71.3
p257
aV2.3
p258
aV2
aV6.84
p259
aa(lp260
V2009/2010
p261
aVBolton
p262
aVEPL
p263
aV0(2)
p264
aV16
p265
aV-
aV-
aV-
aV-
aV0.5
p266
aV42.9
p267
aV-
aV-
aV6.00
p268
aa(lp269
VTotal / Average
p270
aV
aV
aV170
p271
aV10073
p272
aV32
p273
aV20
p274
aV8
aV0
aV2
aV61.2
p275
aV3
aV4
aV6.65
p276
aasS'sumary_data'
p277
(lp278
(lp279
a(lp280
V2018/2019
p281
aVCardiff
p282
aVEPL
p283
aV3(6)
p284
aV325
p285
aV1
aV-
aV-
aV-
aV0.4
p286
aV53.6
p287
aV2
aV-
aV6.31
p288
aa(lp289
V2017/2018
p290
aVCardiff
p291
aVEC
p292
aV6(12)
p293
aV586
p294
aV4
aV-
aV-
aV-
aV0.9
p295
aV67.2
p296
aV1.4
p297
aV-
aV6.43
p298
aa(lp299
V2016/2017
p300
aVRotherham
p301
aVEC
p302
aV40(1)
p303
aV3469
p304
aV10
p305
aV4
aV4
aV-
aV2.7
p306
aV58.4
p307
aV4.5
p308
aV1
aV6.74
p309
aa(lp310
V2015/2016
p311
aVRotherham
p312
aVEC
p313
aV22(12)
p314
aV2011
p315
aV4
aV8
aV2
aV-
aV1.5
p316
aV53.8
p317
aV3.6
p318
aV-
aV6.71
p319
aa(lp320
V2014/2015
p321
aVRotherham
p322
aVEC
p323
aV10(6)
p324
aV931
p325
aV3
aV2
aV1
aV-
aV1.9
p326
aV55.3
p327
aV4.4
p328
aV1
aV6.69
p329
aa(lp330
V2014/2015
p331
aVHuddersfield
p332
aVEC
p333
aV2(10)
p334
aV274
p335
aV-
aV1
aV-
aV-
aV0.8
p336
aV67.1
p337
aV1
aV-
aV6.16
p338
aa(lp339
V2013/2014
p340
aVHuddersfield
p341
aVEC
p342
aV27(11)
p343
aV2461
p344
aV10
p345
aV5
aV1
aV-
aV2.9
p346
aV71.3
p347
aV2.3
p348
aV2
aV6.84
p349
aa(lp350
V2009/2010
p351
aVBolton
p352
aVEPL
p353
aV0(2)
p354
aV16
p355
aV-
aV-
aV-
aV-
aV0.5
p356
aV42.9
p357
aV-
aV-
aV6.00
p358
aa(lp359
VTotal / Average
p360
aV
aV
aV170
p361
aV10073
p362
aV32
p363
aV20
p364
aV8
aV0
aV2
aV61.2
p365
aV3
aV4
aV6.65
p366
aasS'id'
p367
V78471
p368
sb.