(i__main__
Player
p1
(dp2
S'name'
p3
VRomelu Lukaku 
p4
sS'offensive_data'
p5
(lp6
(lp7
a(lp8
V2018/2019
p9
aVManchester Un..
p10
aVEPL
p11
aV12(4)
p12
aV1184
p13
aV6
aV-
aV2
aV-
aV1.8
p14
aV66.3
p15
aV2.7
p16
aV1
aV6.84
p17
aa(lp18
V2018/2019
p19
aVManchester Un..
p20
aVUCL
p21
aV4(1)
p22
aV365
p23
aV-
aV1
aV1
aV-
aV1.6
p24
aV72.9
p25
aV2.4
p26
aV-
aV6.57
p27
aa(lp28
V2018/2019
p29
aVBelgium
p30
aVUNL
p31
aV2
aV180
p32
aV4
aV-
aV-
aV-
aV5.5
p33
aV73.8
p34
aV1
aV2
aV8.63
p35
aa(lp36
V2017/2018
p37
aVManchester Un..
p38
aVUCL
p39
aV8
aV704
p40
aV5
aV-
aV-
aV-
aV3.3
p41
aV70.3
p42
aV4.5
p43
aV2
aV7.70
p44
aa(lp45
V2017/2018
p46
aVManchester Un..
p47
aVEPL
p48
aV33(1)
p49
aV2869
p50
aV16
p51
aV7
aV4
aV-
aV2.5
p52
aV68.4
p53
aV3.2
p54
aV2
aV7.29
p55
aa(lp56
V2016/2017
p57
aVEverton
p58
aVEPL
p59
aV36(1)
p60
aV3267
p61
aV25
p62
aV6
aV3
aV-
aV3
aV65.5
p63
aV3.7
p64
aV6
aV7.50
p65
aa(lp66
V2018
p67
aVBelgium
p68
aVWC
p69
aV6
aV476
p70
aV4
aV1
aV-
aV-
aV2.2
p71
aV74.5
p72
aV2
aV1
aV7.10
p73
aa(lp74
V2015/2016
p75
aVEverton
p76
aVEPL
p77
aV36(1)
p78
aV3177
p79
aV18
p80
aV6
aV3
aV-
aV3.2
p81
aV72.6
p82
aV2.5
p83
aV4
aV7.16
p84
aa(lp85
V2014/2015
p86
aVEverton
p87
aVUEL
p88
aV7(2)
p89
aV634
p90
aV8
aV2
aV3
aV-
aV3
aV73.3
p91
aV2.4
p92
aV2
aV7.74
p93
aa(lp94
V2014/2015
p95
aVEverton
p96
aVEPL
p97
aV32(4)
p98
aV2877
p99
aV10
p100
aV5
aV1
aV-
aV2.9
p101
aV73.8
p102
aV1.7
p103
aV2
aV6.77
p104
aa(lp105
V2016
p106
aVBelgium
p107
aVUEC
p108
aV5
aV401
p109
aV2
aV-
aV-
aV-
aV2.4
p110
aV74.3
p111
aV2.8
p112
aV-
aV7.02
p113
aa(lp114
V2013/2014
p115
aVEverton
p116
aVEPL
p117
aV29(2)
p118
aV2564
p119
aV15
p120
aV6
aV1
aV-
aV3.2
p121
aV66.6
p122
aV2.9
p123
aV4
aV7.31
p124
aa(lp125
V2013/2014
p126
aVChelsea
p127
aVEPL
p128
aV0(2)
p129
aV41
p130
aV-
aV-
aV-
aV-
aV1.5
p131
aV81.3
p132
aV0.5
p133
aV-
aV6.14
p134
aa(lp135
V2014
p136
aVBelgium
p137
aVWC
p138
aV2(2)
p139
aV177
p140
aV1
aV-
aV-
aV-
aV1.5
p141
aV75
p142
aV0.8
p143
aV-
aV6.55
p144
aa(lp145
V2012/2013
p146
aVWest Bromwich..
p147
aVEPL
p148
aV20(15)
p149
aV2006
p150
aV17
p151
aV4
aV3
aV-
aV2.8
p152
aV72
p153
aV1.9
p154
aV5
aV6.95
p155
aa(lp156
V2011/2012
p157
aVChelsea
p158
aVEPL
p159
aV1(7)
p160
aV158
p161
aV-
aV1
aV-
aV-
aV1.1
p162
aV81.1
p163
aV0.3
p164
aV-
aV6.35
p165
aa(lp166
VTotal / Average
p167
aV
aV
aV275
p168
aV21080
p169
aV131
p170
aV39
p171
aV21
p172
aV0
aV2.8
p173
aV70.5
p174
aV2.6
p175
aV31
p176
aV7.13
p177
aasS'url'
p178
S'https://www.whoscored.com/Players/78498/History/'
p179
sS'passing_data'
p180
(lp181
(lp182
a(lp183
V2018/2019
p184
aVManchester Un..
p185
aVEPL
p186
aV12(4)
p187
aV1184
p188
aV6
aV-
aV2
aV-
aV1.8
p189
aV66.3
p190
aV2.7
p191
aV1
aV6.84
p192
aa(lp193
V2018/2019
p194
aVManchester Un..
p195
aVUCL
p196
aV4(1)
p197
aV365
p198
aV-
aV1
aV1
aV-
aV1.6
p199
aV72.9
p200
aV2.4
p201
aV-
aV6.57
p202
aa(lp203
V2018/2019
p204
aVBelgium
p205
aVUNL
p206
aV2
aV180
p207
aV4
aV-
aV-
aV-
aV5.5
p208
aV73.8
p209
aV1
aV2
aV8.63
p210
aa(lp211
V2017/2018
p212
aVManchester Un..
p213
aVUCL
p214
aV8
aV704
p215
aV5
aV-
aV-
aV-
aV3.3
p216
aV70.3
p217
aV4.5
p218
aV2
aV7.70
p219
aa(lp220
V2017/2018
p221
aVManchester Un..
p222
aVEPL
p223
aV33(1)
p224
aV2869
p225
aV16
p226
aV7
aV4
aV-
aV2.5
p227
aV68.4
p228
aV3.2
p229
aV2
aV7.29
p230
aa(lp231
V2016/2017
p232
aVEverton
p233
aVEPL
p234
aV36(1)
p235
aV3267
p236
aV25
p237
aV6
aV3
aV-
aV3
aV65.5
p238
aV3.7
p239
aV6
aV7.50
p240
aa(lp241
V2018
p242
aVBelgium
p243
aVWC
p244
aV6
aV476
p245
aV4
aV1
aV-
aV-
aV2.2
p246
aV74.5
p247
aV2
aV1
aV7.10
p248
aa(lp249
V2015/2016
p250
aVEverton
p251
aVEPL
p252
aV36(1)
p253
aV3177
p254
aV18
p255
aV6
aV3
aV-
aV3.2
p256
aV72.6
p257
aV2.5
p258
aV4
aV7.16
p259
aa(lp260
V2014/2015
p261
aVEverton
p262
aVUEL
p263
aV7(2)
p264
aV634
p265
aV8
aV2
aV3
aV-
aV3
aV73.3
p266
aV2.4
p267
aV2
aV7.74
p268
aa(lp269
V2014/2015
p270
aVEverton
p271
aVEPL
p272
aV32(4)
p273
aV2877
p274
aV10
p275
aV5
aV1
aV-
aV2.9
p276
aV73.8
p277
aV1.7
p278
aV2
aV6.77
p279
aa(lp280
V2016
p281
aVBelgium
p282
aVUEC
p283
aV5
aV401
p284
aV2
aV-
aV-
aV-
aV2.4
p285
aV74.3
p286
aV2.8
p287
aV-
aV7.02
p288
aa(lp289
V2013/2014
p290
aVEverton
p291
aVEPL
p292
aV29(2)
p293
aV2564
p294
aV15
p295
aV6
aV1
aV-
aV3.2
p296
aV66.6
p297
aV2.9
p298
aV4
aV7.31
p299
aa(lp300
V2013/2014
p301
aVChelsea
p302
aVEPL
p303
aV0(2)
p304
aV41
p305
aV-
aV-
aV-
aV-
aV1.5
p306
aV81.3
p307
aV0.5
p308
aV-
aV6.14
p309
aa(lp310
V2014
p311
aVBelgium
p312
aVWC
p313
aV2(2)
p314
aV177
p315
aV1
aV-
aV-
aV-
aV1.5
p316
aV75
p317
aV0.8
p318
aV-
aV6.55
p319
aa(lp320
V2012/2013
p321
aVWest Bromwich..
p322
aVEPL
p323
aV20(15)
p324
aV2006
p325
aV17
p326
aV4
aV3
aV-
aV2.8
p327
aV72
p328
aV1.9
p329
aV5
aV6.95
p330
aa(lp331
V2011/2012
p332
aVChelsea
p333
aVEPL
p334
aV1(7)
p335
aV158
p336
aV-
aV1
aV-
aV-
aV1.1
p337
aV81.1
p338
aV0.3
p339
aV-
aV6.35
p340
aa(lp341
VTotal / Average
p342
aV
aV
aV275
p343
aV21080
p344
aV131
p345
aV39
p346
aV21
p347
aV0
aV2.8
p348
aV70.5
p349
aV2.6
p350
aV31
p351
aV7.13
p352
aasS'defensive_data'
p353
(lp354
(lp355
a(lp356
V2018/2019
p357
aVManchester Un..
p358
aVEPL
p359
aV12(4)
p360
aV1184
p361
aV6
aV-
aV2
aV-
aV1.8
p362
aV66.3
p363
aV2.7
p364
aV1
aV6.84
p365
aa(lp366
V2018/2019
p367
aVManchester Un..
p368
aVUCL
p369
aV4(1)
p370
aV365
p371
aV-
aV1
aV1
aV-
aV1.6
p372
aV72.9
p373
aV2.4
p374
aV-
aV6.57
p375
aa(lp376
V2018/2019
p377
aVBelgium
p378
aVUNL
p379
aV2
aV180
p380
aV4
aV-
aV-
aV-
aV5.5
p381
aV73.8
p382
aV1
aV2
aV8.63
p383
aa(lp384
V2017/2018
p385
aVManchester Un..
p386
aVUCL
p387
aV8
aV704
p388
aV5
aV-
aV-
aV-
aV3.3
p389
aV70.3
p390
aV4.5
p391
aV2
aV7.70
p392
aa(lp393
V2017/2018
p394
aVManchester Un..
p395
aVEPL
p396
aV33(1)
p397
aV2869
p398
aV16
p399
aV7
aV4
aV-
aV2.5
p400
aV68.4
p401
aV3.2
p402
aV2
aV7.29
p403
aa(lp404
V2016/2017
p405
aVEverton
p406
aVEPL
p407
aV36(1)
p408
aV3267
p409
aV25
p410
aV6
aV3
aV-
aV3
aV65.5
p411
aV3.7
p412
aV6
aV7.50
p413
aa(lp414
V2018
p415
aVBelgium
p416
aVWC
p417
aV6
aV476
p418
aV4
aV1
aV-
aV-
aV2.2
p419
aV74.5
p420
aV2
aV1
aV7.10
p421
aa(lp422
V2015/2016
p423
aVEverton
p424
aVEPL
p425
aV36(1)
p426
aV3177
p427
aV18
p428
aV6
aV3
aV-
aV3.2
p429
aV72.6
p430
aV2.5
p431
aV4
aV7.16
p432
aa(lp433
V2014/2015
p434
aVEverton
p435
aVUEL
p436
aV7(2)
p437
aV634
p438
aV8
aV2
aV3
aV-
aV3
aV73.3
p439
aV2.4
p440
aV2
aV7.74
p441
aa(lp442
V2014/2015
p443
aVEverton
p444
aVEPL
p445
aV32(4)
p446
aV2877
p447
aV10
p448
aV5
aV1
aV-
aV2.9
p449
aV73.8
p450
aV1.7
p451
aV2
aV6.77
p452
aa(lp453
V2016
p454
aVBelgium
p455
aVUEC
p456
aV5
aV401
p457
aV2
aV-
aV-
aV-
aV2.4
p458
aV74.3
p459
aV2.8
p460
aV-
aV7.02
p461
aa(lp462
V2013/2014
p463
aVEverton
p464
aVEPL
p465
aV29(2)
p466
aV2564
p467
aV15
p468
aV6
aV1
aV-
aV3.2
p469
aV66.6
p470
aV2.9
p471
aV4
aV7.31
p472
aa(lp473
V2013/2014
p474
aVChelsea
p475
aVEPL
p476
aV0(2)
p477
aV41
p478
aV-
aV-
aV-
aV-
aV1.5
p479
aV81.3
p480
aV0.5
p481
aV-
aV6.14
p482
aa(lp483
V2014
p484
aVBelgium
p485
aVWC
p486
aV2(2)
p487
aV177
p488
aV1
aV-
aV-
aV-
aV1.5
p489
aV75
p490
aV0.8
p491
aV-
aV6.55
p492
aa(lp493
V2012/2013
p494
aVWest Bromwich..
p495
aVEPL
p496
aV20(15)
p497
aV2006
p498
aV17
p499
aV4
aV3
aV-
aV2.8
p500
aV72
p501
aV1.9
p502
aV5
aV6.95
p503
aa(lp504
V2011/2012
p505
aVChelsea
p506
aVEPL
p507
aV1(7)
p508
aV158
p509
aV-
aV1
aV-
aV-
aV1.1
p510
aV81.1
p511
aV0.3
p512
aV-
aV6.35
p513
aa(lp514
VTotal / Average
p515
aV
aV
aV275
p516
aV21080
p517
aV131
p518
aV39
p519
aV21
p520
aV0
aV2.8
p521
aV70.5
p522
aV2.6
p523
aV31
p524
aV7.13
p525
aasS'sumary_data'
p526
(lp527
(lp528
a(lp529
V2018/2019
p530
aVManchester Un..
p531
aVEPL
p532
aV12(4)
p533
aV1184
p534
aV6
aV-
aV2
aV-
aV1.8
p535
aV66.3
p536
aV2.7
p537
aV1
aV6.84
p538
aa(lp539
V2018/2019
p540
aVManchester Un..
p541
aVUCL
p542
aV4(1)
p543
aV365
p544
aV-
aV1
aV1
aV-
aV1.6
p545
aV72.9
p546
aV2.4
p547
aV-
aV6.57
p548
aa(lp549
V2018/2019
p550
aVBelgium
p551
aVUNL
p552
aV2
aV180
p553
aV4
aV-
aV-
aV-
aV5.5
p554
aV73.8
p555
aV1
aV2
aV8.63
p556
aa(lp557
V2017/2018
p558
aVManchester Un..
p559
aVUCL
p560
aV8
aV704
p561
aV5
aV-
aV-
aV-
aV3.3
p562
aV70.3
p563
aV4.5
p564
aV2
aV7.70
p565
aa(lp566
V2017/2018
p567
aVManchester Un..
p568
aVEPL
p569
aV33(1)
p570
aV2869
p571
aV16
p572
aV7
aV4
aV-
aV2.5
p573
aV68.4
p574
aV3.2
p575
aV2
aV7.29
p576
aa(lp577
V2016/2017
p578
aVEverton
p579
aVEPL
p580
aV36(1)
p581
aV3267
p582
aV25
p583
aV6
aV3
aV-
aV3
aV65.5
p584
aV3.7
p585
aV6
aV7.50
p586
aa(lp587
V2018
p588
aVBelgium
p589
aVWC
p590
aV6
aV476
p591
aV4
aV1
aV-
aV-
aV2.2
p592
aV74.5
p593
aV2
aV1
aV7.10
p594
aa(lp595
V2015/2016
p596
aVEverton
p597
aVEPL
p598
aV36(1)
p599
aV3177
p600
aV18
p601
aV6
aV3
aV-
aV3.2
p602
aV72.6
p603
aV2.5
p604
aV4
aV7.16
p605
aa(lp606
V2014/2015
p607
aVEverton
p608
aVUEL
p609
aV7(2)
p610
aV634
p611
aV8
aV2
aV3
aV-
aV3
aV73.3
p612
aV2.4
p613
aV2
aV7.74
p614
aa(lp615
V2014/2015
p616
aVEverton
p617
aVEPL
p618
aV32(4)
p619
aV2877
p620
aV10
p621
aV5
aV1
aV-
aV2.9
p622
aV73.8
p623
aV1.7
p624
aV2
aV6.77
p625
aa(lp626
V2016
p627
aVBelgium
p628
aVUEC
p629
aV5
aV401
p630
aV2
aV-
aV-
aV-
aV2.4
p631
aV74.3
p632
aV2.8
p633
aV-
aV7.02
p634
aa(lp635
V2013/2014
p636
aVEverton
p637
aVEPL
p638
aV29(2)
p639
aV2564
p640
aV15
p641
aV6
aV1
aV-
aV3.2
p642
aV66.6
p643
aV2.9
p644
aV4
aV7.31
p645
aa(lp646
V2013/2014
p647
aVChelsea
p648
aVEPL
p649
aV0(2)
p650
aV41
p651
aV-
aV-
aV-
aV-
aV1.5
p652
aV81.3
p653
aV0.5
p654
aV-
aV6.14
p655
aa(lp656
V2014
p657
aVBelgium
p658
aVWC
p659
aV2(2)
p660
aV177
p661
aV1
aV-
aV-
aV-
aV1.5
p662
aV75
p663
aV0.8
p664
aV-
aV6.55
p665
aa(lp666
V2012/2013
p667
aVWest Bromwich..
p668
aVEPL
p669
aV20(15)
p670
aV2006
p671
aV17
p672
aV4
aV3
aV-
aV2.8
p673
aV72
p674
aV1.9
p675
aV5
aV6.95
p676
aa(lp677
V2011/2012
p678
aVChelsea
p679
aVEPL
p680
aV1(7)
p681
aV158
p682
aV-
aV1
aV-
aV-
aV1.1
p683
aV81.1
p684
aV0.3
p685
aV-
aV6.35
p686
aa(lp687
VTotal / Average
p688
aV
aV
aV275
p689
aV21080
p690
aV131
p691
aV39
p692
aV21
p693
aV0
aV2.8
p694
aV70.5
p695
aV2.6
p696
aV31
p697
aV7.13
p698
aasS'id'
p699
V78498
p700
sb.