(i__main__
Player
p1
(dp2
S'name'
p3
VAshley Westwood 
p4
sS'offensive_data'
p5
(lp6
(lp7
a(lp8
V2018/2019
p9
aVBurnley
p10
aVEPL
p11
aV11(3)
p12
aV1022
p13
aV-
aV2
aV2
aV-
aV0.7
p14
aV77.7
p15
aV0.6
p16
aV-
aV6.60
p17
aa(lp18
V2017/2018
p19
aVBurnley
p20
aVEPL
p21
aV12(7)
p22
aV1108
p23
aV-
aV1
aV2
aV-
aV0.4
p24
aV81.6
p25
aV0.5
p26
aV-
aV6.41
p27
aa(lp28
V2016/2017
p29
aVAston Villa
p30
aVEC
p31
aV18(5)
p32
aV1586
p33
aV-
aV-
aV3
aV-
aV0.8
p34
aV78.5
p35
aV0.3
p36
aV-
aV6.39
p37
aa(lp38
V2016/2017
p39
aVBurnley
p40
aVEPL
p41
aV6(3)
p42
aV550
p43
aV-
aV-
aV3
aV-
aV0.2
p44
aV78.2
p45
aV0.6
p46
aV-
aV6.29
p47
aa(lp48
V2015/2016
p49
aVAston Villa
p50
aVEPL
p51
aV31(1)
p52
aV2720
p53
aV2
aV2
aV6
aV-
aV1.2
p54
aV82.9
p55
aV0.2
p56
aV1
aV6.69
p57
aa(lp58
V2014/2015
p59
aVAston Villa
p60
aVEPL
p61
aV25(2)
p62
aV2152
p63
aV-
aV1
aV4
aV-
aV0.7
p64
aV83.7
p65
aV0.5
p66
aV-
aV6.66
p67
aa(lp68
V2013/2014
p69
aVAston Villa
p70
aVEPL
p71
aV35
p72
aV3081
p73
aV3
aV2
aV7
aV-
aV0.8
p74
aV82.9
p75
aV0.3
p76
aV-
aV6.83
p77
aa(lp78
V2012/2013
p79
aVAston Villa
p80
aVEPL
p81
aV28(2)
p82
aV2463
p83
aV-
aV6
aV2
aV-
aV0.3
p84
aV84.7
p85
aV0.4
p86
aV-
aV6.92
p87
aa(lp88
VTotal / Average
p89
aV
aV
aV189
p90
aV14682
p91
aV5
aV14
p92
aV29
p93
aV0
aV0.7
p94
aV82
p95
aV0.4
p96
aV1
aV6.66
p97
aasS'url'
p98
S'https://www.whoscored.com/Players/79050/History/'
p99
sS'passing_data'
p100
(lp101
(lp102
a(lp103
V2018/2019
p104
aVBurnley
p105
aVEPL
p106
aV11(3)
p107
aV1022
p108
aV-
aV2
aV2
aV-
aV0.7
p109
aV77.7
p110
aV0.6
p111
aV-
aV6.60
p112
aa(lp113
V2017/2018
p114
aVBurnley
p115
aVEPL
p116
aV12(7)
p117
aV1108
p118
aV-
aV1
aV2
aV-
aV0.4
p119
aV81.6
p120
aV0.5
p121
aV-
aV6.41
p122
aa(lp123
V2016/2017
p124
aVAston Villa
p125
aVEC
p126
aV18(5)
p127
aV1586
p128
aV-
aV-
aV3
aV-
aV0.8
p129
aV78.5
p130
aV0.3
p131
aV-
aV6.39
p132
aa(lp133
V2016/2017
p134
aVBurnley
p135
aVEPL
p136
aV6(3)
p137
aV550
p138
aV-
aV-
aV3
aV-
aV0.2
p139
aV78.2
p140
aV0.6
p141
aV-
aV6.29
p142
aa(lp143
V2015/2016
p144
aVAston Villa
p145
aVEPL
p146
aV31(1)
p147
aV2720
p148
aV2
aV2
aV6
aV-
aV1.2
p149
aV82.9
p150
aV0.2
p151
aV1
aV6.69
p152
aa(lp153
V2014/2015
p154
aVAston Villa
p155
aVEPL
p156
aV25(2)
p157
aV2152
p158
aV-
aV1
aV4
aV-
aV0.7
p159
aV83.7
p160
aV0.5
p161
aV-
aV6.66
p162
aa(lp163
V2013/2014
p164
aVAston Villa
p165
aVEPL
p166
aV35
p167
aV3081
p168
aV3
aV2
aV7
aV-
aV0.8
p169
aV82.9
p170
aV0.3
p171
aV-
aV6.83
p172
aa(lp173
V2012/2013
p174
aVAston Villa
p175
aVEPL
p176
aV28(2)
p177
aV2463
p178
aV-
aV6
aV2
aV-
aV0.3
p179
aV84.7
p180
aV0.4
p181
aV-
aV6.92
p182
aa(lp183
VTotal / Average
p184
aV
aV
aV189
p185
aV14682
p186
aV5
aV14
p187
aV29
p188
aV0
aV0.7
p189
aV82
p190
aV0.4
p191
aV1
aV6.66
p192
aasS'defensive_data'
p193
(lp194
(lp195
a(lp196
V2018/2019
p197
aVBurnley
p198
aVEPL
p199
aV11(3)
p200
aV1022
p201
aV-
aV2
aV2
aV-
aV0.7
p202
aV77.7
p203
aV0.6
p204
aV-
aV6.60
p205
aa(lp206
V2017/2018
p207
aVBurnley
p208
aVEPL
p209
aV12(7)
p210
aV1108
p211
aV-
aV1
aV2
aV-
aV0.4
p212
aV81.6
p213
aV0.5
p214
aV-
aV6.41
p215
aa(lp216
V2016/2017
p217
aVAston Villa
p218
aVEC
p219
aV18(5)
p220
aV1586
p221
aV-
aV-
aV3
aV-
aV0.8
p222
aV78.5
p223
aV0.3
p224
aV-
aV6.39
p225
aa(lp226
V2016/2017
p227
aVBurnley
p228
aVEPL
p229
aV6(3)
p230
aV550
p231
aV-
aV-
aV3
aV-
aV0.2
p232
aV78.2
p233
aV0.6
p234
aV-
aV6.29
p235
aa(lp236
V2015/2016
p237
aVAston Villa
p238
aVEPL
p239
aV31(1)
p240
aV2720
p241
aV2
aV2
aV6
aV-
aV1.2
p242
aV82.9
p243
aV0.2
p244
aV1
aV6.69
p245
aa(lp246
V2014/2015
p247
aVAston Villa
p248
aVEPL
p249
aV25(2)
p250
aV2152
p251
aV-
aV1
aV4
aV-
aV0.7
p252
aV83.7
p253
aV0.5
p254
aV-
aV6.66
p255
aa(lp256
V2013/2014
p257
aVAston Villa
p258
aVEPL
p259
aV35
p260
aV3081
p261
aV3
aV2
aV7
aV-
aV0.8
p262
aV82.9
p263
aV0.3
p264
aV-
aV6.83
p265
aa(lp266
V2012/2013
p267
aVAston Villa
p268
aVEPL
p269
aV28(2)
p270
aV2463
p271
aV-
aV6
aV2
aV-
aV0.3
p272
aV84.7
p273
aV0.4
p274
aV-
aV6.92
p275
aa(lp276
VTotal / Average
p277
aV
aV
aV189
p278
aV14682
p279
aV5
aV14
p280
aV29
p281
aV0
aV0.7
p282
aV82
p283
aV0.4
p284
aV1
aV6.66
p285
aasS'sumary_data'
p286
(lp287
(lp288
a(lp289
V2018/2019
p290
aVBurnley
p291
aVEPL
p292
aV11(3)
p293
aV1022
p294
aV-
aV2
aV2
aV-
aV0.7
p295
aV77.7
p296
aV0.6
p297
aV-
aV6.60
p298
aa(lp299
V2017/2018
p300
aVBurnley
p301
aVEPL
p302
aV12(7)
p303
aV1108
p304
aV-
aV1
aV2
aV-
aV0.4
p305
aV81.6
p306
aV0.5
p307
aV-
aV6.41
p308
aa(lp309
V2016/2017
p310
aVAston Villa
p311
aVEC
p312
aV18(5)
p313
aV1586
p314
aV-
aV-
aV3
aV-
aV0.8
p315
aV78.5
p316
aV0.3
p317
aV-
aV6.39
p318
aa(lp319
V2016/2017
p320
aVBurnley
p321
aVEPL
p322
aV6(3)
p323
aV550
p324
aV-
aV-
aV3
aV-
aV0.2
p325
aV78.2
p326
aV0.6
p327
aV-
aV6.29
p328
aa(lp329
V2015/2016
p330
aVAston Villa
p331
aVEPL
p332
aV31(1)
p333
aV2720
p334
aV2
aV2
aV6
aV-
aV1.2
p335
aV82.9
p336
aV0.2
p337
aV1
aV6.69
p338
aa(lp339
V2014/2015
p340
aVAston Villa
p341
aVEPL
p342
aV25(2)
p343
aV2152
p344
aV-
aV1
aV4
aV-
aV0.7
p345
aV83.7
p346
aV0.5
p347
aV-
aV6.66
p348
aa(lp349
V2013/2014
p350
aVAston Villa
p351
aVEPL
p352
aV35
p353
aV3081
p354
aV3
aV2
aV7
aV-
aV0.8
p355
aV82.9
p356
aV0.3
p357
aV-
aV6.83
p358
aa(lp359
V2012/2013
p360
aVAston Villa
p361
aVEPL
p362
aV28(2)
p363
aV2463
p364
aV-
aV6
aV2
aV-
aV0.3
p365
aV84.7
p366
aV0.4
p367
aV-
aV6.92
p368
aa(lp369
VTotal / Average
p370
aV
aV
aV189
p371
aV14682
p372
aV5
aV14
p373
aV29
p374
aV0
aV0.7
p375
aV82
p376
aV0.4
p377
aV1
aV6.66
p378
aasS'id'
p379
V79050
p380
sb.