(i__main__
Player
p1
(dp2
S'name'
p3
VDavid De Gea 
p4
sS'offensive_data'
p5
(lp6
(lp7
a(lp8
V2018/2019
p9
aVManchester Un..
p10
aVEPL
p11
aV17
p12
aV1530
p13
aV-
aV-
aV-
aV-
aV-
aV57.3
p14
aV-
aV-
aV6.56
p15
aa(lp16
V2018/2019
p17
aVManchester Un..
p18
aVUCL
p19
aV5
aV450
p20
aV-
aV-
aV-
aV-
aV-
aV62.5
p21
aV-
aV-
aV6.80
p22
aa(lp23
V2018/2019
p24
aVSpain
p25
aVUNL
p26
aV4
aV360
p27
aV-
aV-
aV-
aV-
aV-
aV79.8
p28
aV0.5
p29
aV-
aV6.57
p30
aa(lp31
V2017/2018
p32
aVManchester Un..
p33
aVUCL
p34
aV6
aV540
p35
aV-
aV-
aV-
aV-
aV-
aV54.7
p36
aV0.2
p37
aV1
aV7.27
p38
aa(lp39
V2017/2018
p40
aVManchester Un..
p41
aVEPL
p42
aV37
p43
aV3330
p44
aV-
aV-
aV-
aV-
aV-
aV57.5
p45
aV0.1
p46
aV2
aV6.83
p47
aa(lp48
V2016/2017
p49
aVManchester Un..
p50
aVEPL
p51
aV35
p52
aV3150
p53
aV-
aV-
aV2
aV-
aV-
aV60
p54
aV-
aV-
aV6.57
p55
aa(lp56
V2016/2017
p57
aVManchester Un..
p58
aVUEL
p59
aV3
aV270
p60
aV-
aV-
aV-
aV-
aV-
aV70.8
p61
aV0.3
p62
aV-
aV6.28
p63
aa(lp64
V2018
p65
aVSpain
p66
aVWC
p67
aV4
aV390
p68
aV-
aV-
aV-
aV-
aV-
aV76.8
p69
aV0.5
p70
aV-
aV5.63
p71
aa(lp72
V2015/2016
p73
aVManchester Un..
p74
aVUEL
p75
aV2
aV180
p76
aV-
aV-
aV-
aV-
aV-
aV70.9
p77
aV-
aV-
aV7.18
p78
aa(lp79
V2015/2016
p80
aVManchester Un..
p81
aVUCL
p82
aV6
aV540
p83
aV-
aV-
aV-
aV-
aV-
aV73.9
p84
aV-
aV-
aV6.72
p85
aa(lp86
V2015/2016
p87
aVManchester Un..
p88
aVEPL
p89
aV34
p90
aV3060
p91
aV-
aV-
aV-
aV-
aV-
aV56.9
p92
aV-
aV-
aV6.66
p93
aa(lp94
V2014/2015
p95
aVManchester Un..
p96
aVEPL
p97
aV37
p98
aV3314
p99
aV-
aV-
aV-
aV-
aV-
aV64.1
p100
aV0.1
p101
aV-
aV6.68
p102
aa(lp103
V2016
p104
aVSpain
p105
aVUEC
p106
aV4
aV360
p107
aV-
aV-
aV-
aV-
aV-
aV70
p108
aV-
aV-
aV6.39
p109
aa(lp110
V2013/2014
p111
aVManchester Un..
p112
aVUCL
p113
aV10
p114
aV900
p115
aV-
aV-
aV-
aV-
aV-
aV54.5
p116
aV-
aV-
aV6.65
p117
aa(lp118
V2013/2014
p119
aVManchester Un..
p120
aVEPL
p121
aV37
p122
aV3330
p123
aV-
aV-
aV1
aV-
aV-
aV55.7
p124
aV0.1
p125
aV1
aV6.60
p126
aa(lp127
V2013
p128
aVSpain U21
p129
aVIEU
p130
aV5
aV450
p131
aV-
aV-
aV-
aV-
aV-
aV79.3
p132
aV-
aV-
aV6.75
p133
aa(lp134
V2012/2013
p135
aVManchester Un..
p136
aVUCL
p137
aV7
aV630
p138
aV-
aV-
aV-
aV-
aV-
aV59.1
p139
aV0.1
p140
aV-
aV6.85
p141
aa(lp142
V2012/2013
p143
aVManchester Un..
p144
aVEPL
p145
aV28
p146
aV2520
p147
aV-
aV-
aV-
aV-
aV-
aV54.8
p148
aV0.2
p149
aV1
aV6.86
p150
aa(lp151
V2011/2012
p152
aVManchester Un..
p153
aVUCL
p154
aV4
aV360
p155
aV-
aV-
aV-
aV-
aV-
aV59.8
p156
aV-
aV-
aV6.06
p157
aa(lp158
V2011/2012
p159
aVManchester Un..
p160
aVEPL
p161
aV29
p162
aV2610
p163
aV-
aV-
aV-
aV-
aV-
aV55.6
p164
aV0.1
p165
aV1
aV6.98
p166
aa(lp167
V2010/2011
p168
aVAtletico Madr..
p169
aVSLL
p170
aV38
p171
aV3420
p172
aV-
aV-
aV1
aV-
aV-
aV50.3
p173
aV0.1
p174
aV2
aV6.93
p175
aa(lp176
V2009/2010
p177
aVAtletico Madr..
p178
aVSLL
p179
aV19
p180
aV1710
p181
aV-
aV-
aV1
aV-
aV-
aV38.4
p182
aV0.1
p183
aV-
aV6.75
p184
aa(lp185
V2009/2010
p186
aVAtletico Madr..
p187
aVUCL
p188
aV0(1)
p189
aV64
p190
aV-
aV-
aV-
aV-
aV-
aV28
p191
aV-
aV-
aV7.23
p192
aa(lp193
VTotal / Average
p194
aV
aV
aV372
p195
aV33468
p196
aV0
aV0
aV5
aV0
aV0
aV57.3
p197
aV0.1
p198
aV8
aV6.73
p199
aasS'url'
p200
S'https://www.whoscored.com/Players/79554/History/'
p201
sS'passing_data'
p202
(lp203
(lp204
a(lp205
V2018/2019
p206
aVManchester Un..
p207
aVEPL
p208
aV17
p209
aV1530
p210
aV-
aV-
aV-
aV-
aV-
aV57.3
p211
aV-
aV-
aV6.56
p212
aa(lp213
V2018/2019
p214
aVManchester Un..
p215
aVUCL
p216
aV5
aV450
p217
aV-
aV-
aV-
aV-
aV-
aV62.5
p218
aV-
aV-
aV6.80
p219
aa(lp220
V2018/2019
p221
aVSpain
p222
aVUNL
p223
aV4
aV360
p224
aV-
aV-
aV-
aV-
aV-
aV79.8
p225
aV0.5
p226
aV-
aV6.57
p227
aa(lp228
V2017/2018
p229
aVManchester Un..
p230
aVUCL
p231
aV6
aV540
p232
aV-
aV-
aV-
aV-
aV-
aV54.7
p233
aV0.2
p234
aV1
aV7.27
p235
aa(lp236
V2017/2018
p237
aVManchester Un..
p238
aVEPL
p239
aV37
p240
aV3330
p241
aV-
aV-
aV-
aV-
aV-
aV57.5
p242
aV0.1
p243
aV2
aV6.83
p244
aa(lp245
V2016/2017
p246
aVManchester Un..
p247
aVEPL
p248
aV35
p249
aV3150
p250
aV-
aV-
aV2
aV-
aV-
aV60
p251
aV-
aV-
aV6.57
p252
aa(lp253
V2016/2017
p254
aVManchester Un..
p255
aVUEL
p256
aV3
aV270
p257
aV-
aV-
aV-
aV-
aV-
aV70.8
p258
aV0.3
p259
aV-
aV6.28
p260
aa(lp261
V2018
p262
aVSpain
p263
aVWC
p264
aV4
aV390
p265
aV-
aV-
aV-
aV-
aV-
aV76.8
p266
aV0.5
p267
aV-
aV5.63
p268
aa(lp269
V2015/2016
p270
aVManchester Un..
p271
aVUEL
p272
aV2
aV180
p273
aV-
aV-
aV-
aV-
aV-
aV70.9
p274
aV-
aV-
aV7.18
p275
aa(lp276
V2015/2016
p277
aVManchester Un..
p278
aVUCL
p279
aV6
aV540
p280
aV-
aV-
aV-
aV-
aV-
aV73.9
p281
aV-
aV-
aV6.72
p282
aa(lp283
V2015/2016
p284
aVManchester Un..
p285
aVEPL
p286
aV34
p287
aV3060
p288
aV-
aV-
aV-
aV-
aV-
aV56.9
p289
aV-
aV-
aV6.66
p290
aa(lp291
V2014/2015
p292
aVManchester Un..
p293
aVEPL
p294
aV37
p295
aV3314
p296
aV-
aV-
aV-
aV-
aV-
aV64.1
p297
aV0.1
p298
aV-
aV6.68
p299
aa(lp300
V2016
p301
aVSpain
p302
aVUEC
p303
aV4
aV360
p304
aV-
aV-
aV-
aV-
aV-
aV70
p305
aV-
aV-
aV6.39
p306
aa(lp307
V2013/2014
p308
aVManchester Un..
p309
aVUCL
p310
aV10
p311
aV900
p312
aV-
aV-
aV-
aV-
aV-
aV54.5
p313
aV-
aV-
aV6.65
p314
aa(lp315
V2013/2014
p316
aVManchester Un..
p317
aVEPL
p318
aV37
p319
aV3330
p320
aV-
aV-
aV1
aV-
aV-
aV55.7
p321
aV0.1
p322
aV1
aV6.60
p323
aa(lp324
V2013
p325
aVSpain U21
p326
aVIEU
p327
aV5
aV450
p328
aV-
aV-
aV-
aV-
aV-
aV79.3
p329
aV-
aV-
aV6.75
p330
aa(lp331
V2012/2013
p332
aVManchester Un..
p333
aVUCL
p334
aV7
aV630
p335
aV-
aV-
aV-
aV-
aV-
aV59.1
p336
aV0.1
p337
aV-
aV6.85
p338
aa(lp339
V2012/2013
p340
aVManchester Un..
p341
aVEPL
p342
aV28
p343
aV2520
p344
aV-
aV-
aV-
aV-
aV-
aV54.8
p345
aV0.2
p346
aV1
aV6.86
p347
aa(lp348
V2011/2012
p349
aVManchester Un..
p350
aVUCL
p351
aV4
aV360
p352
aV-
aV-
aV-
aV-
aV-
aV59.8
p353
aV-
aV-
aV6.06
p354
aa(lp355
V2011/2012
p356
aVManchester Un..
p357
aVEPL
p358
aV29
p359
aV2610
p360
aV-
aV-
aV-
aV-
aV-
aV55.6
p361
aV0.1
p362
aV1
aV6.98
p363
aa(lp364
V2010/2011
p365
aVAtletico Madr..
p366
aVSLL
p367
aV38
p368
aV3420
p369
aV-
aV-
aV1
aV-
aV-
aV50.3
p370
aV0.1
p371
aV2
aV6.93
p372
aa(lp373
V2009/2010
p374
aVAtletico Madr..
p375
aVSLL
p376
aV19
p377
aV1710
p378
aV-
aV-
aV1
aV-
aV-
aV38.4
p379
aV0.1
p380
aV-
aV6.75
p381
aa(lp382
V2009/2010
p383
aVAtletico Madr..
p384
aVUCL
p385
aV0(1)
p386
aV64
p387
aV-
aV-
aV-
aV-
aV-
aV28
p388
aV-
aV-
aV7.23
p389
aa(lp390
VTotal / Average
p391
aV
aV
aV372
p392
aV33468
p393
aV0
aV0
aV5
aV0
aV0
aV57.3
p394
aV0.1
p395
aV8
aV6.73
p396
aasS'defensive_data'
p397
(lp398
(lp399
a(lp400
V2018/2019
p401
aVManchester Un..
p402
aVEPL
p403
aV17
p404
aV1530
p405
aV-
aV-
aV-
aV-
aV-
aV57.3
p406
aV-
aV-
aV6.56
p407
aa(lp408
V2018/2019
p409
aVManchester Un..
p410
aVUCL
p411
aV5
aV450
p412
aV-
aV-
aV-
aV-
aV-
aV62.5
p413
aV-
aV-
aV6.80
p414
aa(lp415
V2018/2019
p416
aVSpain
p417
aVUNL
p418
aV4
aV360
p419
aV-
aV-
aV-
aV-
aV-
aV79.8
p420
aV0.5
p421
aV-
aV6.57
p422
aa(lp423
V2017/2018
p424
aVManchester Un..
p425
aVUCL
p426
aV6
aV540
p427
aV-
aV-
aV-
aV-
aV-
aV54.7
p428
aV0.2
p429
aV1
aV7.27
p430
aa(lp431
V2017/2018
p432
aVManchester Un..
p433
aVEPL
p434
aV37
p435
aV3330
p436
aV-
aV-
aV-
aV-
aV-
aV57.5
p437
aV0.1
p438
aV2
aV6.83
p439
aa(lp440
V2016/2017
p441
aVManchester Un..
p442
aVEPL
p443
aV35
p444
aV3150
p445
aV-
aV-
aV2
aV-
aV-
aV60
p446
aV-
aV-
aV6.57
p447
aa(lp448
V2016/2017
p449
aVManchester Un..
p450
aVUEL
p451
aV3
aV270
p452
aV-
aV-
aV-
aV-
aV-
aV70.8
p453
aV0.3
p454
aV-
aV6.28
p455
aa(lp456
V2018
p457
aVSpain
p458
aVWC
p459
aV4
aV390
p460
aV-
aV-
aV-
aV-
aV-
aV76.8
p461
aV0.5
p462
aV-
aV5.63
p463
aa(lp464
V2015/2016
p465
aVManchester Un..
p466
aVUEL
p467
aV2
aV180
p468
aV-
aV-
aV-
aV-
aV-
aV70.9
p469
aV-
aV-
aV7.18
p470
aa(lp471
V2015/2016
p472
aVManchester Un..
p473
aVUCL
p474
aV6
aV540
p475
aV-
aV-
aV-
aV-
aV-
aV73.9
p476
aV-
aV-
aV6.72
p477
aa(lp478
V2015/2016
p479
aVManchester Un..
p480
aVEPL
p481
aV34
p482
aV3060
p483
aV-
aV-
aV-
aV-
aV-
aV56.9
p484
aV-
aV-
aV6.66
p485
aa(lp486
V2014/2015
p487
aVManchester Un..
p488
aVEPL
p489
aV37
p490
aV3314
p491
aV-
aV-
aV-
aV-
aV-
aV64.1
p492
aV0.1
p493
aV-
aV6.68
p494
aa(lp495
V2016
p496
aVSpain
p497
aVUEC
p498
aV4
aV360
p499
aV-
aV-
aV-
aV-
aV-
aV70
p500
aV-
aV-
aV6.39
p501
aa(lp502
V2013/2014
p503
aVManchester Un..
p504
aVUCL
p505
aV10
p506
aV900
p507
aV-
aV-
aV-
aV-
aV-
aV54.5
p508
aV-
aV-
aV6.65
p509
aa(lp510
V2013/2014
p511
aVManchester Un..
p512
aVEPL
p513
aV37
p514
aV3330
p515
aV-
aV-
aV1
aV-
aV-
aV55.7
p516
aV0.1
p517
aV1
aV6.60
p518
aa(lp519
V2013
p520
aVSpain U21
p521
aVIEU
p522
aV5
aV450
p523
aV-
aV-
aV-
aV-
aV-
aV79.3
p524
aV-
aV-
aV6.75
p525
aa(lp526
V2012/2013
p527
aVManchester Un..
p528
aVUCL
p529
aV7
aV630
p530
aV-
aV-
aV-
aV-
aV-
aV59.1
p531
aV0.1
p532
aV-
aV6.85
p533
aa(lp534
V2012/2013
p535
aVManchester Un..
p536
aVEPL
p537
aV28
p538
aV2520
p539
aV-
aV-
aV-
aV-
aV-
aV54.8
p540
aV0.2
p541
aV1
aV6.86
p542
aa(lp543
V2011/2012
p544
aVManchester Un..
p545
aVUCL
p546
aV4
aV360
p547
aV-
aV-
aV-
aV-
aV-
aV59.8
p548
aV-
aV-
aV6.06
p549
aa(lp550
V2011/2012
p551
aVManchester Un..
p552
aVEPL
p553
aV29
p554
aV2610
p555
aV-
aV-
aV-
aV-
aV-
aV55.6
p556
aV0.1
p557
aV1
aV6.98
p558
aa(lp559
V2010/2011
p560
aVAtletico Madr..
p561
aVSLL
p562
aV38
p563
aV3420
p564
aV-
aV-
aV1
aV-
aV-
aV50.3
p565
aV0.1
p566
aV2
aV6.93
p567
aa(lp568
V2009/2010
p569
aVAtletico Madr..
p570
aVSLL
p571
aV19
p572
aV1710
p573
aV-
aV-
aV1
aV-
aV-
aV38.4
p574
aV0.1
p575
aV-
aV6.75
p576
aa(lp577
V2009/2010
p578
aVAtletico Madr..
p579
aVUCL
p580
aV0(1)
p581
aV64
p582
aV-
aV-
aV-
aV-
aV-
aV28
p583
aV-
aV-
aV7.23
p584
aa(lp585
VTotal / Average
p586
aV
aV
aV372
p587
aV33468
p588
aV0
aV0
aV5
aV0
aV0
aV57.3
p589
aV0.1
p590
aV8
aV6.73
p591
aasS'sumary_data'
p592
(lp593
(lp594
a(lp595
V2018/2019
p596
aVManchester Un..
p597
aVEPL
p598
aV17
p599
aV1530
p600
aV-
aV-
aV-
aV-
aV-
aV57.3
p601
aV-
aV-
aV6.56
p602
aa(lp603
V2018/2019
p604
aVManchester Un..
p605
aVUCL
p606
aV5
aV450
p607
aV-
aV-
aV-
aV-
aV-
aV62.5
p608
aV-
aV-
aV6.80
p609
aa(lp610
V2018/2019
p611
aVSpain
p612
aVUNL
p613
aV4
aV360
p614
aV-
aV-
aV-
aV-
aV-
aV79.8
p615
aV0.5
p616
aV-
aV6.57
p617
aa(lp618
V2017/2018
p619
aVManchester Un..
p620
aVUCL
p621
aV6
aV540
p622
aV-
aV-
aV-
aV-
aV-
aV54.7
p623
aV0.2
p624
aV1
aV7.27
p625
aa(lp626
V2017/2018
p627
aVManchester Un..
p628
aVEPL
p629
aV37
p630
aV3330
p631
aV-
aV-
aV-
aV-
aV-
aV57.5
p632
aV0.1
p633
aV2
aV6.83
p634
aa(lp635
V2016/2017
p636
aVManchester Un..
p637
aVEPL
p638
aV35
p639
aV3150
p640
aV-
aV-
aV2
aV-
aV-
aV60
p641
aV-
aV-
aV6.57
p642
aa(lp643
V2016/2017
p644
aVManchester Un..
p645
aVUEL
p646
aV3
aV270
p647
aV-
aV-
aV-
aV-
aV-
aV70.8
p648
aV0.3
p649
aV-
aV6.28
p650
aa(lp651
V2018
p652
aVSpain
p653
aVWC
p654
aV4
aV390
p655
aV-
aV-
aV-
aV-
aV-
aV76.8
p656
aV0.5
p657
aV-
aV5.63
p658
aa(lp659
V2015/2016
p660
aVManchester Un..
p661
aVUEL
p662
aV2
aV180
p663
aV-
aV-
aV-
aV-
aV-
aV70.9
p664
aV-
aV-
aV7.18
p665
aa(lp666
V2015/2016
p667
aVManchester Un..
p668
aVUCL
p669
aV6
aV540
p670
aV-
aV-
aV-
aV-
aV-
aV73.9
p671
aV-
aV-
aV6.72
p672
aa(lp673
V2015/2016
p674
aVManchester Un..
p675
aVEPL
p676
aV34
p677
aV3060
p678
aV-
aV-
aV-
aV-
aV-
aV56.9
p679
aV-
aV-
aV6.66
p680
aa(lp681
V2014/2015
p682
aVManchester Un..
p683
aVEPL
p684
aV37
p685
aV3314
p686
aV-
aV-
aV-
aV-
aV-
aV64.1
p687
aV0.1
p688
aV-
aV6.68
p689
aa(lp690
V2016
p691
aVSpain
p692
aVUEC
p693
aV4
aV360
p694
aV-
aV-
aV-
aV-
aV-
aV70
p695
aV-
aV-
aV6.39
p696
aa(lp697
V2013/2014
p698
aVManchester Un..
p699
aVUCL
p700
aV10
p701
aV900
p702
aV-
aV-
aV-
aV-
aV-
aV54.5
p703
aV-
aV-
aV6.65
p704
aa(lp705
V2013/2014
p706
aVManchester Un..
p707
aVEPL
p708
aV37
p709
aV3330
p710
aV-
aV-
aV1
aV-
aV-
aV55.7
p711
aV0.1
p712
aV1
aV6.60
p713
aa(lp714
V2013
p715
aVSpain U21
p716
aVIEU
p717
aV5
aV450
p718
aV-
aV-
aV-
aV-
aV-
aV79.3
p719
aV-
aV-
aV6.75
p720
aa(lp721
V2012/2013
p722
aVManchester Un..
p723
aVUCL
p724
aV7
aV630
p725
aV-
aV-
aV-
aV-
aV-
aV59.1
p726
aV0.1
p727
aV-
aV6.85
p728
aa(lp729
V2012/2013
p730
aVManchester Un..
p731
aVEPL
p732
aV28
p733
aV2520
p734
aV-
aV-
aV-
aV-
aV-
aV54.8
p735
aV0.2
p736
aV1
aV6.86
p737
aa(lp738
V2011/2012
p739
aVManchester Un..
p740
aVUCL
p741
aV4
aV360
p742
aV-
aV-
aV-
aV-
aV-
aV59.8
p743
aV-
aV-
aV6.06
p744
aa(lp745
V2011/2012
p746
aVManchester Un..
p747
aVEPL
p748
aV29
p749
aV2610
p750
aV-
aV-
aV-
aV-
aV-
aV55.6
p751
aV0.1
p752
aV1
aV6.98
p753
aa(lp754
V2010/2011
p755
aVAtletico Madr..
p756
aVSLL
p757
aV38
p758
aV3420
p759
aV-
aV-
aV1
aV-
aV-
aV50.3
p760
aV0.1
p761
aV2
aV6.93
p762
aa(lp763
V2009/2010
p764
aVAtletico Madr..
p765
aVSLL
p766
aV19
p767
aV1710
p768
aV-
aV-
aV1
aV-
aV-
aV38.4
p769
aV0.1
p770
aV-
aV6.75
p771
aa(lp772
V2009/2010
p773
aVAtletico Madr..
p774
aVUCL
p775
aV0(1)
p776
aV64
p777
aV-
aV-
aV-
aV-
aV-
aV28
p778
aV-
aV-
aV7.23
p779
aa(lp780
VTotal / Average
p781
aV
aV
aV372
p782
aV33468
p783
aV0
aV0
aV5
aV0
aV0
aV57.3
p784
aV0.1
p785
aV8
aV6.73
p786
aasS'id'
p787
V79554
p788
sb.