(i__main__
Player
p1
(dp2
S'name'
p3
VTom Cairney 
p4
sS'offensive_data'
p5
(lp6
(lp7
a(lp8
V2018/2019
p9
aVFulham
p10
aVEPL
p11
aV9(3)
p12
aV798
p13
aV-
aV1
aV-
aV-
aV0.7
p14
aV90.2
p15
aV-
aV-
aV6.53
p16
aa(lp17
V2017/2018
p18
aVFulham
p19
aVEC
p20
aV33(4)
p21
aV3066
p22
aV6
aV5
aV3
aV-
aV1.6
p23
aV91.5
p24
aV0.8
p25
aV1
aV7.33
p26
aa(lp27
V2016/2017
p28
aVFulham
p29
aVEC
p30
aV46(1)
p31
aV4119
p32
aV13
p33
aV10
p34
aV5
aV-
aV2.5
p35
aV92.5
p36
aV0.4
p37
aV6
aV7.37
p38
aa(lp39
V2015/2016
p40
aVFulham
p41
aVEC
p42
aV37(2)
p43
aV3172
p44
aV8
aV6
aV2
aV1
aV1.8
p45
aV87.5
p46
aV1
aV3
aV7.04
p47
aa(lp48
V2014/2015
p49
aVBlackburn
p50
aVEC
p51
aV32(7)
p52
aV2853
p53
aV3
aV5
aV4
aV1
aV1.5
p54
aV84.8
p55
aV0.7
p56
aV-
aV7.06
p57
aa(lp58
V2013/2014
p59
aVBlackburn
p60
aVEC
p61
aV36(1)
p62
aV3127
p63
aV5
aV6
aV2
aV-
aV2
aV87
p64
aV1
aV5
aV7.51
p65
aa(lp66
V2009/2010
p67
aVHull
p68
aVEPL
p69
aV10(1)
p70
aV900
p71
aV1
aV-
aV1
aV-
aV0.8
p72
aV77.2
p73
aV0.9
p74
aV-
aV6.91
p75
aa(lp76
VTotal / Average
p77
aV
aV
aV222
p78
aV18035
p79
aV36
p80
aV33
p81
aV17
p82
aV2
aV1.8
p83
aV88.3
p84
aV0.7
p85
aV15
p86
aV7.21
p87
aasS'url'
p88
S'https://www.whoscored.com/Players/79583/History/'
p89
sS'passing_data'
p90
(lp91
(lp92
a(lp93
V2018/2019
p94
aVFulham
p95
aVEPL
p96
aV9(3)
p97
aV798
p98
aV-
aV1
aV-
aV-
aV0.7
p99
aV90.2
p100
aV-
aV-
aV6.53
p101
aa(lp102
V2017/2018
p103
aVFulham
p104
aVEC
p105
aV33(4)
p106
aV3066
p107
aV6
aV5
aV3
aV-
aV1.6
p108
aV91.5
p109
aV0.8
p110
aV1
aV7.33
p111
aa(lp112
V2016/2017
p113
aVFulham
p114
aVEC
p115
aV46(1)
p116
aV4119
p117
aV13
p118
aV10
p119
aV5
aV-
aV2.5
p120
aV92.5
p121
aV0.4
p122
aV6
aV7.37
p123
aa(lp124
V2015/2016
p125
aVFulham
p126
aVEC
p127
aV37(2)
p128
aV3172
p129
aV8
aV6
aV2
aV1
aV1.8
p130
aV87.5
p131
aV1
aV3
aV7.04
p132
aa(lp133
V2014/2015
p134
aVBlackburn
p135
aVEC
p136
aV32(7)
p137
aV2853
p138
aV3
aV5
aV4
aV1
aV1.5
p139
aV84.8
p140
aV0.7
p141
aV-
aV7.06
p142
aa(lp143
V2013/2014
p144
aVBlackburn
p145
aVEC
p146
aV36(1)
p147
aV3127
p148
aV5
aV6
aV2
aV-
aV2
aV87
p149
aV1
aV5
aV7.51
p150
aa(lp151
V2009/2010
p152
aVHull
p153
aVEPL
p154
aV10(1)
p155
aV900
p156
aV1
aV-
aV1
aV-
aV0.8
p157
aV77.2
p158
aV0.9
p159
aV-
aV6.91
p160
aa(lp161
VTotal / Average
p162
aV
aV
aV222
p163
aV18035
p164
aV36
p165
aV33
p166
aV17
p167
aV2
aV1.8
p168
aV88.3
p169
aV0.7
p170
aV15
p171
aV7.21
p172
aasS'defensive_data'
p173
(lp174
(lp175
a(lp176
V2018/2019
p177
aVFulham
p178
aVEPL
p179
aV9(3)
p180
aV798
p181
aV-
aV1
aV-
aV-
aV0.7
p182
aV90.2
p183
aV-
aV-
aV6.53
p184
aa(lp185
V2017/2018
p186
aVFulham
p187
aVEC
p188
aV33(4)
p189
aV3066
p190
aV6
aV5
aV3
aV-
aV1.6
p191
aV91.5
p192
aV0.8
p193
aV1
aV7.33
p194
aa(lp195
V2016/2017
p196
aVFulham
p197
aVEC
p198
aV46(1)
p199
aV4119
p200
aV13
p201
aV10
p202
aV5
aV-
aV2.5
p203
aV92.5
p204
aV0.4
p205
aV6
aV7.37
p206
aa(lp207
V2015/2016
p208
aVFulham
p209
aVEC
p210
aV37(2)
p211
aV3172
p212
aV8
aV6
aV2
aV1
aV1.8
p213
aV87.5
p214
aV1
aV3
aV7.04
p215
aa(lp216
V2014/2015
p217
aVBlackburn
p218
aVEC
p219
aV32(7)
p220
aV2853
p221
aV3
aV5
aV4
aV1
aV1.5
p222
aV84.8
p223
aV0.7
p224
aV-
aV7.06
p225
aa(lp226
V2013/2014
p227
aVBlackburn
p228
aVEC
p229
aV36(1)
p230
aV3127
p231
aV5
aV6
aV2
aV-
aV2
aV87
p232
aV1
aV5
aV7.51
p233
aa(lp234
V2009/2010
p235
aVHull
p236
aVEPL
p237
aV10(1)
p238
aV900
p239
aV1
aV-
aV1
aV-
aV0.8
p240
aV77.2
p241
aV0.9
p242
aV-
aV6.91
p243
aa(lp244
VTotal / Average
p245
aV
aV
aV222
p246
aV18035
p247
aV36
p248
aV33
p249
aV17
p250
aV2
aV1.8
p251
aV88.3
p252
aV0.7
p253
aV15
p254
aV7.21
p255
aasS'sumary_data'
p256
(lp257
(lp258
a(lp259
V2018/2019
p260
aVFulham
p261
aVEPL
p262
aV9(3)
p263
aV798
p264
aV-
aV1
aV-
aV-
aV0.7
p265
aV90.2
p266
aV-
aV-
aV6.53
p267
aa(lp268
V2017/2018
p269
aVFulham
p270
aVEC
p271
aV33(4)
p272
aV3066
p273
aV6
aV5
aV3
aV-
aV1.6
p274
aV91.5
p275
aV0.8
p276
aV1
aV7.33
p277
aa(lp278
V2016/2017
p279
aVFulham
p280
aVEC
p281
aV46(1)
p282
aV4119
p283
aV13
p284
aV10
p285
aV5
aV-
aV2.5
p286
aV92.5
p287
aV0.4
p288
aV6
aV7.37
p289
aa(lp290
V2015/2016
p291
aVFulham
p292
aVEC
p293
aV37(2)
p294
aV3172
p295
aV8
aV6
aV2
aV1
aV1.8
p296
aV87.5
p297
aV1
aV3
aV7.04
p298
aa(lp299
V2014/2015
p300
aVBlackburn
p301
aVEC
p302
aV32(7)
p303
aV2853
p304
aV3
aV5
aV4
aV1
aV1.5
p305
aV84.8
p306
aV0.7
p307
aV-
aV7.06
p308
aa(lp309
V2013/2014
p310
aVBlackburn
p311
aVEC
p312
aV36(1)
p313
aV3127
p314
aV5
aV6
aV2
aV-
aV2
aV87
p315
aV1
aV5
aV7.51
p316
aa(lp317
V2009/2010
p318
aVHull
p319
aVEPL
p320
aV10(1)
p321
aV900
p322
aV1
aV-
aV1
aV-
aV0.8
p323
aV77.2
p324
aV0.9
p325
aV-
aV6.91
p326
aa(lp327
VTotal / Average
p328
aV
aV
aV222
p329
aV18035
p330
aV36
p331
aV33
p332
aV17
p333
aV2
aV1.8
p334
aV88.3
p335
aV0.7
p336
aV15
p337
aV7.21
p338
aasS'id'
p339
V79583
p340
sb.