(i__main__
Player
p1
(dp2
S'name'
p3
VMatthew Lowton 
p4
sS'offensive_data'
p5
(lp6
(lp7
a(lp8
V2018/2019
p9
aVBurnley
p10
aVEPL
p11
aV12
p12
aV1080
p13
aV-
aV-
aV4
aV-
aV0.3
p14
aV69.5
p15
aV1.3
p16
aV-
aV6.60
p17
aa(lp18
V2017/2018
p19
aVBurnley
p20
aVEPL
p21
aV25(1)
p22
aV2295
p23
aV-
aV3
aV1
aV-
aV0.2
p24
aV68.9
p25
aV1.3
p26
aV1
aV6.97
p27
aa(lp28
V2016/2017
p29
aVBurnley
p30
aVEPL
p31
aV36
p32
aV3240
p33
aV-
aV2
aV9
aV-
aV0.2
p34
aV66.7
p35
aV1.5
p36
aV1
aV7.02
p37
aa(lp38
V2015/2016
p39
aVBurnley
p40
aVEC
p41
aV25(2)
p42
aV2268
p43
aV1
aV3
aV4
aV-
aV0.2
p44
aV64.4
p45
aV1.8
p46
aV3
aV7.31
p47
aa(lp48
V2014/2015
p49
aVAston Villa
p50
aVEPL
p51
aV8(4)
p52
aV755
p53
aV-
aV-
aV2
aV-
aV0.3
p54
aV72.5
p55
aV1
aV-
aV6.67
p56
aa(lp57
V2013/2014
p58
aVAston Villa
p59
aVEPL
p60
aV18(5)
p61
aV1663
p62
aV-
aV3
aV4
aV-
aV0.1
p63
aV76.8
p64
aV0.7
p65
aV-
aV6.53
p66
aa(lp67
V2012/2013
p68
aVAston Villa
p69
aVEPL
p70
aV37
p71
aV3267
p72
aV2
aV3
aV10
p73
aV-
aV0.4
p74
aV79.1
p75
aV1
aV1
aV7.14
p76
aa(lp77
VTotal / Average
p78
aV
aV
aV173
p79
aV14568
p80
aV3
aV14
p81
aV34
p82
aV0
aV0.2
p83
aV71.3
p84
aV1.2
p85
aV6
aV6.96
p86
aasS'url'
p87
S'https://www.whoscored.com/Players/80067/History/'
p88
sS'passing_data'
p89
(lp90
(lp91
a(lp92
V2018/2019
p93
aVBurnley
p94
aVEPL
p95
aV12
p96
aV1080
p97
aV-
aV-
aV4
aV-
aV0.3
p98
aV69.5
p99
aV1.3
p100
aV-
aV6.60
p101
aa(lp102
V2017/2018
p103
aVBurnley
p104
aVEPL
p105
aV25(1)
p106
aV2295
p107
aV-
aV3
aV1
aV-
aV0.2
p108
aV68.9
p109
aV1.3
p110
aV1
aV6.97
p111
aa(lp112
V2016/2017
p113
aVBurnley
p114
aVEPL
p115
aV36
p116
aV3240
p117
aV-
aV2
aV9
aV-
aV0.2
p118
aV66.7
p119
aV1.5
p120
aV1
aV7.02
p121
aa(lp122
V2015/2016
p123
aVBurnley
p124
aVEC
p125
aV25(2)
p126
aV2268
p127
aV1
aV3
aV4
aV-
aV0.2
p128
aV64.4
p129
aV1.8
p130
aV3
aV7.31
p131
aa(lp132
V2014/2015
p133
aVAston Villa
p134
aVEPL
p135
aV8(4)
p136
aV755
p137
aV-
aV-
aV2
aV-
aV0.3
p138
aV72.5
p139
aV1
aV-
aV6.67
p140
aa(lp141
V2013/2014
p142
aVAston Villa
p143
aVEPL
p144
aV18(5)
p145
aV1663
p146
aV-
aV3
aV4
aV-
aV0.1
p147
aV76.8
p148
aV0.7
p149
aV-
aV6.53
p150
aa(lp151
V2012/2013
p152
aVAston Villa
p153
aVEPL
p154
aV37
p155
aV3267
p156
aV2
aV3
aV10
p157
aV-
aV0.4
p158
aV79.1
p159
aV1
aV1
aV7.14
p160
aa(lp161
VTotal / Average
p162
aV
aV
aV173
p163
aV14568
p164
aV3
aV14
p165
aV34
p166
aV0
aV0.2
p167
aV71.3
p168
aV1.2
p169
aV6
aV6.96
p170
aasS'defensive_data'
p171
(lp172
(lp173
a(lp174
V2018/2019
p175
aVBurnley
p176
aVEPL
p177
aV12
p178
aV1080
p179
aV-
aV-
aV4
aV-
aV0.3
p180
aV69.5
p181
aV1.3
p182
aV-
aV6.60
p183
aa(lp184
V2017/2018
p185
aVBurnley
p186
aVEPL
p187
aV25(1)
p188
aV2295
p189
aV-
aV3
aV1
aV-
aV0.2
p190
aV68.9
p191
aV1.3
p192
aV1
aV6.97
p193
aa(lp194
V2016/2017
p195
aVBurnley
p196
aVEPL
p197
aV36
p198
aV3240
p199
aV-
aV2
aV9
aV-
aV0.2
p200
aV66.7
p201
aV1.5
p202
aV1
aV7.02
p203
aa(lp204
V2015/2016
p205
aVBurnley
p206
aVEC
p207
aV25(2)
p208
aV2268
p209
aV1
aV3
aV4
aV-
aV0.2
p210
aV64.4
p211
aV1.8
p212
aV3
aV7.31
p213
aa(lp214
V2014/2015
p215
aVAston Villa
p216
aVEPL
p217
aV8(4)
p218
aV755
p219
aV-
aV-
aV2
aV-
aV0.3
p220
aV72.5
p221
aV1
aV-
aV6.67
p222
aa(lp223
V2013/2014
p224
aVAston Villa
p225
aVEPL
p226
aV18(5)
p227
aV1663
p228
aV-
aV3
aV4
aV-
aV0.1
p229
aV76.8
p230
aV0.7
p231
aV-
aV6.53
p232
aa(lp233
V2012/2013
p234
aVAston Villa
p235
aVEPL
p236
aV37
p237
aV3267
p238
aV2
aV3
aV10
p239
aV-
aV0.4
p240
aV79.1
p241
aV1
aV1
aV7.14
p242
aa(lp243
VTotal / Average
p244
aV
aV
aV173
p245
aV14568
p246
aV3
aV14
p247
aV34
p248
aV0
aV0.2
p249
aV71.3
p250
aV1.2
p251
aV6
aV6.96
p252
aasS'sumary_data'
p253
(lp254
(lp255
a(lp256
V2018/2019
p257
aVBurnley
p258
aVEPL
p259
aV12
p260
aV1080
p261
aV-
aV-
aV4
aV-
aV0.3
p262
aV69.5
p263
aV1.3
p264
aV-
aV6.60
p265
aa(lp266
V2017/2018
p267
aVBurnley
p268
aVEPL
p269
aV25(1)
p270
aV2295
p271
aV-
aV3
aV1
aV-
aV0.2
p272
aV68.9
p273
aV1.3
p274
aV1
aV6.97
p275
aa(lp276
V2016/2017
p277
aVBurnley
p278
aVEPL
p279
aV36
p280
aV3240
p281
aV-
aV2
aV9
aV-
aV0.2
p282
aV66.7
p283
aV1.5
p284
aV1
aV7.02
p285
aa(lp286
V2015/2016
p287
aVBurnley
p288
aVEC
p289
aV25(2)
p290
aV2268
p291
aV1
aV3
aV4
aV-
aV0.2
p292
aV64.4
p293
aV1.8
p294
aV3
aV7.31
p295
aa(lp296
V2014/2015
p297
aVAston Villa
p298
aVEPL
p299
aV8(4)
p300
aV755
p301
aV-
aV-
aV2
aV-
aV0.3
p302
aV72.5
p303
aV1
aV-
aV6.67
p304
aa(lp305
V2013/2014
p306
aVAston Villa
p307
aVEPL
p308
aV18(5)
p309
aV1663
p310
aV-
aV3
aV4
aV-
aV0.1
p311
aV76.8
p312
aV0.7
p313
aV-
aV6.53
p314
aa(lp315
V2012/2013
p316
aVAston Villa
p317
aVEPL
p318
aV37
p319
aV3267
p320
aV2
aV3
aV10
p321
aV-
aV0.4
p322
aV79.1
p323
aV1
aV1
aV7.14
p324
aa(lp325
VTotal / Average
p326
aV
aV
aV173
p327
aV14568
p328
aV3
aV14
p329
aV34
p330
aV0
aV0.2
p331
aV71.3
p332
aV1.2
p333
aV6
aV6.96
p334
aasS'id'
p335
V80067
p336
sb.