(i__main__
Player
p1
(dp2
S'name'
p3
VIdrissa Gueye 
p4
sS'offensive_data'
p5
(lp6
(lp7
a(lp8
V2018/2019
p9
aVEverton
p10
aVEPL
p11
aV15
p12
aV1319
p13
aV-
aV-
aV3
aV-
aV0.4
p14
aV85.3
p15
aV0.9
p16
aV-
aV7.08
p17
aa(lp18
V2017/2018
p19
aVEverton
p20
aVUEL
p21
aV2
aV107
p22
aV-
aV-
aV-
aV-
aV0.5
p23
aV89.2
p24
aV-
aV-
aV6.81
p25
aa(lp26
V2017/2018
p27
aVEverton
p28
aVEPL
p29
aV32(1)
p30
aV2757
p31
aV2
aV1
aV6
aV1
aV0.7
p32
aV84.7
p33
aV1
aV1
aV6.95
p34
aa(lp35
V2016/2017
p36
aVEverton
p37
aVEPL
p38
aV32(1)
p39
aV2688
p40
aV1
aV1
aV11
p41
aV-
aV0.8
p42
aV86.3
p43
aV1
aV2
aV7.23
p44
aa(lp45
V2018
p46
aVSenegal
p47
aVWC
p48
aV3
aV270
p49
aV-
aV-
aV1
aV-
aV0.7
p50
aV87.3
p51
aV1.7
p52
aV-
aV6.54
p53
aa(lp54
V2015/2016
p55
aVAston Villa
p56
aVEPL
p57
aV35
p58
aV3076
p59
aV-
aV1
aV10
p60
aV-
aV0.9
p61
aV85.6
p62
aV0.9
p63
aV3
aV7.25
p64
aa(lp65
V2015
p66
aVSenegal
p67
aVACoN
p68
aV3
aV270
p69
aV-
aV-
aV-
aV-
aV1
aV87
p70
aV-
aV-
aV6.84
p71
aa(lp72
V2014/2015
p73
aVLille
p74
aVUEL
p75
aV6
aV533
p76
aV-
aV-
aV2
aV-
aV1.5
p77
aV81.3
p78
aV1.2
p79
aV1
aV6.98
p80
aa(lp81
V2014/2015
p82
aVLille
p83
aVFL1
p84
aV30(2)
p85
aV2734
p86
aV4
aV2
aV4
aV-
aV1.1
p87
aV86.4
p88
aV1
aV4
aV7.41
p89
aa(lp90
V2013/2014
p91
aVLille
p92
aVFL1
p93
aV37
p94
aV3330
p95
aV1
aV1
aV6
aV-
aV1.1
p96
aV85.8
p97
aV1.1
p98
aV2
aV7.29
p99
aa(lp100
V2012/2013
p101
aVLille
p102
aVUCL
p103
aV3
aV270
p104
aV-
aV-
aV-
aV-
aV-
aV85.7
p105
aV1.3
p106
aV-
aV7.04
p107
aa(lp108
V2012/2013
p109
aVLille
p110
aVFL1
p111
aV21(8)
p112
aV1950
p113
aV-
aV1
aV5
aV-
aV0.5
p114
aV88.3
p115
aV0.9
p116
aV1
aV6.92
p117
aa(lp118
V2011/2012
p119
aVLille
p120
aVUCL
p121
aV1(2)
p122
aV113
p123
aV-
aV-
aV-
aV-
aV0.7
p124
aV93.3
p125
aV0.3
p126
aV-
aV6.77
p127
aa(lp128
V2011/2012
p129
aVLille
p130
aVFL1
p131
aV14(11)
p132
aV1381
p133
aV-
aV-
aV5
aV1
aV0.6
p134
aV88.9
p135
aV0.6
p136
aV-
aV6.69
p137
aa(lp138
V2010/2011
p139
aVLille
p140
aVFL1
p141
aV2(9)
p142
aV357
p143
aV-
aV-
aV-
aV-
aV0.5
p144
aV88
p145
aV0.5
p146
aV-
aV6.65
p147
aa(lp148
VTotal / Average
p149
aV
aV
aV270
p150
aV21155
p151
aV8
aV7
aV53
p152
aV2
aV0.8
p153
aV86.4
p154
aV0.9
p155
aV14
p156
aV7.08
p157
aasS'url'
p158
S'https://www.whoscored.com/Players/80464/History/'
p159
sS'passing_data'
p160
(lp161
(lp162
a(lp163
V2018/2019
p164
aVEverton
p165
aVEPL
p166
aV15
p167
aV1319
p168
aV-
aV-
aV3
aV-
aV0.4
p169
aV85.3
p170
aV0.9
p171
aV-
aV7.08
p172
aa(lp173
V2017/2018
p174
aVEverton
p175
aVUEL
p176
aV2
aV107
p177
aV-
aV-
aV-
aV-
aV0.5
p178
aV89.2
p179
aV-
aV-
aV6.81
p180
aa(lp181
V2017/2018
p182
aVEverton
p183
aVEPL
p184
aV32(1)
p185
aV2757
p186
aV2
aV1
aV6
aV1
aV0.7
p187
aV84.7
p188
aV1
aV1
aV6.95
p189
aa(lp190
V2016/2017
p191
aVEverton
p192
aVEPL
p193
aV32(1)
p194
aV2688
p195
aV1
aV1
aV11
p196
aV-
aV0.8
p197
aV86.3
p198
aV1
aV2
aV7.23
p199
aa(lp200
V2018
p201
aVSenegal
p202
aVWC
p203
aV3
aV270
p204
aV-
aV-
aV1
aV-
aV0.7
p205
aV87.3
p206
aV1.7
p207
aV-
aV6.54
p208
aa(lp209
V2015/2016
p210
aVAston Villa
p211
aVEPL
p212
aV35
p213
aV3076
p214
aV-
aV1
aV10
p215
aV-
aV0.9
p216
aV85.6
p217
aV0.9
p218
aV3
aV7.25
p219
aa(lp220
V2015
p221
aVSenegal
p222
aVACoN
p223
aV3
aV270
p224
aV-
aV-
aV-
aV-
aV1
aV87
p225
aV-
aV-
aV6.84
p226
aa(lp227
V2014/2015
p228
aVLille
p229
aVUEL
p230
aV6
aV533
p231
aV-
aV-
aV2
aV-
aV1.5
p232
aV81.3
p233
aV1.2
p234
aV1
aV6.98
p235
aa(lp236
V2014/2015
p237
aVLille
p238
aVFL1
p239
aV30(2)
p240
aV2734
p241
aV4
aV2
aV4
aV-
aV1.1
p242
aV86.4
p243
aV1
aV4
aV7.41
p244
aa(lp245
V2013/2014
p246
aVLille
p247
aVFL1
p248
aV37
p249
aV3330
p250
aV1
aV1
aV6
aV-
aV1.1
p251
aV85.8
p252
aV1.1
p253
aV2
aV7.29
p254
aa(lp255
V2012/2013
p256
aVLille
p257
aVUCL
p258
aV3
aV270
p259
aV-
aV-
aV-
aV-
aV-
aV85.7
p260
aV1.3
p261
aV-
aV7.04
p262
aa(lp263
V2012/2013
p264
aVLille
p265
aVFL1
p266
aV21(8)
p267
aV1950
p268
aV-
aV1
aV5
aV-
aV0.5
p269
aV88.3
p270
aV0.9
p271
aV1
aV6.92
p272
aa(lp273
V2011/2012
p274
aVLille
p275
aVUCL
p276
aV1(2)
p277
aV113
p278
aV-
aV-
aV-
aV-
aV0.7
p279
aV93.3
p280
aV0.3
p281
aV-
aV6.77
p282
aa(lp283
V2011/2012
p284
aVLille
p285
aVFL1
p286
aV14(11)
p287
aV1381
p288
aV-
aV-
aV5
aV1
aV0.6
p289
aV88.9
p290
aV0.6
p291
aV-
aV6.69
p292
aa(lp293
V2010/2011
p294
aVLille
p295
aVFL1
p296
aV2(9)
p297
aV357
p298
aV-
aV-
aV-
aV-
aV0.5
p299
aV88
p300
aV0.5
p301
aV-
aV6.65
p302
aa(lp303
VTotal / Average
p304
aV
aV
aV270
p305
aV21155
p306
aV8
aV7
aV53
p307
aV2
aV0.8
p308
aV86.4
p309
aV0.9
p310
aV14
p311
aV7.08
p312
aasS'defensive_data'
p313
(lp314
(lp315
a(lp316
V2018/2019
p317
aVEverton
p318
aVEPL
p319
aV15
p320
aV1319
p321
aV-
aV-
aV3
aV-
aV0.4
p322
aV85.3
p323
aV0.9
p324
aV-
aV7.08
p325
aa(lp326
V2017/2018
p327
aVEverton
p328
aVUEL
p329
aV2
aV107
p330
aV-
aV-
aV-
aV-
aV0.5
p331
aV89.2
p332
aV-
aV-
aV6.81
p333
aa(lp334
V2017/2018
p335
aVEverton
p336
aVEPL
p337
aV32(1)
p338
aV2757
p339
aV2
aV1
aV6
aV1
aV0.7
p340
aV84.7
p341
aV1
aV1
aV6.95
p342
aa(lp343
V2016/2017
p344
aVEverton
p345
aVEPL
p346
aV32(1)
p347
aV2688
p348
aV1
aV1
aV11
p349
aV-
aV0.8
p350
aV86.3
p351
aV1
aV2
aV7.23
p352
aa(lp353
V2018
p354
aVSenegal
p355
aVWC
p356
aV3
aV270
p357
aV-
aV-
aV1
aV-
aV0.7
p358
aV87.3
p359
aV1.7
p360
aV-
aV6.54
p361
aa(lp362
V2015/2016
p363
aVAston Villa
p364
aVEPL
p365
aV35
p366
aV3076
p367
aV-
aV1
aV10
p368
aV-
aV0.9
p369
aV85.6
p370
aV0.9
p371
aV3
aV7.25
p372
aa(lp373
V2015
p374
aVSenegal
p375
aVACoN
p376
aV3
aV270
p377
aV-
aV-
aV-
aV-
aV1
aV87
p378
aV-
aV-
aV6.84
p379
aa(lp380
V2014/2015
p381
aVLille
p382
aVUEL
p383
aV6
aV533
p384
aV-
aV-
aV2
aV-
aV1.5
p385
aV81.3
p386
aV1.2
p387
aV1
aV6.98
p388
aa(lp389
V2014/2015
p390
aVLille
p391
aVFL1
p392
aV30(2)
p393
aV2734
p394
aV4
aV2
aV4
aV-
aV1.1
p395
aV86.4
p396
aV1
aV4
aV7.41
p397
aa(lp398
V2013/2014
p399
aVLille
p400
aVFL1
p401
aV37
p402
aV3330
p403
aV1
aV1
aV6
aV-
aV1.1
p404
aV85.8
p405
aV1.1
p406
aV2
aV7.29
p407
aa(lp408
V2012/2013
p409
aVLille
p410
aVUCL
p411
aV3
aV270
p412
aV-
aV-
aV-
aV-
aV-
aV85.7
p413
aV1.3
p414
aV-
aV7.04
p415
aa(lp416
V2012/2013
p417
aVLille
p418
aVFL1
p419
aV21(8)
p420
aV1950
p421
aV-
aV1
aV5
aV-
aV0.5
p422
aV88.3
p423
aV0.9
p424
aV1
aV6.92
p425
aa(lp426
V2011/2012
p427
aVLille
p428
aVUCL
p429
aV1(2)
p430
aV113
p431
aV-
aV-
aV-
aV-
aV0.7
p432
aV93.3
p433
aV0.3
p434
aV-
aV6.77
p435
aa(lp436
V2011/2012
p437
aVLille
p438
aVFL1
p439
aV14(11)
p440
aV1381
p441
aV-
aV-
aV5
aV1
aV0.6
p442
aV88.9
p443
aV0.6
p444
aV-
aV6.69
p445
aa(lp446
V2010/2011
p447
aVLille
p448
aVFL1
p449
aV2(9)
p450
aV357
p451
aV-
aV-
aV-
aV-
aV0.5
p452
aV88
p453
aV0.5
p454
aV-
aV6.65
p455
aa(lp456
VTotal / Average
p457
aV
aV
aV270
p458
aV21155
p459
aV8
aV7
aV53
p460
aV2
aV0.8
p461
aV86.4
p462
aV0.9
p463
aV14
p464
aV7.08
p465
aasS'sumary_data'
p466
(lp467
(lp468
a(lp469
V2018/2019
p470
aVEverton
p471
aVEPL
p472
aV15
p473
aV1319
p474
aV-
aV-
aV3
aV-
aV0.4
p475
aV85.3
p476
aV0.9
p477
aV-
aV7.08
p478
aa(lp479
V2017/2018
p480
aVEverton
p481
aVUEL
p482
aV2
aV107
p483
aV-
aV-
aV-
aV-
aV0.5
p484
aV89.2
p485
aV-
aV-
aV6.81
p486
aa(lp487
V2017/2018
p488
aVEverton
p489
aVEPL
p490
aV32(1)
p491
aV2757
p492
aV2
aV1
aV6
aV1
aV0.7
p493
aV84.7
p494
aV1
aV1
aV6.95
p495
aa(lp496
V2016/2017
p497
aVEverton
p498
aVEPL
p499
aV32(1)
p500
aV2688
p501
aV1
aV1
aV11
p502
aV-
aV0.8
p503
aV86.3
p504
aV1
aV2
aV7.23
p505
aa(lp506
V2018
p507
aVSenegal
p508
aVWC
p509
aV3
aV270
p510
aV-
aV-
aV1
aV-
aV0.7
p511
aV87.3
p512
aV1.7
p513
aV-
aV6.54
p514
aa(lp515
V2015/2016
p516
aVAston Villa
p517
aVEPL
p518
aV35
p519
aV3076
p520
aV-
aV1
aV10
p521
aV-
aV0.9
p522
aV85.6
p523
aV0.9
p524
aV3
aV7.25
p525
aa(lp526
V2015
p527
aVSenegal
p528
aVACoN
p529
aV3
aV270
p530
aV-
aV-
aV-
aV-
aV1
aV87
p531
aV-
aV-
aV6.84
p532
aa(lp533
V2014/2015
p534
aVLille
p535
aVUEL
p536
aV6
aV533
p537
aV-
aV-
aV2
aV-
aV1.5
p538
aV81.3
p539
aV1.2
p540
aV1
aV6.98
p541
aa(lp542
V2014/2015
p543
aVLille
p544
aVFL1
p545
aV30(2)
p546
aV2734
p547
aV4
aV2
aV4
aV-
aV1.1
p548
aV86.4
p549
aV1
aV4
aV7.41
p550
aa(lp551
V2013/2014
p552
aVLille
p553
aVFL1
p554
aV37
p555
aV3330
p556
aV1
aV1
aV6
aV-
aV1.1
p557
aV85.8
p558
aV1.1
p559
aV2
aV7.29
p560
aa(lp561
V2012/2013
p562
aVLille
p563
aVUCL
p564
aV3
aV270
p565
aV-
aV-
aV-
aV-
aV-
aV85.7
p566
aV1.3
p567
aV-
aV7.04
p568
aa(lp569
V2012/2013
p570
aVLille
p571
aVFL1
p572
aV21(8)
p573
aV1950
p574
aV-
aV1
aV5
aV-
aV0.5
p575
aV88.3
p576
aV0.9
p577
aV1
aV6.92
p578
aa(lp579
V2011/2012
p580
aVLille
p581
aVUCL
p582
aV1(2)
p583
aV113
p584
aV-
aV-
aV-
aV-
aV0.7
p585
aV93.3
p586
aV0.3
p587
aV-
aV6.77
p588
aa(lp589
V2011/2012
p590
aVLille
p591
aVFL1
p592
aV14(11)
p593
aV1381
p594
aV-
aV-
aV5
aV1
aV0.6
p595
aV88.9
p596
aV0.6
p597
aV-
aV6.69
p598
aa(lp599
V2010/2011
p600
aVLille
p601
aVFL1
p602
aV2(9)
p603
aV357
p604
aV-
aV-
aV-
aV-
aV0.5
p605
aV88
p606
aV0.5
p607
aV-
aV6.65
p608
aa(lp609
VTotal / Average
p610
aV
aV
aV270
p611
aV21155
p612
aV8
aV7
aV53
p613
aV2
aV0.8
p614
aV86.4
p615
aV0.9
p616
aV14
p617
aV7.08
p618
aasS'id'
p619
V80464
p620
sb.