(i__main__
Player
p1
(dp2
S'name'
p3
VShkodran Mustafi 
p4
sS'offensive_data'
p5
(lp6
(lp7
a(lp8
V2018/2019
p9
aVArsenal
p10
aVEPL
p11
aV16
p12
aV1397
p13
aV2
aV-
aV5
aV-
aV0.8
p14
aV85.5
p15
aV3.8
p16
aV-
aV7.20
p17
aa(lp18
V2017/2018
p19
aVArsenal
p20
aVUEL
p21
aV8
aV720
p22
aV-
aV-
aV1
aV-
aV0.4
p23
aV87.3
p24
aV2.9
p25
aV-
aV7.22
p26
aa(lp27
V2017/2018
p28
aVArsenal
p29
aVEPL
p30
aV25(2)
p31
aV2274
p32
aV3
aV1
aV6
aV-
aV0.5
p33
aV86.2
p34
aV4.5
p35
aV3
aV7.38
p36
aa(lp37
V2016/2017
p38
aVValencia
p39
aVSLL
p40
aV0(1)
p41
aV45
p42
aV-
aV-
aV-
aV-
aV1
aV73.5
p43
aV1
aV-
aV6.79
p44
aa(lp45
V2016/2017
p46
aVArsenal
p47
aVUCL
p48
aV7
aV630
p49
aV-
aV-
aV1
aV-
aV0.9
p50
aV85.3
p51
aV2.9
p52
aV-
aV6.77
p53
aa(lp54
V2016/2017
p55
aVArsenal
p56
aVEPL
p57
aV26
p58
aV2275
p59
aV2
aV2
aV11
p60
aV-
aV0.9
p61
aV82.7
p62
aV3.9
p63
aV2
aV7.35
p64
aa(lp65
V2015/2016
p66
aVValencia
p67
aVSLL
p68
aV30
p69
aV2682
p70
aV2
aV-
aV14
p71
aV-
aV0.7
p72
aV81.3
p73
aV3
aV4
aV7.33
p74
aa(lp75
V2015/2016
p76
aVValencia
p77
aVUEL
p78
aV3
aV270
p79
aV-
aV-
aV1
aV-
aV0.3
p80
aV76.5
p81
aV4.3
p82
aV-
aV7.54
p83
aa(lp84
V2015/2016
p85
aVValencia
p86
aVUCL
p87
aV5
aV450
p88
aV-
aV-
aV3
aV-
aV0.6
p89
aV82.3
p90
aV1.6
p91
aV-
aV6.95
p92
aa(lp93
V2014/2015
p94
aVValencia
p95
aVSLL
p96
aV33
p97
aV2915
p98
aV4
aV-
aV8
aV-
aV0.6
p99
aV79.5
p100
aV2.8
p101
aV2
aV7.23
p102
aa(lp103
V2016
p104
aVGermany
p105
aVUEC
p106
aV1(1)
p107
aV119
p108
aV1
aV-
aV-
aV-
aV1
aV88.7
p109
aV3
aV-
aV7.50
p110
aa(lp111
V2013/2014
p112
aVSampdoria
p113
aVISA
p114
aV32(1)
p115
aV2834
p116
aV1
aV1
aV8
aV1
aV0.5
p117
aV83.6
p118
aV3.5
p119
aV3
aV7.24
p120
aa(lp121
V2014
p122
aVGermany
p123
aVWC
p124
aV1(2)
p125
aV132
p126
aV-
aV-
aV-
aV-
aV0.3
p127
aV86.9
p128
aV1.7
p129
aV-
aV6.51
p130
aa(lp131
V2013
p132
aVGermany U21
p133
aVIEU
p134
aV1
aV90
p135
aV-
aV-
aV-
aV-
aV-
aV90.6
p136
aV3
aV-
aV6.91
p137
aa(lp138
V2012/2013
p139
aVSampdoria
p140
aVISA
p141
aV12(5)
p142
aV1096
p143
aV-
aV1
aV3
aV1
aV0.2
p144
aV80.5
p145
aV2
aV1
aV6.65
p146
aa(lp147
VTotal / Average
p148
aV
aV
aV212
p149
aV17929
p150
aV15
p151
aV5
aV61
p152
aV2
aV0.6
p153
aV82.9
p154
aV3.3
p155
aV15
p156
aV7.20
p157
aasS'url'
p158
S'https://www.whoscored.com/Players/80921/History/'
p159
sS'passing_data'
p160
(lp161
(lp162
a(lp163
V2018/2019
p164
aVArsenal
p165
aVEPL
p166
aV16
p167
aV1397
p168
aV2
aV-
aV5
aV-
aV0.8
p169
aV85.5
p170
aV3.8
p171
aV-
aV7.20
p172
aa(lp173
V2017/2018
p174
aVArsenal
p175
aVUEL
p176
aV8
aV720
p177
aV-
aV-
aV1
aV-
aV0.4
p178
aV87.3
p179
aV2.9
p180
aV-
aV7.22
p181
aa(lp182
V2017/2018
p183
aVArsenal
p184
aVEPL
p185
aV25(2)
p186
aV2274
p187
aV3
aV1
aV6
aV-
aV0.5
p188
aV86.2
p189
aV4.5
p190
aV3
aV7.38
p191
aa(lp192
V2016/2017
p193
aVValencia
p194
aVSLL
p195
aV0(1)
p196
aV45
p197
aV-
aV-
aV-
aV-
aV1
aV73.5
p198
aV1
aV-
aV6.79
p199
aa(lp200
V2016/2017
p201
aVArsenal
p202
aVUCL
p203
aV7
aV630
p204
aV-
aV-
aV1
aV-
aV0.9
p205
aV85.3
p206
aV2.9
p207
aV-
aV6.77
p208
aa(lp209
V2016/2017
p210
aVArsenal
p211
aVEPL
p212
aV26
p213
aV2275
p214
aV2
aV2
aV11
p215
aV-
aV0.9
p216
aV82.7
p217
aV3.9
p218
aV2
aV7.35
p219
aa(lp220
V2015/2016
p221
aVValencia
p222
aVSLL
p223
aV30
p224
aV2682
p225
aV2
aV-
aV14
p226
aV-
aV0.7
p227
aV81.3
p228
aV3
aV4
aV7.33
p229
aa(lp230
V2015/2016
p231
aVValencia
p232
aVUEL
p233
aV3
aV270
p234
aV-
aV-
aV1
aV-
aV0.3
p235
aV76.5
p236
aV4.3
p237
aV-
aV7.54
p238
aa(lp239
V2015/2016
p240
aVValencia
p241
aVUCL
p242
aV5
aV450
p243
aV-
aV-
aV3
aV-
aV0.6
p244
aV82.3
p245
aV1.6
p246
aV-
aV6.95
p247
aa(lp248
V2014/2015
p249
aVValencia
p250
aVSLL
p251
aV33
p252
aV2915
p253
aV4
aV-
aV8
aV-
aV0.6
p254
aV79.5
p255
aV2.8
p256
aV2
aV7.23
p257
aa(lp258
V2016
p259
aVGermany
p260
aVUEC
p261
aV1(1)
p262
aV119
p263
aV1
aV-
aV-
aV-
aV1
aV88.7
p264
aV3
aV-
aV7.50
p265
aa(lp266
V2013/2014
p267
aVSampdoria
p268
aVISA
p269
aV32(1)
p270
aV2834
p271
aV1
aV1
aV8
aV1
aV0.5
p272
aV83.6
p273
aV3.5
p274
aV3
aV7.24
p275
aa(lp276
V2014
p277
aVGermany
p278
aVWC
p279
aV1(2)
p280
aV132
p281
aV-
aV-
aV-
aV-
aV0.3
p282
aV86.9
p283
aV1.7
p284
aV-
aV6.51
p285
aa(lp286
V2013
p287
aVGermany U21
p288
aVIEU
p289
aV1
aV90
p290
aV-
aV-
aV-
aV-
aV-
aV90.6
p291
aV3
aV-
aV6.91
p292
aa(lp293
V2012/2013
p294
aVSampdoria
p295
aVISA
p296
aV12(5)
p297
aV1096
p298
aV-
aV1
aV3
aV1
aV0.2
p299
aV80.5
p300
aV2
aV1
aV6.65
p301
aa(lp302
VTotal / Average
p303
aV
aV
aV212
p304
aV17929
p305
aV15
p306
aV5
aV61
p307
aV2
aV0.6
p308
aV82.9
p309
aV3.3
p310
aV15
p311
aV7.20
p312
aasS'defensive_data'
p313
(lp314
(lp315
a(lp316
V2018/2019
p317
aVArsenal
p318
aVEPL
p319
aV16
p320
aV1397
p321
aV2
aV-
aV5
aV-
aV0.8
p322
aV85.5
p323
aV3.8
p324
aV-
aV7.20
p325
aa(lp326
V2017/2018
p327
aVArsenal
p328
aVUEL
p329
aV8
aV720
p330
aV-
aV-
aV1
aV-
aV0.4
p331
aV87.3
p332
aV2.9
p333
aV-
aV7.22
p334
aa(lp335
V2017/2018
p336
aVArsenal
p337
aVEPL
p338
aV25(2)
p339
aV2274
p340
aV3
aV1
aV6
aV-
aV0.5
p341
aV86.2
p342
aV4.5
p343
aV3
aV7.38
p344
aa(lp345
V2016/2017
p346
aVValencia
p347
aVSLL
p348
aV0(1)
p349
aV45
p350
aV-
aV-
aV-
aV-
aV1
aV73.5
p351
aV1
aV-
aV6.79
p352
aa(lp353
V2016/2017
p354
aVArsenal
p355
aVUCL
p356
aV7
aV630
p357
aV-
aV-
aV1
aV-
aV0.9
p358
aV85.3
p359
aV2.9
p360
aV-
aV6.77
p361
aa(lp362
V2016/2017
p363
aVArsenal
p364
aVEPL
p365
aV26
p366
aV2275
p367
aV2
aV2
aV11
p368
aV-
aV0.9
p369
aV82.7
p370
aV3.9
p371
aV2
aV7.35
p372
aa(lp373
V2015/2016
p374
aVValencia
p375
aVSLL
p376
aV30
p377
aV2682
p378
aV2
aV-
aV14
p379
aV-
aV0.7
p380
aV81.3
p381
aV3
aV4
aV7.33
p382
aa(lp383
V2015/2016
p384
aVValencia
p385
aVUEL
p386
aV3
aV270
p387
aV-
aV-
aV1
aV-
aV0.3
p388
aV76.5
p389
aV4.3
p390
aV-
aV7.54
p391
aa(lp392
V2015/2016
p393
aVValencia
p394
aVUCL
p395
aV5
aV450
p396
aV-
aV-
aV3
aV-
aV0.6
p397
aV82.3
p398
aV1.6
p399
aV-
aV6.95
p400
aa(lp401
V2014/2015
p402
aVValencia
p403
aVSLL
p404
aV33
p405
aV2915
p406
aV4
aV-
aV8
aV-
aV0.6
p407
aV79.5
p408
aV2.8
p409
aV2
aV7.23
p410
aa(lp411
V2016
p412
aVGermany
p413
aVUEC
p414
aV1(1)
p415
aV119
p416
aV1
aV-
aV-
aV-
aV1
aV88.7
p417
aV3
aV-
aV7.50
p418
aa(lp419
V2013/2014
p420
aVSampdoria
p421
aVISA
p422
aV32(1)
p423
aV2834
p424
aV1
aV1
aV8
aV1
aV0.5
p425
aV83.6
p426
aV3.5
p427
aV3
aV7.24
p428
aa(lp429
V2014
p430
aVGermany
p431
aVWC
p432
aV1(2)
p433
aV132
p434
aV-
aV-
aV-
aV-
aV0.3
p435
aV86.9
p436
aV1.7
p437
aV-
aV6.51
p438
aa(lp439
V2013
p440
aVGermany U21
p441
aVIEU
p442
aV1
aV90
p443
aV-
aV-
aV-
aV-
aV-
aV90.6
p444
aV3
aV-
aV6.91
p445
aa(lp446
V2012/2013
p447
aVSampdoria
p448
aVISA
p449
aV12(5)
p450
aV1096
p451
aV-
aV1
aV3
aV1
aV0.2
p452
aV80.5
p453
aV2
aV1
aV6.65
p454
aa(lp455
VTotal / Average
p456
aV
aV
aV212
p457
aV17929
p458
aV15
p459
aV5
aV61
p460
aV2
aV0.6
p461
aV82.9
p462
aV3.3
p463
aV15
p464
aV7.20
p465
aasS'sumary_data'
p466
(lp467
(lp468
a(lp469
V2018/2019
p470
aVArsenal
p471
aVEPL
p472
aV16
p473
aV1397
p474
aV2
aV-
aV5
aV-
aV0.8
p475
aV85.5
p476
aV3.8
p477
aV-
aV7.20
p478
aa(lp479
V2017/2018
p480
aVArsenal
p481
aVUEL
p482
aV8
aV720
p483
aV-
aV-
aV1
aV-
aV0.4
p484
aV87.3
p485
aV2.9
p486
aV-
aV7.22
p487
aa(lp488
V2017/2018
p489
aVArsenal
p490
aVEPL
p491
aV25(2)
p492
aV2274
p493
aV3
aV1
aV6
aV-
aV0.5
p494
aV86.2
p495
aV4.5
p496
aV3
aV7.38
p497
aa(lp498
V2016/2017
p499
aVValencia
p500
aVSLL
p501
aV0(1)
p502
aV45
p503
aV-
aV-
aV-
aV-
aV1
aV73.5
p504
aV1
aV-
aV6.79
p505
aa(lp506
V2016/2017
p507
aVArsenal
p508
aVUCL
p509
aV7
aV630
p510
aV-
aV-
aV1
aV-
aV0.9
p511
aV85.3
p512
aV2.9
p513
aV-
aV6.77
p514
aa(lp515
V2016/2017
p516
aVArsenal
p517
aVEPL
p518
aV26
p519
aV2275
p520
aV2
aV2
aV11
p521
aV-
aV0.9
p522
aV82.7
p523
aV3.9
p524
aV2
aV7.35
p525
aa(lp526
V2015/2016
p527
aVValencia
p528
aVSLL
p529
aV30
p530
aV2682
p531
aV2
aV-
aV14
p532
aV-
aV0.7
p533
aV81.3
p534
aV3
aV4
aV7.33
p535
aa(lp536
V2015/2016
p537
aVValencia
p538
aVUEL
p539
aV3
aV270
p540
aV-
aV-
aV1
aV-
aV0.3
p541
aV76.5
p542
aV4.3
p543
aV-
aV7.54
p544
aa(lp545
V2015/2016
p546
aVValencia
p547
aVUCL
p548
aV5
aV450
p549
aV-
aV-
aV3
aV-
aV0.6
p550
aV82.3
p551
aV1.6
p552
aV-
aV6.95
p553
aa(lp554
V2014/2015
p555
aVValencia
p556
aVSLL
p557
aV33
p558
aV2915
p559
aV4
aV-
aV8
aV-
aV0.6
p560
aV79.5
p561
aV2.8
p562
aV2
aV7.23
p563
aa(lp564
V2016
p565
aVGermany
p566
aVUEC
p567
aV1(1)
p568
aV119
p569
aV1
aV-
aV-
aV-
aV1
aV88.7
p570
aV3
aV-
aV7.50
p571
aa(lp572
V2013/2014
p573
aVSampdoria
p574
aVISA
p575
aV32(1)
p576
aV2834
p577
aV1
aV1
aV8
aV1
aV0.5
p578
aV83.6
p579
aV3.5
p580
aV3
aV7.24
p581
aa(lp582
V2014
p583
aVGermany
p584
aVWC
p585
aV1(2)
p586
aV132
p587
aV-
aV-
aV-
aV-
aV0.3
p588
aV86.9
p589
aV1.7
p590
aV-
aV6.51
p591
aa(lp592
V2013
p593
aVGermany U21
p594
aVIEU
p595
aV1
aV90
p596
aV-
aV-
aV-
aV-
aV-
aV90.6
p597
aV3
aV-
aV6.91
p598
aa(lp599
V2012/2013
p600
aVSampdoria
p601
aVISA
p602
aV12(5)
p603
aV1096
p604
aV-
aV1
aV3
aV1
aV0.2
p605
aV80.5
p606
aV2
aV1
aV6.65
p607
aa(lp608
VTotal / Average
p609
aV
aV
aV212
p610
aV17929
p611
aV15
p612
aV5
aV61
p613
aV2
aV0.6
p614
aV82.9
p615
aV3.3
p616
aV15
p617
aV7.20
p618
aasS'id'
p619
V80921
p620
sb.