(i__main__
Player
p1
(dp2
S'name'
p3
VJoshua King 
p4
sS'offensive_data'
p5
(lp6
(lp7
a(lp8
V2018/2019
p9
aVBournemouth
p10
aVEPL
p11
aV14
p12
aV1221
p13
aV5
aV1
aV1
aV-
aV1.9
p14
aV72.2
p15
aV2.8
p16
aV2
aV6.94
p17
aa(lp18
V2018/2019
p19
aVNorway
p20
aVUNL
p21
aV4
aV360
p22
aV-
aV-
aV-
aV-
aV2
aV70.1
p23
aV2.8
p24
aV-
aV6.43
p25
aa(lp26
V2017/2018
p27
aVBournemouth
p28
aVEPL
p29
aV27(6)
p30
aV2456
p31
aV8
aV3
aV3
aV-
aV1.5
p32
aV72.9
p33
aV2.1
p34
aV3
aV6.88
p35
aa(lp36
V2016/2017
p37
aVBournemouth
p38
aVEPL
p39
aV31(5)
p40
aV2721
p41
aV16
p42
aV2
aV1
aV-
aV1.9
p43
aV79.6
p44
aV1.1
p45
aV3
aV7.08
p46
aa(lp47
V2015/2016
p48
aVBournemouth
p49
aVEPL
p50
aV24(7)
p51
aV1927
p52
aV6
aV2
aV1
aV-
aV1.8
p53
aV76.9
p54
aV1
aV1
aV6.71
p55
aa(lp56
V2014/2015
p57
aVBlackburn
p58
aVEC
p59
aV5(11)
p60
aV630
p61
aV1
aV-
aV1
aV-
aV1.5
p62
aV74.2
p63
aV0.9
p64
aV-
aV6.39
p65
aa(lp66
V2013/2014
p67
aVBlackburn
p68
aVEC
p69
aV20(12)
p70
aV1909
p71
aV2
aV4
aV-
aV-
aV1.6
p72
aV75.1
p73
aV1.5
p74
aV1
aV7.00
p75
aa(lp76
V2013
p77
aVNorway U21
p78
aVIEU
p79
aV2
aV122
p80
aV-
aV-
aV-
aV-
aV-
aV52.6
p81
aV0.5
p82
aV-
aV6.22
p83
aa(lp84
V2012/2013
p85
aVManchester Un..
p86
aVUCL
p87
aV0(1)
p88
aV5
aV-
aV-
aV-
aV-
aV-
aV100
p89
aV-
aV-
aV5.85
p90
aa(lp91
V2011/2012
p92
aVBorussia M.Gl..
p93
aVGB
p94
aV0(2)
p95
aV24
p96
aV-
aV-
aV-
aV-
aV-
aV55.6
p97
aV-
aV-
aV6.14
p98
aa(lp99
VTotal / Average
p100
aV
aV
aV171
p101
aV11375
p102
aV38
p103
aV12
p104
aV7
aV0
aV1.7
p105
aV75.1
p106
aV1.5
p107
aV10
p108
aV6.84
p109
aasS'url'
p110
S'https://www.whoscored.com/Players/81026/History/'
p111
sS'passing_data'
p112
(lp113
(lp114
a(lp115
V2018/2019
p116
aVBournemouth
p117
aVEPL
p118
aV14
p119
aV1221
p120
aV5
aV1
aV1
aV-
aV1.9
p121
aV72.2
p122
aV2.8
p123
aV2
aV6.94
p124
aa(lp125
V2018/2019
p126
aVNorway
p127
aVUNL
p128
aV4
aV360
p129
aV-
aV-
aV-
aV-
aV2
aV70.1
p130
aV2.8
p131
aV-
aV6.43
p132
aa(lp133
V2017/2018
p134
aVBournemouth
p135
aVEPL
p136
aV27(6)
p137
aV2456
p138
aV8
aV3
aV3
aV-
aV1.5
p139
aV72.9
p140
aV2.1
p141
aV3
aV6.88
p142
aa(lp143
V2016/2017
p144
aVBournemouth
p145
aVEPL
p146
aV31(5)
p147
aV2721
p148
aV16
p149
aV2
aV1
aV-
aV1.9
p150
aV79.6
p151
aV1.1
p152
aV3
aV7.08
p153
aa(lp154
V2015/2016
p155
aVBournemouth
p156
aVEPL
p157
aV24(7)
p158
aV1927
p159
aV6
aV2
aV1
aV-
aV1.8
p160
aV76.9
p161
aV1
aV1
aV6.71
p162
aa(lp163
V2014/2015
p164
aVBlackburn
p165
aVEC
p166
aV5(11)
p167
aV630
p168
aV1
aV-
aV1
aV-
aV1.5
p169
aV74.2
p170
aV0.9
p171
aV-
aV6.39
p172
aa(lp173
V2013/2014
p174
aVBlackburn
p175
aVEC
p176
aV20(12)
p177
aV1909
p178
aV2
aV4
aV-
aV-
aV1.6
p179
aV75.1
p180
aV1.5
p181
aV1
aV7.00
p182
aa(lp183
V2013
p184
aVNorway U21
p185
aVIEU
p186
aV2
aV122
p187
aV-
aV-
aV-
aV-
aV-
aV52.6
p188
aV0.5
p189
aV-
aV6.22
p190
aa(lp191
V2012/2013
p192
aVManchester Un..
p193
aVUCL
p194
aV0(1)
p195
aV5
aV-
aV-
aV-
aV-
aV-
aV100
p196
aV-
aV-
aV5.85
p197
aa(lp198
V2011/2012
p199
aVBorussia M.Gl..
p200
aVGB
p201
aV0(2)
p202
aV24
p203
aV-
aV-
aV-
aV-
aV-
aV55.6
p204
aV-
aV-
aV6.14
p205
aa(lp206
VTotal / Average
p207
aV
aV
aV171
p208
aV11375
p209
aV38
p210
aV12
p211
aV7
aV0
aV1.7
p212
aV75.1
p213
aV1.5
p214
aV10
p215
aV6.84
p216
aasS'defensive_data'
p217
(lp218
(lp219
a(lp220
V2018/2019
p221
aVBournemouth
p222
aVEPL
p223
aV14
p224
aV1221
p225
aV5
aV1
aV1
aV-
aV1.9
p226
aV72.2
p227
aV2.8
p228
aV2
aV6.94
p229
aa(lp230
V2018/2019
p231
aVNorway
p232
aVUNL
p233
aV4
aV360
p234
aV-
aV-
aV-
aV-
aV2
aV70.1
p235
aV2.8
p236
aV-
aV6.43
p237
aa(lp238
V2017/2018
p239
aVBournemouth
p240
aVEPL
p241
aV27(6)
p242
aV2456
p243
aV8
aV3
aV3
aV-
aV1.5
p244
aV72.9
p245
aV2.1
p246
aV3
aV6.88
p247
aa(lp248
V2016/2017
p249
aVBournemouth
p250
aVEPL
p251
aV31(5)
p252
aV2721
p253
aV16
p254
aV2
aV1
aV-
aV1.9
p255
aV79.6
p256
aV1.1
p257
aV3
aV7.08
p258
aa(lp259
V2015/2016
p260
aVBournemouth
p261
aVEPL
p262
aV24(7)
p263
aV1927
p264
aV6
aV2
aV1
aV-
aV1.8
p265
aV76.9
p266
aV1
aV1
aV6.71
p267
aa(lp268
V2014/2015
p269
aVBlackburn
p270
aVEC
p271
aV5(11)
p272
aV630
p273
aV1
aV-
aV1
aV-
aV1.5
p274
aV74.2
p275
aV0.9
p276
aV-
aV6.39
p277
aa(lp278
V2013/2014
p279
aVBlackburn
p280
aVEC
p281
aV20(12)
p282
aV1909
p283
aV2
aV4
aV-
aV-
aV1.6
p284
aV75.1
p285
aV1.5
p286
aV1
aV7.00
p287
aa(lp288
V2013
p289
aVNorway U21
p290
aVIEU
p291
aV2
aV122
p292
aV-
aV-
aV-
aV-
aV-
aV52.6
p293
aV0.5
p294
aV-
aV6.22
p295
aa(lp296
V2012/2013
p297
aVManchester Un..
p298
aVUCL
p299
aV0(1)
p300
aV5
aV-
aV-
aV-
aV-
aV-
aV100
p301
aV-
aV-
aV5.85
p302
aa(lp303
V2011/2012
p304
aVBorussia M.Gl..
p305
aVGB
p306
aV0(2)
p307
aV24
p308
aV-
aV-
aV-
aV-
aV-
aV55.6
p309
aV-
aV-
aV6.14
p310
aa(lp311
VTotal / Average
p312
aV
aV
aV171
p313
aV11375
p314
aV38
p315
aV12
p316
aV7
aV0
aV1.7
p317
aV75.1
p318
aV1.5
p319
aV10
p320
aV6.84
p321
aasS'sumary_data'
p322
(lp323
(lp324
a(lp325
V2018/2019
p326
aVBournemouth
p327
aVEPL
p328
aV14
p329
aV1221
p330
aV5
aV1
aV1
aV-
aV1.9
p331
aV72.2
p332
aV2.8
p333
aV2
aV6.94
p334
aa(lp335
V2018/2019
p336
aVNorway
p337
aVUNL
p338
aV4
aV360
p339
aV-
aV-
aV-
aV-
aV2
aV70.1
p340
aV2.8
p341
aV-
aV6.43
p342
aa(lp343
V2017/2018
p344
aVBournemouth
p345
aVEPL
p346
aV27(6)
p347
aV2456
p348
aV8
aV3
aV3
aV-
aV1.5
p349
aV72.9
p350
aV2.1
p351
aV3
aV6.88
p352
aa(lp353
V2016/2017
p354
aVBournemouth
p355
aVEPL
p356
aV31(5)
p357
aV2721
p358
aV16
p359
aV2
aV1
aV-
aV1.9
p360
aV79.6
p361
aV1.1
p362
aV3
aV7.08
p363
aa(lp364
V2015/2016
p365
aVBournemouth
p366
aVEPL
p367
aV24(7)
p368
aV1927
p369
aV6
aV2
aV1
aV-
aV1.8
p370
aV76.9
p371
aV1
aV1
aV6.71
p372
aa(lp373
V2014/2015
p374
aVBlackburn
p375
aVEC
p376
aV5(11)
p377
aV630
p378
aV1
aV-
aV1
aV-
aV1.5
p379
aV74.2
p380
aV0.9
p381
aV-
aV6.39
p382
aa(lp383
V2013/2014
p384
aVBlackburn
p385
aVEC
p386
aV20(12)
p387
aV1909
p388
aV2
aV4
aV-
aV-
aV1.6
p389
aV75.1
p390
aV1.5
p391
aV1
aV7.00
p392
aa(lp393
V2013
p394
aVNorway U21
p395
aVIEU
p396
aV2
aV122
p397
aV-
aV-
aV-
aV-
aV-
aV52.6
p398
aV0.5
p399
aV-
aV6.22
p400
aa(lp401
V2012/2013
p402
aVManchester Un..
p403
aVUCL
p404
aV0(1)
p405
aV5
aV-
aV-
aV-
aV-
aV-
aV100
p406
aV-
aV-
aV5.85
p407
aa(lp408
V2011/2012
p409
aVBorussia M.Gl..
p410
aVGB
p411
aV0(2)
p412
aV24
p413
aV-
aV-
aV-
aV-
aV-
aV55.6
p414
aV-
aV-
aV6.14
p415
aa(lp416
VTotal / Average
p417
aV
aV
aV171
p418
aV11375
p419
aV38
p420
aV12
p421
aV7
aV0
aV1.7
p422
aV75.1
p423
aV1.5
p424
aV10
p425
aV6.84
p426
aasS'id'
p427
V81026
p428
sb.