(i__main__
Player
p1
(dp2
S'name'
p3
VMat Ryan 
p4
sS'offensive_data'
p5
(lp6
(lp7
a(lp8
V2018/2019
p9
aVBrighton
p10
aVEPL
p11
aV17
p12
aV1530
p13
aV-
aV-
aV-
aV-
aV-
aV46.5
p14
aV0.4
p15
aV-
aV6.61
p16
aa(lp17
V2017/2018
p18
aVBrighton
p19
aVEPL
p20
aV38
p21
aV3420
p22
aV-
aV-
aV-
aV-
aV-
aV48
p23
aV0.3
p24
aV1
aV6.74
p25
aa(lp26
V2016/2017
p27
aVValencia
p28
aVSLL
p29
aV2
aV180
p30
aV-
aV-
aV-
aV-
aV-
aV77
p31
aV-
aV-
aV6.39
p32
aa(lp33
V2016/2017
p34
aVGenk
p35
aVUEL
p36
aV6
aV540
p37
aV-
aV-
aV-
aV-
aV-
aV57.3
p38
aV0.8
p39
aV-
aV6.96
p40
aa(lp41
V2018
p42
aVAustralia
p43
aVWC
p44
aV3
aV270
p45
aV-
aV-
aV-
aV-
aV-
aV84.7
p46
aV0.3
p47
aV-
aV6.45
p48
aa(lp49
V2015/2016
p50
aVValencia
p51
aVSLL
p52
aV8
aV720
p53
aV-
aV-
aV-
aV-
aV-
aV57.9
p54
aV0.4
p55
aV-
aV6.71
p56
aa(lp57
V2015/2016
p58
aVValencia
p59
aVUEL
p60
aV4
aV360
p61
aV-
aV-
aV-
aV-
aV-
aV55
p62
aV0.5
p63
aV1
aV7.39
p64
aa(lp65
V2014/2015
p66
aVClub Bruges
p67
aVUEL
p68
aV12
p69
aV1080
p70
aV-
aV-
aV1
aV-
aV-
aV61.7
p71
aV0.1
p72
aV1
aV7.10
p73
aa(lp74
V2014
p75
aVAustralia
p76
aVWC
p77
aV3
aV270
p78
aV-
aV-
aV-
aV-
aV-
aV81.3
p79
aV-
aV-
aV5.96
p80
aa(lp81
VTotal / Average
p82
aV
aV
aV93
p83
aV8370
p84
aV0
aV0
aV1
aV0
aV0
aV54.1
p85
aV0.3
p86
aV3
aV6.76
p87
aasS'url'
p88
S'https://www.whoscored.com/Players/81523/History/'
p89
sS'passing_data'
p90
(lp91
(lp92
a(lp93
V2018/2019
p94
aVBrighton
p95
aVEPL
p96
aV17
p97
aV1530
p98
aV-
aV-
aV-
aV-
aV-
aV46.5
p99
aV0.4
p100
aV-
aV6.61
p101
aa(lp102
V2017/2018
p103
aVBrighton
p104
aVEPL
p105
aV38
p106
aV3420
p107
aV-
aV-
aV-
aV-
aV-
aV48
p108
aV0.3
p109
aV1
aV6.74
p110
aa(lp111
V2016/2017
p112
aVValencia
p113
aVSLL
p114
aV2
aV180
p115
aV-
aV-
aV-
aV-
aV-
aV77
p116
aV-
aV-
aV6.39
p117
aa(lp118
V2016/2017
p119
aVGenk
p120
aVUEL
p121
aV6
aV540
p122
aV-
aV-
aV-
aV-
aV-
aV57.3
p123
aV0.8
p124
aV-
aV6.96
p125
aa(lp126
V2018
p127
aVAustralia
p128
aVWC
p129
aV3
aV270
p130
aV-
aV-
aV-
aV-
aV-
aV84.7
p131
aV0.3
p132
aV-
aV6.45
p133
aa(lp134
V2015/2016
p135
aVValencia
p136
aVSLL
p137
aV8
aV720
p138
aV-
aV-
aV-
aV-
aV-
aV57.9
p139
aV0.4
p140
aV-
aV6.71
p141
aa(lp142
V2015/2016
p143
aVValencia
p144
aVUEL
p145
aV4
aV360
p146
aV-
aV-
aV-
aV-
aV-
aV55
p147
aV0.5
p148
aV1
aV7.39
p149
aa(lp150
V2014/2015
p151
aVClub Bruges
p152
aVUEL
p153
aV12
p154
aV1080
p155
aV-
aV-
aV1
aV-
aV-
aV61.7
p156
aV0.1
p157
aV1
aV7.10
p158
aa(lp159
V2014
p160
aVAustralia
p161
aVWC
p162
aV3
aV270
p163
aV-
aV-
aV-
aV-
aV-
aV81.3
p164
aV-
aV-
aV5.96
p165
aa(lp166
VTotal / Average
p167
aV
aV
aV93
p168
aV8370
p169
aV0
aV0
aV1
aV0
aV0
aV54.1
p170
aV0.3
p171
aV3
aV6.76
p172
aasS'defensive_data'
p173
(lp174
(lp175
a(lp176
V2018/2019
p177
aVBrighton
p178
aVEPL
p179
aV17
p180
aV1530
p181
aV-
aV-
aV-
aV-
aV-
aV46.5
p182
aV0.4
p183
aV-
aV6.61
p184
aa(lp185
V2017/2018
p186
aVBrighton
p187
aVEPL
p188
aV38
p189
aV3420
p190
aV-
aV-
aV-
aV-
aV-
aV48
p191
aV0.3
p192
aV1
aV6.74
p193
aa(lp194
V2016/2017
p195
aVValencia
p196
aVSLL
p197
aV2
aV180
p198
aV-
aV-
aV-
aV-
aV-
aV77
p199
aV-
aV-
aV6.39
p200
aa(lp201
V2016/2017
p202
aVGenk
p203
aVUEL
p204
aV6
aV540
p205
aV-
aV-
aV-
aV-
aV-
aV57.3
p206
aV0.8
p207
aV-
aV6.96
p208
aa(lp209
V2018
p210
aVAustralia
p211
aVWC
p212
aV3
aV270
p213
aV-
aV-
aV-
aV-
aV-
aV84.7
p214
aV0.3
p215
aV-
aV6.45
p216
aa(lp217
V2015/2016
p218
aVValencia
p219
aVSLL
p220
aV8
aV720
p221
aV-
aV-
aV-
aV-
aV-
aV57.9
p222
aV0.4
p223
aV-
aV6.71
p224
aa(lp225
V2015/2016
p226
aVValencia
p227
aVUEL
p228
aV4
aV360
p229
aV-
aV-
aV-
aV-
aV-
aV55
p230
aV0.5
p231
aV1
aV7.39
p232
aa(lp233
V2014/2015
p234
aVClub Bruges
p235
aVUEL
p236
aV12
p237
aV1080
p238
aV-
aV-
aV1
aV-
aV-
aV61.7
p239
aV0.1
p240
aV1
aV7.10
p241
aa(lp242
V2014
p243
aVAustralia
p244
aVWC
p245
aV3
aV270
p246
aV-
aV-
aV-
aV-
aV-
aV81.3
p247
aV-
aV-
aV5.96
p248
aa(lp249
VTotal / Average
p250
aV
aV
aV93
p251
aV8370
p252
aV0
aV0
aV1
aV0
aV0
aV54.1
p253
aV0.3
p254
aV3
aV6.76
p255
aasS'sumary_data'
p256
(lp257
(lp258
a(lp259
V2018/2019
p260
aVBrighton
p261
aVEPL
p262
aV17
p263
aV1530
p264
aV-
aV-
aV-
aV-
aV-
aV46.5
p265
aV0.4
p266
aV-
aV6.61
p267
aa(lp268
V2017/2018
p269
aVBrighton
p270
aVEPL
p271
aV38
p272
aV3420
p273
aV-
aV-
aV-
aV-
aV-
aV48
p274
aV0.3
p275
aV1
aV6.74
p276
aa(lp277
V2016/2017
p278
aVValencia
p279
aVSLL
p280
aV2
aV180
p281
aV-
aV-
aV-
aV-
aV-
aV77
p282
aV-
aV-
aV6.39
p283
aa(lp284
V2016/2017
p285
aVGenk
p286
aVUEL
p287
aV6
aV540
p288
aV-
aV-
aV-
aV-
aV-
aV57.3
p289
aV0.8
p290
aV-
aV6.96
p291
aa(lp292
V2018
p293
aVAustralia
p294
aVWC
p295
aV3
aV270
p296
aV-
aV-
aV-
aV-
aV-
aV84.7
p297
aV0.3
p298
aV-
aV6.45
p299
aa(lp300
V2015/2016
p301
aVValencia
p302
aVSLL
p303
aV8
aV720
p304
aV-
aV-
aV-
aV-
aV-
aV57.9
p305
aV0.4
p306
aV-
aV6.71
p307
aa(lp308
V2015/2016
p309
aVValencia
p310
aVUEL
p311
aV4
aV360
p312
aV-
aV-
aV-
aV-
aV-
aV55
p313
aV0.5
p314
aV1
aV7.39
p315
aa(lp316
V2014/2015
p317
aVClub Bruges
p318
aVUEL
p319
aV12
p320
aV1080
p321
aV-
aV-
aV1
aV-
aV-
aV61.7
p322
aV0.1
p323
aV1
aV7.10
p324
aa(lp325
V2014
p326
aVAustralia
p327
aVWC
p328
aV3
aV270
p329
aV-
aV-
aV-
aV-
aV-
aV81.3
p330
aV-
aV-
aV5.96
p331
aa(lp332
VTotal / Average
p333
aV
aV
aV93
p334
aV8370
p335
aV0
aV0
aV1
aV0
aV0
aV54.1
p336
aV0.3
p337
aV3
aV6.76
p338
aasS'id'
p339
V81523
p340
sb.