(i__main__
Player
p1
(dp2
S'name'
p3
VWes Morgan 
p4
sS'offensive_data'
p5
(lp6
(lp7
a(lp8
V2018/2019
p9
aVLeicester
p10
aVEPL
p11
aV13
p12
aV1122
p13
aV-
aV-
aV1
aV2
aV0.4
p14
aV79.1
p15
aV3.8
p16
aV-
aV6.62
p17
aa(lp18
V2017/2018
p19
aVLeicester
p20
aVEPL
p21
aV32
p22
aV2818
p23
aV-
aV-
aV4
aV-
aV0.4
p24
aV81.1
p25
aV2.9
p26
aV-
aV6.61
p27
aa(lp28
V2016/2017
p29
aVLeicester
p30
aVUCL
p31
aV9
aV804
p32
aV1
aV-
aV1
aV-
aV0.3
p33
aV78.2
p34
aV2.4
p35
aV-
aV6.79
p36
aa(lp37
V2016/2017
p38
aVLeicester
p39
aVEPL
p40
aV27
p41
aV2430
p42
aV1
aV-
aV3
aV-
aV0.5
p43
aV67.7
p44
aV2.4
p45
aV-
aV6.66
p46
aa(lp47
V2015/2016
p48
aVLeicester
p49
aVEPL
p50
aV38
p51
aV3420
p52
aV2
aV-
aV3
aV-
aV0.6
p53
aV74.4
p54
aV2.4
p55
aV1
aV7.07
p56
aa(lp57
V2015
p58
aVJamaica
p59
aVICA
p60
aV3
aV270
p61
aV-
aV-
aV1
aV-
aV1
aV76.5
p62
aV3.3
p63
aV-
aV6.66
p64
aa(lp65
V2014/2015
p66
aVLeicester
p67
aVEPL
p68
aV37
p69
aV3288
p70
aV2
aV2
aV1
aV1
aV0.7
p71
aV76.6
p72
aV3.8
p73
aV1
aV7.20
p74
aa(lp75
V2013/2014
p76
aVLeicester
p77
aVEC
p78
aV45
p79
aV4050
p80
aV2
aV-
aV3
aV-
aV0.9
p81
aV80.2
p82
aV4
aV3
aV7.42
p83
aa(lp84
VTotal / Average
p85
aV
aV
aV204
p86
aV18202
p87
aV8
aV2
aV17
p88
aV3
aV0.6
p89
aV76.7
p90
aV3.2
p91
aV5
aV7.00
p92
aasS'url'
p93
S'https://www.whoscored.com/Players/8157/History/'
p94
sS'passing_data'
p95
(lp96
(lp97
a(lp98
V2018/2019
p99
aVLeicester
p100
aVEPL
p101
aV13
p102
aV1122
p103
aV-
aV-
aV1
aV2
aV0.4
p104
aV79.1
p105
aV3.8
p106
aV-
aV6.62
p107
aa(lp108
V2017/2018
p109
aVLeicester
p110
aVEPL
p111
aV32
p112
aV2818
p113
aV-
aV-
aV4
aV-
aV0.4
p114
aV81.1
p115
aV2.9
p116
aV-
aV6.61
p117
aa(lp118
V2016/2017
p119
aVLeicester
p120
aVUCL
p121
aV9
aV804
p122
aV1
aV-
aV1
aV-
aV0.3
p123
aV78.2
p124
aV2.4
p125
aV-
aV6.79
p126
aa(lp127
V2016/2017
p128
aVLeicester
p129
aVEPL
p130
aV27
p131
aV2430
p132
aV1
aV-
aV3
aV-
aV0.5
p133
aV67.7
p134
aV2.4
p135
aV-
aV6.66
p136
aa(lp137
V2015/2016
p138
aVLeicester
p139
aVEPL
p140
aV38
p141
aV3420
p142
aV2
aV-
aV3
aV-
aV0.6
p143
aV74.4
p144
aV2.4
p145
aV1
aV7.07
p146
aa(lp147
V2015
p148
aVJamaica
p149
aVICA
p150
aV3
aV270
p151
aV-
aV-
aV1
aV-
aV1
aV76.5
p152
aV3.3
p153
aV-
aV6.66
p154
aa(lp155
V2014/2015
p156
aVLeicester
p157
aVEPL
p158
aV37
p159
aV3288
p160
aV2
aV2
aV1
aV1
aV0.7
p161
aV76.6
p162
aV3.8
p163
aV1
aV7.20
p164
aa(lp165
V2013/2014
p166
aVLeicester
p167
aVEC
p168
aV45
p169
aV4050
p170
aV2
aV-
aV3
aV-
aV0.9
p171
aV80.2
p172
aV4
aV3
aV7.42
p173
aa(lp174
VTotal / Average
p175
aV
aV
aV204
p176
aV18202
p177
aV8
aV2
aV17
p178
aV3
aV0.6
p179
aV76.7
p180
aV3.2
p181
aV5
aV7.00
p182
aasS'defensive_data'
p183
(lp184
(lp185
a(lp186
V2018/2019
p187
aVLeicester
p188
aVEPL
p189
aV13
p190
aV1122
p191
aV-
aV-
aV1
aV2
aV0.4
p192
aV79.1
p193
aV3.8
p194
aV-
aV6.62
p195
aa(lp196
V2017/2018
p197
aVLeicester
p198
aVEPL
p199
aV32
p200
aV2818
p201
aV-
aV-
aV4
aV-
aV0.4
p202
aV81.1
p203
aV2.9
p204
aV-
aV6.61
p205
aa(lp206
V2016/2017
p207
aVLeicester
p208
aVUCL
p209
aV9
aV804
p210
aV1
aV-
aV1
aV-
aV0.3
p211
aV78.2
p212
aV2.4
p213
aV-
aV6.79
p214
aa(lp215
V2016/2017
p216
aVLeicester
p217
aVEPL
p218
aV27
p219
aV2430
p220
aV1
aV-
aV3
aV-
aV0.5
p221
aV67.7
p222
aV2.4
p223
aV-
aV6.66
p224
aa(lp225
V2015/2016
p226
aVLeicester
p227
aVEPL
p228
aV38
p229
aV3420
p230
aV2
aV-
aV3
aV-
aV0.6
p231
aV74.4
p232
aV2.4
p233
aV1
aV7.07
p234
aa(lp235
V2015
p236
aVJamaica
p237
aVICA
p238
aV3
aV270
p239
aV-
aV-
aV1
aV-
aV1
aV76.5
p240
aV3.3
p241
aV-
aV6.66
p242
aa(lp243
V2014/2015
p244
aVLeicester
p245
aVEPL
p246
aV37
p247
aV3288
p248
aV2
aV2
aV1
aV1
aV0.7
p249
aV76.6
p250
aV3.8
p251
aV1
aV7.20
p252
aa(lp253
V2013/2014
p254
aVLeicester
p255
aVEC
p256
aV45
p257
aV4050
p258
aV2
aV-
aV3
aV-
aV0.9
p259
aV80.2
p260
aV4
aV3
aV7.42
p261
aa(lp262
VTotal / Average
p263
aV
aV
aV204
p264
aV18202
p265
aV8
aV2
aV17
p266
aV3
aV0.6
p267
aV76.7
p268
aV3.2
p269
aV5
aV7.00
p270
aasS'sumary_data'
p271
(lp272
(lp273
a(lp274
V2018/2019
p275
aVLeicester
p276
aVEPL
p277
aV13
p278
aV1122
p279
aV-
aV-
aV1
aV2
aV0.4
p280
aV79.1
p281
aV3.8
p282
aV-
aV6.62
p283
aa(lp284
V2017/2018
p285
aVLeicester
p286
aVEPL
p287
aV32
p288
aV2818
p289
aV-
aV-
aV4
aV-
aV0.4
p290
aV81.1
p291
aV2.9
p292
aV-
aV6.61
p293
aa(lp294
V2016/2017
p295
aVLeicester
p296
aVUCL
p297
aV9
aV804
p298
aV1
aV-
aV1
aV-
aV0.3
p299
aV78.2
p300
aV2.4
p301
aV-
aV6.79
p302
aa(lp303
V2016/2017
p304
aVLeicester
p305
aVEPL
p306
aV27
p307
aV2430
p308
aV1
aV-
aV3
aV-
aV0.5
p309
aV67.7
p310
aV2.4
p311
aV-
aV6.66
p312
aa(lp313
V2015/2016
p314
aVLeicester
p315
aVEPL
p316
aV38
p317
aV3420
p318
aV2
aV-
aV3
aV-
aV0.6
p319
aV74.4
p320
aV2.4
p321
aV1
aV7.07
p322
aa(lp323
V2015
p324
aVJamaica
p325
aVICA
p326
aV3
aV270
p327
aV-
aV-
aV1
aV-
aV1
aV76.5
p328
aV3.3
p329
aV-
aV6.66
p330
aa(lp331
V2014/2015
p332
aVLeicester
p333
aVEPL
p334
aV37
p335
aV3288
p336
aV2
aV2
aV1
aV1
aV0.7
p337
aV76.6
p338
aV3.8
p339
aV1
aV7.20
p340
aa(lp341
V2013/2014
p342
aVLeicester
p343
aVEC
p344
aV45
p345
aV4050
p346
aV2
aV-
aV3
aV-
aV0.9
p347
aV80.2
p348
aV4
aV3
aV7.42
p349
aa(lp350
VTotal / Average
p351
aV
aV
aV204
p352
aV18202
p353
aV8
aV2
aV17
p354
aV3
aV0.6
p355
aV76.7
p356
aV3.2
p357
aV5
aV7.00
p358
aasS'id'
p359
V8157
p360
sb.