(i__main__
Player
p1
(dp2
S'name'
p3
VAshley Young 
p4
sS'offensive_data'
p5
(lp6
(lp7
a(lp8
V2018/2019
p9
aVManchester Un..
p10
aVEPL
p11
aV12
p12
aV1080
p13
aV1
aV2
aV5
aV-
aV0.6
p14
aV77
p15
aV0.5
p16
aV-
aV6.96
p17
aa(lp18
V2018/2019
p19
aVManchester Un..
p20
aVUCL
p21
aV2(1)
p22
aV225
p23
aV-
aV1
aV1
aV-
aV-
aV82.6
p24
aV0.7
p25
aV-
aV6.62
p26
aa(lp27
V2017/2018
p28
aVManchester Un..
p29
aVUCL
p30
aV4
aV337
p31
aV-
aV1
aV1
aV-
aV0.5
p32
aV83.9
p33
aV0.5
p34
aV-
aV7.27
p35
aa(lp36
V2017/2018
p37
aVManchester Un..
p38
aVEPL
p39
aV28(2)
p40
aV2448
p41
aV2
aV4
aV7
aV-
aV0.6
p42
aV79.5
p43
aV0.6
p44
aV4
aV7.12
p45
aa(lp46
V2016/2017
p47
aVManchester Un..
p48
aVEPL
p49
aV8(4)
p50
aV758
p51
aV-
aV1
aV2
aV-
aV0.4
p52
aV83.2
p53
aV0.3
p54
aV-
aV6.83
p55
aa(lp56
V2016/2017
p57
aVManchester Un..
p58
aVUEL
p59
aV3(4)
p60
aV329
p61
aV-
aV-
aV-
aV-
aV0.3
p62
aV72.7
p63
aV0.4
p64
aV-
aV6.64
p65
aa(lp66
V2018
p67
aVEngland
p68
aVWC
p69
aV5
aV463
p70
aV-
aV1
aV-
aV-
aV0.4
p71
aV83.3
p72
aV0.2
p73
aV-
aV6.80
p74
aa(lp75
V2015/2016
p76
aVManchester Un..
p77
aVUCL
p78
aV2(2)
p79
aV252
p80
aV-
aV-
aV1
aV-
aV0.8
p81
aV76.3
p82
aV0.8
p83
aV-
aV6.67
p84
aa(lp85
V2015/2016
p86
aVManchester Un..
p87
aVEPL
p88
aV11(7)
p89
aV1063
p90
aV1
aV2
aV5
aV-
aV0.4
p91
aV77.7
p92
aV0.7
p93
aV-
aV6.60
p94
aa(lp95
V2014/2015
p96
aVManchester Un..
p97
aVEPL
p98
aV23(3)
p99
aV2068
p100
aV2
aV5
aV5
aV-
aV1.1
p101
aV80.9
p102
aV0.7
p103
aV4
aV7.23
p104
aa(lp105
V2013/2014
p106
aVManchester Un..
p107
aVUCL
p108
aV2(6)
p109
aV248
p110
aV-
aV-
aV-
aV-
aV0.8
p111
aV80.7
p112
aV0.5
p113
aV-
aV6.42
p114
aa(lp115
V2013/2014
p116
aVManchester Un..
p117
aVEPL
p118
aV13(7)
p119
aV1030
p120
aV2
aV1
aV4
aV-
aV0.9
p121
aV79.2
p122
aV0.6
p123
aV-
aV6.55
p124
aa(lp125
V2012/2013
p126
aVManchester Un..
p127
aVUCL
p128
aV0(2)
p129
aV25
p130
aV-
aV-
aV-
aV-
aV-
aV100
p131
aV-
aV-
aV6.06
p132
aa(lp133
V2012/2013
p134
aVManchester Un..
p135
aVEPL
p136
aV17(2)
p137
aV1375
p138
aV-
aV3
aV1
aV-
aV1.4
p139
aV83.5
p140
aV0.6
p141
aV-
aV6.99
p142
aa(lp143
V2012
p144
aVEngland
p145
aVUEC
p146
aV4
aV391
p147
aV-
aV-
aV1
aV-
aV1
aV74.5
p148
aV0.8
p149
aV-
aV6.72
p150
aa(lp151
V2011/2012
p152
aVManchester Un..
p153
aVUCL
p154
aV3
aV245
p155
aV1
aV-
aV1
aV-
aV2.7
p156
aV88
p157
aV-
aV1
aV7.22
p158
aa(lp159
V2011/2012
p160
aVManchester Un..
p161
aVEPL
p162
aV19(6)
p163
aV1573
p164
aV6
aV7
aV3
aV-
aV2.2
p165
aV83.8
p166
aV0.2
p167
aV2
aV7.24
p168
aa(lp169
V2010/2011
p170
aVAston Villa
p171
aVEPL
p172
aV34
p173
aV3054
p174
aV7
aV10
p175
aV8
aV-
aV2.4
p176
aV71.6
p177
aV0.1
p178
aV4
aV7.11
p179
aa(lp180
V2009/2010
p181
aVAston Villa
p182
aVEPL
p183
aV37
p184
aV3304
p185
aV5
aV7
aV6
aV-
aV1.7
p186
aV69
p187
aV0.2
p188
aV-
aV7.08
p189
aa(lp190
VTotal / Average
p191
aV
aV
aV273
p192
aV20268
p193
aV27
p194
aV45
p195
aV51
p196
aV0
aV1.2
p197
aV78
p198
aV0.4
p199
aV15
p200
aV6.97
p201
aasS'url'
p202
S'https://www.whoscored.com/Players/8166/History/'
p203
sS'passing_data'
p204
(lp205
(lp206
a(lp207
V2018/2019
p208
aVManchester Un..
p209
aVEPL
p210
aV12
p211
aV1080
p212
aV1
aV2
aV5
aV-
aV0.6
p213
aV77
p214
aV0.5
p215
aV-
aV6.96
p216
aa(lp217
V2018/2019
p218
aVManchester Un..
p219
aVUCL
p220
aV2(1)
p221
aV225
p222
aV-
aV1
aV1
aV-
aV-
aV82.6
p223
aV0.7
p224
aV-
aV6.62
p225
aa(lp226
V2017/2018
p227
aVManchester Un..
p228
aVUCL
p229
aV4
aV337
p230
aV-
aV1
aV1
aV-
aV0.5
p231
aV83.9
p232
aV0.5
p233
aV-
aV7.27
p234
aa(lp235
V2017/2018
p236
aVManchester Un..
p237
aVEPL
p238
aV28(2)
p239
aV2448
p240
aV2
aV4
aV7
aV-
aV0.6
p241
aV79.5
p242
aV0.6
p243
aV4
aV7.12
p244
aa(lp245
V2016/2017
p246
aVManchester Un..
p247
aVEPL
p248
aV8(4)
p249
aV758
p250
aV-
aV1
aV2
aV-
aV0.4
p251
aV83.2
p252
aV0.3
p253
aV-
aV6.83
p254
aa(lp255
V2016/2017
p256
aVManchester Un..
p257
aVUEL
p258
aV3(4)
p259
aV329
p260
aV-
aV-
aV-
aV-
aV0.3
p261
aV72.7
p262
aV0.4
p263
aV-
aV6.64
p264
aa(lp265
V2018
p266
aVEngland
p267
aVWC
p268
aV5
aV463
p269
aV-
aV1
aV-
aV-
aV0.4
p270
aV83.3
p271
aV0.2
p272
aV-
aV6.80
p273
aa(lp274
V2015/2016
p275
aVManchester Un..
p276
aVUCL
p277
aV2(2)
p278
aV252
p279
aV-
aV-
aV1
aV-
aV0.8
p280
aV76.3
p281
aV0.8
p282
aV-
aV6.67
p283
aa(lp284
V2015/2016
p285
aVManchester Un..
p286
aVEPL
p287
aV11(7)
p288
aV1063
p289
aV1
aV2
aV5
aV-
aV0.4
p290
aV77.7
p291
aV0.7
p292
aV-
aV6.60
p293
aa(lp294
V2014/2015
p295
aVManchester Un..
p296
aVEPL
p297
aV23(3)
p298
aV2068
p299
aV2
aV5
aV5
aV-
aV1.1
p300
aV80.9
p301
aV0.7
p302
aV4
aV7.23
p303
aa(lp304
V2013/2014
p305
aVManchester Un..
p306
aVUCL
p307
aV2(6)
p308
aV248
p309
aV-
aV-
aV-
aV-
aV0.8
p310
aV80.7
p311
aV0.5
p312
aV-
aV6.42
p313
aa(lp314
V2013/2014
p315
aVManchester Un..
p316
aVEPL
p317
aV13(7)
p318
aV1030
p319
aV2
aV1
aV4
aV-
aV0.9
p320
aV79.2
p321
aV0.6
p322
aV-
aV6.55
p323
aa(lp324
V2012/2013
p325
aVManchester Un..
p326
aVUCL
p327
aV0(2)
p328
aV25
p329
aV-
aV-
aV-
aV-
aV-
aV100
p330
aV-
aV-
aV6.06
p331
aa(lp332
V2012/2013
p333
aVManchester Un..
p334
aVEPL
p335
aV17(2)
p336
aV1375
p337
aV-
aV3
aV1
aV-
aV1.4
p338
aV83.5
p339
aV0.6
p340
aV-
aV6.99
p341
aa(lp342
V2012
p343
aVEngland
p344
aVUEC
p345
aV4
aV391
p346
aV-
aV-
aV1
aV-
aV1
aV74.5
p347
aV0.8
p348
aV-
aV6.72
p349
aa(lp350
V2011/2012
p351
aVManchester Un..
p352
aVUCL
p353
aV3
aV245
p354
aV1
aV-
aV1
aV-
aV2.7
p355
aV88
p356
aV-
aV1
aV7.22
p357
aa(lp358
V2011/2012
p359
aVManchester Un..
p360
aVEPL
p361
aV19(6)
p362
aV1573
p363
aV6
aV7
aV3
aV-
aV2.2
p364
aV83.8
p365
aV0.2
p366
aV2
aV7.24
p367
aa(lp368
V2010/2011
p369
aVAston Villa
p370
aVEPL
p371
aV34
p372
aV3054
p373
aV7
aV10
p374
aV8
aV-
aV2.4
p375
aV71.6
p376
aV0.1
p377
aV4
aV7.11
p378
aa(lp379
V2009/2010
p380
aVAston Villa
p381
aVEPL
p382
aV37
p383
aV3304
p384
aV5
aV7
aV6
aV-
aV1.7
p385
aV69
p386
aV0.2
p387
aV-
aV7.08
p388
aa(lp389
VTotal / Average
p390
aV
aV
aV273
p391
aV20268
p392
aV27
p393
aV45
p394
aV51
p395
aV0
aV1.2
p396
aV78
p397
aV0.4
p398
aV15
p399
aV6.97
p400
aasS'defensive_data'
p401
(lp402
(lp403
a(lp404
V2018/2019
p405
aVManchester Un..
p406
aVEPL
p407
aV12
p408
aV1080
p409
aV1
aV2
aV5
aV-
aV0.6
p410
aV77
p411
aV0.5
p412
aV-
aV6.96
p413
aa(lp414
V2018/2019
p415
aVManchester Un..
p416
aVUCL
p417
aV2(1)
p418
aV225
p419
aV-
aV1
aV1
aV-
aV-
aV82.6
p420
aV0.7
p421
aV-
aV6.62
p422
aa(lp423
V2017/2018
p424
aVManchester Un..
p425
aVUCL
p426
aV4
aV337
p427
aV-
aV1
aV1
aV-
aV0.5
p428
aV83.9
p429
aV0.5
p430
aV-
aV7.27
p431
aa(lp432
V2017/2018
p433
aVManchester Un..
p434
aVEPL
p435
aV28(2)
p436
aV2448
p437
aV2
aV4
aV7
aV-
aV0.6
p438
aV79.5
p439
aV0.6
p440
aV4
aV7.12
p441
aa(lp442
V2016/2017
p443
aVManchester Un..
p444
aVEPL
p445
aV8(4)
p446
aV758
p447
aV-
aV1
aV2
aV-
aV0.4
p448
aV83.2
p449
aV0.3
p450
aV-
aV6.83
p451
aa(lp452
V2016/2017
p453
aVManchester Un..
p454
aVUEL
p455
aV3(4)
p456
aV329
p457
aV-
aV-
aV-
aV-
aV0.3
p458
aV72.7
p459
aV0.4
p460
aV-
aV6.64
p461
aa(lp462
V2018
p463
aVEngland
p464
aVWC
p465
aV5
aV463
p466
aV-
aV1
aV-
aV-
aV0.4
p467
aV83.3
p468
aV0.2
p469
aV-
aV6.80
p470
aa(lp471
V2015/2016
p472
aVManchester Un..
p473
aVUCL
p474
aV2(2)
p475
aV252
p476
aV-
aV-
aV1
aV-
aV0.8
p477
aV76.3
p478
aV0.8
p479
aV-
aV6.67
p480
aa(lp481
V2015/2016
p482
aVManchester Un..
p483
aVEPL
p484
aV11(7)
p485
aV1063
p486
aV1
aV2
aV5
aV-
aV0.4
p487
aV77.7
p488
aV0.7
p489
aV-
aV6.60
p490
aa(lp491
V2014/2015
p492
aVManchester Un..
p493
aVEPL
p494
aV23(3)
p495
aV2068
p496
aV2
aV5
aV5
aV-
aV1.1
p497
aV80.9
p498
aV0.7
p499
aV4
aV7.23
p500
aa(lp501
V2013/2014
p502
aVManchester Un..
p503
aVUCL
p504
aV2(6)
p505
aV248
p506
aV-
aV-
aV-
aV-
aV0.8
p507
aV80.7
p508
aV0.5
p509
aV-
aV6.42
p510
aa(lp511
V2013/2014
p512
aVManchester Un..
p513
aVEPL
p514
aV13(7)
p515
aV1030
p516
aV2
aV1
aV4
aV-
aV0.9
p517
aV79.2
p518
aV0.6
p519
aV-
aV6.55
p520
aa(lp521
V2012/2013
p522
aVManchester Un..
p523
aVUCL
p524
aV0(2)
p525
aV25
p526
aV-
aV-
aV-
aV-
aV-
aV100
p527
aV-
aV-
aV6.06
p528
aa(lp529
V2012/2013
p530
aVManchester Un..
p531
aVEPL
p532
aV17(2)
p533
aV1375
p534
aV-
aV3
aV1
aV-
aV1.4
p535
aV83.5
p536
aV0.6
p537
aV-
aV6.99
p538
aa(lp539
V2012
p540
aVEngland
p541
aVUEC
p542
aV4
aV391
p543
aV-
aV-
aV1
aV-
aV1
aV74.5
p544
aV0.8
p545
aV-
aV6.72
p546
aa(lp547
V2011/2012
p548
aVManchester Un..
p549
aVUCL
p550
aV3
aV245
p551
aV1
aV-
aV1
aV-
aV2.7
p552
aV88
p553
aV-
aV1
aV7.22
p554
aa(lp555
V2011/2012
p556
aVManchester Un..
p557
aVEPL
p558
aV19(6)
p559
aV1573
p560
aV6
aV7
aV3
aV-
aV2.2
p561
aV83.8
p562
aV0.2
p563
aV2
aV7.24
p564
aa(lp565
V2010/2011
p566
aVAston Villa
p567
aVEPL
p568
aV34
p569
aV3054
p570
aV7
aV10
p571
aV8
aV-
aV2.4
p572
aV71.6
p573
aV0.1
p574
aV4
aV7.11
p575
aa(lp576
V2009/2010
p577
aVAston Villa
p578
aVEPL
p579
aV37
p580
aV3304
p581
aV5
aV7
aV6
aV-
aV1.7
p582
aV69
p583
aV0.2
p584
aV-
aV7.08
p585
aa(lp586
VTotal / Average
p587
aV
aV
aV273
p588
aV20268
p589
aV27
p590
aV45
p591
aV51
p592
aV0
aV1.2
p593
aV78
p594
aV0.4
p595
aV15
p596
aV6.97
p597
aasS'sumary_data'
p598
(lp599
(lp600
a(lp601
V2018/2019
p602
aVManchester Un..
p603
aVEPL
p604
aV12
p605
aV1080
p606
aV1
aV2
aV5
aV-
aV0.6
p607
aV77
p608
aV0.5
p609
aV-
aV6.96
p610
aa(lp611
V2018/2019
p612
aVManchester Un..
p613
aVUCL
p614
aV2(1)
p615
aV225
p616
aV-
aV1
aV1
aV-
aV-
aV82.6
p617
aV0.7
p618
aV-
aV6.62
p619
aa(lp620
V2017/2018
p621
aVManchester Un..
p622
aVUCL
p623
aV4
aV337
p624
aV-
aV1
aV1
aV-
aV0.5
p625
aV83.9
p626
aV0.5
p627
aV-
aV7.27
p628
aa(lp629
V2017/2018
p630
aVManchester Un..
p631
aVEPL
p632
aV28(2)
p633
aV2448
p634
aV2
aV4
aV7
aV-
aV0.6
p635
aV79.5
p636
aV0.6
p637
aV4
aV7.12
p638
aa(lp639
V2016/2017
p640
aVManchester Un..
p641
aVEPL
p642
aV8(4)
p643
aV758
p644
aV-
aV1
aV2
aV-
aV0.4
p645
aV83.2
p646
aV0.3
p647
aV-
aV6.83
p648
aa(lp649
V2016/2017
p650
aVManchester Un..
p651
aVUEL
p652
aV3(4)
p653
aV329
p654
aV-
aV-
aV-
aV-
aV0.3
p655
aV72.7
p656
aV0.4
p657
aV-
aV6.64
p658
aa(lp659
V2018
p660
aVEngland
p661
aVWC
p662
aV5
aV463
p663
aV-
aV1
aV-
aV-
aV0.4
p664
aV83.3
p665
aV0.2
p666
aV-
aV6.80
p667
aa(lp668
V2015/2016
p669
aVManchester Un..
p670
aVUCL
p671
aV2(2)
p672
aV252
p673
aV-
aV-
aV1
aV-
aV0.8
p674
aV76.3
p675
aV0.8
p676
aV-
aV6.67
p677
aa(lp678
V2015/2016
p679
aVManchester Un..
p680
aVEPL
p681
aV11(7)
p682
aV1063
p683
aV1
aV2
aV5
aV-
aV0.4
p684
aV77.7
p685
aV0.7
p686
aV-
aV6.60
p687
aa(lp688
V2014/2015
p689
aVManchester Un..
p690
aVEPL
p691
aV23(3)
p692
aV2068
p693
aV2
aV5
aV5
aV-
aV1.1
p694
aV80.9
p695
aV0.7
p696
aV4
aV7.23
p697
aa(lp698
V2013/2014
p699
aVManchester Un..
p700
aVUCL
p701
aV2(6)
p702
aV248
p703
aV-
aV-
aV-
aV-
aV0.8
p704
aV80.7
p705
aV0.5
p706
aV-
aV6.42
p707
aa(lp708
V2013/2014
p709
aVManchester Un..
p710
aVEPL
p711
aV13(7)
p712
aV1030
p713
aV2
aV1
aV4
aV-
aV0.9
p714
aV79.2
p715
aV0.6
p716
aV-
aV6.55
p717
aa(lp718
V2012/2013
p719
aVManchester Un..
p720
aVUCL
p721
aV0(2)
p722
aV25
p723
aV-
aV-
aV-
aV-
aV-
aV100
p724
aV-
aV-
aV6.06
p725
aa(lp726
V2012/2013
p727
aVManchester Un..
p728
aVEPL
p729
aV17(2)
p730
aV1375
p731
aV-
aV3
aV1
aV-
aV1.4
p732
aV83.5
p733
aV0.6
p734
aV-
aV6.99
p735
aa(lp736
V2012
p737
aVEngland
p738
aVUEC
p739
aV4
aV391
p740
aV-
aV-
aV1
aV-
aV1
aV74.5
p741
aV0.8
p742
aV-
aV6.72
p743
aa(lp744
V2011/2012
p745
aVManchester Un..
p746
aVUCL
p747
aV3
aV245
p748
aV1
aV-
aV1
aV-
aV2.7
p749
aV88
p750
aV-
aV1
aV7.22
p751
aa(lp752
V2011/2012
p753
aVManchester Un..
p754
aVEPL
p755
aV19(6)
p756
aV1573
p757
aV6
aV7
aV3
aV-
aV2.2
p758
aV83.8
p759
aV0.2
p760
aV2
aV7.24
p761
aa(lp762
V2010/2011
p763
aVAston Villa
p764
aVEPL
p765
aV34
p766
aV3054
p767
aV7
aV10
p768
aV8
aV-
aV2.4
p769
aV71.6
p770
aV0.1
p771
aV4
aV7.11
p772
aa(lp773
V2009/2010
p774
aVAston Villa
p775
aVEPL
p776
aV37
p777
aV3304
p778
aV5
aV7
aV6
aV-
aV1.7
p779
aV69
p780
aV0.2
p781
aV-
aV7.08
p782
aa(lp783
VTotal / Average
p784
aV
aV
aV273
p785
aV20268
p786
aV27
p787
aV45
p788
aV51
p789
aV0
aV1.2
p790
aV78
p791
aV0.4
p792
aV15
p793
aV6.97
p794
aasS'id'
p795
V8166
p796
sb.