(i__main__
Player
p1
(dp2
S'name'
p3
VPhil Jones 
p4
sS'offensive_data'
p5
(lp6
(lp7
a(lp8
V2018/2019
p9
aVManchester Un..
p10
aVEPL
p11
aV3
aV238
p12
aV-
aV-
aV-
aV-
aV-
aV93.4
p13
aV2
aV-
aV6.53
p14
aa(lp15
V2018/2019
p16
aVManchester Un..
p17
aVUCL
p18
aV2
aV180
p19
aV-
aV-
aV-
aV-
aV-
aV91.4
p20
aV2
aV-
aV6.72
p21
aa(lp22
V2017/2018
p23
aVManchester Un..
p24
aVEPL
p25
aV23
p26
aV1975
p27
aV-
aV-
aV2
aV-
aV0.1
p28
aV91.2
p29
aV2.5
p30
aV2
aV7.21
p31
aa(lp32
V2016/2017
p33
aVManchester Un..
p34
aVEPL
p35
aV18
p36
aV1585
p37
aV-
aV-
aV2
aV-
aV0.2
p38
aV89.3
p39
aV2.6
p40
aV-
aV7.21
p41
aa(lp42
V2016/2017
p43
aVManchester Un..
p44
aVUEL
p45
aV2(1)
p46
aV206
p47
aV-
aV-
aV-
aV-
aV-
aV82
p48
aV2
aV-
aV6.88
p49
aa(lp50
V2018
p51
aVEngland
p52
aVWC
p53
aV2
aV180
p54
aV-
aV-
aV-
aV-
aV-
aV94.5
p55
aV2.5
p56
aV-
aV6.48
p57
aa(lp58
V2015/2016
p59
aVManchester Un..
p60
aVUCL
p61
aV1(1)
p62
aV108
p63
aV-
aV-
aV-
aV-
aV-
aV86.1
p64
aV1
aV-
aV6.59
p65
aa(lp66
V2015/2016
p67
aVManchester Un..
p68
aVEPL
p69
aV6(4)
p70
aV529
p71
aV-
aV-
aV-
aV-
aV0.1
p72
aV84.7
p73
aV2
aV-
aV6.68
p74
aa(lp75
V2014/2015
p76
aVManchester Un..
p77
aVEPL
p78
aV22
p79
aV1879
p80
aV-
aV-
aV3
aV-
aV0.1
p81
aV85.3
p82
aV2.3
p83
aV3
aV7.51
p84
aa(lp85
V2013/2014
p86
aVManchester Un..
p87
aVUCL
p88
aV6(2)
p89
aV542
p90
aV1
aV-
aV-
aV-
aV0.9
p91
aV84.3
p92
aV2.9
p93
aV1
aV7.41
p94
aa(lp95
V2013/2014
p96
aVManchester Un..
p97
aVEPL
p98
aV26
p99
aV2174
p100
aV1
aV2
aV5
aV-
aV0.5
p101
aV88.3
p102
aV2.1
p103
aV-
aV7.26
p104
aa(lp105
V2014
p106
aVEngland
p107
aVWC
p108
aV1
aV90
p109
aV-
aV-
aV-
aV-
aV-
aV70.8
p110
aV3
aV-
aV6.96
p111
aa(lp112
V2012/2013
p113
aVManchester Un..
p114
aVUCL
p115
aV3
aV270
p116
aV-
aV-
aV-
aV-
aV0.7
p117
aV84.1
p118
aV3.3
p119
aV-
aV7.28
p120
aa(lp121
V2012/2013
p122
aVManchester Un..
p123
aVEPL
p124
aV13(4)
p125
aV1206
p126
aV-
aV1
aV4
aV-
aV0.6
p127
aV85.3
p128
aV1.6
p129
aV-
aV6.81
p130
aa(lp131
V2011/2012
p132
aVManchester Un..
p133
aVUCL
p134
aV4(2)
p135
aV386
p136
aV1
aV1
aV-
aV-
aV0.5
p137
aV84.4
p138
aV1.7
p139
aV1
aV7.20
p140
aa(lp141
V2011/2012
p142
aVManchester Un..
p143
aVEPL
p144
aV25(4)
p145
aV2124
p146
aV1
aV2
aV6
aV-
aV0.9
p147
aV83.9
p148
aV1.4
p149
aV-
aV7.18
p150
aa(lp151
V2010/2011
p152
aVBlackburn
p153
aVEPL
p154
aV24(2)
p155
aV2176
p156
aV-
aV-
aV4
aV-
aV0.7
p157
aV61.9
p158
aV1.3
p159
aV-
aV6.98
p160
aa(lp161
V2009/2010
p162
aVBlackburn
p163
aVEPL
p164
aV7(2)
p165
aV662
p166
aV-
aV-
aV-
aV-
aV0.6
p167
aV58.4
p168
aV2.1
p169
aV1
aV7.24
p170
aa(lp171
VTotal / Average
p172
aV
aV
aV210
p173
aV16510
p174
aV4
aV6
aV26
p175
aV0
aV0.4
p176
aV82.5
p177
aV2
aV8
aV7.13
p178
aasS'url'
p179
S'https://www.whoscored.com/Players/81726/History/'
p180
sS'passing_data'
p181
(lp182
(lp183
a(lp184
V2018/2019
p185
aVManchester Un..
p186
aVEPL
p187
aV3
aV238
p188
aV-
aV-
aV-
aV-
aV-
aV93.4
p189
aV2
aV-
aV6.53
p190
aa(lp191
V2018/2019
p192
aVManchester Un..
p193
aVUCL
p194
aV2
aV180
p195
aV-
aV-
aV-
aV-
aV-
aV91.4
p196
aV2
aV-
aV6.72
p197
aa(lp198
V2017/2018
p199
aVManchester Un..
p200
aVEPL
p201
aV23
p202
aV1975
p203
aV-
aV-
aV2
aV-
aV0.1
p204
aV91.2
p205
aV2.5
p206
aV2
aV7.21
p207
aa(lp208
V2016/2017
p209
aVManchester Un..
p210
aVEPL
p211
aV18
p212
aV1585
p213
aV-
aV-
aV2
aV-
aV0.2
p214
aV89.3
p215
aV2.6
p216
aV-
aV7.21
p217
aa(lp218
V2016/2017
p219
aVManchester Un..
p220
aVUEL
p221
aV2(1)
p222
aV206
p223
aV-
aV-
aV-
aV-
aV-
aV82
p224
aV2
aV-
aV6.88
p225
aa(lp226
V2018
p227
aVEngland
p228
aVWC
p229
aV2
aV180
p230
aV-
aV-
aV-
aV-
aV-
aV94.5
p231
aV2.5
p232
aV-
aV6.48
p233
aa(lp234
V2015/2016
p235
aVManchester Un..
p236
aVUCL
p237
aV1(1)
p238
aV108
p239
aV-
aV-
aV-
aV-
aV-
aV86.1
p240
aV1
aV-
aV6.59
p241
aa(lp242
V2015/2016
p243
aVManchester Un..
p244
aVEPL
p245
aV6(4)
p246
aV529
p247
aV-
aV-
aV-
aV-
aV0.1
p248
aV84.7
p249
aV2
aV-
aV6.68
p250
aa(lp251
V2014/2015
p252
aVManchester Un..
p253
aVEPL
p254
aV22
p255
aV1879
p256
aV-
aV-
aV3
aV-
aV0.1
p257
aV85.3
p258
aV2.3
p259
aV3
aV7.51
p260
aa(lp261
V2013/2014
p262
aVManchester Un..
p263
aVUCL
p264
aV6(2)
p265
aV542
p266
aV1
aV-
aV-
aV-
aV0.9
p267
aV84.3
p268
aV2.9
p269
aV1
aV7.41
p270
aa(lp271
V2013/2014
p272
aVManchester Un..
p273
aVEPL
p274
aV26
p275
aV2174
p276
aV1
aV2
aV5
aV-
aV0.5
p277
aV88.3
p278
aV2.1
p279
aV-
aV7.26
p280
aa(lp281
V2014
p282
aVEngland
p283
aVWC
p284
aV1
aV90
p285
aV-
aV-
aV-
aV-
aV-
aV70.8
p286
aV3
aV-
aV6.96
p287
aa(lp288
V2012/2013
p289
aVManchester Un..
p290
aVUCL
p291
aV3
aV270
p292
aV-
aV-
aV-
aV-
aV0.7
p293
aV84.1
p294
aV3.3
p295
aV-
aV7.28
p296
aa(lp297
V2012/2013
p298
aVManchester Un..
p299
aVEPL
p300
aV13(4)
p301
aV1206
p302
aV-
aV1
aV4
aV-
aV0.6
p303
aV85.3
p304
aV1.6
p305
aV-
aV6.81
p306
aa(lp307
V2011/2012
p308
aVManchester Un..
p309
aVUCL
p310
aV4(2)
p311
aV386
p312
aV1
aV1
aV-
aV-
aV0.5
p313
aV84.4
p314
aV1.7
p315
aV1
aV7.20
p316
aa(lp317
V2011/2012
p318
aVManchester Un..
p319
aVEPL
p320
aV25(4)
p321
aV2124
p322
aV1
aV2
aV6
aV-
aV0.9
p323
aV83.9
p324
aV1.4
p325
aV-
aV7.18
p326
aa(lp327
V2010/2011
p328
aVBlackburn
p329
aVEPL
p330
aV24(2)
p331
aV2176
p332
aV-
aV-
aV4
aV-
aV0.7
p333
aV61.9
p334
aV1.3
p335
aV-
aV6.98
p336
aa(lp337
V2009/2010
p338
aVBlackburn
p339
aVEPL
p340
aV7(2)
p341
aV662
p342
aV-
aV-
aV-
aV-
aV0.6
p343
aV58.4
p344
aV2.1
p345
aV1
aV7.24
p346
aa(lp347
VTotal / Average
p348
aV
aV
aV210
p349
aV16510
p350
aV4
aV6
aV26
p351
aV0
aV0.4
p352
aV82.5
p353
aV2
aV8
aV7.13
p354
aasS'defensive_data'
p355
(lp356
(lp357
a(lp358
V2018/2019
p359
aVManchester Un..
p360
aVEPL
p361
aV3
aV238
p362
aV-
aV-
aV-
aV-
aV-
aV93.4
p363
aV2
aV-
aV6.53
p364
aa(lp365
V2018/2019
p366
aVManchester Un..
p367
aVUCL
p368
aV2
aV180
p369
aV-
aV-
aV-
aV-
aV-
aV91.4
p370
aV2
aV-
aV6.72
p371
aa(lp372
V2017/2018
p373
aVManchester Un..
p374
aVEPL
p375
aV23
p376
aV1975
p377
aV-
aV-
aV2
aV-
aV0.1
p378
aV91.2
p379
aV2.5
p380
aV2
aV7.21
p381
aa(lp382
V2016/2017
p383
aVManchester Un..
p384
aVEPL
p385
aV18
p386
aV1585
p387
aV-
aV-
aV2
aV-
aV0.2
p388
aV89.3
p389
aV2.6
p390
aV-
aV7.21
p391
aa(lp392
V2016/2017
p393
aVManchester Un..
p394
aVUEL
p395
aV2(1)
p396
aV206
p397
aV-
aV-
aV-
aV-
aV-
aV82
p398
aV2
aV-
aV6.88
p399
aa(lp400
V2018
p401
aVEngland
p402
aVWC
p403
aV2
aV180
p404
aV-
aV-
aV-
aV-
aV-
aV94.5
p405
aV2.5
p406
aV-
aV6.48
p407
aa(lp408
V2015/2016
p409
aVManchester Un..
p410
aVUCL
p411
aV1(1)
p412
aV108
p413
aV-
aV-
aV-
aV-
aV-
aV86.1
p414
aV1
aV-
aV6.59
p415
aa(lp416
V2015/2016
p417
aVManchester Un..
p418
aVEPL
p419
aV6(4)
p420
aV529
p421
aV-
aV-
aV-
aV-
aV0.1
p422
aV84.7
p423
aV2
aV-
aV6.68
p424
aa(lp425
V2014/2015
p426
aVManchester Un..
p427
aVEPL
p428
aV22
p429
aV1879
p430
aV-
aV-
aV3
aV-
aV0.1
p431
aV85.3
p432
aV2.3
p433
aV3
aV7.51
p434
aa(lp435
V2013/2014
p436
aVManchester Un..
p437
aVUCL
p438
aV6(2)
p439
aV542
p440
aV1
aV-
aV-
aV-
aV0.9
p441
aV84.3
p442
aV2.9
p443
aV1
aV7.41
p444
aa(lp445
V2013/2014
p446
aVManchester Un..
p447
aVEPL
p448
aV26
p449
aV2174
p450
aV1
aV2
aV5
aV-
aV0.5
p451
aV88.3
p452
aV2.1
p453
aV-
aV7.26
p454
aa(lp455
V2014
p456
aVEngland
p457
aVWC
p458
aV1
aV90
p459
aV-
aV-
aV-
aV-
aV-
aV70.8
p460
aV3
aV-
aV6.96
p461
aa(lp462
V2012/2013
p463
aVManchester Un..
p464
aVUCL
p465
aV3
aV270
p466
aV-
aV-
aV-
aV-
aV0.7
p467
aV84.1
p468
aV3.3
p469
aV-
aV7.28
p470
aa(lp471
V2012/2013
p472
aVManchester Un..
p473
aVEPL
p474
aV13(4)
p475
aV1206
p476
aV-
aV1
aV4
aV-
aV0.6
p477
aV85.3
p478
aV1.6
p479
aV-
aV6.81
p480
aa(lp481
V2011/2012
p482
aVManchester Un..
p483
aVUCL
p484
aV4(2)
p485
aV386
p486
aV1
aV1
aV-
aV-
aV0.5
p487
aV84.4
p488
aV1.7
p489
aV1
aV7.20
p490
aa(lp491
V2011/2012
p492
aVManchester Un..
p493
aVEPL
p494
aV25(4)
p495
aV2124
p496
aV1
aV2
aV6
aV-
aV0.9
p497
aV83.9
p498
aV1.4
p499
aV-
aV7.18
p500
aa(lp501
V2010/2011
p502
aVBlackburn
p503
aVEPL
p504
aV24(2)
p505
aV2176
p506
aV-
aV-
aV4
aV-
aV0.7
p507
aV61.9
p508
aV1.3
p509
aV-
aV6.98
p510
aa(lp511
V2009/2010
p512
aVBlackburn
p513
aVEPL
p514
aV7(2)
p515
aV662
p516
aV-
aV-
aV-
aV-
aV0.6
p517
aV58.4
p518
aV2.1
p519
aV1
aV7.24
p520
aa(lp521
VTotal / Average
p522
aV
aV
aV210
p523
aV16510
p524
aV4
aV6
aV26
p525
aV0
aV0.4
p526
aV82.5
p527
aV2
aV8
aV7.13
p528
aasS'sumary_data'
p529
(lp530
(lp531
a(lp532
V2018/2019
p533
aVManchester Un..
p534
aVEPL
p535
aV3
aV238
p536
aV-
aV-
aV-
aV-
aV-
aV93.4
p537
aV2
aV-
aV6.53
p538
aa(lp539
V2018/2019
p540
aVManchester Un..
p541
aVUCL
p542
aV2
aV180
p543
aV-
aV-
aV-
aV-
aV-
aV91.4
p544
aV2
aV-
aV6.72
p545
aa(lp546
V2017/2018
p547
aVManchester Un..
p548
aVEPL
p549
aV23
p550
aV1975
p551
aV-
aV-
aV2
aV-
aV0.1
p552
aV91.2
p553
aV2.5
p554
aV2
aV7.21
p555
aa(lp556
V2016/2017
p557
aVManchester Un..
p558
aVEPL
p559
aV18
p560
aV1585
p561
aV-
aV-
aV2
aV-
aV0.2
p562
aV89.3
p563
aV2.6
p564
aV-
aV7.21
p565
aa(lp566
V2016/2017
p567
aVManchester Un..
p568
aVUEL
p569
aV2(1)
p570
aV206
p571
aV-
aV-
aV-
aV-
aV-
aV82
p572
aV2
aV-
aV6.88
p573
aa(lp574
V2018
p575
aVEngland
p576
aVWC
p577
aV2
aV180
p578
aV-
aV-
aV-
aV-
aV-
aV94.5
p579
aV2.5
p580
aV-
aV6.48
p581
aa(lp582
V2015/2016
p583
aVManchester Un..
p584
aVUCL
p585
aV1(1)
p586
aV108
p587
aV-
aV-
aV-
aV-
aV-
aV86.1
p588
aV1
aV-
aV6.59
p589
aa(lp590
V2015/2016
p591
aVManchester Un..
p592
aVEPL
p593
aV6(4)
p594
aV529
p595
aV-
aV-
aV-
aV-
aV0.1
p596
aV84.7
p597
aV2
aV-
aV6.68
p598
aa(lp599
V2014/2015
p600
aVManchester Un..
p601
aVEPL
p602
aV22
p603
aV1879
p604
aV-
aV-
aV3
aV-
aV0.1
p605
aV85.3
p606
aV2.3
p607
aV3
aV7.51
p608
aa(lp609
V2013/2014
p610
aVManchester Un..
p611
aVUCL
p612
aV6(2)
p613
aV542
p614
aV1
aV-
aV-
aV-
aV0.9
p615
aV84.3
p616
aV2.9
p617
aV1
aV7.41
p618
aa(lp619
V2013/2014
p620
aVManchester Un..
p621
aVEPL
p622
aV26
p623
aV2174
p624
aV1
aV2
aV5
aV-
aV0.5
p625
aV88.3
p626
aV2.1
p627
aV-
aV7.26
p628
aa(lp629
V2014
p630
aVEngland
p631
aVWC
p632
aV1
aV90
p633
aV-
aV-
aV-
aV-
aV-
aV70.8
p634
aV3
aV-
aV6.96
p635
aa(lp636
V2012/2013
p637
aVManchester Un..
p638
aVUCL
p639
aV3
aV270
p640
aV-
aV-
aV-
aV-
aV0.7
p641
aV84.1
p642
aV3.3
p643
aV-
aV7.28
p644
aa(lp645
V2012/2013
p646
aVManchester Un..
p647
aVEPL
p648
aV13(4)
p649
aV1206
p650
aV-
aV1
aV4
aV-
aV0.6
p651
aV85.3
p652
aV1.6
p653
aV-
aV6.81
p654
aa(lp655
V2011/2012
p656
aVManchester Un..
p657
aVUCL
p658
aV4(2)
p659
aV386
p660
aV1
aV1
aV-
aV-
aV0.5
p661
aV84.4
p662
aV1.7
p663
aV1
aV7.20
p664
aa(lp665
V2011/2012
p666
aVManchester Un..
p667
aVEPL
p668
aV25(4)
p669
aV2124
p670
aV1
aV2
aV6
aV-
aV0.9
p671
aV83.9
p672
aV1.4
p673
aV-
aV7.18
p674
aa(lp675
V2010/2011
p676
aVBlackburn
p677
aVEPL
p678
aV24(2)
p679
aV2176
p680
aV-
aV-
aV4
aV-
aV0.7
p681
aV61.9
p682
aV1.3
p683
aV-
aV6.98
p684
aa(lp685
V2009/2010
p686
aVBlackburn
p687
aVEPL
p688
aV7(2)
p689
aV662
p690
aV-
aV-
aV-
aV-
aV0.6
p691
aV58.4
p692
aV2.1
p693
aV1
aV7.24
p694
aa(lp695
VTotal / Average
p696
aV
aV
aV210
p697
aV16510
p698
aV4
aV6
aV26
p699
aV0
aV0.4
p700
aV82.5
p701
aV2
aV8
aV7.13
p702
aasS'id'
p703
V81726
p704
sb.