(i__main__
Player
p1
(dp2
S'name'
p3
VCharlie Austin 
p4
sS'offensive_data'
p5
(lp6
(lp7
a(lp8
V2018/2019
p9
aVSouthampton
p10
aVEPL
p11
aV7(6)
p12
aV640
p13
aV2
aV-
aV-
aV-
aV1.7
p14
aV62.9
p15
aV2
aV-
aV6.37
p16
aa(lp17
V2017/2018
p18
aVSouthampton
p19
aVEPL
p20
aV10(14)
p21
aV1030
p22
aV7
aV-
aV2
aV-
aV2
aV68.4
p23
aV1.7
p24
aV1
aV6.53
p25
aa(lp26
V2016/2017
p27
aVSouthampton
p28
aVEPL
p29
aV11(4)
p30
aV939
p31
aV6
aV1
aV1
aV-
aV2.5
p32
aV62.7
p33
aV2.9
p34
aV1
aV6.94
p35
aa(lp36
V2016/2017
p37
aVSouthampton
p38
aVUEL
p39
aV2(3)
p40
aV207
p41
aV2
aV-
aV-
aV-
aV1.8
p42
aV79.5
p43
aV1.2
p44
aV-
aV6.59
p45
aa(lp46
V2015/2016
p47
aVQueens Park R..
p48
aVEC
p49
aV12(4)
p50
aV1140
p51
aV10
p52
aV1
aV4
aV-
aV3.1
p53
aV63
p54
aV3.4
p55
aV3
aV7.21
p56
aa(lp57
V2015/2016
p58
aVSouthampton
p59
aVEPL
p60
aV2(5)
p61
aV208
p62
aV1
aV-
aV-
aV-
aV1.1
p63
aV64
p64
aV1.3
p65
aV-
aV6.40
p66
aa(lp67
V2014/2015
p68
aVQueens Park R..
p69
aVEPL
p70
aV35
p71
aV3069
p72
aV18
p73
aV5
aV4
aV1
aV3.7
p74
aV65.9
p75
aV2.6
p76
aV3
aV6.99
p77
aa(lp78
V2013/2014
p79
aVQueens Park R..
p80
aVEC
p81
aV31(3)
p82
aV2797
p83
aV19
p84
aV2
aV3
aV-
aV3.6
p85
aV69.2
p86
aV2.8
p87
aV4
aV7.20
p88
aa(lp89
VTotal / Average
p90
aV
aV
aV149
p91
aV10030
p92
aV65
p93
aV9
aV14
p94
aV1
aV2.9
p95
aV66.6
p96
aV2.4
p97
aV12
p98
aV6.89
p99
aasS'url'
p100
S'https://www.whoscored.com/Players/82102/History/'
p101
sS'passing_data'
p102
(lp103
(lp104
a(lp105
V2018/2019
p106
aVSouthampton
p107
aVEPL
p108
aV7(6)
p109
aV640
p110
aV2
aV-
aV-
aV-
aV1.7
p111
aV62.9
p112
aV2
aV-
aV6.37
p113
aa(lp114
V2017/2018
p115
aVSouthampton
p116
aVEPL
p117
aV10(14)
p118
aV1030
p119
aV7
aV-
aV2
aV-
aV2
aV68.4
p120
aV1.7
p121
aV1
aV6.53
p122
aa(lp123
V2016/2017
p124
aVSouthampton
p125
aVEPL
p126
aV11(4)
p127
aV939
p128
aV6
aV1
aV1
aV-
aV2.5
p129
aV62.7
p130
aV2.9
p131
aV1
aV6.94
p132
aa(lp133
V2016/2017
p134
aVSouthampton
p135
aVUEL
p136
aV2(3)
p137
aV207
p138
aV2
aV-
aV-
aV-
aV1.8
p139
aV79.5
p140
aV1.2
p141
aV-
aV6.59
p142
aa(lp143
V2015/2016
p144
aVQueens Park R..
p145
aVEC
p146
aV12(4)
p147
aV1140
p148
aV10
p149
aV1
aV4
aV-
aV3.1
p150
aV63
p151
aV3.4
p152
aV3
aV7.21
p153
aa(lp154
V2015/2016
p155
aVSouthampton
p156
aVEPL
p157
aV2(5)
p158
aV208
p159
aV1
aV-
aV-
aV-
aV1.1
p160
aV64
p161
aV1.3
p162
aV-
aV6.40
p163
aa(lp164
V2014/2015
p165
aVQueens Park R..
p166
aVEPL
p167
aV35
p168
aV3069
p169
aV18
p170
aV5
aV4
aV1
aV3.7
p171
aV65.9
p172
aV2.6
p173
aV3
aV6.99
p174
aa(lp175
V2013/2014
p176
aVQueens Park R..
p177
aVEC
p178
aV31(3)
p179
aV2797
p180
aV19
p181
aV2
aV3
aV-
aV3.6
p182
aV69.2
p183
aV2.8
p184
aV4
aV7.20
p185
aa(lp186
VTotal / Average
p187
aV
aV
aV149
p188
aV10030
p189
aV65
p190
aV9
aV14
p191
aV1
aV2.9
p192
aV66.6
p193
aV2.4
p194
aV12
p195
aV6.89
p196
aasS'defensive_data'
p197
(lp198
(lp199
a(lp200
V2018/2019
p201
aVSouthampton
p202
aVEPL
p203
aV7(6)
p204
aV640
p205
aV2
aV-
aV-
aV-
aV1.7
p206
aV62.9
p207
aV2
aV-
aV6.37
p208
aa(lp209
V2017/2018
p210
aVSouthampton
p211
aVEPL
p212
aV10(14)
p213
aV1030
p214
aV7
aV-
aV2
aV-
aV2
aV68.4
p215
aV1.7
p216
aV1
aV6.53
p217
aa(lp218
V2016/2017
p219
aVSouthampton
p220
aVEPL
p221
aV11(4)
p222
aV939
p223
aV6
aV1
aV1
aV-
aV2.5
p224
aV62.7
p225
aV2.9
p226
aV1
aV6.94
p227
aa(lp228
V2016/2017
p229
aVSouthampton
p230
aVUEL
p231
aV2(3)
p232
aV207
p233
aV2
aV-
aV-
aV-
aV1.8
p234
aV79.5
p235
aV1.2
p236
aV-
aV6.59
p237
aa(lp238
V2015/2016
p239
aVQueens Park R..
p240
aVEC
p241
aV12(4)
p242
aV1140
p243
aV10
p244
aV1
aV4
aV-
aV3.1
p245
aV63
p246
aV3.4
p247
aV3
aV7.21
p248
aa(lp249
V2015/2016
p250
aVSouthampton
p251
aVEPL
p252
aV2(5)
p253
aV208
p254
aV1
aV-
aV-
aV-
aV1.1
p255
aV64
p256
aV1.3
p257
aV-
aV6.40
p258
aa(lp259
V2014/2015
p260
aVQueens Park R..
p261
aVEPL
p262
aV35
p263
aV3069
p264
aV18
p265
aV5
aV4
aV1
aV3.7
p266
aV65.9
p267
aV2.6
p268
aV3
aV6.99
p269
aa(lp270
V2013/2014
p271
aVQueens Park R..
p272
aVEC
p273
aV31(3)
p274
aV2797
p275
aV19
p276
aV2
aV3
aV-
aV3.6
p277
aV69.2
p278
aV2.8
p279
aV4
aV7.20
p280
aa(lp281
VTotal / Average
p282
aV
aV
aV149
p283
aV10030
p284
aV65
p285
aV9
aV14
p286
aV1
aV2.9
p287
aV66.6
p288
aV2.4
p289
aV12
p290
aV6.89
p291
aasS'sumary_data'
p292
(lp293
(lp294
a(lp295
V2018/2019
p296
aVSouthampton
p297
aVEPL
p298
aV7(6)
p299
aV640
p300
aV2
aV-
aV-
aV-
aV1.7
p301
aV62.9
p302
aV2
aV-
aV6.37
p303
aa(lp304
V2017/2018
p305
aVSouthampton
p306
aVEPL
p307
aV10(14)
p308
aV1030
p309
aV7
aV-
aV2
aV-
aV2
aV68.4
p310
aV1.7
p311
aV1
aV6.53
p312
aa(lp313
V2016/2017
p314
aVSouthampton
p315
aVEPL
p316
aV11(4)
p317
aV939
p318
aV6
aV1
aV1
aV-
aV2.5
p319
aV62.7
p320
aV2.9
p321
aV1
aV6.94
p322
aa(lp323
V2016/2017
p324
aVSouthampton
p325
aVUEL
p326
aV2(3)
p327
aV207
p328
aV2
aV-
aV-
aV-
aV1.8
p329
aV79.5
p330
aV1.2
p331
aV-
aV6.59
p332
aa(lp333
V2015/2016
p334
aVQueens Park R..
p335
aVEC
p336
aV12(4)
p337
aV1140
p338
aV10
p339
aV1
aV4
aV-
aV3.1
p340
aV63
p341
aV3.4
p342
aV3
aV7.21
p343
aa(lp344
V2015/2016
p345
aVSouthampton
p346
aVEPL
p347
aV2(5)
p348
aV208
p349
aV1
aV-
aV-
aV-
aV1.1
p350
aV64
p351
aV1.3
p352
aV-
aV6.40
p353
aa(lp354
V2014/2015
p355
aVQueens Park R..
p356
aVEPL
p357
aV35
p358
aV3069
p359
aV18
p360
aV5
aV4
aV1
aV3.7
p361
aV65.9
p362
aV2.6
p363
aV3
aV6.99
p364
aa(lp365
V2013/2014
p366
aVQueens Park R..
p367
aVEC
p368
aV31(3)
p369
aV2797
p370
aV19
p371
aV2
aV3
aV-
aV3.6
p372
aV69.2
p373
aV2.8
p374
aV4
aV7.20
p375
aa(lp376
VTotal / Average
p377
aV
aV
aV149
p378
aV10030
p379
aV65
p380
aV9
aV14
p381
aV1
aV2.9
p382
aV66.6
p383
aV2.4
p384
aV12
p385
aV6.89
p386
aasS'id'
p387
V82102
p388
sb.