(i__main__
Player
p1
(dp2
S'name'
p3
VLeighton Baines 
p4
sS'offensive_data'
p5
(lp6
(lp7
a(lp8
V2018/2019
p9
aVEverton
p10
aVEPL
p11
aV3(1)
p12
aV284
p13
aV-
aV-
aV-
aV-
aV0.5
p14
aV82.4
p15
aV0.3
p16
aV-
aV6.35
p17
aa(lp18
V2017/2018
p19
aVEverton
p20
aVUEL
p21
aV2
aV180
p22
aV-
aV-
aV-
aV-
aV-
aV83.3
p23
aV0.5
p24
aV-
aV6.45
p25
aa(lp26
V2017/2018
p27
aVEverton
p28
aVEPL
p29
aV22
p30
aV1910
p31
aV2
aV3
aV1
aV-
aV0.3
p32
aV80.1
p33
aV0.6
p34
aV1
aV6.73
p35
aa(lp36
V2016/2017
p37
aVEverton
p38
aVEPL
p39
aV32
p40
aV2822
p41
aV2
aV3
aV4
aV-
aV0.5
p42
aV81.5
p43
aV0.8
p44
aV2
aV6.99
p45
aa(lp46
V2015/2016
p47
aVEverton
p48
aVEPL
p49
aV16(2)
p50
aV1477
p51
aV2
aV1
aV-
aV-
aV0.5
p52
aV82.1
p53
aV0.5
p54
aV1
aV6.86
p55
aa(lp56
V2014/2015
p57
aVEverton
p58
aVUEL
p59
aV5
aV450
p60
aV1
aV4
aV-
aV-
aV0.6
p61
aV83.5
p62
aV0.4
p63
aV1
aV7.65
p64
aa(lp65
V2014/2015
p66
aVEverton
p67
aVEPL
p68
aV31
p69
aV2774
p70
aV2
aV9
aV4
aV-
aV0.7
p71
aV84
p72
aV0.6
p73
aV2
aV7.26
p74
aa(lp75
V2013/2014
p76
aVEverton
p77
aVEPL
p78
aV32
p79
aV2840
p80
aV5
aV4
aV6
aV-
aV0.7
p81
aV85.7
p82
aV0.4
p83
aV3
aV7.25
p84
aa(lp85
V2014
p86
aVEngland
p87
aVWC
p88
aV2
aV180
p89
aV-
aV-
aV-
aV-
aV0.5
p90
aV85.7
p91
aV-
aV-
aV6.64
p92
aa(lp93
V2012/2013
p94
aVEverton
p95
aVEPL
p96
aV38
p97
aV3420
p98
aV5
aV5
aV4
aV-
aV0.9
p99
aV82.3
p100
aV0.3
p101
aV5
aV7.43
p102
aa(lp103
V2011/2012
p104
aVEverton
p105
aVEPL
p106
aV33
p107
aV2970
p108
aV4
aV2
aV7
aV-
aV0.8
p109
aV76.5
p110
aV0.2
p111
aV3
aV7.13
p112
aa(lp113
V2010/2011
p114
aVEverton
p115
aVEPL
p116
aV38
p117
aV3420
p118
aV5
aV11
p119
aV4
aV-
aV0.8
p120
aV79.6
p121
aV0.7
p122
aV1
aV7.20
p123
aa(lp124
V2009/2010
p125
aVEverton
p126
aVEPL
p127
aV37
p128
aV3330
p129
aV1
aV8
aV2
aV-
aV0.9
p130
aV75.7
p131
aV0.7
p132
aV2
aV7.23
p133
aa(lp134
VTotal / Average
p135
aV
aV
aV294
p136
aV26057
p137
aV29
p138
aV50
p139
aV32
p140
aV0
aV0.7
p141
aV80.8
p142
aV0.5
p143
aV21
p144
aV7.14
p145
aasS'url'
p146
S'https://www.whoscored.com/Players/8222/History/'
p147
sS'passing_data'
p148
(lp149
(lp150
a(lp151
V2018/2019
p152
aVEverton
p153
aVEPL
p154
aV3(1)
p155
aV284
p156
aV-
aV-
aV-
aV-
aV0.5
p157
aV82.4
p158
aV0.3
p159
aV-
aV6.35
p160
aa(lp161
V2017/2018
p162
aVEverton
p163
aVUEL
p164
aV2
aV180
p165
aV-
aV-
aV-
aV-
aV-
aV83.3
p166
aV0.5
p167
aV-
aV6.45
p168
aa(lp169
V2017/2018
p170
aVEverton
p171
aVEPL
p172
aV22
p173
aV1910
p174
aV2
aV3
aV1
aV-
aV0.3
p175
aV80.1
p176
aV0.6
p177
aV1
aV6.73
p178
aa(lp179
V2016/2017
p180
aVEverton
p181
aVEPL
p182
aV32
p183
aV2822
p184
aV2
aV3
aV4
aV-
aV0.5
p185
aV81.5
p186
aV0.8
p187
aV2
aV6.99
p188
aa(lp189
V2015/2016
p190
aVEverton
p191
aVEPL
p192
aV16(2)
p193
aV1477
p194
aV2
aV1
aV-
aV-
aV0.5
p195
aV82.1
p196
aV0.5
p197
aV1
aV6.86
p198
aa(lp199
V2014/2015
p200
aVEverton
p201
aVUEL
p202
aV5
aV450
p203
aV1
aV4
aV-
aV-
aV0.6
p204
aV83.5
p205
aV0.4
p206
aV1
aV7.65
p207
aa(lp208
V2014/2015
p209
aVEverton
p210
aVEPL
p211
aV31
p212
aV2774
p213
aV2
aV9
aV4
aV-
aV0.7
p214
aV84
p215
aV0.6
p216
aV2
aV7.26
p217
aa(lp218
V2013/2014
p219
aVEverton
p220
aVEPL
p221
aV32
p222
aV2840
p223
aV5
aV4
aV6
aV-
aV0.7
p224
aV85.7
p225
aV0.4
p226
aV3
aV7.25
p227
aa(lp228
V2014
p229
aVEngland
p230
aVWC
p231
aV2
aV180
p232
aV-
aV-
aV-
aV-
aV0.5
p233
aV85.7
p234
aV-
aV-
aV6.64
p235
aa(lp236
V2012/2013
p237
aVEverton
p238
aVEPL
p239
aV38
p240
aV3420
p241
aV5
aV5
aV4
aV-
aV0.9
p242
aV82.3
p243
aV0.3
p244
aV5
aV7.43
p245
aa(lp246
V2011/2012
p247
aVEverton
p248
aVEPL
p249
aV33
p250
aV2970
p251
aV4
aV2
aV7
aV-
aV0.8
p252
aV76.5
p253
aV0.2
p254
aV3
aV7.13
p255
aa(lp256
V2010/2011
p257
aVEverton
p258
aVEPL
p259
aV38
p260
aV3420
p261
aV5
aV11
p262
aV4
aV-
aV0.8
p263
aV79.6
p264
aV0.7
p265
aV1
aV7.20
p266
aa(lp267
V2009/2010
p268
aVEverton
p269
aVEPL
p270
aV37
p271
aV3330
p272
aV1
aV8
aV2
aV-
aV0.9
p273
aV75.7
p274
aV0.7
p275
aV2
aV7.23
p276
aa(lp277
VTotal / Average
p278
aV
aV
aV294
p279
aV26057
p280
aV29
p281
aV50
p282
aV32
p283
aV0
aV0.7
p284
aV80.8
p285
aV0.5
p286
aV21
p287
aV7.14
p288
aasS'defensive_data'
p289
(lp290
(lp291
a(lp292
V2018/2019
p293
aVEverton
p294
aVEPL
p295
aV3(1)
p296
aV284
p297
aV-
aV-
aV-
aV-
aV0.5
p298
aV82.4
p299
aV0.3
p300
aV-
aV6.35
p301
aa(lp302
V2017/2018
p303
aVEverton
p304
aVUEL
p305
aV2
aV180
p306
aV-
aV-
aV-
aV-
aV-
aV83.3
p307
aV0.5
p308
aV-
aV6.45
p309
aa(lp310
V2017/2018
p311
aVEverton
p312
aVEPL
p313
aV22
p314
aV1910
p315
aV2
aV3
aV1
aV-
aV0.3
p316
aV80.1
p317
aV0.6
p318
aV1
aV6.73
p319
aa(lp320
V2016/2017
p321
aVEverton
p322
aVEPL
p323
aV32
p324
aV2822
p325
aV2
aV3
aV4
aV-
aV0.5
p326
aV81.5
p327
aV0.8
p328
aV2
aV6.99
p329
aa(lp330
V2015/2016
p331
aVEverton
p332
aVEPL
p333
aV16(2)
p334
aV1477
p335
aV2
aV1
aV-
aV-
aV0.5
p336
aV82.1
p337
aV0.5
p338
aV1
aV6.86
p339
aa(lp340
V2014/2015
p341
aVEverton
p342
aVUEL
p343
aV5
aV450
p344
aV1
aV4
aV-
aV-
aV0.6
p345
aV83.5
p346
aV0.4
p347
aV1
aV7.65
p348
aa(lp349
V2014/2015
p350
aVEverton
p351
aVEPL
p352
aV31
p353
aV2774
p354
aV2
aV9
aV4
aV-
aV0.7
p355
aV84
p356
aV0.6
p357
aV2
aV7.26
p358
aa(lp359
V2013/2014
p360
aVEverton
p361
aVEPL
p362
aV32
p363
aV2840
p364
aV5
aV4
aV6
aV-
aV0.7
p365
aV85.7
p366
aV0.4
p367
aV3
aV7.25
p368
aa(lp369
V2014
p370
aVEngland
p371
aVWC
p372
aV2
aV180
p373
aV-
aV-
aV-
aV-
aV0.5
p374
aV85.7
p375
aV-
aV-
aV6.64
p376
aa(lp377
V2012/2013
p378
aVEverton
p379
aVEPL
p380
aV38
p381
aV3420
p382
aV5
aV5
aV4
aV-
aV0.9
p383
aV82.3
p384
aV0.3
p385
aV5
aV7.43
p386
aa(lp387
V2011/2012
p388
aVEverton
p389
aVEPL
p390
aV33
p391
aV2970
p392
aV4
aV2
aV7
aV-
aV0.8
p393
aV76.5
p394
aV0.2
p395
aV3
aV7.13
p396
aa(lp397
V2010/2011
p398
aVEverton
p399
aVEPL
p400
aV38
p401
aV3420
p402
aV5
aV11
p403
aV4
aV-
aV0.8
p404
aV79.6
p405
aV0.7
p406
aV1
aV7.20
p407
aa(lp408
V2009/2010
p409
aVEverton
p410
aVEPL
p411
aV37
p412
aV3330
p413
aV1
aV8
aV2
aV-
aV0.9
p414
aV75.7
p415
aV0.7
p416
aV2
aV7.23
p417
aa(lp418
VTotal / Average
p419
aV
aV
aV294
p420
aV26057
p421
aV29
p422
aV50
p423
aV32
p424
aV0
aV0.7
p425
aV80.8
p426
aV0.5
p427
aV21
p428
aV7.14
p429
aasS'sumary_data'
p430
(lp431
(lp432
a(lp433
V2018/2019
p434
aVEverton
p435
aVEPL
p436
aV3(1)
p437
aV284
p438
aV-
aV-
aV-
aV-
aV0.5
p439
aV82.4
p440
aV0.3
p441
aV-
aV6.35
p442
aa(lp443
V2017/2018
p444
aVEverton
p445
aVUEL
p446
aV2
aV180
p447
aV-
aV-
aV-
aV-
aV-
aV83.3
p448
aV0.5
p449
aV-
aV6.45
p450
aa(lp451
V2017/2018
p452
aVEverton
p453
aVEPL
p454
aV22
p455
aV1910
p456
aV2
aV3
aV1
aV-
aV0.3
p457
aV80.1
p458
aV0.6
p459
aV1
aV6.73
p460
aa(lp461
V2016/2017
p462
aVEverton
p463
aVEPL
p464
aV32
p465
aV2822
p466
aV2
aV3
aV4
aV-
aV0.5
p467
aV81.5
p468
aV0.8
p469
aV2
aV6.99
p470
aa(lp471
V2015/2016
p472
aVEverton
p473
aVEPL
p474
aV16(2)
p475
aV1477
p476
aV2
aV1
aV-
aV-
aV0.5
p477
aV82.1
p478
aV0.5
p479
aV1
aV6.86
p480
aa(lp481
V2014/2015
p482
aVEverton
p483
aVUEL
p484
aV5
aV450
p485
aV1
aV4
aV-
aV-
aV0.6
p486
aV83.5
p487
aV0.4
p488
aV1
aV7.65
p489
aa(lp490
V2014/2015
p491
aVEverton
p492
aVEPL
p493
aV31
p494
aV2774
p495
aV2
aV9
aV4
aV-
aV0.7
p496
aV84
p497
aV0.6
p498
aV2
aV7.26
p499
aa(lp500
V2013/2014
p501
aVEverton
p502
aVEPL
p503
aV32
p504
aV2840
p505
aV5
aV4
aV6
aV-
aV0.7
p506
aV85.7
p507
aV0.4
p508
aV3
aV7.25
p509
aa(lp510
V2014
p511
aVEngland
p512
aVWC
p513
aV2
aV180
p514
aV-
aV-
aV-
aV-
aV0.5
p515
aV85.7
p516
aV-
aV-
aV6.64
p517
aa(lp518
V2012/2013
p519
aVEverton
p520
aVEPL
p521
aV38
p522
aV3420
p523
aV5
aV5
aV4
aV-
aV0.9
p524
aV82.3
p525
aV0.3
p526
aV5
aV7.43
p527
aa(lp528
V2011/2012
p529
aVEverton
p530
aVEPL
p531
aV33
p532
aV2970
p533
aV4
aV2
aV7
aV-
aV0.8
p534
aV76.5
p535
aV0.2
p536
aV3
aV7.13
p537
aa(lp538
V2010/2011
p539
aVEverton
p540
aVEPL
p541
aV38
p542
aV3420
p543
aV5
aV11
p544
aV4
aV-
aV0.8
p545
aV79.6
p546
aV0.7
p547
aV1
aV7.20
p548
aa(lp549
V2009/2010
p550
aVEverton
p551
aVEPL
p552
aV37
p553
aV3330
p554
aV1
aV8
aV2
aV-
aV0.9
p555
aV75.7
p556
aV0.7
p557
aV2
aV7.23
p558
aa(lp559
VTotal / Average
p560
aV
aV
aV294
p561
aV26057
p562
aV29
p563
aV50
p564
aV32
p565
aV0
aV0.7
p566
aV80.8
p567
aV0.5
p568
aV21
p569
aV7.14
p570
aasS'id'
p571
V8222
p572
sb.