(i__main__
Player
p1
(dp2
S'name'
p3
VMark Noble 
p4
sS'offensive_data'
p5
(lp6
(lp7
a(lp8
V2018/2019
p9
aVWest Ham
p10
aVEPL
p11
aV12
p12
aV933
p13
aV-
aV2
aV4
aV1
aV0.3
p14
aV83.4
p15
aV0.4
p16
aV-
aV6.45
p17
aa(lp18
V2017/2018
p19
aVWest Ham
p20
aVEPL
p21
aV28(1)
p22
aV2405
p23
aV4
aV-
aV6
aV-
aV0.5
p24
aV83.9
p25
aV0.3
p26
aV1
aV6.81
p27
aa(lp28
V2016/2017
p29
aVWest Ham
p30
aVEPL
p31
aV29(1)
p32
aV2399
p33
aV3
aV-
aV10
p34
aV-
aV0.8
p35
aV86.1
p36
aV0.1
p37
aV-
aV6.58
p38
aa(lp39
V2015/2016
p40
aVWest Ham
p41
aVEPL
p42
aV37
p43
aV3205
p44
aV7
aV4
aV8
aV1
aV0.9
p45
aV86.4
p46
aV0.5
p47
aV3
aV7.15
p48
aa(lp49
V2014/2015
p50
aVWest Ham
p51
aVEPL
p52
aV27(1)
p53
aV2308
p54
aV2
aV3
aV4
aV-
aV0.8
p55
aV85.2
p56
aV0.3
p57
aV-
aV7.04
p58
aa(lp59
V2013/2014
p60
aVWest Ham
p61
aVEPL
p62
aV38
p63
aV3344
p64
aV3
aV4
aV6
aV1
aV0.6
p65
aV82.8
p66
aV0.3
p67
aV3
aV7.13
p68
aa(lp69
V2012/2013
p70
aVWest Ham
p71
aVEPL
p72
aV25(3)
p73
aV2286
p74
aV4
aV3
aV7
aV-
aV0.5
p75
aV82.6
p76
aV0.2
p77
aV4
aV7.08
p78
aa(lp79
V2010/2011
p80
aVWest Ham
p81
aVEPL
p82
aV25(1)
p83
aV2144
p84
aV4
aV3
aV7
aV-
aV1.5
p85
aV85.5
p86
aV0.2
p87
aV-
aV6.95
p88
aa(lp89
V2009/2010
p90
aVWest Ham
p91
aVEPL
p92
aV25(2)
p93
aV2123
p94
aV2
aV4
aV5
aV1
aV1.2
p95
aV82.5
p96
aV0.1
p97
aV4
aV7.06
p98
aa(lp99
VTotal / Average
p100
aV
aV
aV255
p101
aV21147
p102
aV29
p103
aV23
p104
aV57
p105
aV4
aV0.8
p106
aV84.4
p107
aV0.3
p108
aV15
p109
aV6.96
p110
aasS'url'
p111
S'https://www.whoscored.com/Players/8247/History/'
p112
sS'passing_data'
p113
(lp114
(lp115
a(lp116
V2018/2019
p117
aVWest Ham
p118
aVEPL
p119
aV12
p120
aV933
p121
aV-
aV2
aV4
aV1
aV0.3
p122
aV83.4
p123
aV0.4
p124
aV-
aV6.45
p125
aa(lp126
V2017/2018
p127
aVWest Ham
p128
aVEPL
p129
aV28(1)
p130
aV2405
p131
aV4
aV-
aV6
aV-
aV0.5
p132
aV83.9
p133
aV0.3
p134
aV1
aV6.81
p135
aa(lp136
V2016/2017
p137
aVWest Ham
p138
aVEPL
p139
aV29(1)
p140
aV2399
p141
aV3
aV-
aV10
p142
aV-
aV0.8
p143
aV86.1
p144
aV0.1
p145
aV-
aV6.58
p146
aa(lp147
V2015/2016
p148
aVWest Ham
p149
aVEPL
p150
aV37
p151
aV3205
p152
aV7
aV4
aV8
aV1
aV0.9
p153
aV86.4
p154
aV0.5
p155
aV3
aV7.15
p156
aa(lp157
V2014/2015
p158
aVWest Ham
p159
aVEPL
p160
aV27(1)
p161
aV2308
p162
aV2
aV3
aV4
aV-
aV0.8
p163
aV85.2
p164
aV0.3
p165
aV-
aV7.04
p166
aa(lp167
V2013/2014
p168
aVWest Ham
p169
aVEPL
p170
aV38
p171
aV3344
p172
aV3
aV4
aV6
aV1
aV0.6
p173
aV82.8
p174
aV0.3
p175
aV3
aV7.13
p176
aa(lp177
V2012/2013
p178
aVWest Ham
p179
aVEPL
p180
aV25(3)
p181
aV2286
p182
aV4
aV3
aV7
aV-
aV0.5
p183
aV82.6
p184
aV0.2
p185
aV4
aV7.08
p186
aa(lp187
V2010/2011
p188
aVWest Ham
p189
aVEPL
p190
aV25(1)
p191
aV2144
p192
aV4
aV3
aV7
aV-
aV1.5
p193
aV85.5
p194
aV0.2
p195
aV-
aV6.95
p196
aa(lp197
V2009/2010
p198
aVWest Ham
p199
aVEPL
p200
aV25(2)
p201
aV2123
p202
aV2
aV4
aV5
aV1
aV1.2
p203
aV82.5
p204
aV0.1
p205
aV4
aV7.06
p206
aa(lp207
VTotal / Average
p208
aV
aV
aV255
p209
aV21147
p210
aV29
p211
aV23
p212
aV57
p213
aV4
aV0.8
p214
aV84.4
p215
aV0.3
p216
aV15
p217
aV6.96
p218
aasS'defensive_data'
p219
(lp220
(lp221
a(lp222
V2018/2019
p223
aVWest Ham
p224
aVEPL
p225
aV12
p226
aV933
p227
aV-
aV2
aV4
aV1
aV0.3
p228
aV83.4
p229
aV0.4
p230
aV-
aV6.45
p231
aa(lp232
V2017/2018
p233
aVWest Ham
p234
aVEPL
p235
aV28(1)
p236
aV2405
p237
aV4
aV-
aV6
aV-
aV0.5
p238
aV83.9
p239
aV0.3
p240
aV1
aV6.81
p241
aa(lp242
V2016/2017
p243
aVWest Ham
p244
aVEPL
p245
aV29(1)
p246
aV2399
p247
aV3
aV-
aV10
p248
aV-
aV0.8
p249
aV86.1
p250
aV0.1
p251
aV-
aV6.58
p252
aa(lp253
V2015/2016
p254
aVWest Ham
p255
aVEPL
p256
aV37
p257
aV3205
p258
aV7
aV4
aV8
aV1
aV0.9
p259
aV86.4
p260
aV0.5
p261
aV3
aV7.15
p262
aa(lp263
V2014/2015
p264
aVWest Ham
p265
aVEPL
p266
aV27(1)
p267
aV2308
p268
aV2
aV3
aV4
aV-
aV0.8
p269
aV85.2
p270
aV0.3
p271
aV-
aV7.04
p272
aa(lp273
V2013/2014
p274
aVWest Ham
p275
aVEPL
p276
aV38
p277
aV3344
p278
aV3
aV4
aV6
aV1
aV0.6
p279
aV82.8
p280
aV0.3
p281
aV3
aV7.13
p282
aa(lp283
V2012/2013
p284
aVWest Ham
p285
aVEPL
p286
aV25(3)
p287
aV2286
p288
aV4
aV3
aV7
aV-
aV0.5
p289
aV82.6
p290
aV0.2
p291
aV4
aV7.08
p292
aa(lp293
V2010/2011
p294
aVWest Ham
p295
aVEPL
p296
aV25(1)
p297
aV2144
p298
aV4
aV3
aV7
aV-
aV1.5
p299
aV85.5
p300
aV0.2
p301
aV-
aV6.95
p302
aa(lp303
V2009/2010
p304
aVWest Ham
p305
aVEPL
p306
aV25(2)
p307
aV2123
p308
aV2
aV4
aV5
aV1
aV1.2
p309
aV82.5
p310
aV0.1
p311
aV4
aV7.06
p312
aa(lp313
VTotal / Average
p314
aV
aV
aV255
p315
aV21147
p316
aV29
p317
aV23
p318
aV57
p319
aV4
aV0.8
p320
aV84.4
p321
aV0.3
p322
aV15
p323
aV6.96
p324
aasS'sumary_data'
p325
(lp326
(lp327
a(lp328
V2018/2019
p329
aVWest Ham
p330
aVEPL
p331
aV12
p332
aV933
p333
aV-
aV2
aV4
aV1
aV0.3
p334
aV83.4
p335
aV0.4
p336
aV-
aV6.45
p337
aa(lp338
V2017/2018
p339
aVWest Ham
p340
aVEPL
p341
aV28(1)
p342
aV2405
p343
aV4
aV-
aV6
aV-
aV0.5
p344
aV83.9
p345
aV0.3
p346
aV1
aV6.81
p347
aa(lp348
V2016/2017
p349
aVWest Ham
p350
aVEPL
p351
aV29(1)
p352
aV2399
p353
aV3
aV-
aV10
p354
aV-
aV0.8
p355
aV86.1
p356
aV0.1
p357
aV-
aV6.58
p358
aa(lp359
V2015/2016
p360
aVWest Ham
p361
aVEPL
p362
aV37
p363
aV3205
p364
aV7
aV4
aV8
aV1
aV0.9
p365
aV86.4
p366
aV0.5
p367
aV3
aV7.15
p368
aa(lp369
V2014/2015
p370
aVWest Ham
p371
aVEPL
p372
aV27(1)
p373
aV2308
p374
aV2
aV3
aV4
aV-
aV0.8
p375
aV85.2
p376
aV0.3
p377
aV-
aV7.04
p378
aa(lp379
V2013/2014
p380
aVWest Ham
p381
aVEPL
p382
aV38
p383
aV3344
p384
aV3
aV4
aV6
aV1
aV0.6
p385
aV82.8
p386
aV0.3
p387
aV3
aV7.13
p388
aa(lp389
V2012/2013
p390
aVWest Ham
p391
aVEPL
p392
aV25(3)
p393
aV2286
p394
aV4
aV3
aV7
aV-
aV0.5
p395
aV82.6
p396
aV0.2
p397
aV4
aV7.08
p398
aa(lp399
V2010/2011
p400
aVWest Ham
p401
aVEPL
p402
aV25(1)
p403
aV2144
p404
aV4
aV3
aV7
aV-
aV1.5
p405
aV85.5
p406
aV0.2
p407
aV-
aV6.95
p408
aa(lp409
V2009/2010
p410
aVWest Ham
p411
aVEPL
p412
aV25(2)
p413
aV2123
p414
aV2
aV4
aV5
aV1
aV1.2
p415
aV82.5
p416
aV0.1
p417
aV4
aV7.06
p418
aa(lp419
VTotal / Average
p420
aV
aV
aV255
p421
aV21147
p422
aV29
p423
aV23
p424
aV57
p425
aV4
aV0.8
p426
aV84.4
p427
aV0.3
p428
aV15
p429
aV6.96
p430
aasS'id'
p431
V8247
p432
sb.