(i__main__
Player
p1
(dp2
S'name'
p3
VJonathan Hogg 
p4
sS'offensive_data'
p5
(lp6
(lp7
a(lp8
V2018/2019
p9
aVHuddersfield
p10
aVEPL
p11
aV13
p12
aV1079
p13
aV-
aV1
aV2
aV1
aV0.3
p14
aV86
p15
aV0.9
p16
aV-
aV6.77
p17
aa(lp18
V2017/2018
p19
aVHuddersfield
p20
aVEPL
p21
aV29(1)
p22
aV2408
p23
aV-
aV-
aV8
aV1
aV0.4
p24
aV85.1
p25
aV1.2
p26
aV1
aV6.76
p27
aa(lp28
V2016/2017
p29
aVHuddersfield
p30
aVEC
p31
aV36(4)
p32
aV3137
p33
aV1
aV-
aV9
aV-
aV0.3
p34
aV88.2
p35
aV1.6
p36
aV-
aV6.82
p37
aa(lp38
V2015/2016
p39
aVHuddersfield
p40
aVEC
p41
aV19(3)
p42
aV1719
p43
aV-
aV-
aV6
aV-
aV0.2
p44
aV86.2
p45
aV1.4
p46
aV-
aV6.97
p47
aa(lp48
V2014/2015
p49
aVHuddersfield
p50
aVEC
p51
aV23(3)
p52
aV1841
p53
aV-
aV3
aV3
aV-
aV0.4
p54
aV86.8
p55
aV1.1
p56
aV1
aV6.70
p57
aa(lp58
V2013/2014
p59
aVHuddersfield
p60
aVEC
p61
aV34
p62
aV2772
p63
aV-
aV2
aV5
aV-
aV0.5
p64
aV83.7
p65
aV0.9
p66
aV-
aV6.62
p67
aa(lp68
V2010/2011
p69
aVAston Villa
p70
aVEPL
p71
aV5
aV397
p72
aV-
aV-
aV1
aV-
aV-
aV77.2
p73
aV1.2
p74
aV-
aV6.67
p75
aa(lp76
VTotal / Average
p77
aV
aV
aV170
p78
aV13353
p79
aV1
aV6
aV34
p80
aV2
aV0.3
p81
aV85.8
p82
aV1.2
p83
aV2
aV6.76
p84
aasS'url'
p85
S'https://www.whoscored.com/Players/82593/History/'
p86
sS'passing_data'
p87
(lp88
(lp89
a(lp90
V2018/2019
p91
aVHuddersfield
p92
aVEPL
p93
aV13
p94
aV1079
p95
aV-
aV1
aV2
aV1
aV0.3
p96
aV86
p97
aV0.9
p98
aV-
aV6.77
p99
aa(lp100
V2017/2018
p101
aVHuddersfield
p102
aVEPL
p103
aV29(1)
p104
aV2408
p105
aV-
aV-
aV8
aV1
aV0.4
p106
aV85.1
p107
aV1.2
p108
aV1
aV6.76
p109
aa(lp110
V2016/2017
p111
aVHuddersfield
p112
aVEC
p113
aV36(4)
p114
aV3137
p115
aV1
aV-
aV9
aV-
aV0.3
p116
aV88.2
p117
aV1.6
p118
aV-
aV6.82
p119
aa(lp120
V2015/2016
p121
aVHuddersfield
p122
aVEC
p123
aV19(3)
p124
aV1719
p125
aV-
aV-
aV6
aV-
aV0.2
p126
aV86.2
p127
aV1.4
p128
aV-
aV6.97
p129
aa(lp130
V2014/2015
p131
aVHuddersfield
p132
aVEC
p133
aV23(3)
p134
aV1841
p135
aV-
aV3
aV3
aV-
aV0.4
p136
aV86.8
p137
aV1.1
p138
aV1
aV6.70
p139
aa(lp140
V2013/2014
p141
aVHuddersfield
p142
aVEC
p143
aV34
p144
aV2772
p145
aV-
aV2
aV5
aV-
aV0.5
p146
aV83.7
p147
aV0.9
p148
aV-
aV6.62
p149
aa(lp150
V2010/2011
p151
aVAston Villa
p152
aVEPL
p153
aV5
aV397
p154
aV-
aV-
aV1
aV-
aV-
aV77.2
p155
aV1.2
p156
aV-
aV6.67
p157
aa(lp158
VTotal / Average
p159
aV
aV
aV170
p160
aV13353
p161
aV1
aV6
aV34
p162
aV2
aV0.3
p163
aV85.8
p164
aV1.2
p165
aV2
aV6.76
p166
aasS'defensive_data'
p167
(lp168
(lp169
a(lp170
V2018/2019
p171
aVHuddersfield
p172
aVEPL
p173
aV13
p174
aV1079
p175
aV-
aV1
aV2
aV1
aV0.3
p176
aV86
p177
aV0.9
p178
aV-
aV6.77
p179
aa(lp180
V2017/2018
p181
aVHuddersfield
p182
aVEPL
p183
aV29(1)
p184
aV2408
p185
aV-
aV-
aV8
aV1
aV0.4
p186
aV85.1
p187
aV1.2
p188
aV1
aV6.76
p189
aa(lp190
V2016/2017
p191
aVHuddersfield
p192
aVEC
p193
aV36(4)
p194
aV3137
p195
aV1
aV-
aV9
aV-
aV0.3
p196
aV88.2
p197
aV1.6
p198
aV-
aV6.82
p199
aa(lp200
V2015/2016
p201
aVHuddersfield
p202
aVEC
p203
aV19(3)
p204
aV1719
p205
aV-
aV-
aV6
aV-
aV0.2
p206
aV86.2
p207
aV1.4
p208
aV-
aV6.97
p209
aa(lp210
V2014/2015
p211
aVHuddersfield
p212
aVEC
p213
aV23(3)
p214
aV1841
p215
aV-
aV3
aV3
aV-
aV0.4
p216
aV86.8
p217
aV1.1
p218
aV1
aV6.70
p219
aa(lp220
V2013/2014
p221
aVHuddersfield
p222
aVEC
p223
aV34
p224
aV2772
p225
aV-
aV2
aV5
aV-
aV0.5
p226
aV83.7
p227
aV0.9
p228
aV-
aV6.62
p229
aa(lp230
V2010/2011
p231
aVAston Villa
p232
aVEPL
p233
aV5
aV397
p234
aV-
aV-
aV1
aV-
aV-
aV77.2
p235
aV1.2
p236
aV-
aV6.67
p237
aa(lp238
VTotal / Average
p239
aV
aV
aV170
p240
aV13353
p241
aV1
aV6
aV34
p242
aV2
aV0.3
p243
aV85.8
p244
aV1.2
p245
aV2
aV6.76
p246
aasS'sumary_data'
p247
(lp248
(lp249
a(lp250
V2018/2019
p251
aVHuddersfield
p252
aVEPL
p253
aV13
p254
aV1079
p255
aV-
aV1
aV2
aV1
aV0.3
p256
aV86
p257
aV0.9
p258
aV-
aV6.77
p259
aa(lp260
V2017/2018
p261
aVHuddersfield
p262
aVEPL
p263
aV29(1)
p264
aV2408
p265
aV-
aV-
aV8
aV1
aV0.4
p266
aV85.1
p267
aV1.2
p268
aV1
aV6.76
p269
aa(lp270
V2016/2017
p271
aVHuddersfield
p272
aVEC
p273
aV36(4)
p274
aV3137
p275
aV1
aV-
aV9
aV-
aV0.3
p276
aV88.2
p277
aV1.6
p278
aV-
aV6.82
p279
aa(lp280
V2015/2016
p281
aVHuddersfield
p282
aVEC
p283
aV19(3)
p284
aV1719
p285
aV-
aV-
aV6
aV-
aV0.2
p286
aV86.2
p287
aV1.4
p288
aV-
aV6.97
p289
aa(lp290
V2014/2015
p291
aVHuddersfield
p292
aVEC
p293
aV23(3)
p294
aV1841
p295
aV-
aV3
aV3
aV-
aV0.4
p296
aV86.8
p297
aV1.1
p298
aV1
aV6.70
p299
aa(lp300
V2013/2014
p301
aVHuddersfield
p302
aVEC
p303
aV34
p304
aV2772
p305
aV-
aV2
aV5
aV-
aV0.5
p306
aV83.7
p307
aV0.9
p308
aV-
aV6.62
p309
aa(lp310
V2010/2011
p311
aVAston Villa
p312
aVEPL
p313
aV5
aV397
p314
aV-
aV-
aV1
aV-
aV-
aV77.2
p315
aV1.2
p316
aV-
aV6.67
p317
aa(lp318
VTotal / Average
p319
aV
aV
aV170
p320
aV13353
p321
aV1
aV6
aV34
p322
aV2
aV0.3
p323
aV85.8
p324
aV1.2
p325
aV2
aV6.76
p326
aasS'id'
p327
V82593
p328
sb.