(i__main__
Player
p1
(dp2
S'name'
p3
VKieran Trippier 
p4
sS'offensive_data'
p5
(lp6
(lp7
a(lp8
V2018/2019
p9
aVTottenham
p10
aVEPL
p11
aV13
p12
aV1087
p13
aV1
aV3
aV1
aV-
aV0.2
p14
aV76.1
p15
aV1.4
p16
aV-
aV7.19
p17
aa(lp18
V2018/2019
p19
aVTottenham
p20
aVUCL
p21
aV2(1)
p22
aV196
p23
aV-
aV1
aV1
aV-
aV0.3
p24
aV82.9
p25
aV1
aV-
aV6.91
p26
aa(lp27
V2018/2019
p28
aVEngland
p29
aVUNL
p30
aV2
aV175
p31
aV-
aV-
aV-
aV-
aV-
aV69.3
p32
aV0.5
p33
aV-
aV6.54
p34
aa(lp35
V2017/2018
p36
aVTottenham
p37
aVUCL
p38
aV3
aV270
p39
aV-
aV3
aV-
aV-
aV-
aV81
p40
aV1.7
p41
aV-
aV7.68
p42
aa(lp43
V2017/2018
p44
aVTottenham
p45
aVEPL
p46
aV21(3)
p47
aV1914
p48
aV-
aV5
aV1
aV-
aV0.3
p49
aV81.4
p50
aV1.5
p51
aV-
aV7.04
p52
aa(lp53
V2016/2017
p54
aVTottenham
p55
aVUCL
p56
aV3
aV270
p57
aV-
aV-
aV1
aV-
aV-
aV82.1
p58
aV2
aV-
aV7.35
p59
aa(lp60
V2016/2017
p61
aVTottenham
p62
aVEPL
p63
aV6(6)
p64
aV566
p65
aV-
aV5
aV1
aV-
aV0.3
p66
aV76.3
p67
aV0.3
p68
aV-
aV6.86
p69
aa(lp70
V2018
p71
aVEngland
p72
aVWC
p73
aV6
aV576
p74
aV1
aV1
aV-
aV-
aV0.5
p75
aV75.9
p76
aV2.7
p77
aV1
aV7.96
p78
aa(lp79
V2015/2016
p80
aVTottenham
p81
aVUEL
p82
aV10
p83
aV900
p84
aV-
aV-
aV1
aV-
aV0.3
p85
aV80.2
p86
aV1.9
p87
aV-
aV7.01
p88
aa(lp89
V2015/2016
p90
aVTottenham
p91
aVEPL
p92
aV5(1)
p93
aV458
p94
aV1
aV1
aV1
aV-
aV0.3
p95
aV74
p96
aV1.8
p97
aV-
aV7.26
p98
aa(lp99
V2014/2015
p100
aVBurnley
p101
aVEPL
p102
aV38
p103
aV3416
p104
aV-
aV4
aV2
aV-
aV0.3
p105
aV60.7
p106
aV1.9
p107
aV-
aV7.15
p108
aa(lp109
V2013/2014
p110
aVBurnley
p111
aVEC
p112
aV41
p113
aV3678
p114
aV2
aV14
p115
aV1
aV-
aV0.8
p116
aV61.9
p117
aV1.9
p118
aV8
aV7.57
p119
aa(lp120
VTotal / Average
p121
aV
aV
aV161
p122
aV13506
p123
aV5
aV37
p124
aV10
p125
aV0
aV0.4
p126
aV70.1
p127
aV1.7
p128
aV9
aV7.25
p129
aasS'url'
p130
S'https://www.whoscored.com/Players/83078/History/'
p131
sS'passing_data'
p132
(lp133
(lp134
a(lp135
V2018/2019
p136
aVTottenham
p137
aVEPL
p138
aV13
p139
aV1087
p140
aV1
aV3
aV1
aV-
aV0.2
p141
aV76.1
p142
aV1.4
p143
aV-
aV7.19
p144
aa(lp145
V2018/2019
p146
aVTottenham
p147
aVUCL
p148
aV2(1)
p149
aV196
p150
aV-
aV1
aV1
aV-
aV0.3
p151
aV82.9
p152
aV1
aV-
aV6.91
p153
aa(lp154
V2018/2019
p155
aVEngland
p156
aVUNL
p157
aV2
aV175
p158
aV-
aV-
aV-
aV-
aV-
aV69.3
p159
aV0.5
p160
aV-
aV6.54
p161
aa(lp162
V2017/2018
p163
aVTottenham
p164
aVUCL
p165
aV3
aV270
p166
aV-
aV3
aV-
aV-
aV-
aV81
p167
aV1.7
p168
aV-
aV7.68
p169
aa(lp170
V2017/2018
p171
aVTottenham
p172
aVEPL
p173
aV21(3)
p174
aV1914
p175
aV-
aV5
aV1
aV-
aV0.3
p176
aV81.4
p177
aV1.5
p178
aV-
aV7.04
p179
aa(lp180
V2016/2017
p181
aVTottenham
p182
aVUCL
p183
aV3
aV270
p184
aV-
aV-
aV1
aV-
aV-
aV82.1
p185
aV2
aV-
aV7.35
p186
aa(lp187
V2016/2017
p188
aVTottenham
p189
aVEPL
p190
aV6(6)
p191
aV566
p192
aV-
aV5
aV1
aV-
aV0.3
p193
aV76.3
p194
aV0.3
p195
aV-
aV6.86
p196
aa(lp197
V2018
p198
aVEngland
p199
aVWC
p200
aV6
aV576
p201
aV1
aV1
aV-
aV-
aV0.5
p202
aV75.9
p203
aV2.7
p204
aV1
aV7.96
p205
aa(lp206
V2015/2016
p207
aVTottenham
p208
aVUEL
p209
aV10
p210
aV900
p211
aV-
aV-
aV1
aV-
aV0.3
p212
aV80.2
p213
aV1.9
p214
aV-
aV7.01
p215
aa(lp216
V2015/2016
p217
aVTottenham
p218
aVEPL
p219
aV5(1)
p220
aV458
p221
aV1
aV1
aV1
aV-
aV0.3
p222
aV74
p223
aV1.8
p224
aV-
aV7.26
p225
aa(lp226
V2014/2015
p227
aVBurnley
p228
aVEPL
p229
aV38
p230
aV3416
p231
aV-
aV4
aV2
aV-
aV0.3
p232
aV60.7
p233
aV1.9
p234
aV-
aV7.15
p235
aa(lp236
V2013/2014
p237
aVBurnley
p238
aVEC
p239
aV41
p240
aV3678
p241
aV2
aV14
p242
aV1
aV-
aV0.8
p243
aV61.9
p244
aV1.9
p245
aV8
aV7.57
p246
aa(lp247
VTotal / Average
p248
aV
aV
aV161
p249
aV13506
p250
aV5
aV37
p251
aV10
p252
aV0
aV0.4
p253
aV70.1
p254
aV1.7
p255
aV9
aV7.25
p256
aasS'defensive_data'
p257
(lp258
(lp259
a(lp260
V2018/2019
p261
aVTottenham
p262
aVEPL
p263
aV13
p264
aV1087
p265
aV1
aV3
aV1
aV-
aV0.2
p266
aV76.1
p267
aV1.4
p268
aV-
aV7.19
p269
aa(lp270
V2018/2019
p271
aVTottenham
p272
aVUCL
p273
aV2(1)
p274
aV196
p275
aV-
aV1
aV1
aV-
aV0.3
p276
aV82.9
p277
aV1
aV-
aV6.91
p278
aa(lp279
V2018/2019
p280
aVEngland
p281
aVUNL
p282
aV2
aV175
p283
aV-
aV-
aV-
aV-
aV-
aV69.3
p284
aV0.5
p285
aV-
aV6.54
p286
aa(lp287
V2017/2018
p288
aVTottenham
p289
aVUCL
p290
aV3
aV270
p291
aV-
aV3
aV-
aV-
aV-
aV81
p292
aV1.7
p293
aV-
aV7.68
p294
aa(lp295
V2017/2018
p296
aVTottenham
p297
aVEPL
p298
aV21(3)
p299
aV1914
p300
aV-
aV5
aV1
aV-
aV0.3
p301
aV81.4
p302
aV1.5
p303
aV-
aV7.04
p304
aa(lp305
V2016/2017
p306
aVTottenham
p307
aVUCL
p308
aV3
aV270
p309
aV-
aV-
aV1
aV-
aV-
aV82.1
p310
aV2
aV-
aV7.35
p311
aa(lp312
V2016/2017
p313
aVTottenham
p314
aVEPL
p315
aV6(6)
p316
aV566
p317
aV-
aV5
aV1
aV-
aV0.3
p318
aV76.3
p319
aV0.3
p320
aV-
aV6.86
p321
aa(lp322
V2018
p323
aVEngland
p324
aVWC
p325
aV6
aV576
p326
aV1
aV1
aV-
aV-
aV0.5
p327
aV75.9
p328
aV2.7
p329
aV1
aV7.96
p330
aa(lp331
V2015/2016
p332
aVTottenham
p333
aVUEL
p334
aV10
p335
aV900
p336
aV-
aV-
aV1
aV-
aV0.3
p337
aV80.2
p338
aV1.9
p339
aV-
aV7.01
p340
aa(lp341
V2015/2016
p342
aVTottenham
p343
aVEPL
p344
aV5(1)
p345
aV458
p346
aV1
aV1
aV1
aV-
aV0.3
p347
aV74
p348
aV1.8
p349
aV-
aV7.26
p350
aa(lp351
V2014/2015
p352
aVBurnley
p353
aVEPL
p354
aV38
p355
aV3416
p356
aV-
aV4
aV2
aV-
aV0.3
p357
aV60.7
p358
aV1.9
p359
aV-
aV7.15
p360
aa(lp361
V2013/2014
p362
aVBurnley
p363
aVEC
p364
aV41
p365
aV3678
p366
aV2
aV14
p367
aV1
aV-
aV0.8
p368
aV61.9
p369
aV1.9
p370
aV8
aV7.57
p371
aa(lp372
VTotal / Average
p373
aV
aV
aV161
p374
aV13506
p375
aV5
aV37
p376
aV10
p377
aV0
aV0.4
p378
aV70.1
p379
aV1.7
p380
aV9
aV7.25
p381
aasS'sumary_data'
p382
(lp383
(lp384
a(lp385
V2018/2019
p386
aVTottenham
p387
aVEPL
p388
aV13
p389
aV1087
p390
aV1
aV3
aV1
aV-
aV0.2
p391
aV76.1
p392
aV1.4
p393
aV-
aV7.19
p394
aa(lp395
V2018/2019
p396
aVTottenham
p397
aVUCL
p398
aV2(1)
p399
aV196
p400
aV-
aV1
aV1
aV-
aV0.3
p401
aV82.9
p402
aV1
aV-
aV6.91
p403
aa(lp404
V2018/2019
p405
aVEngland
p406
aVUNL
p407
aV2
aV175
p408
aV-
aV-
aV-
aV-
aV-
aV69.3
p409
aV0.5
p410
aV-
aV6.54
p411
aa(lp412
V2017/2018
p413
aVTottenham
p414
aVUCL
p415
aV3
aV270
p416
aV-
aV3
aV-
aV-
aV-
aV81
p417
aV1.7
p418
aV-
aV7.68
p419
aa(lp420
V2017/2018
p421
aVTottenham
p422
aVEPL
p423
aV21(3)
p424
aV1914
p425
aV-
aV5
aV1
aV-
aV0.3
p426
aV81.4
p427
aV1.5
p428
aV-
aV7.04
p429
aa(lp430
V2016/2017
p431
aVTottenham
p432
aVUCL
p433
aV3
aV270
p434
aV-
aV-
aV1
aV-
aV-
aV82.1
p435
aV2
aV-
aV7.35
p436
aa(lp437
V2016/2017
p438
aVTottenham
p439
aVEPL
p440
aV6(6)
p441
aV566
p442
aV-
aV5
aV1
aV-
aV0.3
p443
aV76.3
p444
aV0.3
p445
aV-
aV6.86
p446
aa(lp447
V2018
p448
aVEngland
p449
aVWC
p450
aV6
aV576
p451
aV1
aV1
aV-
aV-
aV0.5
p452
aV75.9
p453
aV2.7
p454
aV1
aV7.96
p455
aa(lp456
V2015/2016
p457
aVTottenham
p458
aVUEL
p459
aV10
p460
aV900
p461
aV-
aV-
aV1
aV-
aV0.3
p462
aV80.2
p463
aV1.9
p464
aV-
aV7.01
p465
aa(lp466
V2015/2016
p467
aVTottenham
p468
aVEPL
p469
aV5(1)
p470
aV458
p471
aV1
aV1
aV1
aV-
aV0.3
p472
aV74
p473
aV1.8
p474
aV-
aV7.26
p475
aa(lp476
V2014/2015
p477
aVBurnley
p478
aVEPL
p479
aV38
p480
aV3416
p481
aV-
aV4
aV2
aV-
aV0.3
p482
aV60.7
p483
aV1.9
p484
aV-
aV7.15
p485
aa(lp486
V2013/2014
p487
aVBurnley
p488
aVEC
p489
aV41
p490
aV3678
p491
aV2
aV14
p492
aV1
aV-
aV0.8
p493
aV61.9
p494
aV1.9
p495
aV8
aV7.57
p496
aa(lp497
VTotal / Average
p498
aV
aV
aV161
p499
aV13506
p500
aV5
aV37
p501
aV10
p502
aV0
aV0.4
p503
aV70.1
p504
aV1.7
p505
aV9
aV7.25
p506
aasS'id'
p507
V83078
p508
sb.