(i__main__
Player
p1
(dp2
S'name'
p3
VDanny Williams 
p4
sS'offensive_data'
p5
(lp6
(lp7
a(lp8
V2018/2019
p9
aVHuddersfield
p10
aVEPL
p11
aV1(2)
p12
aV84
p13
aV-
aV-
aV1
aV-
aV0.3
p14
aV75
p15
aV-
aV-
aV6.12
p16
aa(lp17
V2017/2018
p18
aVHuddersfield
p19
aVEPL
p20
aV11(9)
p21
aV1118
p22
aV-
aV-
aV2
aV-
aV0.6
p23
aV77.1
p24
aV0.5
p25
aV-
aV6.35
p26
aa(lp27
V2016/2017
p28
aVReading
p29
aVEC
p30
aV39(5)
p31
aV3642
p32
aV4
aV1
aV9
aV1
aV1.5
p33
aV86.3
p34
aV0.9
p35
aV2
aV6.83
p36
aa(lp37
V2015/2016
p38
aVReading
p39
aVEC
p40
aV35(4)
p41
aV3228
p42
aV5
aV2
aV6
aV-
aV2.6
p43
aV86.3
p44
aV0.7
p45
aV4
aV6.97
p46
aa(lp47
V2014/2015
p48
aVReading
p49
aVEC
p50
aV21(4)
p51
aV1878
p52
aV1
aV-
aV4
aV1
aV1.2
p53
aV87.5
p54
aV0.9
p55
aV1
aV6.58
p56
aa(lp57
V2013/2014
p58
aVReading
p59
aVEC
p60
aV24(6)
p61
aV2191
p62
aV3
aV2
aV6
aV-
aV1.3
p63
aV79.9
p64
aV1.1
p65
aV1
aV6.86
p66
aa(lp67
V2012/2013
p68
aVHoffenheim
p69
aVGB
p70
aV17(4)
p71
aV1549
p72
aV1
aV-
aV8
aV-
aV0.5
p73
aV81.4
p74
aV0.9
p75
aV-
aV6.64
p76
aa(lp77
V2011/2012
p78
aVHoffenheim
p79
aVGB
p80
aV17(7)
p81
aV1590
p82
aV-
aV1
aV5
aV-
aV0.2
p83
aV81.9
p84
aV1
aV1
aV6.91
p85
aa(lp86
V2011/2012
p87
aVFreiburg
p88
aVGB
p89
aV1
aV90
p90
aV-
aV-
aV-
aV-
aV-
aV76.7
p91
aV-
aV-
aV6.62
p92
aa(lp93
V2010/2011
p94
aVFreiburg
p95
aVGB
p96
aV1(6)
p97
aV251
p98
aV-
aV-
aV-
aV-
aV-
aV68.1
p99
aV0.6
p100
aV-
aV6.23
p101
aa(lp102
V2009/2010
p103
aVFreiburg
p104
aVGB
p105
aV5(1)
p106
aV419
p107
aV-
aV-
aV1
aV-
aV-
aV70.7
p108
aV0.5
p109
aV-
aV6.24
p110
aa(lp111
VTotal / Average
p112
aV
aV
aV220
p113
aV16040
p114
aV14
p115
aV6
aV42
p116
aV2
aV1.2
p117
aV82.6
p118
aV0.8
p119
aV9
aV6.73
p120
aasS'url'
p121
S'https://www.whoscored.com/Players/83335/History/'
p122
sS'passing_data'
p123
(lp124
(lp125
a(lp126
V2018/2019
p127
aVHuddersfield
p128
aVEPL
p129
aV1(2)
p130
aV84
p131
aV-
aV-
aV1
aV-
aV0.3
p132
aV75
p133
aV-
aV-
aV6.12
p134
aa(lp135
V2017/2018
p136
aVHuddersfield
p137
aVEPL
p138
aV11(9)
p139
aV1118
p140
aV-
aV-
aV2
aV-
aV0.6
p141
aV77.1
p142
aV0.5
p143
aV-
aV6.35
p144
aa(lp145
V2016/2017
p146
aVReading
p147
aVEC
p148
aV39(5)
p149
aV3642
p150
aV4
aV1
aV9
aV1
aV1.5
p151
aV86.3
p152
aV0.9
p153
aV2
aV6.83
p154
aa(lp155
V2015/2016
p156
aVReading
p157
aVEC
p158
aV35(4)
p159
aV3228
p160
aV5
aV2
aV6
aV-
aV2.6
p161
aV86.3
p162
aV0.7
p163
aV4
aV6.97
p164
aa(lp165
V2014/2015
p166
aVReading
p167
aVEC
p168
aV21(4)
p169
aV1878
p170
aV1
aV-
aV4
aV1
aV1.2
p171
aV87.5
p172
aV0.9
p173
aV1
aV6.58
p174
aa(lp175
V2013/2014
p176
aVReading
p177
aVEC
p178
aV24(6)
p179
aV2191
p180
aV3
aV2
aV6
aV-
aV1.3
p181
aV79.9
p182
aV1.1
p183
aV1
aV6.86
p184
aa(lp185
V2012/2013
p186
aVHoffenheim
p187
aVGB
p188
aV17(4)
p189
aV1549
p190
aV1
aV-
aV8
aV-
aV0.5
p191
aV81.4
p192
aV0.9
p193
aV-
aV6.64
p194
aa(lp195
V2011/2012
p196
aVHoffenheim
p197
aVGB
p198
aV17(7)
p199
aV1590
p200
aV-
aV1
aV5
aV-
aV0.2
p201
aV81.9
p202
aV1
aV1
aV6.91
p203
aa(lp204
V2011/2012
p205
aVFreiburg
p206
aVGB
p207
aV1
aV90
p208
aV-
aV-
aV-
aV-
aV-
aV76.7
p209
aV-
aV-
aV6.62
p210
aa(lp211
V2010/2011
p212
aVFreiburg
p213
aVGB
p214
aV1(6)
p215
aV251
p216
aV-
aV-
aV-
aV-
aV-
aV68.1
p217
aV0.6
p218
aV-
aV6.23
p219
aa(lp220
V2009/2010
p221
aVFreiburg
p222
aVGB
p223
aV5(1)
p224
aV419
p225
aV-
aV-
aV1
aV-
aV-
aV70.7
p226
aV0.5
p227
aV-
aV6.24
p228
aa(lp229
VTotal / Average
p230
aV
aV
aV220
p231
aV16040
p232
aV14
p233
aV6
aV42
p234
aV2
aV1.2
p235
aV82.6
p236
aV0.8
p237
aV9
aV6.73
p238
aasS'defensive_data'
p239
(lp240
(lp241
a(lp242
V2018/2019
p243
aVHuddersfield
p244
aVEPL
p245
aV1(2)
p246
aV84
p247
aV-
aV-
aV1
aV-
aV0.3
p248
aV75
p249
aV-
aV-
aV6.12
p250
aa(lp251
V2017/2018
p252
aVHuddersfield
p253
aVEPL
p254
aV11(9)
p255
aV1118
p256
aV-
aV-
aV2
aV-
aV0.6
p257
aV77.1
p258
aV0.5
p259
aV-
aV6.35
p260
aa(lp261
V2016/2017
p262
aVReading
p263
aVEC
p264
aV39(5)
p265
aV3642
p266
aV4
aV1
aV9
aV1
aV1.5
p267
aV86.3
p268
aV0.9
p269
aV2
aV6.83
p270
aa(lp271
V2015/2016
p272
aVReading
p273
aVEC
p274
aV35(4)
p275
aV3228
p276
aV5
aV2
aV6
aV-
aV2.6
p277
aV86.3
p278
aV0.7
p279
aV4
aV6.97
p280
aa(lp281
V2014/2015
p282
aVReading
p283
aVEC
p284
aV21(4)
p285
aV1878
p286
aV1
aV-
aV4
aV1
aV1.2
p287
aV87.5
p288
aV0.9
p289
aV1
aV6.58
p290
aa(lp291
V2013/2014
p292
aVReading
p293
aVEC
p294
aV24(6)
p295
aV2191
p296
aV3
aV2
aV6
aV-
aV1.3
p297
aV79.9
p298
aV1.1
p299
aV1
aV6.86
p300
aa(lp301
V2012/2013
p302
aVHoffenheim
p303
aVGB
p304
aV17(4)
p305
aV1549
p306
aV1
aV-
aV8
aV-
aV0.5
p307
aV81.4
p308
aV0.9
p309
aV-
aV6.64
p310
aa(lp311
V2011/2012
p312
aVHoffenheim
p313
aVGB
p314
aV17(7)
p315
aV1590
p316
aV-
aV1
aV5
aV-
aV0.2
p317
aV81.9
p318
aV1
aV1
aV6.91
p319
aa(lp320
V2011/2012
p321
aVFreiburg
p322
aVGB
p323
aV1
aV90
p324
aV-
aV-
aV-
aV-
aV-
aV76.7
p325
aV-
aV-
aV6.62
p326
aa(lp327
V2010/2011
p328
aVFreiburg
p329
aVGB
p330
aV1(6)
p331
aV251
p332
aV-
aV-
aV-
aV-
aV-
aV68.1
p333
aV0.6
p334
aV-
aV6.23
p335
aa(lp336
V2009/2010
p337
aVFreiburg
p338
aVGB
p339
aV5(1)
p340
aV419
p341
aV-
aV-
aV1
aV-
aV-
aV70.7
p342
aV0.5
p343
aV-
aV6.24
p344
aa(lp345
VTotal / Average
p346
aV
aV
aV220
p347
aV16040
p348
aV14
p349
aV6
aV42
p350
aV2
aV1.2
p351
aV82.6
p352
aV0.8
p353
aV9
aV6.73
p354
aasS'sumary_data'
p355
(lp356
(lp357
a(lp358
V2018/2019
p359
aVHuddersfield
p360
aVEPL
p361
aV1(2)
p362
aV84
p363
aV-
aV-
aV1
aV-
aV0.3
p364
aV75
p365
aV-
aV-
aV6.12
p366
aa(lp367
V2017/2018
p368
aVHuddersfield
p369
aVEPL
p370
aV11(9)
p371
aV1118
p372
aV-
aV-
aV2
aV-
aV0.6
p373
aV77.1
p374
aV0.5
p375
aV-
aV6.35
p376
aa(lp377
V2016/2017
p378
aVReading
p379
aVEC
p380
aV39(5)
p381
aV3642
p382
aV4
aV1
aV9
aV1
aV1.5
p383
aV86.3
p384
aV0.9
p385
aV2
aV6.83
p386
aa(lp387
V2015/2016
p388
aVReading
p389
aVEC
p390
aV35(4)
p391
aV3228
p392
aV5
aV2
aV6
aV-
aV2.6
p393
aV86.3
p394
aV0.7
p395
aV4
aV6.97
p396
aa(lp397
V2014/2015
p398
aVReading
p399
aVEC
p400
aV21(4)
p401
aV1878
p402
aV1
aV-
aV4
aV1
aV1.2
p403
aV87.5
p404
aV0.9
p405
aV1
aV6.58
p406
aa(lp407
V2013/2014
p408
aVReading
p409
aVEC
p410
aV24(6)
p411
aV2191
p412
aV3
aV2
aV6
aV-
aV1.3
p413
aV79.9
p414
aV1.1
p415
aV1
aV6.86
p416
aa(lp417
V2012/2013
p418
aVHoffenheim
p419
aVGB
p420
aV17(4)
p421
aV1549
p422
aV1
aV-
aV8
aV-
aV0.5
p423
aV81.4
p424
aV0.9
p425
aV-
aV6.64
p426
aa(lp427
V2011/2012
p428
aVHoffenheim
p429
aVGB
p430
aV17(7)
p431
aV1590
p432
aV-
aV1
aV5
aV-
aV0.2
p433
aV81.9
p434
aV1
aV1
aV6.91
p435
aa(lp436
V2011/2012
p437
aVFreiburg
p438
aVGB
p439
aV1
aV90
p440
aV-
aV-
aV-
aV-
aV-
aV76.7
p441
aV-
aV-
aV6.62
p442
aa(lp443
V2010/2011
p444
aVFreiburg
p445
aVGB
p446
aV1(6)
p447
aV251
p448
aV-
aV-
aV-
aV-
aV-
aV68.1
p449
aV0.6
p450
aV-
aV6.23
p451
aa(lp452
V2009/2010
p453
aVFreiburg
p454
aVGB
p455
aV5(1)
p456
aV419
p457
aV-
aV-
aV1
aV-
aV-
aV70.7
p458
aV0.5
p459
aV-
aV6.24
p460
aa(lp461
VTotal / Average
p462
aV
aV
aV220
p463
aV16040
p464
aV14
p465
aV6
aV42
p466
aV2
aV1.2
p467
aV82.6
p468
aV0.8
p469
aV9
aV6.73
p470
aasS'id'
p471
V83335
p472
sb.