(i__main__
Player
p1
(dp2
S'name'
p3
VGreg Cunningham 
p4
sS'offensive_data'
p5
(lp6
(lp7
a(lp8
V2018/2019
p9
aVCardiff
p10
aVEPL
p11
aV4
aV360
p12
aV-
aV-
aV2
aV-
aV0.3
p13
aV74.5
p14
aV0.5
p15
aV-
aV6.39
p16
aa(lp17
V2017/2018
p18
aVPreston
p19
aVEC
p20
aV20
p21
aV1734
p22
aV1
aV2
aV4
aV1
aV0.5
p23
aV72.5
p24
aV2.8
p25
aV1
aV7.03
p26
aa(lp27
V2016/2017
p28
aVPreston
p29
aVEC
p30
aV40
p31
aV3520
p32
aV1
aV5
aV12
p33
aV-
aV0.5
p34
aV70.1
p35
aV2.1
p36
aV2
aV7.14
p37
aa(lp38
V2015/2016
p39
aVPreston
p40
aVEC
p41
aV43
p42
aV3780
p43
aV2
aV3
aV9
aV-
aV0.6
p44
aV72.7
p45
aV1.8
p46
aV-
aV7.11
p47
aa(lp48
V2009/2010
p49
aVManchester Ci..
p50
aVEPL
p51
aV0(2)
p52
aV2
aV-
aV-
aV-
aV-
aV-
aV100
p53
aV-
aV-
aV6.00
p54
aa(lp55
VTotal / Average
p56
aV
aV
aV109
p57
aV9396
p58
aV4
aV10
p59
aV27
p60
aV1
aV0.5
p61
aV72.3
p62
aV2
aV3
aV7.06
p63
aasS'url'
p64
S'https://www.whoscored.com/Players/83394/History/'
p65
sS'passing_data'
p66
(lp67
(lp68
a(lp69
V2018/2019
p70
aVCardiff
p71
aVEPL
p72
aV4
aV360
p73
aV-
aV-
aV2
aV-
aV0.3
p74
aV74.5
p75
aV0.5
p76
aV-
aV6.39
p77
aa(lp78
V2017/2018
p79
aVPreston
p80
aVEC
p81
aV20
p82
aV1734
p83
aV1
aV2
aV4
aV1
aV0.5
p84
aV72.5
p85
aV2.8
p86
aV1
aV7.03
p87
aa(lp88
V2016/2017
p89
aVPreston
p90
aVEC
p91
aV40
p92
aV3520
p93
aV1
aV5
aV12
p94
aV-
aV0.5
p95
aV70.1
p96
aV2.1
p97
aV2
aV7.14
p98
aa(lp99
V2015/2016
p100
aVPreston
p101
aVEC
p102
aV43
p103
aV3780
p104
aV2
aV3
aV9
aV-
aV0.6
p105
aV72.7
p106
aV1.8
p107
aV-
aV7.11
p108
aa(lp109
V2009/2010
p110
aVManchester Ci..
p111
aVEPL
p112
aV0(2)
p113
aV2
aV-
aV-
aV-
aV-
aV-
aV100
p114
aV-
aV-
aV6.00
p115
aa(lp116
VTotal / Average
p117
aV
aV
aV109
p118
aV9396
p119
aV4
aV10
p120
aV27
p121
aV1
aV0.5
p122
aV72.3
p123
aV2
aV3
aV7.06
p124
aasS'defensive_data'
p125
(lp126
(lp127
a(lp128
V2018/2019
p129
aVCardiff
p130
aVEPL
p131
aV4
aV360
p132
aV-
aV-
aV2
aV-
aV0.3
p133
aV74.5
p134
aV0.5
p135
aV-
aV6.39
p136
aa(lp137
V2017/2018
p138
aVPreston
p139
aVEC
p140
aV20
p141
aV1734
p142
aV1
aV2
aV4
aV1
aV0.5
p143
aV72.5
p144
aV2.8
p145
aV1
aV7.03
p146
aa(lp147
V2016/2017
p148
aVPreston
p149
aVEC
p150
aV40
p151
aV3520
p152
aV1
aV5
aV12
p153
aV-
aV0.5
p154
aV70.1
p155
aV2.1
p156
aV2
aV7.14
p157
aa(lp158
V2015/2016
p159
aVPreston
p160
aVEC
p161
aV43
p162
aV3780
p163
aV2
aV3
aV9
aV-
aV0.6
p164
aV72.7
p165
aV1.8
p166
aV-
aV7.11
p167
aa(lp168
V2009/2010
p169
aVManchester Ci..
p170
aVEPL
p171
aV0(2)
p172
aV2
aV-
aV-
aV-
aV-
aV-
aV100
p173
aV-
aV-
aV6.00
p174
aa(lp175
VTotal / Average
p176
aV
aV
aV109
p177
aV9396
p178
aV4
aV10
p179
aV27
p180
aV1
aV0.5
p181
aV72.3
p182
aV2
aV3
aV7.06
p183
aasS'sumary_data'
p184
(lp185
(lp186
a(lp187
V2018/2019
p188
aVCardiff
p189
aVEPL
p190
aV4
aV360
p191
aV-
aV-
aV2
aV-
aV0.3
p192
aV74.5
p193
aV0.5
p194
aV-
aV6.39
p195
aa(lp196
V2017/2018
p197
aVPreston
p198
aVEC
p199
aV20
p200
aV1734
p201
aV1
aV2
aV4
aV1
aV0.5
p202
aV72.5
p203
aV2.8
p204
aV1
aV7.03
p205
aa(lp206
V2016/2017
p207
aVPreston
p208
aVEC
p209
aV40
p210
aV3520
p211
aV1
aV5
aV12
p212
aV-
aV0.5
p213
aV70.1
p214
aV2.1
p215
aV2
aV7.14
p216
aa(lp217
V2015/2016
p218
aVPreston
p219
aVEC
p220
aV43
p221
aV3780
p222
aV2
aV3
aV9
aV-
aV0.6
p223
aV72.7
p224
aV1.8
p225
aV-
aV7.11
p226
aa(lp227
V2009/2010
p228
aVManchester Ci..
p229
aVEPL
p230
aV0(2)
p231
aV2
aV-
aV-
aV-
aV-
aV-
aV100
p232
aV-
aV-
aV6.00
p233
aa(lp234
VTotal / Average
p235
aV
aV
aV109
p236
aV9396
p237
aV4
aV10
p238
aV27
p239
aV1
aV0.5
p240
aV72.3
p241
aV2
aV3
aV7.06
p242
aasS'id'
p243
V83394
p244
sb.