(i__main__
Player
p1
(dp2
S'name'
p3
VHarry Kane 
p4
sS'offensive_data'
p5
(lp6
(lp7
a(lp8
V2018/2019
p9
aVTottenham
p10
aVEPL
p11
aV16(1)
p12
aV1450
p13
aV9
aV3
aV3
aV-
aV3.1
p14
aV71.8
p15
aV1.9
p16
aV5
aV7.32
p17
aa(lp18
V2018/2019
p19
aVTottenham
p20
aVUCL
p21
aV6
aV540
p22
aV4
aV1
aV1
aV-
aV4.5
p23
aV78.3
p24
aV2
aV1
aV7.76
p25
aa(lp26
V2018/2019
p27
aVEngland
p28
aVUNL
p29
aV4
aV360
p30
aV1
aV2
aV-
aV-
aV2.5
p31
aV68.3
p32
aV4.3
p33
aV2
aV7.54
p34
aa(lp35
V2017/2018
p36
aVTottenham
p37
aVUCL
p38
aV7
aV597
p39
aV7
aV2
aV-
aV-
aV4.6
p40
aV78.6
p41
aV1.6
p42
aV2
aV8.34
p43
aa(lp44
V2017/2018
p45
aVTottenham
p46
aVEPL
p47
aV35(2)
p48
aV3083
p49
aV30
p50
aV2
aV5
aV-
aV5
aV71.2
p51
aV1.6
p52
aV9
aV7.60
p53
aa(lp54
V2016/2017
p55
aVTottenham
p56
aVUCL
p57
aV3
aV263
p58
aV2
aV-
aV1
aV-
aV4.3
p59
aV74.7
p60
aV1
aV-
aV7.34
p61
aa(lp62
V2016/2017
p63
aVTottenham
p64
aVEPL
p65
aV29(1)
p66
aV2536
p67
aV29
p68
aV7
aV3
aV-
aV3.7
p69
aV71.7
p70
aV1.5
p71
aV7
aV7.68
p72
aa(lp73
V2016/2017
p74
aVTottenham
p75
aVUEL
p76
aV2
aV180
p77
aV-
aV-
aV-
aV-
aV3.5
p78
aV84.5
p79
aV2
aV-
aV6.59
p80
aa(lp81
V2018
p82
aVEngland
p83
aVWC
p84
aV6
aV573
p85
aV6
aV-
aV-
aV-
aV2.3
p86
aV69.1
p87
aV4.8
p88
aV2
aV7.67
p89
aa(lp90
V2015/2016
p91
aVTottenham
p92
aVUEL
p93
aV3(4)
p94
aV359
p95
aV2
aV1
aV1
aV-
aV2.4
p96
aV72.2
p97
aV0.9
p98
aV1
aV6.79
p99
aa(lp100
V2015/2016
p101
aVTottenham
p102
aVEPL
p103
aV38
p104
aV3370
p105
aV25
p106
aV1
aV5
aV-
aV4.2
p107
aV73.1
p108
aV2
aV8
aV7.53
p109
aa(lp110
V2015
p111
aVEngland U21
p112
aVIEU
p113
aV3
aV270
p114
aV-
aV-
aV-
aV-
aV5.7
p115
aV73.1
p116
aV4.3
p117
aV-
aV6.97
p118
aa(lp119
V2014/2015
p120
aVTottenham
p121
aVUEL
p122
aV4(3)
p123
aV423
p124
aV5
aV-
aV-
aV-
aV2.4
p125
aV68.1
p126
aV1.7
p127
aV1
aV7.14
p128
aa(lp129
V2014/2015
p130
aVTottenham
p131
aVEPL
p132
aV28(6)
p133
aV2582
p134
aV21
p135
aV4
aV4
aV-
aV3.3
p136
aV75.2
p137
aV1.5
p138
aV5
aV7.28
p139
aa(lp140
V2016
p141
aVEngland
p142
aVUEC
p143
aV3(1)
p144
aV240
p145
aV-
aV-
aV-
aV-
aV3.3
p146
aV71.2
p147
aV2.5
p148
aV-
aV6.89
p149
aa(lp150
V2013/2014
p151
aVTottenham
p152
aVUEL
p153
aV1(4)
p154
aV122
p155
aV-
aV2
aV-
aV-
aV0.8
p156
aV70.7
p157
aV1.2
p158
aV-
aV6.35
p159
aa(lp160
V2013/2014
p161
aVTottenham
p162
aVEPL
p163
aV6(4)
p164
aV500
p165
aV3
aV-
aV-
aV-
aV2.8
p166
aV76.9
p167
aV1.4
p168
aV1
aV6.87
p169
aa(lp170
V2012/2013
p171
aVTottenham
p172
aVEPL
p173
aV0(1)
p174
aV4
aV-
aV-
aV-
aV-
aV-
aV-
aV-
aV-
aV6.13
p175
aa(lp176
V2012/2013
p177
aVNorwich
p178
aVEPL
p179
aV1(2)
p180
aV135
p181
aV-
aV-
aV-
aV-
aV1.3
p182
aV74.3
p183
aV1.3
p184
aV-
aV6.43
p185
aa(lp186
VTotal / Average
p187
aV
aV
aV224
p188
aV17587
p189
aV144
p190
aV25
p191
aV23
p192
aV0
aV3.7
p193
aV72.7
p194
aV1.8
p195
aV44
p196
aV7.40
p197
aasS'url'
p198
S'https://www.whoscored.com/Players/83532/History/'
p199
sS'passing_data'
p200
(lp201
(lp202
a(lp203
V2018/2019
p204
aVTottenham
p205
aVEPL
p206
aV16(1)
p207
aV1450
p208
aV9
aV3
aV3
aV-
aV3.1
p209
aV71.8
p210
aV1.9
p211
aV5
aV7.32
p212
aa(lp213
V2018/2019
p214
aVTottenham
p215
aVUCL
p216
aV6
aV540
p217
aV4
aV1
aV1
aV-
aV4.5
p218
aV78.3
p219
aV2
aV1
aV7.76
p220
aa(lp221
V2018/2019
p222
aVEngland
p223
aVUNL
p224
aV4
aV360
p225
aV1
aV2
aV-
aV-
aV2.5
p226
aV68.3
p227
aV4.3
p228
aV2
aV7.54
p229
aa(lp230
V2017/2018
p231
aVTottenham
p232
aVUCL
p233
aV7
aV597
p234
aV7
aV2
aV-
aV-
aV4.6
p235
aV78.6
p236
aV1.6
p237
aV2
aV8.34
p238
aa(lp239
V2017/2018
p240
aVTottenham
p241
aVEPL
p242
aV35(2)
p243
aV3083
p244
aV30
p245
aV2
aV5
aV-
aV5
aV71.2
p246
aV1.6
p247
aV9
aV7.60
p248
aa(lp249
V2016/2017
p250
aVTottenham
p251
aVUCL
p252
aV3
aV263
p253
aV2
aV-
aV1
aV-
aV4.3
p254
aV74.7
p255
aV1
aV-
aV7.34
p256
aa(lp257
V2016/2017
p258
aVTottenham
p259
aVEPL
p260
aV29(1)
p261
aV2536
p262
aV29
p263
aV7
aV3
aV-
aV3.7
p264
aV71.7
p265
aV1.5
p266
aV7
aV7.68
p267
aa(lp268
V2016/2017
p269
aVTottenham
p270
aVUEL
p271
aV2
aV180
p272
aV-
aV-
aV-
aV-
aV3.5
p273
aV84.5
p274
aV2
aV-
aV6.59
p275
aa(lp276
V2018
p277
aVEngland
p278
aVWC
p279
aV6
aV573
p280
aV6
aV-
aV-
aV-
aV2.3
p281
aV69.1
p282
aV4.8
p283
aV2
aV7.67
p284
aa(lp285
V2015/2016
p286
aVTottenham
p287
aVUEL
p288
aV3(4)
p289
aV359
p290
aV2
aV1
aV1
aV-
aV2.4
p291
aV72.2
p292
aV0.9
p293
aV1
aV6.79
p294
aa(lp295
V2015/2016
p296
aVTottenham
p297
aVEPL
p298
aV38
p299
aV3370
p300
aV25
p301
aV1
aV5
aV-
aV4.2
p302
aV73.1
p303
aV2
aV8
aV7.53
p304
aa(lp305
V2015
p306
aVEngland U21
p307
aVIEU
p308
aV3
aV270
p309
aV-
aV-
aV-
aV-
aV5.7
p310
aV73.1
p311
aV4.3
p312
aV-
aV6.97
p313
aa(lp314
V2014/2015
p315
aVTottenham
p316
aVUEL
p317
aV4(3)
p318
aV423
p319
aV5
aV-
aV-
aV-
aV2.4
p320
aV68.1
p321
aV1.7
p322
aV1
aV7.14
p323
aa(lp324
V2014/2015
p325
aVTottenham
p326
aVEPL
p327
aV28(6)
p328
aV2582
p329
aV21
p330
aV4
aV4
aV-
aV3.3
p331
aV75.2
p332
aV1.5
p333
aV5
aV7.28
p334
aa(lp335
V2016
p336
aVEngland
p337
aVUEC
p338
aV3(1)
p339
aV240
p340
aV-
aV-
aV-
aV-
aV3.3
p341
aV71.2
p342
aV2.5
p343
aV-
aV6.89
p344
aa(lp345
V2013/2014
p346
aVTottenham
p347
aVUEL
p348
aV1(4)
p349
aV122
p350
aV-
aV2
aV-
aV-
aV0.8
p351
aV70.7
p352
aV1.2
p353
aV-
aV6.35
p354
aa(lp355
V2013/2014
p356
aVTottenham
p357
aVEPL
p358
aV6(4)
p359
aV500
p360
aV3
aV-
aV-
aV-
aV2.8
p361
aV76.9
p362
aV1.4
p363
aV1
aV6.87
p364
aa(lp365
V2012/2013
p366
aVTottenham
p367
aVEPL
p368
aV0(1)
p369
aV4
aV-
aV-
aV-
aV-
aV-
aV-
aV-
aV-
aV6.13
p370
aa(lp371
V2012/2013
p372
aVNorwich
p373
aVEPL
p374
aV1(2)
p375
aV135
p376
aV-
aV-
aV-
aV-
aV1.3
p377
aV74.3
p378
aV1.3
p379
aV-
aV6.43
p380
aa(lp381
VTotal / Average
p382
aV
aV
aV224
p383
aV17587
p384
aV144
p385
aV25
p386
aV23
p387
aV0
aV3.7
p388
aV72.7
p389
aV1.8
p390
aV44
p391
aV7.40
p392
aasS'defensive_data'
p393
(lp394
(lp395
a(lp396
V2018/2019
p397
aVTottenham
p398
aVEPL
p399
aV16(1)
p400
aV1450
p401
aV9
aV3
aV3
aV-
aV3.1
p402
aV71.8
p403
aV1.9
p404
aV5
aV7.32
p405
aa(lp406
V2018/2019
p407
aVTottenham
p408
aVUCL
p409
aV6
aV540
p410
aV4
aV1
aV1
aV-
aV4.5
p411
aV78.3
p412
aV2
aV1
aV7.76
p413
aa(lp414
V2018/2019
p415
aVEngland
p416
aVUNL
p417
aV4
aV360
p418
aV1
aV2
aV-
aV-
aV2.5
p419
aV68.3
p420
aV4.3
p421
aV2
aV7.54
p422
aa(lp423
V2017/2018
p424
aVTottenham
p425
aVUCL
p426
aV7
aV597
p427
aV7
aV2
aV-
aV-
aV4.6
p428
aV78.6
p429
aV1.6
p430
aV2
aV8.34
p431
aa(lp432
V2017/2018
p433
aVTottenham
p434
aVEPL
p435
aV35(2)
p436
aV3083
p437
aV30
p438
aV2
aV5
aV-
aV5
aV71.2
p439
aV1.6
p440
aV9
aV7.60
p441
aa(lp442
V2016/2017
p443
aVTottenham
p444
aVUCL
p445
aV3
aV263
p446
aV2
aV-
aV1
aV-
aV4.3
p447
aV74.7
p448
aV1
aV-
aV7.34
p449
aa(lp450
V2016/2017
p451
aVTottenham
p452
aVEPL
p453
aV29(1)
p454
aV2536
p455
aV29
p456
aV7
aV3
aV-
aV3.7
p457
aV71.7
p458
aV1.5
p459
aV7
aV7.68
p460
aa(lp461
V2016/2017
p462
aVTottenham
p463
aVUEL
p464
aV2
aV180
p465
aV-
aV-
aV-
aV-
aV3.5
p466
aV84.5
p467
aV2
aV-
aV6.59
p468
aa(lp469
V2018
p470
aVEngland
p471
aVWC
p472
aV6
aV573
p473
aV6
aV-
aV-
aV-
aV2.3
p474
aV69.1
p475
aV4.8
p476
aV2
aV7.67
p477
aa(lp478
V2015/2016
p479
aVTottenham
p480
aVUEL
p481
aV3(4)
p482
aV359
p483
aV2
aV1
aV1
aV-
aV2.4
p484
aV72.2
p485
aV0.9
p486
aV1
aV6.79
p487
aa(lp488
V2015/2016
p489
aVTottenham
p490
aVEPL
p491
aV38
p492
aV3370
p493
aV25
p494
aV1
aV5
aV-
aV4.2
p495
aV73.1
p496
aV2
aV8
aV7.53
p497
aa(lp498
V2015
p499
aVEngland U21
p500
aVIEU
p501
aV3
aV270
p502
aV-
aV-
aV-
aV-
aV5.7
p503
aV73.1
p504
aV4.3
p505
aV-
aV6.97
p506
aa(lp507
V2014/2015
p508
aVTottenham
p509
aVUEL
p510
aV4(3)
p511
aV423
p512
aV5
aV-
aV-
aV-
aV2.4
p513
aV68.1
p514
aV1.7
p515
aV1
aV7.14
p516
aa(lp517
V2014/2015
p518
aVTottenham
p519
aVEPL
p520
aV28(6)
p521
aV2582
p522
aV21
p523
aV4
aV4
aV-
aV3.3
p524
aV75.2
p525
aV1.5
p526
aV5
aV7.28
p527
aa(lp528
V2016
p529
aVEngland
p530
aVUEC
p531
aV3(1)
p532
aV240
p533
aV-
aV-
aV-
aV-
aV3.3
p534
aV71.2
p535
aV2.5
p536
aV-
aV6.89
p537
aa(lp538
V2013/2014
p539
aVTottenham
p540
aVUEL
p541
aV1(4)
p542
aV122
p543
aV-
aV2
aV-
aV-
aV0.8
p544
aV70.7
p545
aV1.2
p546
aV-
aV6.35
p547
aa(lp548
V2013/2014
p549
aVTottenham
p550
aVEPL
p551
aV6(4)
p552
aV500
p553
aV3
aV-
aV-
aV-
aV2.8
p554
aV76.9
p555
aV1.4
p556
aV1
aV6.87
p557
aa(lp558
V2012/2013
p559
aVTottenham
p560
aVEPL
p561
aV0(1)
p562
aV4
aV-
aV-
aV-
aV-
aV-
aV-
aV-
aV-
aV6.13
p563
aa(lp564
V2012/2013
p565
aVNorwich
p566
aVEPL
p567
aV1(2)
p568
aV135
p569
aV-
aV-
aV-
aV-
aV1.3
p570
aV74.3
p571
aV1.3
p572
aV-
aV6.43
p573
aa(lp574
VTotal / Average
p575
aV
aV
aV224
p576
aV17587
p577
aV144
p578
aV25
p579
aV23
p580
aV0
aV3.7
p581
aV72.7
p582
aV1.8
p583
aV44
p584
aV7.40
p585
aasS'sumary_data'
p586
(lp587
(lp588
a(lp589
V2018/2019
p590
aVTottenham
p591
aVEPL
p592
aV16(1)
p593
aV1450
p594
aV9
aV3
aV3
aV-
aV3.1
p595
aV71.8
p596
aV1.9
p597
aV5
aV7.32
p598
aa(lp599
V2018/2019
p600
aVTottenham
p601
aVUCL
p602
aV6
aV540
p603
aV4
aV1
aV1
aV-
aV4.5
p604
aV78.3
p605
aV2
aV1
aV7.76
p606
aa(lp607
V2018/2019
p608
aVEngland
p609
aVUNL
p610
aV4
aV360
p611
aV1
aV2
aV-
aV-
aV2.5
p612
aV68.3
p613
aV4.3
p614
aV2
aV7.54
p615
aa(lp616
V2017/2018
p617
aVTottenham
p618
aVUCL
p619
aV7
aV597
p620
aV7
aV2
aV-
aV-
aV4.6
p621
aV78.6
p622
aV1.6
p623
aV2
aV8.34
p624
aa(lp625
V2017/2018
p626
aVTottenham
p627
aVEPL
p628
aV35(2)
p629
aV3083
p630
aV30
p631
aV2
aV5
aV-
aV5
aV71.2
p632
aV1.6
p633
aV9
aV7.60
p634
aa(lp635
V2016/2017
p636
aVTottenham
p637
aVUCL
p638
aV3
aV263
p639
aV2
aV-
aV1
aV-
aV4.3
p640
aV74.7
p641
aV1
aV-
aV7.34
p642
aa(lp643
V2016/2017
p644
aVTottenham
p645
aVEPL
p646
aV29(1)
p647
aV2536
p648
aV29
p649
aV7
aV3
aV-
aV3.7
p650
aV71.7
p651
aV1.5
p652
aV7
aV7.68
p653
aa(lp654
V2016/2017
p655
aVTottenham
p656
aVUEL
p657
aV2
aV180
p658
aV-
aV-
aV-
aV-
aV3.5
p659
aV84.5
p660
aV2
aV-
aV6.59
p661
aa(lp662
V2018
p663
aVEngland
p664
aVWC
p665
aV6
aV573
p666
aV6
aV-
aV-
aV-
aV2.3
p667
aV69.1
p668
aV4.8
p669
aV2
aV7.67
p670
aa(lp671
V2015/2016
p672
aVTottenham
p673
aVUEL
p674
aV3(4)
p675
aV359
p676
aV2
aV1
aV1
aV-
aV2.4
p677
aV72.2
p678
aV0.9
p679
aV1
aV6.79
p680
aa(lp681
V2015/2016
p682
aVTottenham
p683
aVEPL
p684
aV38
p685
aV3370
p686
aV25
p687
aV1
aV5
aV-
aV4.2
p688
aV73.1
p689
aV2
aV8
aV7.53
p690
aa(lp691
V2015
p692
aVEngland U21
p693
aVIEU
p694
aV3
aV270
p695
aV-
aV-
aV-
aV-
aV5.7
p696
aV73.1
p697
aV4.3
p698
aV-
aV6.97
p699
aa(lp700
V2014/2015
p701
aVTottenham
p702
aVUEL
p703
aV4(3)
p704
aV423
p705
aV5
aV-
aV-
aV-
aV2.4
p706
aV68.1
p707
aV1.7
p708
aV1
aV7.14
p709
aa(lp710
V2014/2015
p711
aVTottenham
p712
aVEPL
p713
aV28(6)
p714
aV2582
p715
aV21
p716
aV4
aV4
aV-
aV3.3
p717
aV75.2
p718
aV1.5
p719
aV5
aV7.28
p720
aa(lp721
V2016
p722
aVEngland
p723
aVUEC
p724
aV3(1)
p725
aV240
p726
aV-
aV-
aV-
aV-
aV3.3
p727
aV71.2
p728
aV2.5
p729
aV-
aV6.89
p730
aa(lp731
V2013/2014
p732
aVTottenham
p733
aVUEL
p734
aV1(4)
p735
aV122
p736
aV-
aV2
aV-
aV-
aV0.8
p737
aV70.7
p738
aV1.2
p739
aV-
aV6.35
p740
aa(lp741
V2013/2014
p742
aVTottenham
p743
aVEPL
p744
aV6(4)
p745
aV500
p746
aV3
aV-
aV-
aV-
aV2.8
p747
aV76.9
p748
aV1.4
p749
aV1
aV6.87
p750
aa(lp751
V2012/2013
p752
aVTottenham
p753
aVEPL
p754
aV0(1)
p755
aV4
aV-
aV-
aV-
aV-
aV-
aV-
aV-
aV-
aV6.13
p756
aa(lp757
V2012/2013
p758
aVNorwich
p759
aVEPL
p760
aV1(2)
p761
aV135
p762
aV-
aV-
aV-
aV-
aV1.3
p763
aV74.3
p764
aV1.3
p765
aV-
aV6.43
p766
aa(lp767
VTotal / Average
p768
aV
aV
aV224
p769
aV17587
p770
aV144
p771
aV25
p772
aV23
p773
aV0
aV3.7
p774
aV72.7
p775
aV1.8
p776
aV44
p777
aV7.40
p778
aasS'id'
p779
V83532
p780
sb.