(i__main__
Player
p1
(dp2
S'name'
p3
VRyan Fredericks 
p4
sS'offensive_data'
p5
(lp6
(lp7
a(lp8
V2018/2019
p9
aVWest Ham
p10
aVEPL
p11
aV3(1)
p12
aV287
p13
aV-
aV-
aV2
aV-
aV-
aV68.6
p14
aV0.8
p15
aV-
aV6.28
p16
aa(lp17
V2017/2018
p18
aVFulham
p19
aVEC
p20
aV47
p21
aV4182
p22
aV-
aV7
aV10
p23
aV-
aV0.6
p24
aV76.7
p25
aV0.7
p26
aV1
aV6.98
p27
aa(lp28
V2016/2017
p29
aVFulham
p30
aVEC
p31
aV27(5)
p32
aV2361
p33
aV-
aV5
aV8
aV1
aV0.6
p34
aV78.4
p35
aV0.9
p36
aV1
aV6.86
p37
aa(lp38
V2015/2016
p39
aVBristol City
p40
aVEC
p41
aV3(1)
p42
aV219
p43
aV-
aV-
aV2
aV-
aV-
aV80.4
p44
aV-
aV-
aV6.08
p45
aa(lp46
V2015/2016
p47
aVFulham
p48
aVEC
p49
aV23(9)
p50
aV2016
p51
aV-
aV-
aV11
p52
aV-
aV0.2
p53
aV67.9
p54
aV0.8
p55
aV-
aV6.63
p56
aa(lp57
V2014/2015
p58
aVMiddlesbrough
p59
aVEC
p60
aV16(1)
p61
aV1337
p62
aV-
aV-
aV5
aV-
aV0.2
p63
aV71.2
p64
aV0.6
p65
aV2
aV7.09
p66
aa(lp67
V2013/2014
p68
aVTottenham
p69
aVUEL
p70
aV0(1)
p71
aV45
p72
aV-
aV-
aV-
aV-
aV-
aV80
p73
aV-
aV-
aV7.57
p74
aa(lp75
V2013/2014
p76
aVMillwall
p77
aVEC
p78
aV11(3)
p79
aV1057
p80
aV1
aV-
aV2
aV-
aV0.3
p81
aV63.6
p82
aV1.6
p83
aV1
aV7.20
p84
aa(lp85
VTotal / Average
p86
aV
aV
aV151
p87
aV11504
p88
aV1
aV12
p89
aV40
p90
aV1
aV0.4
p91
aV73.3
p92
aV0.8
p93
aV5
aV6.87
p94
aasS'url'
p95
S'https://www.whoscored.com/Players/83554/History/'
p96
sS'passing_data'
p97
(lp98
(lp99
a(lp100
V2018/2019
p101
aVWest Ham
p102
aVEPL
p103
aV3(1)
p104
aV287
p105
aV-
aV-
aV2
aV-
aV-
aV68.6
p106
aV0.8
p107
aV-
aV6.28
p108
aa(lp109
V2017/2018
p110
aVFulham
p111
aVEC
p112
aV47
p113
aV4182
p114
aV-
aV7
aV10
p115
aV-
aV0.6
p116
aV76.7
p117
aV0.7
p118
aV1
aV6.98
p119
aa(lp120
V2016/2017
p121
aVFulham
p122
aVEC
p123
aV27(5)
p124
aV2361
p125
aV-
aV5
aV8
aV1
aV0.6
p126
aV78.4
p127
aV0.9
p128
aV1
aV6.86
p129
aa(lp130
V2015/2016
p131
aVBristol City
p132
aVEC
p133
aV3(1)
p134
aV219
p135
aV-
aV-
aV2
aV-
aV-
aV80.4
p136
aV-
aV-
aV6.08
p137
aa(lp138
V2015/2016
p139
aVFulham
p140
aVEC
p141
aV23(9)
p142
aV2016
p143
aV-
aV-
aV11
p144
aV-
aV0.2
p145
aV67.9
p146
aV0.8
p147
aV-
aV6.63
p148
aa(lp149
V2014/2015
p150
aVMiddlesbrough
p151
aVEC
p152
aV16(1)
p153
aV1337
p154
aV-
aV-
aV5
aV-
aV0.2
p155
aV71.2
p156
aV0.6
p157
aV2
aV7.09
p158
aa(lp159
V2013/2014
p160
aVTottenham
p161
aVUEL
p162
aV0(1)
p163
aV45
p164
aV-
aV-
aV-
aV-
aV-
aV80
p165
aV-
aV-
aV7.57
p166
aa(lp167
V2013/2014
p168
aVMillwall
p169
aVEC
p170
aV11(3)
p171
aV1057
p172
aV1
aV-
aV2
aV-
aV0.3
p173
aV63.6
p174
aV1.6
p175
aV1
aV7.20
p176
aa(lp177
VTotal / Average
p178
aV
aV
aV151
p179
aV11504
p180
aV1
aV12
p181
aV40
p182
aV1
aV0.4
p183
aV73.3
p184
aV0.8
p185
aV5
aV6.87
p186
aasS'defensive_data'
p187
(lp188
(lp189
a(lp190
V2018/2019
p191
aVWest Ham
p192
aVEPL
p193
aV3(1)
p194
aV287
p195
aV-
aV-
aV2
aV-
aV-
aV68.6
p196
aV0.8
p197
aV-
aV6.28
p198
aa(lp199
V2017/2018
p200
aVFulham
p201
aVEC
p202
aV47
p203
aV4182
p204
aV-
aV7
aV10
p205
aV-
aV0.6
p206
aV76.7
p207
aV0.7
p208
aV1
aV6.98
p209
aa(lp210
V2016/2017
p211
aVFulham
p212
aVEC
p213
aV27(5)
p214
aV2361
p215
aV-
aV5
aV8
aV1
aV0.6
p216
aV78.4
p217
aV0.9
p218
aV1
aV6.86
p219
aa(lp220
V2015/2016
p221
aVBristol City
p222
aVEC
p223
aV3(1)
p224
aV219
p225
aV-
aV-
aV2
aV-
aV-
aV80.4
p226
aV-
aV-
aV6.08
p227
aa(lp228
V2015/2016
p229
aVFulham
p230
aVEC
p231
aV23(9)
p232
aV2016
p233
aV-
aV-
aV11
p234
aV-
aV0.2
p235
aV67.9
p236
aV0.8
p237
aV-
aV6.63
p238
aa(lp239
V2014/2015
p240
aVMiddlesbrough
p241
aVEC
p242
aV16(1)
p243
aV1337
p244
aV-
aV-
aV5
aV-
aV0.2
p245
aV71.2
p246
aV0.6
p247
aV2
aV7.09
p248
aa(lp249
V2013/2014
p250
aVTottenham
p251
aVUEL
p252
aV0(1)
p253
aV45
p254
aV-
aV-
aV-
aV-
aV-
aV80
p255
aV-
aV-
aV7.57
p256
aa(lp257
V2013/2014
p258
aVMillwall
p259
aVEC
p260
aV11(3)
p261
aV1057
p262
aV1
aV-
aV2
aV-
aV0.3
p263
aV63.6
p264
aV1.6
p265
aV1
aV7.20
p266
aa(lp267
VTotal / Average
p268
aV
aV
aV151
p269
aV11504
p270
aV1
aV12
p271
aV40
p272
aV1
aV0.4
p273
aV73.3
p274
aV0.8
p275
aV5
aV6.87
p276
aasS'sumary_data'
p277
(lp278
(lp279
a(lp280
V2018/2019
p281
aVWest Ham
p282
aVEPL
p283
aV3(1)
p284
aV287
p285
aV-
aV-
aV2
aV-
aV-
aV68.6
p286
aV0.8
p287
aV-
aV6.28
p288
aa(lp289
V2017/2018
p290
aVFulham
p291
aVEC
p292
aV47
p293
aV4182
p294
aV-
aV7
aV10
p295
aV-
aV0.6
p296
aV76.7
p297
aV0.7
p298
aV1
aV6.98
p299
aa(lp300
V2016/2017
p301
aVFulham
p302
aVEC
p303
aV27(5)
p304
aV2361
p305
aV-
aV5
aV8
aV1
aV0.6
p306
aV78.4
p307
aV0.9
p308
aV1
aV6.86
p309
aa(lp310
V2015/2016
p311
aVBristol City
p312
aVEC
p313
aV3(1)
p314
aV219
p315
aV-
aV-
aV2
aV-
aV-
aV80.4
p316
aV-
aV-
aV6.08
p317
aa(lp318
V2015/2016
p319
aVFulham
p320
aVEC
p321
aV23(9)
p322
aV2016
p323
aV-
aV-
aV11
p324
aV-
aV0.2
p325
aV67.9
p326
aV0.8
p327
aV-
aV6.63
p328
aa(lp329
V2014/2015
p330
aVMiddlesbrough
p331
aVEC
p332
aV16(1)
p333
aV1337
p334
aV-
aV-
aV5
aV-
aV0.2
p335
aV71.2
p336
aV0.6
p337
aV2
aV7.09
p338
aa(lp339
V2013/2014
p340
aVTottenham
p341
aVUEL
p342
aV0(1)
p343
aV45
p344
aV-
aV-
aV-
aV-
aV-
aV80
p345
aV-
aV-
aV7.57
p346
aa(lp347
V2013/2014
p348
aVMillwall
p349
aVEC
p350
aV11(3)
p351
aV1057
p352
aV1
aV-
aV2
aV-
aV0.3
p353
aV63.6
p354
aV1.6
p355
aV1
aV7.20
p356
aa(lp357
VTotal / Average
p358
aV
aV
aV151
p359
aV11504
p360
aV1
aV12
p361
aV40
p362
aV1
aV0.4
p363
aV73.3
p364
aV0.8
p365
aV5
aV6.87
p366
aasS'id'
p367
V83554
p368
sb.