(i__main__
Player
p1
(dp2
S'name'
p3
VKenneth Zohore 
p4
sS'offensive_data'
p5
(lp6
(lp7
a(lp8
V2018/2019
p9
aVCardiff
p10
aVEPL
p11
aV3(3)
p12
aV260
p13
aV-
aV-
aV-
aV-
aV1
aV62.2
p14
aV1.7
p15
aV-
aV6.10
p16
aa(lp17
V2017/2018
p18
aVCardiff
p19
aVEC
p20
aV30(6)
p21
aV2680
p22
aV9
aV5
aV-
aV-
aV2.6
p23
aV58.9
p24
aV3.3
p25
aV1
aV7.00
p26
aa(lp27
V2016/2017
p28
aVCardiff
p29
aVEC
p30
aV24(5)
p31
aV2251
p32
aV12
p33
aV5
aV1
aV-
aV2.5
p34
aV57.7
p35
aV4.8
p36
aV4
aV7.20
p37
aa(lp38
V2015/2016
p39
aVCardiff
p40
aVEC
p41
aV2(10)
p42
aV259
p43
aV2
aV-
aV-
aV-
aV1.4
p44
aV63.6
p45
aV0.7
p46
aV-
aV6.33
p47
aa(lp48
V2010/2011
p49
aVFC Copenhagen
p50
aVUCL
p51
aV0(5)
p52
aV68
p53
aV-
aV-
aV-
aV-
aV0.8
p54
aV81.8
p55
aV0.2
p56
aV-
aV6.15
p57
aa(lp58
VTotal / Average
p59
aV
aV
aV88
p60
aV5518
p61
aV23
p62
aV10
p63
aV1
aV0
aV2.2
p64
aV60.7
p65
aV3.1
p66
aV5
aV6.87
p67
aasS'url'
p68
S'https://www.whoscored.com/Players/83621/History/'
p69
sS'passing_data'
p70
(lp71
(lp72
a(lp73
V2018/2019
p74
aVCardiff
p75
aVEPL
p76
aV3(3)
p77
aV260
p78
aV-
aV-
aV-
aV-
aV1
aV62.2
p79
aV1.7
p80
aV-
aV6.10
p81
aa(lp82
V2017/2018
p83
aVCardiff
p84
aVEC
p85
aV30(6)
p86
aV2680
p87
aV9
aV5
aV-
aV-
aV2.6
p88
aV58.9
p89
aV3.3
p90
aV1
aV7.00
p91
aa(lp92
V2016/2017
p93
aVCardiff
p94
aVEC
p95
aV24(5)
p96
aV2251
p97
aV12
p98
aV5
aV1
aV-
aV2.5
p99
aV57.7
p100
aV4.8
p101
aV4
aV7.20
p102
aa(lp103
V2015/2016
p104
aVCardiff
p105
aVEC
p106
aV2(10)
p107
aV259
p108
aV2
aV-
aV-
aV-
aV1.4
p109
aV63.6
p110
aV0.7
p111
aV-
aV6.33
p112
aa(lp113
V2010/2011
p114
aVFC Copenhagen
p115
aVUCL
p116
aV0(5)
p117
aV68
p118
aV-
aV-
aV-
aV-
aV0.8
p119
aV81.8
p120
aV0.2
p121
aV-
aV6.15
p122
aa(lp123
VTotal / Average
p124
aV
aV
aV88
p125
aV5518
p126
aV23
p127
aV10
p128
aV1
aV0
aV2.2
p129
aV60.7
p130
aV3.1
p131
aV5
aV6.87
p132
aasS'defensive_data'
p133
(lp134
(lp135
a(lp136
V2018/2019
p137
aVCardiff
p138
aVEPL
p139
aV3(3)
p140
aV260
p141
aV-
aV-
aV-
aV-
aV1
aV62.2
p142
aV1.7
p143
aV-
aV6.10
p144
aa(lp145
V2017/2018
p146
aVCardiff
p147
aVEC
p148
aV30(6)
p149
aV2680
p150
aV9
aV5
aV-
aV-
aV2.6
p151
aV58.9
p152
aV3.3
p153
aV1
aV7.00
p154
aa(lp155
V2016/2017
p156
aVCardiff
p157
aVEC
p158
aV24(5)
p159
aV2251
p160
aV12
p161
aV5
aV1
aV-
aV2.5
p162
aV57.7
p163
aV4.8
p164
aV4
aV7.20
p165
aa(lp166
V2015/2016
p167
aVCardiff
p168
aVEC
p169
aV2(10)
p170
aV259
p171
aV2
aV-
aV-
aV-
aV1.4
p172
aV63.6
p173
aV0.7
p174
aV-
aV6.33
p175
aa(lp176
V2010/2011
p177
aVFC Copenhagen
p178
aVUCL
p179
aV0(5)
p180
aV68
p181
aV-
aV-
aV-
aV-
aV0.8
p182
aV81.8
p183
aV0.2
p184
aV-
aV6.15
p185
aa(lp186
VTotal / Average
p187
aV
aV
aV88
p188
aV5518
p189
aV23
p190
aV10
p191
aV1
aV0
aV2.2
p192
aV60.7
p193
aV3.1
p194
aV5
aV6.87
p195
aasS'sumary_data'
p196
(lp197
(lp198
a(lp199
V2018/2019
p200
aVCardiff
p201
aVEPL
p202
aV3(3)
p203
aV260
p204
aV-
aV-
aV-
aV-
aV1
aV62.2
p205
aV1.7
p206
aV-
aV6.10
p207
aa(lp208
V2017/2018
p209
aVCardiff
p210
aVEC
p211
aV30(6)
p212
aV2680
p213
aV9
aV5
aV-
aV-
aV2.6
p214
aV58.9
p215
aV3.3
p216
aV1
aV7.00
p217
aa(lp218
V2016/2017
p219
aVCardiff
p220
aVEC
p221
aV24(5)
p222
aV2251
p223
aV12
p224
aV5
aV1
aV-
aV2.5
p225
aV57.7
p226
aV4.8
p227
aV4
aV7.20
p228
aa(lp229
V2015/2016
p230
aVCardiff
p231
aVEC
p232
aV2(10)
p233
aV259
p234
aV2
aV-
aV-
aV-
aV1.4
p235
aV63.6
p236
aV0.7
p237
aV-
aV6.33
p238
aa(lp239
V2010/2011
p240
aVFC Copenhagen
p241
aVUCL
p242
aV0(5)
p243
aV68
p244
aV-
aV-
aV-
aV-
aV0.8
p245
aV81.8
p246
aV0.2
p247
aV-
aV6.15
p248
aa(lp249
VTotal / Average
p250
aV
aV
aV88
p251
aV5518
p252
aV23
p253
aV10
p254
aV1
aV0
aV2.2
p255
aV60.7
p256
aV3.1
p257
aV5
aV6.87
p258
aasS'id'
p259
V83621
p260
sb.