(i__main__
Player
p1
(dp2
S'name'
p3
VSerge Aurier 
p4
sS'offensive_data'
p5
(lp6
(lp7
a(lp8
V2018/2019
p9
aVTottenham
p10
aVEPL
p11
aV4(2)
p12
aV428
p13
aV-
aV2
aV1
aV-
aV0.3
p14
aV74
p15
aV1.5
p16
aV-
aV6.85
p17
aa(lp18
V2018/2019
p19
aVTottenham
p20
aVUCL
p21
aV3
aV255
p22
aV-
aV-
aV-
aV-
aV0.7
p23
aV76.9
p24
aV2.7
p25
aV-
aV7.02
p26
aa(lp27
V2017/2018
p28
aVTottenham
p29
aVUCL
p30
aV6
aV507
p31
aV-
aV1
aV3
aV-
aV0.5
p32
aV80.6
p33
aV1.2
p34
aV-
aV6.89
p35
aa(lp36
V2017/2018
p37
aVTottenham
p38
aVEPL
p39
aV16(1)
p40
aV1429
p41
aV2
aV2
aV1
aV1
aV0.9
p42
aV79.4
p43
aV2.8
p44
aV1
aV7.28
p45
aa(lp46
V2016/2017
p47
aVParis Saint-G..
p48
aVUCL
p49
aV3(2)
p50
aV282
p51
aV-
aV1
aV-
aV-
aV0.8
p52
aV85
p53
aV1.2
p54
aV-
aV6.89
p55
aa(lp56
V2016/2017
p57
aVParis Saint-G..
p58
aVFL1
p59
aV21(1)
p60
aV1830
p61
aV-
aV3
aV3
aV1
aV1
aV89
p62
aV2.7
p63
aV-
aV7.11
p64
aa(lp65
V2015/2016
p66
aVParis Saint-G..
p67
aVUCL
p68
aV5
aV409
p69
aV1
aV1
aV2
aV-
aV0.4
p70
aV86.2
p71
aV2.4
p72
aV1
aV7.40
p73
aa(lp74
V2015/2016
p75
aVParis Saint-G..
p76
aVFL1
p77
aV21
p78
aV1887
p79
aV2
aV2
aV8
aV-
aV1
aV88.4
p80
aV2.8
p81
aV-
aV7.75
p82
aa(lp83
V2015
p84
aVIvory Coast
p85
aVACoN
p86
aV6
aV571
p87
aV-
aV1
aV2
aV-
aV1.7
p88
aV74.3
p89
aV3
aV3
aV7.55
p90
aa(lp91
V2014/2015
p92
aVParis Saint-G..
p93
aVFL1
p94
aV12(2)
p95
aV1136
p96
aV-
aV5
aV2
aV-
aV0.5
p97
aV88.9
p98
aV1.9
p99
aV1
aV7.54
p100
aa(lp101
V2013/2014
p102
aVToulouse
p103
aVFL1
p104
aV34
p105
aV3045
p106
aV6
aV6
aV11
p107
aV-
aV1.7
p108
aV76.8
p109
aV2.7
p110
aV5
aV7.42
p111
aa(lp112
V2014
p113
aVIvory Coast
p114
aVWC
p115
aV3
aV270
p116
aV-
aV2
aV-
aV-
aV1
aV85.4
p117
aV1
aV1
aV7.65
p118
aa(lp119
V2012/2013
p120
aVToulouse
p121
aVFL1
p122
aV28
p123
aV2498
p124
aV1
aV3
aV4
aV1
aV0.7
p125
aV81.2
p126
aV2.4
p127
aV1
aV7.29
p128
aa(lp129
V2011/2012
p130
aVToulouse
p131
aVFL1
p132
aV9(1)
p133
aV783
p134
aV1
aV-
aV3
aV-
aV0.5
p135
aV79
p136
aV1.3
p137
aV-
aV7.14
p138
aa(lp139
V2010/2011
p140
aVLens
p141
aVFL1
p142
aV24(3)
p143
aV2019
p144
aV-
aV-
aV1
aV-
aV0.3
p145
aV64.2
p146
aV1.4
p147
aV-
aV6.96
p148
aa(lp149
V2009/2010
p150
aVLens
p151
aVFL1
p152
aV5
aV450
p153
aV-
aV-
aV1
aV-
aV0.2
p154
aV66.1
p155
aV2.2
p156
aV-
aV7.36
p157
aa(lp158
VTotal / Average
p159
aV
aV
aV212
p160
aV17799
p161
aV13
p162
aV29
p163
aV42
p164
aV3
aV0.9
p165
aV79.5
p166
aV2.2
p167
aV13
p168
aV7.28
p169
aasS'url'
p170
S'https://www.whoscored.com/Players/83683/History/'
p171
sS'passing_data'
p172
(lp173
(lp174
a(lp175
V2018/2019
p176
aVTottenham
p177
aVEPL
p178
aV4(2)
p179
aV428
p180
aV-
aV2
aV1
aV-
aV0.3
p181
aV74
p182
aV1.5
p183
aV-
aV6.85
p184
aa(lp185
V2018/2019
p186
aVTottenham
p187
aVUCL
p188
aV3
aV255
p189
aV-
aV-
aV-
aV-
aV0.7
p190
aV76.9
p191
aV2.7
p192
aV-
aV7.02
p193
aa(lp194
V2017/2018
p195
aVTottenham
p196
aVUCL
p197
aV6
aV507
p198
aV-
aV1
aV3
aV-
aV0.5
p199
aV80.6
p200
aV1.2
p201
aV-
aV6.89
p202
aa(lp203
V2017/2018
p204
aVTottenham
p205
aVEPL
p206
aV16(1)
p207
aV1429
p208
aV2
aV2
aV1
aV1
aV0.9
p209
aV79.4
p210
aV2.8
p211
aV1
aV7.28
p212
aa(lp213
V2016/2017
p214
aVParis Saint-G..
p215
aVUCL
p216
aV3(2)
p217
aV282
p218
aV-
aV1
aV-
aV-
aV0.8
p219
aV85
p220
aV1.2
p221
aV-
aV6.89
p222
aa(lp223
V2016/2017
p224
aVParis Saint-G..
p225
aVFL1
p226
aV21(1)
p227
aV1830
p228
aV-
aV3
aV3
aV1
aV1
aV89
p229
aV2.7
p230
aV-
aV7.11
p231
aa(lp232
V2015/2016
p233
aVParis Saint-G..
p234
aVUCL
p235
aV5
aV409
p236
aV1
aV1
aV2
aV-
aV0.4
p237
aV86.2
p238
aV2.4
p239
aV1
aV7.40
p240
aa(lp241
V2015/2016
p242
aVParis Saint-G..
p243
aVFL1
p244
aV21
p245
aV1887
p246
aV2
aV2
aV8
aV-
aV1
aV88.4
p247
aV2.8
p248
aV-
aV7.75
p249
aa(lp250
V2015
p251
aVIvory Coast
p252
aVACoN
p253
aV6
aV571
p254
aV-
aV1
aV2
aV-
aV1.7
p255
aV74.3
p256
aV3
aV3
aV7.55
p257
aa(lp258
V2014/2015
p259
aVParis Saint-G..
p260
aVFL1
p261
aV12(2)
p262
aV1136
p263
aV-
aV5
aV2
aV-
aV0.5
p264
aV88.9
p265
aV1.9
p266
aV1
aV7.54
p267
aa(lp268
V2013/2014
p269
aVToulouse
p270
aVFL1
p271
aV34
p272
aV3045
p273
aV6
aV6
aV11
p274
aV-
aV1.7
p275
aV76.8
p276
aV2.7
p277
aV5
aV7.42
p278
aa(lp279
V2014
p280
aVIvory Coast
p281
aVWC
p282
aV3
aV270
p283
aV-
aV2
aV-
aV-
aV1
aV85.4
p284
aV1
aV1
aV7.65
p285
aa(lp286
V2012/2013
p287
aVToulouse
p288
aVFL1
p289
aV28
p290
aV2498
p291
aV1
aV3
aV4
aV1
aV0.7
p292
aV81.2
p293
aV2.4
p294
aV1
aV7.29
p295
aa(lp296
V2011/2012
p297
aVToulouse
p298
aVFL1
p299
aV9(1)
p300
aV783
p301
aV1
aV-
aV3
aV-
aV0.5
p302
aV79
p303
aV1.3
p304
aV-
aV7.14
p305
aa(lp306
V2010/2011
p307
aVLens
p308
aVFL1
p309
aV24(3)
p310
aV2019
p311
aV-
aV-
aV1
aV-
aV0.3
p312
aV64.2
p313
aV1.4
p314
aV-
aV6.96
p315
aa(lp316
V2009/2010
p317
aVLens
p318
aVFL1
p319
aV5
aV450
p320
aV-
aV-
aV1
aV-
aV0.2
p321
aV66.1
p322
aV2.2
p323
aV-
aV7.36
p324
aa(lp325
VTotal / Average
p326
aV
aV
aV212
p327
aV17799
p328
aV13
p329
aV29
p330
aV42
p331
aV3
aV0.9
p332
aV79.5
p333
aV2.2
p334
aV13
p335
aV7.28
p336
aasS'defensive_data'
p337
(lp338
(lp339
a(lp340
V2018/2019
p341
aVTottenham
p342
aVEPL
p343
aV4(2)
p344
aV428
p345
aV-
aV2
aV1
aV-
aV0.3
p346
aV74
p347
aV1.5
p348
aV-
aV6.85
p349
aa(lp350
V2018/2019
p351
aVTottenham
p352
aVUCL
p353
aV3
aV255
p354
aV-
aV-
aV-
aV-
aV0.7
p355
aV76.9
p356
aV2.7
p357
aV-
aV7.02
p358
aa(lp359
V2017/2018
p360
aVTottenham
p361
aVUCL
p362
aV6
aV507
p363
aV-
aV1
aV3
aV-
aV0.5
p364
aV80.6
p365
aV1.2
p366
aV-
aV6.89
p367
aa(lp368
V2017/2018
p369
aVTottenham
p370
aVEPL
p371
aV16(1)
p372
aV1429
p373
aV2
aV2
aV1
aV1
aV0.9
p374
aV79.4
p375
aV2.8
p376
aV1
aV7.28
p377
aa(lp378
V2016/2017
p379
aVParis Saint-G..
p380
aVUCL
p381
aV3(2)
p382
aV282
p383
aV-
aV1
aV-
aV-
aV0.8
p384
aV85
p385
aV1.2
p386
aV-
aV6.89
p387
aa(lp388
V2016/2017
p389
aVParis Saint-G..
p390
aVFL1
p391
aV21(1)
p392
aV1830
p393
aV-
aV3
aV3
aV1
aV1
aV89
p394
aV2.7
p395
aV-
aV7.11
p396
aa(lp397
V2015/2016
p398
aVParis Saint-G..
p399
aVUCL
p400
aV5
aV409
p401
aV1
aV1
aV2
aV-
aV0.4
p402
aV86.2
p403
aV2.4
p404
aV1
aV7.40
p405
aa(lp406
V2015/2016
p407
aVParis Saint-G..
p408
aVFL1
p409
aV21
p410
aV1887
p411
aV2
aV2
aV8
aV-
aV1
aV88.4
p412
aV2.8
p413
aV-
aV7.75
p414
aa(lp415
V2015
p416
aVIvory Coast
p417
aVACoN
p418
aV6
aV571
p419
aV-
aV1
aV2
aV-
aV1.7
p420
aV74.3
p421
aV3
aV3
aV7.55
p422
aa(lp423
V2014/2015
p424
aVParis Saint-G..
p425
aVFL1
p426
aV12(2)
p427
aV1136
p428
aV-
aV5
aV2
aV-
aV0.5
p429
aV88.9
p430
aV1.9
p431
aV1
aV7.54
p432
aa(lp433
V2013/2014
p434
aVToulouse
p435
aVFL1
p436
aV34
p437
aV3045
p438
aV6
aV6
aV11
p439
aV-
aV1.7
p440
aV76.8
p441
aV2.7
p442
aV5
aV7.42
p443
aa(lp444
V2014
p445
aVIvory Coast
p446
aVWC
p447
aV3
aV270
p448
aV-
aV2
aV-
aV-
aV1
aV85.4
p449
aV1
aV1
aV7.65
p450
aa(lp451
V2012/2013
p452
aVToulouse
p453
aVFL1
p454
aV28
p455
aV2498
p456
aV1
aV3
aV4
aV1
aV0.7
p457
aV81.2
p458
aV2.4
p459
aV1
aV7.29
p460
aa(lp461
V2011/2012
p462
aVToulouse
p463
aVFL1
p464
aV9(1)
p465
aV783
p466
aV1
aV-
aV3
aV-
aV0.5
p467
aV79
p468
aV1.3
p469
aV-
aV7.14
p470
aa(lp471
V2010/2011
p472
aVLens
p473
aVFL1
p474
aV24(3)
p475
aV2019
p476
aV-
aV-
aV1
aV-
aV0.3
p477
aV64.2
p478
aV1.4
p479
aV-
aV6.96
p480
aa(lp481
V2009/2010
p482
aVLens
p483
aVFL1
p484
aV5
aV450
p485
aV-
aV-
aV1
aV-
aV0.2
p486
aV66.1
p487
aV2.2
p488
aV-
aV7.36
p489
aa(lp490
VTotal / Average
p491
aV
aV
aV212
p492
aV17799
p493
aV13
p494
aV29
p495
aV42
p496
aV3
aV0.9
p497
aV79.5
p498
aV2.2
p499
aV13
p500
aV7.28
p501
aasS'sumary_data'
p502
(lp503
(lp504
a(lp505
V2018/2019
p506
aVTottenham
p507
aVEPL
p508
aV4(2)
p509
aV428
p510
aV-
aV2
aV1
aV-
aV0.3
p511
aV74
p512
aV1.5
p513
aV-
aV6.85
p514
aa(lp515
V2018/2019
p516
aVTottenham
p517
aVUCL
p518
aV3
aV255
p519
aV-
aV-
aV-
aV-
aV0.7
p520
aV76.9
p521
aV2.7
p522
aV-
aV7.02
p523
aa(lp524
V2017/2018
p525
aVTottenham
p526
aVUCL
p527
aV6
aV507
p528
aV-
aV1
aV3
aV-
aV0.5
p529
aV80.6
p530
aV1.2
p531
aV-
aV6.89
p532
aa(lp533
V2017/2018
p534
aVTottenham
p535
aVEPL
p536
aV16(1)
p537
aV1429
p538
aV2
aV2
aV1
aV1
aV0.9
p539
aV79.4
p540
aV2.8
p541
aV1
aV7.28
p542
aa(lp543
V2016/2017
p544
aVParis Saint-G..
p545
aVUCL
p546
aV3(2)
p547
aV282
p548
aV-
aV1
aV-
aV-
aV0.8
p549
aV85
p550
aV1.2
p551
aV-
aV6.89
p552
aa(lp553
V2016/2017
p554
aVParis Saint-G..
p555
aVFL1
p556
aV21(1)
p557
aV1830
p558
aV-
aV3
aV3
aV1
aV1
aV89
p559
aV2.7
p560
aV-
aV7.11
p561
aa(lp562
V2015/2016
p563
aVParis Saint-G..
p564
aVUCL
p565
aV5
aV409
p566
aV1
aV1
aV2
aV-
aV0.4
p567
aV86.2
p568
aV2.4
p569
aV1
aV7.40
p570
aa(lp571
V2015/2016
p572
aVParis Saint-G..
p573
aVFL1
p574
aV21
p575
aV1887
p576
aV2
aV2
aV8
aV-
aV1
aV88.4
p577
aV2.8
p578
aV-
aV7.75
p579
aa(lp580
V2015
p581
aVIvory Coast
p582
aVACoN
p583
aV6
aV571
p584
aV-
aV1
aV2
aV-
aV1.7
p585
aV74.3
p586
aV3
aV3
aV7.55
p587
aa(lp588
V2014/2015
p589
aVParis Saint-G..
p590
aVFL1
p591
aV12(2)
p592
aV1136
p593
aV-
aV5
aV2
aV-
aV0.5
p594
aV88.9
p595
aV1.9
p596
aV1
aV7.54
p597
aa(lp598
V2013/2014
p599
aVToulouse
p600
aVFL1
p601
aV34
p602
aV3045
p603
aV6
aV6
aV11
p604
aV-
aV1.7
p605
aV76.8
p606
aV2.7
p607
aV5
aV7.42
p608
aa(lp609
V2014
p610
aVIvory Coast
p611
aVWC
p612
aV3
aV270
p613
aV-
aV2
aV-
aV-
aV1
aV85.4
p614
aV1
aV1
aV7.65
p615
aa(lp616
V2012/2013
p617
aVToulouse
p618
aVFL1
p619
aV28
p620
aV2498
p621
aV1
aV3
aV4
aV1
aV0.7
p622
aV81.2
p623
aV2.4
p624
aV1
aV7.29
p625
aa(lp626
V2011/2012
p627
aVToulouse
p628
aVFL1
p629
aV9(1)
p630
aV783
p631
aV1
aV-
aV3
aV-
aV0.5
p632
aV79
p633
aV1.3
p634
aV-
aV7.14
p635
aa(lp636
V2010/2011
p637
aVLens
p638
aVFL1
p639
aV24(3)
p640
aV2019
p641
aV-
aV-
aV1
aV-
aV0.3
p642
aV64.2
p643
aV1.4
p644
aV-
aV6.96
p645
aa(lp646
V2009/2010
p647
aVLens
p648
aVFL1
p649
aV5
aV450
p650
aV-
aV-
aV1
aV-
aV0.2
p651
aV66.1
p652
aV2.2
p653
aV-
aV7.36
p654
aa(lp655
VTotal / Average
p656
aV
aV
aV212
p657
aV17799
p658
aV13
p659
aV29
p660
aV42
p661
aV3
aV0.9
p662
aV79.5
p663
aV2.2
p664
aV13
p665
aV7.28
p666
aasS'id'
p667
V83683
p668
sb.