(i__main__
Player
p1
(dp2
S'name'
p3
VMarcos Alonso 
p4
sS'offensive_data'
p5
(lp6
(lp7
a(lp8
V2018/2019
p9
aVChelsea
p10
aVEPL
p11
aV17
p12
aV1518
p13
aV1
aV3
aV3
aV-
aV1.5
p14
aV86.8
p15
aV1.8
p16
aV1
aV7.18
p17
aa(lp18
V2018/2019
p19
aVChelsea
p20
aVUEL
p21
aV1
aV66
p22
aV-
aV-
aV-
aV-
aV1
aV80.9
p23
aV1
aV-
aV7.05
p24
aa(lp25
V2018/2019
p26
aVSpain
p27
aVUNL
p28
aV2
aV177
p29
aV-
aV-
aV-
aV-
aV1.5
p30
aV91.8
p31
aV1.5
p32
aV-
aV6.68
p33
aa(lp34
V2017/2018
p35
aVChelsea
p36
aVUCL
p37
aV7
aV598
p38
aV-
aV1
aV2
aV-
aV1.6
p39
aV80
p40
aV1.9
p41
aV-
aV6.97
p42
aa(lp43
V2017/2018
p44
aVChelsea
p45
aVEPL
p46
aV33
p47
aV2860
p48
aV7
aV2
aV6
aV-
aV2
aV79.4
p49
aV1.8
p50
aV3
aV7.13
p51
aa(lp52
V2016/2017
p53
aVFiorentina
p54
aVISA
p55
aV2
aV180
p56
aV-
aV-
aV-
aV-
aV-
aV81.1
p57
aV3.5
p58
aV1
aV7.66
p59
aa(lp60
V2016/2017
p61
aVChelsea
p62
aVEPL
p63
aV30(1)
p64
aV2694
p65
aV6
aV3
aV2
aV-
aV1.5
p66
aV77.8
p67
aV2.4
p68
aV1
aV7.41
p69
aa(lp70
V2015/2016
p71
aVFiorentina
p72
aVISA
p73
aV26(5)
p74
aV2346
p75
aV3
aV4
aV8
aV-
aV1.8
p76
aV83.4
p77
aV1.6
p78
aV3
aV7.07
p79
aa(lp80
V2015/2016
p81
aVFiorentina
p82
aVUEL
p83
aV6(1)
p84
aV558
p85
aV-
aV-
aV1
aV-
aV1.1
p86
aV84.4
p87
aV3.3
p88
aV-
aV7.01
p89
aa(lp90
V2014/2015
p91
aVFiorentina
p92
aVISA
p93
aV19(3)
p94
aV1684
p95
aV1
aV3
aV4
aV-
aV1.3
p96
aV80.3
p97
aV2.6
p98
aV1
aV7.15
p99
aa(lp100
V2014/2015
p101
aVFiorentina
p102
aVUEL
p103
aV7(3)
p104
aV723
p105
aV1
aV-
aV3
aV-
aV1.1
p106
aV75.2
p107
aV3.8
p108
aV1
aV7.29
p109
aa(lp110
V2013/2014
p111
aVFiorentina
p112
aVISA
p113
aV1(2)
p114
aV158
p115
aV-
aV-
aV-
aV-
aV1.7
p116
aV79.7
p117
aV3.7
p118
aV-
aV6.91
p119
aa(lp120
V2013/2014
p121
aVFiorentina
p122
aVUEL
p123
aV5
aV450
p124
aV-
aV-
aV1
aV-
aV1.6
p125
aV79.8
p126
aV2.4
p127
aV1
aV7.75
p128
aa(lp129
V2013/2014
p130
aVSunderland
p131
aVEPL
p132
aV16
p133
aV1440
p134
aV-
aV1
aV4
aV1
aV1.6
p135
aV71.9
p136
aV1.8
p137
aV1
aV7.34
p138
aa(lp139
V2011/2012
p140
aVBolton
p141
aVEPL
p142
aV4(1)
p143
aV332
p144
aV1
aV-
aV-
aV-
aV1
aV70.5
p145
aV1.2
p146
aV-
aV6.98
p147
aa(lp148
V2010/2011
p149
aVBolton
p150
aVEPL
p151
aV4
aV360
p152
aV-
aV-
aV3
aV-
aV0.5
p153
aV58.6
p154
aV2.3
p155
aV-
aV7.31
p156
aa(lp157
V2009/2010
p158
aVReal Madrid
p159
aVSLL
p160
aV0(1)
p161
aV1
aV-
aV-
aV-
aV-
aV-
aV100
p162
aV-
aV-
aV6.00
p163
aa(lp164
VTotal / Average
p165
aV
aV
aV197
p166
aV16145
p167
aV20
p168
aV17
p169
aV37
p170
aV1
aV1.5
p171
aV79.5
p172
aV2.1
p173
aV13
p174
aV7.19
p175
aasS'url'
p176
S'https://www.whoscored.com/Players/84008/History/'
p177
sS'passing_data'
p178
(lp179
(lp180
a(lp181
V2018/2019
p182
aVChelsea
p183
aVEPL
p184
aV17
p185
aV1518
p186
aV1
aV3
aV3
aV-
aV1.5
p187
aV86.8
p188
aV1.8
p189
aV1
aV7.18
p190
aa(lp191
V2018/2019
p192
aVChelsea
p193
aVUEL
p194
aV1
aV66
p195
aV-
aV-
aV-
aV-
aV1
aV80.9
p196
aV1
aV-
aV7.05
p197
aa(lp198
V2018/2019
p199
aVSpain
p200
aVUNL
p201
aV2
aV177
p202
aV-
aV-
aV-
aV-
aV1.5
p203
aV91.8
p204
aV1.5
p205
aV-
aV6.68
p206
aa(lp207
V2017/2018
p208
aVChelsea
p209
aVUCL
p210
aV7
aV598
p211
aV-
aV1
aV2
aV-
aV1.6
p212
aV80
p213
aV1.9
p214
aV-
aV6.97
p215
aa(lp216
V2017/2018
p217
aVChelsea
p218
aVEPL
p219
aV33
p220
aV2860
p221
aV7
aV2
aV6
aV-
aV2
aV79.4
p222
aV1.8
p223
aV3
aV7.13
p224
aa(lp225
V2016/2017
p226
aVFiorentina
p227
aVISA
p228
aV2
aV180
p229
aV-
aV-
aV-
aV-
aV-
aV81.1
p230
aV3.5
p231
aV1
aV7.66
p232
aa(lp233
V2016/2017
p234
aVChelsea
p235
aVEPL
p236
aV30(1)
p237
aV2694
p238
aV6
aV3
aV2
aV-
aV1.5
p239
aV77.8
p240
aV2.4
p241
aV1
aV7.41
p242
aa(lp243
V2015/2016
p244
aVFiorentina
p245
aVISA
p246
aV26(5)
p247
aV2346
p248
aV3
aV4
aV8
aV-
aV1.8
p249
aV83.4
p250
aV1.6
p251
aV3
aV7.07
p252
aa(lp253
V2015/2016
p254
aVFiorentina
p255
aVUEL
p256
aV6(1)
p257
aV558
p258
aV-
aV-
aV1
aV-
aV1.1
p259
aV84.4
p260
aV3.3
p261
aV-
aV7.01
p262
aa(lp263
V2014/2015
p264
aVFiorentina
p265
aVISA
p266
aV19(3)
p267
aV1684
p268
aV1
aV3
aV4
aV-
aV1.3
p269
aV80.3
p270
aV2.6
p271
aV1
aV7.15
p272
aa(lp273
V2014/2015
p274
aVFiorentina
p275
aVUEL
p276
aV7(3)
p277
aV723
p278
aV1
aV-
aV3
aV-
aV1.1
p279
aV75.2
p280
aV3.8
p281
aV1
aV7.29
p282
aa(lp283
V2013/2014
p284
aVFiorentina
p285
aVISA
p286
aV1(2)
p287
aV158
p288
aV-
aV-
aV-
aV-
aV1.7
p289
aV79.7
p290
aV3.7
p291
aV-
aV6.91
p292
aa(lp293
V2013/2014
p294
aVFiorentina
p295
aVUEL
p296
aV5
aV450
p297
aV-
aV-
aV1
aV-
aV1.6
p298
aV79.8
p299
aV2.4
p300
aV1
aV7.75
p301
aa(lp302
V2013/2014
p303
aVSunderland
p304
aVEPL
p305
aV16
p306
aV1440
p307
aV-
aV1
aV4
aV1
aV1.6
p308
aV71.9
p309
aV1.8
p310
aV1
aV7.34
p311
aa(lp312
V2011/2012
p313
aVBolton
p314
aVEPL
p315
aV4(1)
p316
aV332
p317
aV1
aV-
aV-
aV-
aV1
aV70.5
p318
aV1.2
p319
aV-
aV6.98
p320
aa(lp321
V2010/2011
p322
aVBolton
p323
aVEPL
p324
aV4
aV360
p325
aV-
aV-
aV3
aV-
aV0.5
p326
aV58.6
p327
aV2.3
p328
aV-
aV7.31
p329
aa(lp330
V2009/2010
p331
aVReal Madrid
p332
aVSLL
p333
aV0(1)
p334
aV1
aV-
aV-
aV-
aV-
aV-
aV100
p335
aV-
aV-
aV6.00
p336
aa(lp337
VTotal / Average
p338
aV
aV
aV197
p339
aV16145
p340
aV20
p341
aV17
p342
aV37
p343
aV1
aV1.5
p344
aV79.5
p345
aV2.1
p346
aV13
p347
aV7.19
p348
aasS'defensive_data'
p349
(lp350
(lp351
a(lp352
V2018/2019
p353
aVChelsea
p354
aVEPL
p355
aV17
p356
aV1518
p357
aV1
aV3
aV3
aV-
aV1.5
p358
aV86.8
p359
aV1.8
p360
aV1
aV7.18
p361
aa(lp362
V2018/2019
p363
aVChelsea
p364
aVUEL
p365
aV1
aV66
p366
aV-
aV-
aV-
aV-
aV1
aV80.9
p367
aV1
aV-
aV7.05
p368
aa(lp369
V2018/2019
p370
aVSpain
p371
aVUNL
p372
aV2
aV177
p373
aV-
aV-
aV-
aV-
aV1.5
p374
aV91.8
p375
aV1.5
p376
aV-
aV6.68
p377
aa(lp378
V2017/2018
p379
aVChelsea
p380
aVUCL
p381
aV7
aV598
p382
aV-
aV1
aV2
aV-
aV1.6
p383
aV80
p384
aV1.9
p385
aV-
aV6.97
p386
aa(lp387
V2017/2018
p388
aVChelsea
p389
aVEPL
p390
aV33
p391
aV2860
p392
aV7
aV2
aV6
aV-
aV2
aV79.4
p393
aV1.8
p394
aV3
aV7.13
p395
aa(lp396
V2016/2017
p397
aVFiorentina
p398
aVISA
p399
aV2
aV180
p400
aV-
aV-
aV-
aV-
aV-
aV81.1
p401
aV3.5
p402
aV1
aV7.66
p403
aa(lp404
V2016/2017
p405
aVChelsea
p406
aVEPL
p407
aV30(1)
p408
aV2694
p409
aV6
aV3
aV2
aV-
aV1.5
p410
aV77.8
p411
aV2.4
p412
aV1
aV7.41
p413
aa(lp414
V2015/2016
p415
aVFiorentina
p416
aVISA
p417
aV26(5)
p418
aV2346
p419
aV3
aV4
aV8
aV-
aV1.8
p420
aV83.4
p421
aV1.6
p422
aV3
aV7.07
p423
aa(lp424
V2015/2016
p425
aVFiorentina
p426
aVUEL
p427
aV6(1)
p428
aV558
p429
aV-
aV-
aV1
aV-
aV1.1
p430
aV84.4
p431
aV3.3
p432
aV-
aV7.01
p433
aa(lp434
V2014/2015
p435
aVFiorentina
p436
aVISA
p437
aV19(3)
p438
aV1684
p439
aV1
aV3
aV4
aV-
aV1.3
p440
aV80.3
p441
aV2.6
p442
aV1
aV7.15
p443
aa(lp444
V2014/2015
p445
aVFiorentina
p446
aVUEL
p447
aV7(3)
p448
aV723
p449
aV1
aV-
aV3
aV-
aV1.1
p450
aV75.2
p451
aV3.8
p452
aV1
aV7.29
p453
aa(lp454
V2013/2014
p455
aVFiorentina
p456
aVISA
p457
aV1(2)
p458
aV158
p459
aV-
aV-
aV-
aV-
aV1.7
p460
aV79.7
p461
aV3.7
p462
aV-
aV6.91
p463
aa(lp464
V2013/2014
p465
aVFiorentina
p466
aVUEL
p467
aV5
aV450
p468
aV-
aV-
aV1
aV-
aV1.6
p469
aV79.8
p470
aV2.4
p471
aV1
aV7.75
p472
aa(lp473
V2013/2014
p474
aVSunderland
p475
aVEPL
p476
aV16
p477
aV1440
p478
aV-
aV1
aV4
aV1
aV1.6
p479
aV71.9
p480
aV1.8
p481
aV1
aV7.34
p482
aa(lp483
V2011/2012
p484
aVBolton
p485
aVEPL
p486
aV4(1)
p487
aV332
p488
aV1
aV-
aV-
aV-
aV1
aV70.5
p489
aV1.2
p490
aV-
aV6.98
p491
aa(lp492
V2010/2011
p493
aVBolton
p494
aVEPL
p495
aV4
aV360
p496
aV-
aV-
aV3
aV-
aV0.5
p497
aV58.6
p498
aV2.3
p499
aV-
aV7.31
p500
aa(lp501
V2009/2010
p502
aVReal Madrid
p503
aVSLL
p504
aV0(1)
p505
aV1
aV-
aV-
aV-
aV-
aV-
aV100
p506
aV-
aV-
aV6.00
p507
aa(lp508
VTotal / Average
p509
aV
aV
aV197
p510
aV16145
p511
aV20
p512
aV17
p513
aV37
p514
aV1
aV1.5
p515
aV79.5
p516
aV2.1
p517
aV13
p518
aV7.19
p519
aasS'sumary_data'
p520
(lp521
(lp522
a(lp523
V2018/2019
p524
aVChelsea
p525
aVEPL
p526
aV17
p527
aV1518
p528
aV1
aV3
aV3
aV-
aV1.5
p529
aV86.8
p530
aV1.8
p531
aV1
aV7.18
p532
aa(lp533
V2018/2019
p534
aVChelsea
p535
aVUEL
p536
aV1
aV66
p537
aV-
aV-
aV-
aV-
aV1
aV80.9
p538
aV1
aV-
aV7.05
p539
aa(lp540
V2018/2019
p541
aVSpain
p542
aVUNL
p543
aV2
aV177
p544
aV-
aV-
aV-
aV-
aV1.5
p545
aV91.8
p546
aV1.5
p547
aV-
aV6.68
p548
aa(lp549
V2017/2018
p550
aVChelsea
p551
aVUCL
p552
aV7
aV598
p553
aV-
aV1
aV2
aV-
aV1.6
p554
aV80
p555
aV1.9
p556
aV-
aV6.97
p557
aa(lp558
V2017/2018
p559
aVChelsea
p560
aVEPL
p561
aV33
p562
aV2860
p563
aV7
aV2
aV6
aV-
aV2
aV79.4
p564
aV1.8
p565
aV3
aV7.13
p566
aa(lp567
V2016/2017
p568
aVFiorentina
p569
aVISA
p570
aV2
aV180
p571
aV-
aV-
aV-
aV-
aV-
aV81.1
p572
aV3.5
p573
aV1
aV7.66
p574
aa(lp575
V2016/2017
p576
aVChelsea
p577
aVEPL
p578
aV30(1)
p579
aV2694
p580
aV6
aV3
aV2
aV-
aV1.5
p581
aV77.8
p582
aV2.4
p583
aV1
aV7.41
p584
aa(lp585
V2015/2016
p586
aVFiorentina
p587
aVISA
p588
aV26(5)
p589
aV2346
p590
aV3
aV4
aV8
aV-
aV1.8
p591
aV83.4
p592
aV1.6
p593
aV3
aV7.07
p594
aa(lp595
V2015/2016
p596
aVFiorentina
p597
aVUEL
p598
aV6(1)
p599
aV558
p600
aV-
aV-
aV1
aV-
aV1.1
p601
aV84.4
p602
aV3.3
p603
aV-
aV7.01
p604
aa(lp605
V2014/2015
p606
aVFiorentina
p607
aVISA
p608
aV19(3)
p609
aV1684
p610
aV1
aV3
aV4
aV-
aV1.3
p611
aV80.3
p612
aV2.6
p613
aV1
aV7.15
p614
aa(lp615
V2014/2015
p616
aVFiorentina
p617
aVUEL
p618
aV7(3)
p619
aV723
p620
aV1
aV-
aV3
aV-
aV1.1
p621
aV75.2
p622
aV3.8
p623
aV1
aV7.29
p624
aa(lp625
V2013/2014
p626
aVFiorentina
p627
aVISA
p628
aV1(2)
p629
aV158
p630
aV-
aV-
aV-
aV-
aV1.7
p631
aV79.7
p632
aV3.7
p633
aV-
aV6.91
p634
aa(lp635
V2013/2014
p636
aVFiorentina
p637
aVUEL
p638
aV5
aV450
p639
aV-
aV-
aV1
aV-
aV1.6
p640
aV79.8
p641
aV2.4
p642
aV1
aV7.75
p643
aa(lp644
V2013/2014
p645
aVSunderland
p646
aVEPL
p647
aV16
p648
aV1440
p649
aV-
aV1
aV4
aV1
aV1.6
p650
aV71.9
p651
aV1.8
p652
aV1
aV7.34
p653
aa(lp654
V2011/2012
p655
aVBolton
p656
aVEPL
p657
aV4(1)
p658
aV332
p659
aV1
aV-
aV-
aV-
aV1
aV70.5
p660
aV1.2
p661
aV-
aV6.98
p662
aa(lp663
V2010/2011
p664
aVBolton
p665
aVEPL
p666
aV4
aV360
p667
aV-
aV-
aV3
aV-
aV0.5
p668
aV58.6
p669
aV2.3
p670
aV-
aV7.31
p671
aa(lp672
V2009/2010
p673
aVReal Madrid
p674
aVSLL
p675
aV0(1)
p676
aV1
aV-
aV-
aV-
aV-
aV-
aV100
p677
aV-
aV-
aV6.00
p678
aa(lp679
VTotal / Average
p680
aV
aV
aV197
p681
aV16145
p682
aV20
p683
aV17
p684
aV37
p685
aV1
aV1.5
p686
aV79.5
p687
aV2.1
p688
aV13
p689
aV7.19
p690
aasS'id'
p691
V84008
p692
sb.