(i__main__
Player
p1
(dp2
S'name'
p3
VMatej Vydra 
p4
sS'offensive_data'
p5
(lp6
(lp7
a(lp8
V2018/2019
p9
aVBurnley
p10
aVEPL
p11
aV3(4)
p12
aV252
p13
aV1
aV-
aV1
aV-
aV0.6
p14
aV65.6
p15
aV0.3
p16
aV-
aV6.26
p17
aa(lp18
V2018/2019
p19
aVCzech Republi..
p20
aVUNL
p21
aV3
aV220
p22
aV-
aV-
aV-
aV-
aV0.7
p23
aV69.6
p24
aV2
aV-
aV6.42
p25
aa(lp26
V2017/2018
p27
aVDerby
p28
aVEC
p29
aV35(7)
p30
aV2809
p31
aV21
p32
aV4
aV2
aV-
aV1.8
p33
aV78.1
p34
aV0.5
p35
aV4
aV6.90
p36
aa(lp37
V2016/2017
p38
aVDerby
p39
aVEC
p40
aV20(13)
p41
aV1834
p42
aV5
aV1
aV-
aV-
aV1.3
p43
aV75.3
p44
aV0.6
p45
aV-
aV6.47
p46
aa(lp47
V2016/2017
p48
aVWatford
p49
aVEPL
p50
aV0(1)
p51
aV2
aV-
aV-
aV-
aV-
aV-
aV100
p52
aV-
aV-
aV5.94
p53
aa(lp54
V2015/2016
p55
aVReading
p56
aVEC
p57
aV24(7)
p58
aV2106
p59
aV3
aV3
aV1
aV-
aV1.3
p60
aV81.4
p61
aV0.4
p62
aV-
aV6.46
p63
aa(lp64
V2014/2015
p65
aVWatford
p66
aVEC
p67
aV31(11)
p68
aV2592
p69
aV16
p70
aV5
aV2
aV-
aV1.6
p71
aV75.4
p72
aV0.4
p73
aV2
aV6.98
p74
aa(lp75
V2013/2014
p76
aVWest Bromwich..
p77
aVEPL
p78
aV7(16)
p79
aV669
p80
aV3
aV3
aV-
aV-
aV0.5
p81
aV68.5
p82
aV0.2
p83
aV-
aV6.31
p84
aa(lp85
V2010/2011
p86
aVUdinese
p87
aVISA
p88
aV0(2)
p89
aV11
p90
aV-
aV-
aV-
aV-
aV-
aV100
p91
aV-
aV-
aV6.06
p92
aa(lp93
VTotal / Average
p94
aV
aV
aV184
p95
aV10495
p96
aV49
p97
aV16
p98
aV6
aV0
aV1.3
p99
aV76.1
p100
aV0.4
p101
aV6
aV6.65
p102
aasS'url'
p103
S'https://www.whoscored.com/Players/84129/History/'
p104
sS'passing_data'
p105
(lp106
(lp107
a(lp108
V2018/2019
p109
aVBurnley
p110
aVEPL
p111
aV3(4)
p112
aV252
p113
aV1
aV-
aV1
aV-
aV0.6
p114
aV65.6
p115
aV0.3
p116
aV-
aV6.26
p117
aa(lp118
V2018/2019
p119
aVCzech Republi..
p120
aVUNL
p121
aV3
aV220
p122
aV-
aV-
aV-
aV-
aV0.7
p123
aV69.6
p124
aV2
aV-
aV6.42
p125
aa(lp126
V2017/2018
p127
aVDerby
p128
aVEC
p129
aV35(7)
p130
aV2809
p131
aV21
p132
aV4
aV2
aV-
aV1.8
p133
aV78.1
p134
aV0.5
p135
aV4
aV6.90
p136
aa(lp137
V2016/2017
p138
aVDerby
p139
aVEC
p140
aV20(13)
p141
aV1834
p142
aV5
aV1
aV-
aV-
aV1.3
p143
aV75.3
p144
aV0.6
p145
aV-
aV6.47
p146
aa(lp147
V2016/2017
p148
aVWatford
p149
aVEPL
p150
aV0(1)
p151
aV2
aV-
aV-
aV-
aV-
aV-
aV100
p152
aV-
aV-
aV5.94
p153
aa(lp154
V2015/2016
p155
aVReading
p156
aVEC
p157
aV24(7)
p158
aV2106
p159
aV3
aV3
aV1
aV-
aV1.3
p160
aV81.4
p161
aV0.4
p162
aV-
aV6.46
p163
aa(lp164
V2014/2015
p165
aVWatford
p166
aVEC
p167
aV31(11)
p168
aV2592
p169
aV16
p170
aV5
aV2
aV-
aV1.6
p171
aV75.4
p172
aV0.4
p173
aV2
aV6.98
p174
aa(lp175
V2013/2014
p176
aVWest Bromwich..
p177
aVEPL
p178
aV7(16)
p179
aV669
p180
aV3
aV3
aV-
aV-
aV0.5
p181
aV68.5
p182
aV0.2
p183
aV-
aV6.31
p184
aa(lp185
V2010/2011
p186
aVUdinese
p187
aVISA
p188
aV0(2)
p189
aV11
p190
aV-
aV-
aV-
aV-
aV-
aV100
p191
aV-
aV-
aV6.06
p192
aa(lp193
VTotal / Average
p194
aV
aV
aV184
p195
aV10495
p196
aV49
p197
aV16
p198
aV6
aV0
aV1.3
p199
aV76.1
p200
aV0.4
p201
aV6
aV6.65
p202
aasS'defensive_data'
p203
(lp204
(lp205
a(lp206
V2018/2019
p207
aVBurnley
p208
aVEPL
p209
aV3(4)
p210
aV252
p211
aV1
aV-
aV1
aV-
aV0.6
p212
aV65.6
p213
aV0.3
p214
aV-
aV6.26
p215
aa(lp216
V2018/2019
p217
aVCzech Republi..
p218
aVUNL
p219
aV3
aV220
p220
aV-
aV-
aV-
aV-
aV0.7
p221
aV69.6
p222
aV2
aV-
aV6.42
p223
aa(lp224
V2017/2018
p225
aVDerby
p226
aVEC
p227
aV35(7)
p228
aV2809
p229
aV21
p230
aV4
aV2
aV-
aV1.8
p231
aV78.1
p232
aV0.5
p233
aV4
aV6.90
p234
aa(lp235
V2016/2017
p236
aVDerby
p237
aVEC
p238
aV20(13)
p239
aV1834
p240
aV5
aV1
aV-
aV-
aV1.3
p241
aV75.3
p242
aV0.6
p243
aV-
aV6.47
p244
aa(lp245
V2016/2017
p246
aVWatford
p247
aVEPL
p248
aV0(1)
p249
aV2
aV-
aV-
aV-
aV-
aV-
aV100
p250
aV-
aV-
aV5.94
p251
aa(lp252
V2015/2016
p253
aVReading
p254
aVEC
p255
aV24(7)
p256
aV2106
p257
aV3
aV3
aV1
aV-
aV1.3
p258
aV81.4
p259
aV0.4
p260
aV-
aV6.46
p261
aa(lp262
V2014/2015
p263
aVWatford
p264
aVEC
p265
aV31(11)
p266
aV2592
p267
aV16
p268
aV5
aV2
aV-
aV1.6
p269
aV75.4
p270
aV0.4
p271
aV2
aV6.98
p272
aa(lp273
V2013/2014
p274
aVWest Bromwich..
p275
aVEPL
p276
aV7(16)
p277
aV669
p278
aV3
aV3
aV-
aV-
aV0.5
p279
aV68.5
p280
aV0.2
p281
aV-
aV6.31
p282
aa(lp283
V2010/2011
p284
aVUdinese
p285
aVISA
p286
aV0(2)
p287
aV11
p288
aV-
aV-
aV-
aV-
aV-
aV100
p289
aV-
aV-
aV6.06
p290
aa(lp291
VTotal / Average
p292
aV
aV
aV184
p293
aV10495
p294
aV49
p295
aV16
p296
aV6
aV0
aV1.3
p297
aV76.1
p298
aV0.4
p299
aV6
aV6.65
p300
aasS'sumary_data'
p301
(lp302
(lp303
a(lp304
V2018/2019
p305
aVBurnley
p306
aVEPL
p307
aV3(4)
p308
aV252
p309
aV1
aV-
aV1
aV-
aV0.6
p310
aV65.6
p311
aV0.3
p312
aV-
aV6.26
p313
aa(lp314
V2018/2019
p315
aVCzech Republi..
p316
aVUNL
p317
aV3
aV220
p318
aV-
aV-
aV-
aV-
aV0.7
p319
aV69.6
p320
aV2
aV-
aV6.42
p321
aa(lp322
V2017/2018
p323
aVDerby
p324
aVEC
p325
aV35(7)
p326
aV2809
p327
aV21
p328
aV4
aV2
aV-
aV1.8
p329
aV78.1
p330
aV0.5
p331
aV4
aV6.90
p332
aa(lp333
V2016/2017
p334
aVDerby
p335
aVEC
p336
aV20(13)
p337
aV1834
p338
aV5
aV1
aV-
aV-
aV1.3
p339
aV75.3
p340
aV0.6
p341
aV-
aV6.47
p342
aa(lp343
V2016/2017
p344
aVWatford
p345
aVEPL
p346
aV0(1)
p347
aV2
aV-
aV-
aV-
aV-
aV-
aV100
p348
aV-
aV-
aV5.94
p349
aa(lp350
V2015/2016
p351
aVReading
p352
aVEC
p353
aV24(7)
p354
aV2106
p355
aV3
aV3
aV1
aV-
aV1.3
p356
aV81.4
p357
aV0.4
p358
aV-
aV6.46
p359
aa(lp360
V2014/2015
p361
aVWatford
p362
aVEC
p363
aV31(11)
p364
aV2592
p365
aV16
p366
aV5
aV2
aV-
aV1.6
p367
aV75.4
p368
aV0.4
p369
aV2
aV6.98
p370
aa(lp371
V2013/2014
p372
aVWest Bromwich..
p373
aVEPL
p374
aV7(16)
p375
aV669
p376
aV3
aV3
aV-
aV-
aV0.5
p377
aV68.5
p378
aV0.2
p379
aV-
aV6.31
p380
aa(lp381
V2010/2011
p382
aVUdinese
p383
aVISA
p384
aV0(2)
p385
aV11
p386
aV-
aV-
aV-
aV-
aV-
aV100
p387
aV-
aV-
aV6.06
p388
aa(lp389
VTotal / Average
p390
aV
aV
aV184
p391
aV10495
p392
aV49
p393
aV16
p394
aV6
aV0
aV1.3
p395
aV76.1
p396
aV0.4
p397
aV6
aV6.65
p398
aasS'id'
p399
V84129
p400
sb.