(i__main__
Player
p1
(dp2
S'name'
p3
VTim Ream 
p4
sS'offensive_data'
p5
(lp6
(lp7
a(lp8
V2018/2019
p9
aVFulham
p10
aVEPL
p11
aV6(1)
p12
aV466
p13
aV-
aV-
aV-
aV-
aV-
aV87.1
p14
aV1.7
p15
aV-
aV6.03
p16
aa(lp17
V2017/2018
p18
aVFulham
p19
aVEC
p20
aV47
p21
aV4230
p22
aV1
aV-
aV2
aV-
aV0.1
p23
aV88.3
p24
aV2.9
p25
aV-
aV7.05
p26
aa(lp27
V2016/2017
p28
aVFulham
p29
aVEC
p30
aV30(6)
p31
aV2750
p32
aV1
aV-
aV3
aV-
aV0.2
p33
aV90.2
p34
aV2.3
p35
aV-
aV6.72
p36
aa(lp37
V2015/2016
p38
aVFulham
p39
aVEC
p40
aV27(2)
p41
aV2385
p42
aV-
aV1
aV-
aV-
aV0.3
p43
aV81.5
p44
aV2.2
p45
aV-
aV6.63
p46
aa(lp47
V2014/2015
p48
aVBolton
p49
aVEC
p50
aV42(2)
p51
aV3744
p52
aV-
aV3
aV4
aV-
aV0.4
p53
aV77.8
p54
aV2.4
p55
aV1
aV7.04
p56
aa(lp57
V2013/2014
p58
aVBolton
p59
aVEC
p60
aV42
p61
aV3680
p62
aV-
aV4
aV2
aV-
aV0.2
p63
aV74.4
p64
aV1.9
p65
aV1
aV7.01
p66
aa(lp67
V2011/2012
p68
aVBolton
p69
aVEPL
p70
aV13
p71
aV1170
p72
aV-
aV1
aV1
aV-
aV0.1
p73
aV79.6
p74
aV1.3
p75
aV-
aV6.89
p76
aa(lp77
VTotal / Average
p78
aV
aV
aV218
p79
aV18425
p80
aV2
aV9
aV12
p81
aV0
aV0.2
p82
aV82.3
p83
aV2.3
p84
aV2
aV6.89
p85
aasS'url'
p86
S'https://www.whoscored.com/Players/85006/History/'
p87
sS'passing_data'
p88
(lp89
(lp90
a(lp91
V2018/2019
p92
aVFulham
p93
aVEPL
p94
aV6(1)
p95
aV466
p96
aV-
aV-
aV-
aV-
aV-
aV87.1
p97
aV1.7
p98
aV-
aV6.03
p99
aa(lp100
V2017/2018
p101
aVFulham
p102
aVEC
p103
aV47
p104
aV4230
p105
aV1
aV-
aV2
aV-
aV0.1
p106
aV88.3
p107
aV2.9
p108
aV-
aV7.05
p109
aa(lp110
V2016/2017
p111
aVFulham
p112
aVEC
p113
aV30(6)
p114
aV2750
p115
aV1
aV-
aV3
aV-
aV0.2
p116
aV90.2
p117
aV2.3
p118
aV-
aV6.72
p119
aa(lp120
V2015/2016
p121
aVFulham
p122
aVEC
p123
aV27(2)
p124
aV2385
p125
aV-
aV1
aV-
aV-
aV0.3
p126
aV81.5
p127
aV2.2
p128
aV-
aV6.63
p129
aa(lp130
V2014/2015
p131
aVBolton
p132
aVEC
p133
aV42(2)
p134
aV3744
p135
aV-
aV3
aV4
aV-
aV0.4
p136
aV77.8
p137
aV2.4
p138
aV1
aV7.04
p139
aa(lp140
V2013/2014
p141
aVBolton
p142
aVEC
p143
aV42
p144
aV3680
p145
aV-
aV4
aV2
aV-
aV0.2
p146
aV74.4
p147
aV1.9
p148
aV1
aV7.01
p149
aa(lp150
V2011/2012
p151
aVBolton
p152
aVEPL
p153
aV13
p154
aV1170
p155
aV-
aV1
aV1
aV-
aV0.1
p156
aV79.6
p157
aV1.3
p158
aV-
aV6.89
p159
aa(lp160
VTotal / Average
p161
aV
aV
aV218
p162
aV18425
p163
aV2
aV9
aV12
p164
aV0
aV0.2
p165
aV82.3
p166
aV2.3
p167
aV2
aV6.89
p168
aasS'defensive_data'
p169
(lp170
(lp171
a(lp172
V2018/2019
p173
aVFulham
p174
aVEPL
p175
aV6(1)
p176
aV466
p177
aV-
aV-
aV-
aV-
aV-
aV87.1
p178
aV1.7
p179
aV-
aV6.03
p180
aa(lp181
V2017/2018
p182
aVFulham
p183
aVEC
p184
aV47
p185
aV4230
p186
aV1
aV-
aV2
aV-
aV0.1
p187
aV88.3
p188
aV2.9
p189
aV-
aV7.05
p190
aa(lp191
V2016/2017
p192
aVFulham
p193
aVEC
p194
aV30(6)
p195
aV2750
p196
aV1
aV-
aV3
aV-
aV0.2
p197
aV90.2
p198
aV2.3
p199
aV-
aV6.72
p200
aa(lp201
V2015/2016
p202
aVFulham
p203
aVEC
p204
aV27(2)
p205
aV2385
p206
aV-
aV1
aV-
aV-
aV0.3
p207
aV81.5
p208
aV2.2
p209
aV-
aV6.63
p210
aa(lp211
V2014/2015
p212
aVBolton
p213
aVEC
p214
aV42(2)
p215
aV3744
p216
aV-
aV3
aV4
aV-
aV0.4
p217
aV77.8
p218
aV2.4
p219
aV1
aV7.04
p220
aa(lp221
V2013/2014
p222
aVBolton
p223
aVEC
p224
aV42
p225
aV3680
p226
aV-
aV4
aV2
aV-
aV0.2
p227
aV74.4
p228
aV1.9
p229
aV1
aV7.01
p230
aa(lp231
V2011/2012
p232
aVBolton
p233
aVEPL
p234
aV13
p235
aV1170
p236
aV-
aV1
aV1
aV-
aV0.1
p237
aV79.6
p238
aV1.3
p239
aV-
aV6.89
p240
aa(lp241
VTotal / Average
p242
aV
aV
aV218
p243
aV18425
p244
aV2
aV9
aV12
p245
aV0
aV0.2
p246
aV82.3
p247
aV2.3
p248
aV2
aV6.89
p249
aasS'sumary_data'
p250
(lp251
(lp252
a(lp253
V2018/2019
p254
aVFulham
p255
aVEPL
p256
aV6(1)
p257
aV466
p258
aV-
aV-
aV-
aV-
aV-
aV87.1
p259
aV1.7
p260
aV-
aV6.03
p261
aa(lp262
V2017/2018
p263
aVFulham
p264
aVEC
p265
aV47
p266
aV4230
p267
aV1
aV-
aV2
aV-
aV0.1
p268
aV88.3
p269
aV2.9
p270
aV-
aV7.05
p271
aa(lp272
V2016/2017
p273
aVFulham
p274
aVEC
p275
aV30(6)
p276
aV2750
p277
aV1
aV-
aV3
aV-
aV0.2
p278
aV90.2
p279
aV2.3
p280
aV-
aV6.72
p281
aa(lp282
V2015/2016
p283
aVFulham
p284
aVEC
p285
aV27(2)
p286
aV2385
p287
aV-
aV1
aV-
aV-
aV0.3
p288
aV81.5
p289
aV2.2
p290
aV-
aV6.63
p291
aa(lp292
V2014/2015
p293
aVBolton
p294
aVEC
p295
aV42(2)
p296
aV3744
p297
aV-
aV3
aV4
aV-
aV0.4
p298
aV77.8
p299
aV2.4
p300
aV1
aV7.04
p301
aa(lp302
V2013/2014
p303
aVBolton
p304
aVEC
p305
aV42
p306
aV3680
p307
aV-
aV4
aV2
aV-
aV0.2
p308
aV74.4
p309
aV1.9
p310
aV1
aV7.01
p311
aa(lp312
V2011/2012
p313
aVBolton
p314
aVEPL
p315
aV13
p316
aV1170
p317
aV-
aV1
aV1
aV-
aV0.1
p318
aV79.6
p319
aV1.3
p320
aV-
aV6.89
p321
aa(lp322
VTotal / Average
p323
aV
aV
aV218
p324
aV18425
p325
aV2
aV9
aV12
p326
aV0
aV0.2
p327
aV82.3
p328
aV2.3
p329
aV2
aV6.89
p330
aasS'id'
p331
V85006
p332
sb.