(i__main__
Player
p1
(dp2
S'name'
p3
VWilfried Zaha 
p4
sS'offensive_data'
p5
(lp6
(lp7
a(lp8
V2018/2019
p9
aVCrystal Palac..
p10
aVEPL
p11
aV14
p12
aV1260
p13
aV3
aV1
aV5
aV-
aV2.2
p14
aV76.2
p15
aV0.4
p16
aV1
aV6.98
p17
aa(lp18
V2017/2018
p19
aVCrystal Palac..
p20
aVEPL
p21
aV28(1)
p22
aV2551
p23
aV9
aV3
aV5
aV-
aV2.2
p24
aV75.3
p25
aV0.1
p26
aV3
aV7.38
p27
aa(lp28
V2016/2017
p29
aVCrystal Palac..
p30
aVEPL
p31
aV34(1)
p32
aV3025
p33
aV7
aV9
aV8
aV-
aV1.4
p34
aV79.9
p35
aV0.4
p36
aV4
aV7.38
p37
aa(lp38
V2015/2016
p39
aVCrystal Palac..
p40
aVEPL
p41
aV30(4)
p42
aV2497
p43
aV2
aV1
aV5
aV-
aV0.9
p44
aV76.7
p45
aV0.3
p46
aV2
aV7.03
p47
aa(lp48
V2014/2015
p49
aVCrystal Palac..
p50
aVEPL
p51
aV23(8)
p52
aV1982
p53
aV4
aV2
aV1
aV-
aV1.3
p54
aV73.3
p55
aV0.4
p56
aV1
aV6.97
p57
aa(lp58
V2013/2014
p59
aVCardiff
p60
aVEPL
p61
aV5(7)
p62
aV585
p63
aV-
aV1
aV1
aV-
aV0.8
p64
aV79.3
p65
aV0.3
p66
aV-
aV6.58
p67
aa(lp68
V2013/2014
p69
aVManchester Un..
p70
aVEPL
p71
aV0(2)
p72
aV28
p73
aV-
aV-
aV-
aV-
aV0.5
p74
aV63.6
p75
aV-
aV-
aV6.30
p76
aa(lp77
V2013
p78
aVEngland U21
p79
aVIEU
p80
aV2
aV180
p81
aV-
aV-
aV-
aV-
aV3
aV86.3
p82
aV1.5
p83
aV-
aV6.72
p84
aa(lp85
VTotal / Average
p86
aV
aV
aV159
p87
aV12108
p88
aV25
p89
aV17
p90
aV25
p91
aV0
aV1.5
p92
aV76.6
p93
aV0.3
p94
aV11
p95
aV7.11
p96
aasS'url'
p97
S'https://www.whoscored.com/Players/85059/History/'
p98
sS'passing_data'
p99
(lp100
(lp101
a(lp102
V2018/2019
p103
aVCrystal Palac..
p104
aVEPL
p105
aV14
p106
aV1260
p107
aV3
aV1
aV5
aV-
aV2.2
p108
aV76.2
p109
aV0.4
p110
aV1
aV6.98
p111
aa(lp112
V2017/2018
p113
aVCrystal Palac..
p114
aVEPL
p115
aV28(1)
p116
aV2551
p117
aV9
aV3
aV5
aV-
aV2.2
p118
aV75.3
p119
aV0.1
p120
aV3
aV7.38
p121
aa(lp122
V2016/2017
p123
aVCrystal Palac..
p124
aVEPL
p125
aV34(1)
p126
aV3025
p127
aV7
aV9
aV8
aV-
aV1.4
p128
aV79.9
p129
aV0.4
p130
aV4
aV7.38
p131
aa(lp132
V2015/2016
p133
aVCrystal Palac..
p134
aVEPL
p135
aV30(4)
p136
aV2497
p137
aV2
aV1
aV5
aV-
aV0.9
p138
aV76.7
p139
aV0.3
p140
aV2
aV7.03
p141
aa(lp142
V2014/2015
p143
aVCrystal Palac..
p144
aVEPL
p145
aV23(8)
p146
aV1982
p147
aV4
aV2
aV1
aV-
aV1.3
p148
aV73.3
p149
aV0.4
p150
aV1
aV6.97
p151
aa(lp152
V2013/2014
p153
aVCardiff
p154
aVEPL
p155
aV5(7)
p156
aV585
p157
aV-
aV1
aV1
aV-
aV0.8
p158
aV79.3
p159
aV0.3
p160
aV-
aV6.58
p161
aa(lp162
V2013/2014
p163
aVManchester Un..
p164
aVEPL
p165
aV0(2)
p166
aV28
p167
aV-
aV-
aV-
aV-
aV0.5
p168
aV63.6
p169
aV-
aV-
aV6.30
p170
aa(lp171
V2013
p172
aVEngland U21
p173
aVIEU
p174
aV2
aV180
p175
aV-
aV-
aV-
aV-
aV3
aV86.3
p176
aV1.5
p177
aV-
aV6.72
p178
aa(lp179
VTotal / Average
p180
aV
aV
aV159
p181
aV12108
p182
aV25
p183
aV17
p184
aV25
p185
aV0
aV1.5
p186
aV76.6
p187
aV0.3
p188
aV11
p189
aV7.11
p190
aasS'defensive_data'
p191
(lp192
(lp193
a(lp194
V2018/2019
p195
aVCrystal Palac..
p196
aVEPL
p197
aV14
p198
aV1260
p199
aV3
aV1
aV5
aV-
aV2.2
p200
aV76.2
p201
aV0.4
p202
aV1
aV6.98
p203
aa(lp204
V2017/2018
p205
aVCrystal Palac..
p206
aVEPL
p207
aV28(1)
p208
aV2551
p209
aV9
aV3
aV5
aV-
aV2.2
p210
aV75.3
p211
aV0.1
p212
aV3
aV7.38
p213
aa(lp214
V2016/2017
p215
aVCrystal Palac..
p216
aVEPL
p217
aV34(1)
p218
aV3025
p219
aV7
aV9
aV8
aV-
aV1.4
p220
aV79.9
p221
aV0.4
p222
aV4
aV7.38
p223
aa(lp224
V2015/2016
p225
aVCrystal Palac..
p226
aVEPL
p227
aV30(4)
p228
aV2497
p229
aV2
aV1
aV5
aV-
aV0.9
p230
aV76.7
p231
aV0.3
p232
aV2
aV7.03
p233
aa(lp234
V2014/2015
p235
aVCrystal Palac..
p236
aVEPL
p237
aV23(8)
p238
aV1982
p239
aV4
aV2
aV1
aV-
aV1.3
p240
aV73.3
p241
aV0.4
p242
aV1
aV6.97
p243
aa(lp244
V2013/2014
p245
aVCardiff
p246
aVEPL
p247
aV5(7)
p248
aV585
p249
aV-
aV1
aV1
aV-
aV0.8
p250
aV79.3
p251
aV0.3
p252
aV-
aV6.58
p253
aa(lp254
V2013/2014
p255
aVManchester Un..
p256
aVEPL
p257
aV0(2)
p258
aV28
p259
aV-
aV-
aV-
aV-
aV0.5
p260
aV63.6
p261
aV-
aV-
aV6.30
p262
aa(lp263
V2013
p264
aVEngland U21
p265
aVIEU
p266
aV2
aV180
p267
aV-
aV-
aV-
aV-
aV3
aV86.3
p268
aV1.5
p269
aV-
aV6.72
p270
aa(lp271
VTotal / Average
p272
aV
aV
aV159
p273
aV12108
p274
aV25
p275
aV17
p276
aV25
p277
aV0
aV1.5
p278
aV76.6
p279
aV0.3
p280
aV11
p281
aV7.11
p282
aasS'sumary_data'
p283
(lp284
(lp285
a(lp286
V2018/2019
p287
aVCrystal Palac..
p288
aVEPL
p289
aV14
p290
aV1260
p291
aV3
aV1
aV5
aV-
aV2.2
p292
aV76.2
p293
aV0.4
p294
aV1
aV6.98
p295
aa(lp296
V2017/2018
p297
aVCrystal Palac..
p298
aVEPL
p299
aV28(1)
p300
aV2551
p301
aV9
aV3
aV5
aV-
aV2.2
p302
aV75.3
p303
aV0.1
p304
aV3
aV7.38
p305
aa(lp306
V2016/2017
p307
aVCrystal Palac..
p308
aVEPL
p309
aV34(1)
p310
aV3025
p311
aV7
aV9
aV8
aV-
aV1.4
p312
aV79.9
p313
aV0.4
p314
aV4
aV7.38
p315
aa(lp316
V2015/2016
p317
aVCrystal Palac..
p318
aVEPL
p319
aV30(4)
p320
aV2497
p321
aV2
aV1
aV5
aV-
aV0.9
p322
aV76.7
p323
aV0.3
p324
aV2
aV7.03
p325
aa(lp326
V2014/2015
p327
aVCrystal Palac..
p328
aVEPL
p329
aV23(8)
p330
aV1982
p331
aV4
aV2
aV1
aV-
aV1.3
p332
aV73.3
p333
aV0.4
p334
aV1
aV6.97
p335
aa(lp336
V2013/2014
p337
aVCardiff
p338
aVEPL
p339
aV5(7)
p340
aV585
p341
aV-
aV1
aV1
aV-
aV0.8
p342
aV79.3
p343
aV0.3
p344
aV-
aV6.58
p345
aa(lp346
V2013/2014
p347
aVManchester Un..
p348
aVEPL
p349
aV0(2)
p350
aV28
p351
aV-
aV-
aV-
aV-
aV0.5
p352
aV63.6
p353
aV-
aV-
aV6.30
p354
aa(lp355
V2013
p356
aVEngland U21
p357
aVIEU
p358
aV2
aV180
p359
aV-
aV-
aV-
aV-
aV3
aV86.3
p360
aV1.5
p361
aV-
aV6.72
p362
aa(lp363
VTotal / Average
p364
aV
aV
aV159
p365
aV12108
p366
aV25
p367
aV17
p368
aV25
p369
aV0
aV1.5
p370
aV76.6
p371
aV0.3
p372
aV11
p373
aV7.11
p374
aasS'id'
p375
V85059
p376
sb.