(i__main__
Player
p1
(dp2
S'name'
p3
VNathan Redmond 
p4
sS'offensive_data'
p5
(lp6
(lp7
a(lp8
V2018/2019
p9
aVSouthampton
p10
aVEPL
p11
aV17
p12
aV1486
p13
aV-
aV1
aV-
aV-
aV1.6
p14
aV77.1
p15
aV0.9
p16
aV-
aV6.73
p17
aa(lp18
V2017/2018
p19
aVSouthampton
p20
aVEPL
p21
aV22(9)
p22
aV1947
p23
aV1
aV3
aV3
aV-
aV1.4
p24
aV76.7
p25
aV0.1
p26
aV2
aV6.64
p27
aa(lp28
V2016/2017
p29
aVSouthampton
p30
aVEPL
p31
aV32(5)
p32
aV2909
p33
aV7
aV1
aV2
aV1
aV2.2
p34
aV82.7
p35
aV0.4
p36
aV3
aV6.97
p37
aa(lp38
V2016/2017
p39
aVSouthampton
p40
aVUEL
p41
aV4(1)
p42
aV375
p43
aV-
aV-
aV-
aV-
aV2
aV80.4
p44
aV1
aV1
aV7.09
p45
aa(lp46
V2015/2016
p47
aVNorwich
p48
aVEPL
p49
aV24(11)
p50
aV2339
p51
aV6
aV3
aV-
aV-
aV1.5
p52
aV77.5
p53
aV0.2
p54
aV3
aV6.75
p55
aa(lp56
V2015
p57
aVEngland U21
p58
aVIEU
p59
aV3
aV270
p60
aV1
aV-
aV-
aV-
aV2.3
p61
aV89.8
p62
aV0.3
p63
aV1
aV7.43
p64
aa(lp65
V2014/2015
p66
aVNorwich
p67
aVEC
p68
aV36(10)
p69
aV3244
p70
aV6
aV12
p71
aV1
aV-
aV1.9
p72
aV79.7
p73
aV0.2
p74
aV7
aV7.29
p75
aa(lp76
V2013/2014
p77
aVNorwich
p78
aVEPL
p79
aV23(11)
p80
aV2159
p81
aV1
aV3
aV2
aV-
aV1.9
p82
aV77.9
p83
aV-
aV2
aV6.84
p84
aa(lp85
V2013
p86
aVEngland U21
p87
aVIEU
p88
aV2(1)
p89
aV176
p90
aV-
aV-
aV-
aV-
aV2
aV83.6
p91
aV-
aV-
aV6.55
p92
aa(lp93
VTotal / Average
p94
aV
aV
aV211
p95
aV14905
p96
aV22
p97
aV23
p98
aV8
aV1
aV1.8
p99
aV79.1
p100
aV0.3
p101
aV19
p102
aV6.92
p103
aasS'url'
p104
S'https://www.whoscored.com/Players/86425/History/'
p105
sS'passing_data'
p106
(lp107
(lp108
a(lp109
V2018/2019
p110
aVSouthampton
p111
aVEPL
p112
aV17
p113
aV1486
p114
aV-
aV1
aV-
aV-
aV1.6
p115
aV77.1
p116
aV0.9
p117
aV-
aV6.73
p118
aa(lp119
V2017/2018
p120
aVSouthampton
p121
aVEPL
p122
aV22(9)
p123
aV1947
p124
aV1
aV3
aV3
aV-
aV1.4
p125
aV76.7
p126
aV0.1
p127
aV2
aV6.64
p128
aa(lp129
V2016/2017
p130
aVSouthampton
p131
aVEPL
p132
aV32(5)
p133
aV2909
p134
aV7
aV1
aV2
aV1
aV2.2
p135
aV82.7
p136
aV0.4
p137
aV3
aV6.97
p138
aa(lp139
V2016/2017
p140
aVSouthampton
p141
aVUEL
p142
aV4(1)
p143
aV375
p144
aV-
aV-
aV-
aV-
aV2
aV80.4
p145
aV1
aV1
aV7.09
p146
aa(lp147
V2015/2016
p148
aVNorwich
p149
aVEPL
p150
aV24(11)
p151
aV2339
p152
aV6
aV3
aV-
aV-
aV1.5
p153
aV77.5
p154
aV0.2
p155
aV3
aV6.75
p156
aa(lp157
V2015
p158
aVEngland U21
p159
aVIEU
p160
aV3
aV270
p161
aV1
aV-
aV-
aV-
aV2.3
p162
aV89.8
p163
aV0.3
p164
aV1
aV7.43
p165
aa(lp166
V2014/2015
p167
aVNorwich
p168
aVEC
p169
aV36(10)
p170
aV3244
p171
aV6
aV12
p172
aV1
aV-
aV1.9
p173
aV79.7
p174
aV0.2
p175
aV7
aV7.29
p176
aa(lp177
V2013/2014
p178
aVNorwich
p179
aVEPL
p180
aV23(11)
p181
aV2159
p182
aV1
aV3
aV2
aV-
aV1.9
p183
aV77.9
p184
aV-
aV2
aV6.84
p185
aa(lp186
V2013
p187
aVEngland U21
p188
aVIEU
p189
aV2(1)
p190
aV176
p191
aV-
aV-
aV-
aV-
aV2
aV83.6
p192
aV-
aV-
aV6.55
p193
aa(lp194
VTotal / Average
p195
aV
aV
aV211
p196
aV14905
p197
aV22
p198
aV23
p199
aV8
aV1
aV1.8
p200
aV79.1
p201
aV0.3
p202
aV19
p203
aV6.92
p204
aasS'defensive_data'
p205
(lp206
(lp207
a(lp208
V2018/2019
p209
aVSouthampton
p210
aVEPL
p211
aV17
p212
aV1486
p213
aV-
aV1
aV-
aV-
aV1.6
p214
aV77.1
p215
aV0.9
p216
aV-
aV6.73
p217
aa(lp218
V2017/2018
p219
aVSouthampton
p220
aVEPL
p221
aV22(9)
p222
aV1947
p223
aV1
aV3
aV3
aV-
aV1.4
p224
aV76.7
p225
aV0.1
p226
aV2
aV6.64
p227
aa(lp228
V2016/2017
p229
aVSouthampton
p230
aVEPL
p231
aV32(5)
p232
aV2909
p233
aV7
aV1
aV2
aV1
aV2.2
p234
aV82.7
p235
aV0.4
p236
aV3
aV6.97
p237
aa(lp238
V2016/2017
p239
aVSouthampton
p240
aVUEL
p241
aV4(1)
p242
aV375
p243
aV-
aV-
aV-
aV-
aV2
aV80.4
p244
aV1
aV1
aV7.09
p245
aa(lp246
V2015/2016
p247
aVNorwich
p248
aVEPL
p249
aV24(11)
p250
aV2339
p251
aV6
aV3
aV-
aV-
aV1.5
p252
aV77.5
p253
aV0.2
p254
aV3
aV6.75
p255
aa(lp256
V2015
p257
aVEngland U21
p258
aVIEU
p259
aV3
aV270
p260
aV1
aV-
aV-
aV-
aV2.3
p261
aV89.8
p262
aV0.3
p263
aV1
aV7.43
p264
aa(lp265
V2014/2015
p266
aVNorwich
p267
aVEC
p268
aV36(10)
p269
aV3244
p270
aV6
aV12
p271
aV1
aV-
aV1.9
p272
aV79.7
p273
aV0.2
p274
aV7
aV7.29
p275
aa(lp276
V2013/2014
p277
aVNorwich
p278
aVEPL
p279
aV23(11)
p280
aV2159
p281
aV1
aV3
aV2
aV-
aV1.9
p282
aV77.9
p283
aV-
aV2
aV6.84
p284
aa(lp285
V2013
p286
aVEngland U21
p287
aVIEU
p288
aV2(1)
p289
aV176
p290
aV-
aV-
aV-
aV-
aV2
aV83.6
p291
aV-
aV-
aV6.55
p292
aa(lp293
VTotal / Average
p294
aV
aV
aV211
p295
aV14905
p296
aV22
p297
aV23
p298
aV8
aV1
aV1.8
p299
aV79.1
p300
aV0.3
p301
aV19
p302
aV6.92
p303
aasS'sumary_data'
p304
(lp305
(lp306
a(lp307
V2018/2019
p308
aVSouthampton
p309
aVEPL
p310
aV17
p311
aV1486
p312
aV-
aV1
aV-
aV-
aV1.6
p313
aV77.1
p314
aV0.9
p315
aV-
aV6.73
p316
aa(lp317
V2017/2018
p318
aVSouthampton
p319
aVEPL
p320
aV22(9)
p321
aV1947
p322
aV1
aV3
aV3
aV-
aV1.4
p323
aV76.7
p324
aV0.1
p325
aV2
aV6.64
p326
aa(lp327
V2016/2017
p328
aVSouthampton
p329
aVEPL
p330
aV32(5)
p331
aV2909
p332
aV7
aV1
aV2
aV1
aV2.2
p333
aV82.7
p334
aV0.4
p335
aV3
aV6.97
p336
aa(lp337
V2016/2017
p338
aVSouthampton
p339
aVUEL
p340
aV4(1)
p341
aV375
p342
aV-
aV-
aV-
aV-
aV2
aV80.4
p343
aV1
aV1
aV7.09
p344
aa(lp345
V2015/2016
p346
aVNorwich
p347
aVEPL
p348
aV24(11)
p349
aV2339
p350
aV6
aV3
aV-
aV-
aV1.5
p351
aV77.5
p352
aV0.2
p353
aV3
aV6.75
p354
aa(lp355
V2015
p356
aVEngland U21
p357
aVIEU
p358
aV3
aV270
p359
aV1
aV-
aV-
aV-
aV2.3
p360
aV89.8
p361
aV0.3
p362
aV1
aV7.43
p363
aa(lp364
V2014/2015
p365
aVNorwich
p366
aVEC
p367
aV36(10)
p368
aV3244
p369
aV6
aV12
p370
aV1
aV-
aV1.9
p371
aV79.7
p372
aV0.2
p373
aV7
aV7.29
p374
aa(lp375
V2013/2014
p376
aVNorwich
p377
aVEPL
p378
aV23(11)
p379
aV2159
p380
aV1
aV3
aV2
aV-
aV1.9
p381
aV77.9
p382
aV-
aV2
aV6.84
p383
aa(lp384
V2013
p385
aVEngland U21
p386
aVIEU
p387
aV2(1)
p388
aV176
p389
aV-
aV-
aV-
aV-
aV2
aV83.6
p390
aV-
aV-
aV6.55
p391
aa(lp392
VTotal / Average
p393
aV
aV
aV211
p394
aV14905
p395
aV22
p396
aV23
p397
aV8
aV1
aV1.8
p398
aV79.1
p399
aV0.3
p400
aV19
p401
aV6.92
p402
aasS'id'
p403
V86425
p404
sb.