(i__main__
Player
p1
(dp2
S'name'
p3
VLewis Dunk 
p4
sS'offensive_data'
p5
(lp6
(lp7
a(lp8
V2018/2019
p9
aVBrighton
p10
aVEPL
p11
aV16
p12
aV1370
p13
aV2
aV-
aV3
aV-
aV0.5
p14
aV80.5
p15
aV3.6
p16
aV1
aV6.80
p17
aa(lp18
V2017/2018
p19
aVBrighton
p20
aVEPL
p21
aV38
p22
aV3420
p23
aV1
aV1
aV7
aV-
aV0.7
p24
aV78.4
p25
aV3.2
p26
aV1
aV7.02
p27
aa(lp28
V2016/2017
p29
aVBrighton
p30
aVEC
p31
aV43
p32
aV3743
p33
aV2
aV1
aV12
p34
aV1
aV0.9
p35
aV79.9
p36
aV4.4
p37
aV6
aV7.59
p38
aa(lp39
V2015/2016
p40
aVBrighton
p41
aVEC
p42
aV38(1)
p43
aV3452
p44
aV4
aV1
aV5
aV2
aV0.7
p45
aV76.6
p46
aV3.4
p47
aV7
aV7.30
p48
aa(lp49
V2014/2015
p50
aVBrighton
p51
aVEC
p52
aV38
p53
aV3347
p54
aV5
aV2
aV8
aV1
aV1.1
p55
aV84.1
p56
aV3.7
p57
aV4
aV7.47
p58
aa(lp59
V2013/2014
p60
aVBrighton
p61
aVEC
p62
aV5(2)
p63
aV489
p64
aV-
aV1
aV2
aV-
aV0.4
p65
aV76
p66
aV2.7
p67
aV1
aV7.46
p68
aa(lp69
VTotal / Average
p70
aV
aV
aV181
p71
aV15821
p72
aV14
p73
aV6
aV37
p74
aV4
aV0.8
p75
aV79.7
p76
aV3.7
p77
aV20
p78
aV7.31
p79
aasS'url'
p80
S'https://www.whoscored.com/Players/86441/History/'
p81
sS'passing_data'
p82
(lp83
(lp84
a(lp85
V2018/2019
p86
aVBrighton
p87
aVEPL
p88
aV16
p89
aV1370
p90
aV2
aV-
aV3
aV-
aV0.5
p91
aV80.5
p92
aV3.6
p93
aV1
aV6.80
p94
aa(lp95
V2017/2018
p96
aVBrighton
p97
aVEPL
p98
aV38
p99
aV3420
p100
aV1
aV1
aV7
aV-
aV0.7
p101
aV78.4
p102
aV3.2
p103
aV1
aV7.02
p104
aa(lp105
V2016/2017
p106
aVBrighton
p107
aVEC
p108
aV43
p109
aV3743
p110
aV2
aV1
aV12
p111
aV1
aV0.9
p112
aV79.9
p113
aV4.4
p114
aV6
aV7.59
p115
aa(lp116
V2015/2016
p117
aVBrighton
p118
aVEC
p119
aV38(1)
p120
aV3452
p121
aV4
aV1
aV5
aV2
aV0.7
p122
aV76.6
p123
aV3.4
p124
aV7
aV7.30
p125
aa(lp126
V2014/2015
p127
aVBrighton
p128
aVEC
p129
aV38
p130
aV3347
p131
aV5
aV2
aV8
aV1
aV1.1
p132
aV84.1
p133
aV3.7
p134
aV4
aV7.47
p135
aa(lp136
V2013/2014
p137
aVBrighton
p138
aVEC
p139
aV5(2)
p140
aV489
p141
aV-
aV1
aV2
aV-
aV0.4
p142
aV76
p143
aV2.7
p144
aV1
aV7.46
p145
aa(lp146
VTotal / Average
p147
aV
aV
aV181
p148
aV15821
p149
aV14
p150
aV6
aV37
p151
aV4
aV0.8
p152
aV79.7
p153
aV3.7
p154
aV20
p155
aV7.31
p156
aasS'defensive_data'
p157
(lp158
(lp159
a(lp160
V2018/2019
p161
aVBrighton
p162
aVEPL
p163
aV16
p164
aV1370
p165
aV2
aV-
aV3
aV-
aV0.5
p166
aV80.5
p167
aV3.6
p168
aV1
aV6.80
p169
aa(lp170
V2017/2018
p171
aVBrighton
p172
aVEPL
p173
aV38
p174
aV3420
p175
aV1
aV1
aV7
aV-
aV0.7
p176
aV78.4
p177
aV3.2
p178
aV1
aV7.02
p179
aa(lp180
V2016/2017
p181
aVBrighton
p182
aVEC
p183
aV43
p184
aV3743
p185
aV2
aV1
aV12
p186
aV1
aV0.9
p187
aV79.9
p188
aV4.4
p189
aV6
aV7.59
p190
aa(lp191
V2015/2016
p192
aVBrighton
p193
aVEC
p194
aV38(1)
p195
aV3452
p196
aV4
aV1
aV5
aV2
aV0.7
p197
aV76.6
p198
aV3.4
p199
aV7
aV7.30
p200
aa(lp201
V2014/2015
p202
aVBrighton
p203
aVEC
p204
aV38
p205
aV3347
p206
aV5
aV2
aV8
aV1
aV1.1
p207
aV84.1
p208
aV3.7
p209
aV4
aV7.47
p210
aa(lp211
V2013/2014
p212
aVBrighton
p213
aVEC
p214
aV5(2)
p215
aV489
p216
aV-
aV1
aV2
aV-
aV0.4
p217
aV76
p218
aV2.7
p219
aV1
aV7.46
p220
aa(lp221
VTotal / Average
p222
aV
aV
aV181
p223
aV15821
p224
aV14
p225
aV6
aV37
p226
aV4
aV0.8
p227
aV79.7
p228
aV3.7
p229
aV20
p230
aV7.31
p231
aasS'sumary_data'
p232
(lp233
(lp234
a(lp235
V2018/2019
p236
aVBrighton
p237
aVEPL
p238
aV16
p239
aV1370
p240
aV2
aV-
aV3
aV-
aV0.5
p241
aV80.5
p242
aV3.6
p243
aV1
aV6.80
p244
aa(lp245
V2017/2018
p246
aVBrighton
p247
aVEPL
p248
aV38
p249
aV3420
p250
aV1
aV1
aV7
aV-
aV0.7
p251
aV78.4
p252
aV3.2
p253
aV1
aV7.02
p254
aa(lp255
V2016/2017
p256
aVBrighton
p257
aVEC
p258
aV43
p259
aV3743
p260
aV2
aV1
aV12
p261
aV1
aV0.9
p262
aV79.9
p263
aV4.4
p264
aV6
aV7.59
p265
aa(lp266
V2015/2016
p267
aVBrighton
p268
aVEC
p269
aV38(1)
p270
aV3452
p271
aV4
aV1
aV5
aV2
aV0.7
p272
aV76.6
p273
aV3.4
p274
aV7
aV7.30
p275
aa(lp276
V2014/2015
p277
aVBrighton
p278
aVEC
p279
aV38
p280
aV3347
p281
aV5
aV2
aV8
aV1
aV1.1
p282
aV84.1
p283
aV3.7
p284
aV4
aV7.47
p285
aa(lp286
V2013/2014
p287
aVBrighton
p288
aVEC
p289
aV5(2)
p290
aV489
p291
aV-
aV1
aV2
aV-
aV0.4
p292
aV76
p293
aV2.7
p294
aV1
aV7.46
p295
aa(lp296
VTotal / Average
p297
aV
aV
aV181
p298
aV15821
p299
aV14
p300
aV6
aV37
p301
aV4
aV0.8
p302
aV79.7
p303
aV3.7
p304
aV20
p305
aV7.31
p306
aasS'id'
p307
V86441
p308
sb.