(i__main__
Player
p1
(dp2
S'name'
p3
VJeff Hendrick 
p4
sS'offensive_data'
p5
(lp6
(lp7
a(lp8
V2018/2019
p9
aVBurnley
p10
aVEPL
p11
aV8(5)
p12
aV684
p13
aV1
aV-
aV2
aV-
aV0.6
p14
aV87.1
p15
aV0.5
p16
aV-
aV6.13
p17
aa(lp18
V2018/2019
p19
aVIreland
p20
aVUNL
p21
aV4
aV360
p22
aV-
aV-
aV-
aV-
aV0.5
p23
aV78.2
p24
aV0.3
p25
aV-
aV6.31
p26
aa(lp27
V2017/2018
p28
aVBurnley
p29
aVEPL
p30
aV29(5)
p31
aV2343
p32
aV2
aV2
aV1
aV-
aV0.7
p33
aV81
p34
aV0.4
p35
aV-
aV6.33
p36
aa(lp37
V2016/2017
p38
aVDerby
p39
aVEC
p40
aV2
aV102
p41
aV-
aV-
aV1
aV-
aV-
aV74.4
p42
aV-
aV-
aV6.54
p43
aa(lp44
V2016/2017
p45
aVBurnley
p46
aVEPL
p47
aV31(1)
p48
aV2696
p49
aV2
aV1
aV6
aV1
aV1
aV77.7
p50
aV1.1
p51
aV1
aV6.49
p52
aa(lp53
V2015/2016
p54
aVDerby
p55
aVEC
p56
aV22(11)
p57
aV2114
p58
aV2
aV3
aV5
aV-
aV1.7
p59
aV81.8
p60
aV0.9
p61
aV1
aV6.68
p62
aa(lp63
V2014/2015
p64
aVDerby
p65
aVEC
p66
aV34(7)
p67
aV3058
p68
aV7
aV9
aV5
aV-
aV1.3
p69
aV81.8
p70
aV0.6
p71
aV1
aV6.82
p72
aa(lp73
V2016
p74
aVIreland
p75
aVUEC
p76
aV4
aV360
p77
aV-
aV-
aV2
aV-
aV1.8
p78
aV77.3
p79
aV2.3
p80
aV-
aV6.54
p81
aa(lp82
V2013/2014
p83
aVDerby
p84
aVEC
p85
aV21(12)
p86
aV2124
p87
aV5
aV1
aV2
aV-
aV1.2
p88
aV83.6
p89
aV0.9
p90
aV1
aV6.78
p91
aa(lp92
VTotal / Average
p93
aV
aV
aV196
p94
aV13841
p95
aV19
p96
aV16
p97
aV24
p98
aV1
aV1.1
p99
aV81.4
p100
aV0.8
p101
aV4
aV6.59
p102
aasS'url'
p103
S'https://www.whoscored.com/Players/86454/History/'
p104
sS'passing_data'
p105
(lp106
(lp107
a(lp108
V2018/2019
p109
aVBurnley
p110
aVEPL
p111
aV8(5)
p112
aV684
p113
aV1
aV-
aV2
aV-
aV0.6
p114
aV87.1
p115
aV0.5
p116
aV-
aV6.13
p117
aa(lp118
V2018/2019
p119
aVIreland
p120
aVUNL
p121
aV4
aV360
p122
aV-
aV-
aV-
aV-
aV0.5
p123
aV78.2
p124
aV0.3
p125
aV-
aV6.31
p126
aa(lp127
V2017/2018
p128
aVBurnley
p129
aVEPL
p130
aV29(5)
p131
aV2343
p132
aV2
aV2
aV1
aV-
aV0.7
p133
aV81
p134
aV0.4
p135
aV-
aV6.33
p136
aa(lp137
V2016/2017
p138
aVDerby
p139
aVEC
p140
aV2
aV102
p141
aV-
aV-
aV1
aV-
aV-
aV74.4
p142
aV-
aV-
aV6.54
p143
aa(lp144
V2016/2017
p145
aVBurnley
p146
aVEPL
p147
aV31(1)
p148
aV2696
p149
aV2
aV1
aV6
aV1
aV1
aV77.7
p150
aV1.1
p151
aV1
aV6.49
p152
aa(lp153
V2015/2016
p154
aVDerby
p155
aVEC
p156
aV22(11)
p157
aV2114
p158
aV2
aV3
aV5
aV-
aV1.7
p159
aV81.8
p160
aV0.9
p161
aV1
aV6.68
p162
aa(lp163
V2014/2015
p164
aVDerby
p165
aVEC
p166
aV34(7)
p167
aV3058
p168
aV7
aV9
aV5
aV-
aV1.3
p169
aV81.8
p170
aV0.6
p171
aV1
aV6.82
p172
aa(lp173
V2016
p174
aVIreland
p175
aVUEC
p176
aV4
aV360
p177
aV-
aV-
aV2
aV-
aV1.8
p178
aV77.3
p179
aV2.3
p180
aV-
aV6.54
p181
aa(lp182
V2013/2014
p183
aVDerby
p184
aVEC
p185
aV21(12)
p186
aV2124
p187
aV5
aV1
aV2
aV-
aV1.2
p188
aV83.6
p189
aV0.9
p190
aV1
aV6.78
p191
aa(lp192
VTotal / Average
p193
aV
aV
aV196
p194
aV13841
p195
aV19
p196
aV16
p197
aV24
p198
aV1
aV1.1
p199
aV81.4
p200
aV0.8
p201
aV4
aV6.59
p202
aasS'defensive_data'
p203
(lp204
(lp205
a(lp206
V2018/2019
p207
aVBurnley
p208
aVEPL
p209
aV8(5)
p210
aV684
p211
aV1
aV-
aV2
aV-
aV0.6
p212
aV87.1
p213
aV0.5
p214
aV-
aV6.13
p215
aa(lp216
V2018/2019
p217
aVIreland
p218
aVUNL
p219
aV4
aV360
p220
aV-
aV-
aV-
aV-
aV0.5
p221
aV78.2
p222
aV0.3
p223
aV-
aV6.31
p224
aa(lp225
V2017/2018
p226
aVBurnley
p227
aVEPL
p228
aV29(5)
p229
aV2343
p230
aV2
aV2
aV1
aV-
aV0.7
p231
aV81
p232
aV0.4
p233
aV-
aV6.33
p234
aa(lp235
V2016/2017
p236
aVDerby
p237
aVEC
p238
aV2
aV102
p239
aV-
aV-
aV1
aV-
aV-
aV74.4
p240
aV-
aV-
aV6.54
p241
aa(lp242
V2016/2017
p243
aVBurnley
p244
aVEPL
p245
aV31(1)
p246
aV2696
p247
aV2
aV1
aV6
aV1
aV1
aV77.7
p248
aV1.1
p249
aV1
aV6.49
p250
aa(lp251
V2015/2016
p252
aVDerby
p253
aVEC
p254
aV22(11)
p255
aV2114
p256
aV2
aV3
aV5
aV-
aV1.7
p257
aV81.8
p258
aV0.9
p259
aV1
aV6.68
p260
aa(lp261
V2014/2015
p262
aVDerby
p263
aVEC
p264
aV34(7)
p265
aV3058
p266
aV7
aV9
aV5
aV-
aV1.3
p267
aV81.8
p268
aV0.6
p269
aV1
aV6.82
p270
aa(lp271
V2016
p272
aVIreland
p273
aVUEC
p274
aV4
aV360
p275
aV-
aV-
aV2
aV-
aV1.8
p276
aV77.3
p277
aV2.3
p278
aV-
aV6.54
p279
aa(lp280
V2013/2014
p281
aVDerby
p282
aVEC
p283
aV21(12)
p284
aV2124
p285
aV5
aV1
aV2
aV-
aV1.2
p286
aV83.6
p287
aV0.9
p288
aV1
aV6.78
p289
aa(lp290
VTotal / Average
p291
aV
aV
aV196
p292
aV13841
p293
aV19
p294
aV16
p295
aV24
p296
aV1
aV1.1
p297
aV81.4
p298
aV0.8
p299
aV4
aV6.59
p300
aasS'sumary_data'
p301
(lp302
(lp303
a(lp304
V2018/2019
p305
aVBurnley
p306
aVEPL
p307
aV8(5)
p308
aV684
p309
aV1
aV-
aV2
aV-
aV0.6
p310
aV87.1
p311
aV0.5
p312
aV-
aV6.13
p313
aa(lp314
V2018/2019
p315
aVIreland
p316
aVUNL
p317
aV4
aV360
p318
aV-
aV-
aV-
aV-
aV0.5
p319
aV78.2
p320
aV0.3
p321
aV-
aV6.31
p322
aa(lp323
V2017/2018
p324
aVBurnley
p325
aVEPL
p326
aV29(5)
p327
aV2343
p328
aV2
aV2
aV1
aV-
aV0.7
p329
aV81
p330
aV0.4
p331
aV-
aV6.33
p332
aa(lp333
V2016/2017
p334
aVDerby
p335
aVEC
p336
aV2
aV102
p337
aV-
aV-
aV1
aV-
aV-
aV74.4
p338
aV-
aV-
aV6.54
p339
aa(lp340
V2016/2017
p341
aVBurnley
p342
aVEPL
p343
aV31(1)
p344
aV2696
p345
aV2
aV1
aV6
aV1
aV1
aV77.7
p346
aV1.1
p347
aV1
aV6.49
p348
aa(lp349
V2015/2016
p350
aVDerby
p351
aVEC
p352
aV22(11)
p353
aV2114
p354
aV2
aV3
aV5
aV-
aV1.7
p355
aV81.8
p356
aV0.9
p357
aV1
aV6.68
p358
aa(lp359
V2014/2015
p360
aVDerby
p361
aVEC
p362
aV34(7)
p363
aV3058
p364
aV7
aV9
aV5
aV-
aV1.3
p365
aV81.8
p366
aV0.6
p367
aV1
aV6.82
p368
aa(lp369
V2016
p370
aVIreland
p371
aVUEC
p372
aV4
aV360
p373
aV-
aV-
aV2
aV-
aV1.8
p374
aV77.3
p375
aV2.3
p376
aV-
aV6.54
p377
aa(lp378
V2013/2014
p379
aVDerby
p380
aVEC
p381
aV21(12)
p382
aV2124
p383
aV5
aV1
aV2
aV-
aV1.2
p384
aV83.6
p385
aV0.9
p386
aV1
aV6.78
p387
aa(lp388
VTotal / Average
p389
aV
aV
aV196
p390
aV13841
p391
aV19
p392
aV16
p393
aV24
p394
aV1
aV1.1
p395
aV81.4
p396
aV0.8
p397
aV4
aV6.59
p398
aasS'id'
p399
V86454
p400
sb.