(i__main__
Player
p1
(dp2
S'name'
p3
VAnthony Knockaert 
p4
sS'offensive_data'
p5
(lp6
(lp7
a(lp8
V2018/2019
p9
aVBrighton
p10
aVEPL
p11
aV12(3)
p12
aV1064
p13
aV1
aV4
aV3
aV-
aV1.3
p14
aV75.1
p15
aV0.6
p16
aV-
aV6.84
p17
aa(lp18
V2017/2018
p19
aVBrighton
p20
aVEPL
p21
aV27(6)
p22
aV2427
p23
aV3
aV1
aV4
aV1
aV1.4
p24
aV83.3
p25
aV0.5
p26
aV4
aV6.79
p27
aa(lp28
V2016/2017
p29
aVBrighton
p30
aVEC
p31
aV44(1)
p32
aV3793
p33
aV15
p34
aV8
aV10
p35
aV-
aV2.4
p36
aV81.3
p37
aV0.3
p38
aV8
aV7.60
p39
aa(lp40
V2015/2016
p41
aVBrighton
p42
aVEC
p43
aV20(1)
p44
aV1763
p45
aV5
aV6
aV3
aV-
aV2
aV79.6
p46
aV0.5
p47
aV4
aV7.41
p48
aa(lp49
V2014/2015
p50
aVLeicester
p51
aVEPL
p52
aV3(6)
p53
aV330
p54
aV-
aV-
aV-
aV-
aV0.9
p55
aV81.3
p56
aV0.1
p57
aV-
aV6.34
p58
aa(lp59
V2013/2014
p60
aVLeicester
p61
aVEC
p62
aV36(6)
p63
aV3112
p64
aV5
aV5
aV6
aV-
aV2.7
p65
aV82.7
p66
aV0.4
p67
aV3
aV7.14
p68
aa(lp69
VTotal / Average
p70
aV
aV
aV165
p71
aV12489
p72
aV29
p73
aV24
p74
aV26
p75
aV1
aV2
aV81.3
p76
aV0.4
p77
aV19
p78
aV7.16
p79
aasS'url'
p80
S'https://www.whoscored.com/Players/86794/History/'
p81
sS'passing_data'
p82
(lp83
(lp84
a(lp85
V2018/2019
p86
aVBrighton
p87
aVEPL
p88
aV12(3)
p89
aV1064
p90
aV1
aV4
aV3
aV-
aV1.3
p91
aV75.1
p92
aV0.6
p93
aV-
aV6.84
p94
aa(lp95
V2017/2018
p96
aVBrighton
p97
aVEPL
p98
aV27(6)
p99
aV2427
p100
aV3
aV1
aV4
aV1
aV1.4
p101
aV83.3
p102
aV0.5
p103
aV4
aV6.79
p104
aa(lp105
V2016/2017
p106
aVBrighton
p107
aVEC
p108
aV44(1)
p109
aV3793
p110
aV15
p111
aV8
aV10
p112
aV-
aV2.4
p113
aV81.3
p114
aV0.3
p115
aV8
aV7.60
p116
aa(lp117
V2015/2016
p118
aVBrighton
p119
aVEC
p120
aV20(1)
p121
aV1763
p122
aV5
aV6
aV3
aV-
aV2
aV79.6
p123
aV0.5
p124
aV4
aV7.41
p125
aa(lp126
V2014/2015
p127
aVLeicester
p128
aVEPL
p129
aV3(6)
p130
aV330
p131
aV-
aV-
aV-
aV-
aV0.9
p132
aV81.3
p133
aV0.1
p134
aV-
aV6.34
p135
aa(lp136
V2013/2014
p137
aVLeicester
p138
aVEC
p139
aV36(6)
p140
aV3112
p141
aV5
aV5
aV6
aV-
aV2.7
p142
aV82.7
p143
aV0.4
p144
aV3
aV7.14
p145
aa(lp146
VTotal / Average
p147
aV
aV
aV165
p148
aV12489
p149
aV29
p150
aV24
p151
aV26
p152
aV1
aV2
aV81.3
p153
aV0.4
p154
aV19
p155
aV7.16
p156
aasS'defensive_data'
p157
(lp158
(lp159
a(lp160
V2018/2019
p161
aVBrighton
p162
aVEPL
p163
aV12(3)
p164
aV1064
p165
aV1
aV4
aV3
aV-
aV1.3
p166
aV75.1
p167
aV0.6
p168
aV-
aV6.84
p169
aa(lp170
V2017/2018
p171
aVBrighton
p172
aVEPL
p173
aV27(6)
p174
aV2427
p175
aV3
aV1
aV4
aV1
aV1.4
p176
aV83.3
p177
aV0.5
p178
aV4
aV6.79
p179
aa(lp180
V2016/2017
p181
aVBrighton
p182
aVEC
p183
aV44(1)
p184
aV3793
p185
aV15
p186
aV8
aV10
p187
aV-
aV2.4
p188
aV81.3
p189
aV0.3
p190
aV8
aV7.60
p191
aa(lp192
V2015/2016
p193
aVBrighton
p194
aVEC
p195
aV20(1)
p196
aV1763
p197
aV5
aV6
aV3
aV-
aV2
aV79.6
p198
aV0.5
p199
aV4
aV7.41
p200
aa(lp201
V2014/2015
p202
aVLeicester
p203
aVEPL
p204
aV3(6)
p205
aV330
p206
aV-
aV-
aV-
aV-
aV0.9
p207
aV81.3
p208
aV0.1
p209
aV-
aV6.34
p210
aa(lp211
V2013/2014
p212
aVLeicester
p213
aVEC
p214
aV36(6)
p215
aV3112
p216
aV5
aV5
aV6
aV-
aV2.7
p217
aV82.7
p218
aV0.4
p219
aV3
aV7.14
p220
aa(lp221
VTotal / Average
p222
aV
aV
aV165
p223
aV12489
p224
aV29
p225
aV24
p226
aV26
p227
aV1
aV2
aV81.3
p228
aV0.4
p229
aV19
p230
aV7.16
p231
aasS'sumary_data'
p232
(lp233
(lp234
a(lp235
V2018/2019
p236
aVBrighton
p237
aVEPL
p238
aV12(3)
p239
aV1064
p240
aV1
aV4
aV3
aV-
aV1.3
p241
aV75.1
p242
aV0.6
p243
aV-
aV6.84
p244
aa(lp245
V2017/2018
p246
aVBrighton
p247
aVEPL
p248
aV27(6)
p249
aV2427
p250
aV3
aV1
aV4
aV1
aV1.4
p251
aV83.3
p252
aV0.5
p253
aV4
aV6.79
p254
aa(lp255
V2016/2017
p256
aVBrighton
p257
aVEC
p258
aV44(1)
p259
aV3793
p260
aV15
p261
aV8
aV10
p262
aV-
aV2.4
p263
aV81.3
p264
aV0.3
p265
aV8
aV7.60
p266
aa(lp267
V2015/2016
p268
aVBrighton
p269
aVEC
p270
aV20(1)
p271
aV1763
p272
aV5
aV6
aV3
aV-
aV2
aV79.6
p273
aV0.5
p274
aV4
aV7.41
p275
aa(lp276
V2014/2015
p277
aVLeicester
p278
aVEPL
p279
aV3(6)
p280
aV330
p281
aV-
aV-
aV-
aV-
aV0.9
p282
aV81.3
p283
aV0.1
p284
aV-
aV6.34
p285
aa(lp286
V2013/2014
p287
aVLeicester
p288
aVEC
p289
aV36(6)
p290
aV3112
p291
aV5
aV5
aV6
aV-
aV2.7
p292
aV82.7
p293
aV0.4
p294
aV3
aV7.14
p295
aa(lp296
VTotal / Average
p297
aV
aV
aV165
p298
aV12489
p299
aV29
p300
aV24
p301
aV26
p302
aV1
aV2
aV81.3
p303
aV0.4
p304
aV19
p305
aV7.16
p306
aasS'id'
p307
V86794
p308
sb.