(i__main__
Player
p1
(dp2
S'name'
p3
VJannik Vestergaard 
p4
sS'offensive_data'
p5
(lp6
(lp7
a(lp8
V2018/2019
p9
aVSouthampton
p10
aVEPL
p11
aV9
aV810
p12
aV-
aV-
aV2
aV-
aV0.8
p13
aV79.7
p14
aV4
aV-
aV6.86
p15
aa(lp16
V2017/2018
p17
aVBorussia M.Gl..
p18
aVGB
p19
aV32
p20
aV2880
p21
aV3
aV-
aV5
aV-
aV0.8
p22
aV85.4
p23
aV3.2
p24
aV1
aV6.93
p25
aa(lp26
V2016/2017
p27
aVBorussia M.Gl..
p28
aVGB
p29
aV29(5)
p30
aV2657
p31
aV4
aV1
aV1
aV-
aV1
aV84.9
p32
aV3.9
p33
aV3
aV7.19
p34
aa(lp35
V2016/2017
p36
aVBorussia M.Gl..
p37
aVUCL
p38
aV3(1)
p39
aV301
p40
aV-
aV-
aV-
aV-
aV0.5
p41
aV85.4
p42
aV1
aV-
aV6.69
p43
aa(lp44
V2016/2017
p45
aVBorussia M.Gl..
p46
aVUEL
p47
aV4
aV360
p48
aV-
aV-
aV1
aV-
aV1
aV86.3
p49
aV3
aV-
aV6.74
p50
aa(lp51
V2015/2016
p52
aVWerder Bremen
p53
aVGB
p54
aV33
p55
aV2970
p56
aV2
aV-
aV2
aV-
aV1.1
p57
aV72.7
p58
aV4.7
p59
aV2
aV7.15
p60
aa(lp61
V2015
p62
aVDenmark U21
p63
aVIEU
p64
aV4
aV360
p65
aV1
aV-
aV1
aV-
aV1.5
p66
aV77.1
p67
aV4
aV1
aV7.52
p68
aa(lp69
V2014/2015
p70
aVWerder Bremen
p71
aVGB
p72
aV15
p73
aV1283
p74
aV1
aV-
aV3
aV-
aV0.6
p75
aV71
p76
aV6.7
p77
aV-
aV7.32
p78
aa(lp79
V2014/2015
p80
aVHoffenheim
p81
aVGB
p82
aV1(5)
p83
aV155
p84
aV1
aV-
aV-
aV-
aV0.7
p85
aV73.7
p86
aV1.8
p87
aV-
aV6.60
p88
aa(lp89
V2013/2014
p90
aVHoffenheim
p91
aVGB
p92
aV19(6)
p93
aV1861
p94
aV1
aV1
aV3
aV-
aV0.6
p95
aV72.4
p96
aV5
aV3
aV7.16
p97
aa(lp98
V2012/2013
p99
aVHoffenheim
p100
aVGB
p101
aV14(2)
p102
aV1340
p103
aV-
aV-
aV6
aV-
aV0.1
p104
aV71.8
p105
aV2.9
p106
aV-
aV6.79
p107
aa(lp108
V2011/2012
p109
aVHoffenheim
p110
aVGB
p111
aV19(4)
p112
aV1772
p113
aV2
aV-
aV3
aV-
aV0.5
p114
aV80.1
p115
aV2
aV2
aV6.97
p116
aa(lp117
V2010/2011
p118
aVHoffenheim
p119
aVGB
p120
aV0(1)
p121
aV1
aV-
aV-
aV-
aV-
aV-
aV-
aV-
aV-
aV6.00
p122
aa(lp123
VTotal / Average
p124
aV
aV
aV206
p125
aV16750
p126
aV15
p127
aV2
aV27
p128
aV0
aV0.7
p129
aV77.9
p130
aV3.8
p131
aV12
p132
aV7.04
p133
aasS'url'
p134
S'https://www.whoscored.com/Players/87182/History/'
p135
sS'passing_data'
p136
(lp137
(lp138
a(lp139
V2018/2019
p140
aVSouthampton
p141
aVEPL
p142
aV9
aV810
p143
aV-
aV-
aV2
aV-
aV0.8
p144
aV79.7
p145
aV4
aV-
aV6.86
p146
aa(lp147
V2017/2018
p148
aVBorussia M.Gl..
p149
aVGB
p150
aV32
p151
aV2880
p152
aV3
aV-
aV5
aV-
aV0.8
p153
aV85.4
p154
aV3.2
p155
aV1
aV6.93
p156
aa(lp157
V2016/2017
p158
aVBorussia M.Gl..
p159
aVGB
p160
aV29(5)
p161
aV2657
p162
aV4
aV1
aV1
aV-
aV1
aV84.9
p163
aV3.9
p164
aV3
aV7.19
p165
aa(lp166
V2016/2017
p167
aVBorussia M.Gl..
p168
aVUCL
p169
aV3(1)
p170
aV301
p171
aV-
aV-
aV-
aV-
aV0.5
p172
aV85.4
p173
aV1
aV-
aV6.69
p174
aa(lp175
V2016/2017
p176
aVBorussia M.Gl..
p177
aVUEL
p178
aV4
aV360
p179
aV-
aV-
aV1
aV-
aV1
aV86.3
p180
aV3
aV-
aV6.74
p181
aa(lp182
V2015/2016
p183
aVWerder Bremen
p184
aVGB
p185
aV33
p186
aV2970
p187
aV2
aV-
aV2
aV-
aV1.1
p188
aV72.7
p189
aV4.7
p190
aV2
aV7.15
p191
aa(lp192
V2015
p193
aVDenmark U21
p194
aVIEU
p195
aV4
aV360
p196
aV1
aV-
aV1
aV-
aV1.5
p197
aV77.1
p198
aV4
aV1
aV7.52
p199
aa(lp200
V2014/2015
p201
aVWerder Bremen
p202
aVGB
p203
aV15
p204
aV1283
p205
aV1
aV-
aV3
aV-
aV0.6
p206
aV71
p207
aV6.7
p208
aV-
aV7.32
p209
aa(lp210
V2014/2015
p211
aVHoffenheim
p212
aVGB
p213
aV1(5)
p214
aV155
p215
aV1
aV-
aV-
aV-
aV0.7
p216
aV73.7
p217
aV1.8
p218
aV-
aV6.60
p219
aa(lp220
V2013/2014
p221
aVHoffenheim
p222
aVGB
p223
aV19(6)
p224
aV1861
p225
aV1
aV1
aV3
aV-
aV0.6
p226
aV72.4
p227
aV5
aV3
aV7.16
p228
aa(lp229
V2012/2013
p230
aVHoffenheim
p231
aVGB
p232
aV14(2)
p233
aV1340
p234
aV-
aV-
aV6
aV-
aV0.1
p235
aV71.8
p236
aV2.9
p237
aV-
aV6.79
p238
aa(lp239
V2011/2012
p240
aVHoffenheim
p241
aVGB
p242
aV19(4)
p243
aV1772
p244
aV2
aV-
aV3
aV-
aV0.5
p245
aV80.1
p246
aV2
aV2
aV6.97
p247
aa(lp248
V2010/2011
p249
aVHoffenheim
p250
aVGB
p251
aV0(1)
p252
aV1
aV-
aV-
aV-
aV-
aV-
aV-
aV-
aV-
aV6.00
p253
aa(lp254
VTotal / Average
p255
aV
aV
aV206
p256
aV16750
p257
aV15
p258
aV2
aV27
p259
aV0
aV0.7
p260
aV77.9
p261
aV3.8
p262
aV12
p263
aV7.04
p264
aasS'defensive_data'
p265
(lp266
(lp267
a(lp268
V2018/2019
p269
aVSouthampton
p270
aVEPL
p271
aV9
aV810
p272
aV-
aV-
aV2
aV-
aV0.8
p273
aV79.7
p274
aV4
aV-
aV6.86
p275
aa(lp276
V2017/2018
p277
aVBorussia M.Gl..
p278
aVGB
p279
aV32
p280
aV2880
p281
aV3
aV-
aV5
aV-
aV0.8
p282
aV85.4
p283
aV3.2
p284
aV1
aV6.93
p285
aa(lp286
V2016/2017
p287
aVBorussia M.Gl..
p288
aVGB
p289
aV29(5)
p290
aV2657
p291
aV4
aV1
aV1
aV-
aV1
aV84.9
p292
aV3.9
p293
aV3
aV7.19
p294
aa(lp295
V2016/2017
p296
aVBorussia M.Gl..
p297
aVUCL
p298
aV3(1)
p299
aV301
p300
aV-
aV-
aV-
aV-
aV0.5
p301
aV85.4
p302
aV1
aV-
aV6.69
p303
aa(lp304
V2016/2017
p305
aVBorussia M.Gl..
p306
aVUEL
p307
aV4
aV360
p308
aV-
aV-
aV1
aV-
aV1
aV86.3
p309
aV3
aV-
aV6.74
p310
aa(lp311
V2015/2016
p312
aVWerder Bremen
p313
aVGB
p314
aV33
p315
aV2970
p316
aV2
aV-
aV2
aV-
aV1.1
p317
aV72.7
p318
aV4.7
p319
aV2
aV7.15
p320
aa(lp321
V2015
p322
aVDenmark U21
p323
aVIEU
p324
aV4
aV360
p325
aV1
aV-
aV1
aV-
aV1.5
p326
aV77.1
p327
aV4
aV1
aV7.52
p328
aa(lp329
V2014/2015
p330
aVWerder Bremen
p331
aVGB
p332
aV15
p333
aV1283
p334
aV1
aV-
aV3
aV-
aV0.6
p335
aV71
p336
aV6.7
p337
aV-
aV7.32
p338
aa(lp339
V2014/2015
p340
aVHoffenheim
p341
aVGB
p342
aV1(5)
p343
aV155
p344
aV1
aV-
aV-
aV-
aV0.7
p345
aV73.7
p346
aV1.8
p347
aV-
aV6.60
p348
aa(lp349
V2013/2014
p350
aVHoffenheim
p351
aVGB
p352
aV19(6)
p353
aV1861
p354
aV1
aV1
aV3
aV-
aV0.6
p355
aV72.4
p356
aV5
aV3
aV7.16
p357
aa(lp358
V2012/2013
p359
aVHoffenheim
p360
aVGB
p361
aV14(2)
p362
aV1340
p363
aV-
aV-
aV6
aV-
aV0.1
p364
aV71.8
p365
aV2.9
p366
aV-
aV6.79
p367
aa(lp368
V2011/2012
p369
aVHoffenheim
p370
aVGB
p371
aV19(4)
p372
aV1772
p373
aV2
aV-
aV3
aV-
aV0.5
p374
aV80.1
p375
aV2
aV2
aV6.97
p376
aa(lp377
V2010/2011
p378
aVHoffenheim
p379
aVGB
p380
aV0(1)
p381
aV1
aV-
aV-
aV-
aV-
aV-
aV-
aV-
aV-
aV6.00
p382
aa(lp383
VTotal / Average
p384
aV
aV
aV206
p385
aV16750
p386
aV15
p387
aV2
aV27
p388
aV0
aV0.7
p389
aV77.9
p390
aV3.8
p391
aV12
p392
aV7.04
p393
aasS'sumary_data'
p394
(lp395
(lp396
a(lp397
V2018/2019
p398
aVSouthampton
p399
aVEPL
p400
aV9
aV810
p401
aV-
aV-
aV2
aV-
aV0.8
p402
aV79.7
p403
aV4
aV-
aV6.86
p404
aa(lp405
V2017/2018
p406
aVBorussia M.Gl..
p407
aVGB
p408
aV32
p409
aV2880
p410
aV3
aV-
aV5
aV-
aV0.8
p411
aV85.4
p412
aV3.2
p413
aV1
aV6.93
p414
aa(lp415
V2016/2017
p416
aVBorussia M.Gl..
p417
aVGB
p418
aV29(5)
p419
aV2657
p420
aV4
aV1
aV1
aV-
aV1
aV84.9
p421
aV3.9
p422
aV3
aV7.19
p423
aa(lp424
V2016/2017
p425
aVBorussia M.Gl..
p426
aVUCL
p427
aV3(1)
p428
aV301
p429
aV-
aV-
aV-
aV-
aV0.5
p430
aV85.4
p431
aV1
aV-
aV6.69
p432
aa(lp433
V2016/2017
p434
aVBorussia M.Gl..
p435
aVUEL
p436
aV4
aV360
p437
aV-
aV-
aV1
aV-
aV1
aV86.3
p438
aV3
aV-
aV6.74
p439
aa(lp440
V2015/2016
p441
aVWerder Bremen
p442
aVGB
p443
aV33
p444
aV2970
p445
aV2
aV-
aV2
aV-
aV1.1
p446
aV72.7
p447
aV4.7
p448
aV2
aV7.15
p449
aa(lp450
V2015
p451
aVDenmark U21
p452
aVIEU
p453
aV4
aV360
p454
aV1
aV-
aV1
aV-
aV1.5
p455
aV77.1
p456
aV4
aV1
aV7.52
p457
aa(lp458
V2014/2015
p459
aVWerder Bremen
p460
aVGB
p461
aV15
p462
aV1283
p463
aV1
aV-
aV3
aV-
aV0.6
p464
aV71
p465
aV6.7
p466
aV-
aV7.32
p467
aa(lp468
V2014/2015
p469
aVHoffenheim
p470
aVGB
p471
aV1(5)
p472
aV155
p473
aV1
aV-
aV-
aV-
aV0.7
p474
aV73.7
p475
aV1.8
p476
aV-
aV6.60
p477
aa(lp478
V2013/2014
p479
aVHoffenheim
p480
aVGB
p481
aV19(6)
p482
aV1861
p483
aV1
aV1
aV3
aV-
aV0.6
p484
aV72.4
p485
aV5
aV3
aV7.16
p486
aa(lp487
V2012/2013
p488
aVHoffenheim
p489
aVGB
p490
aV14(2)
p491
aV1340
p492
aV-
aV-
aV6
aV-
aV0.1
p493
aV71.8
p494
aV2.9
p495
aV-
aV6.79
p496
aa(lp497
V2011/2012
p498
aVHoffenheim
p499
aVGB
p500
aV19(4)
p501
aV1772
p502
aV2
aV-
aV3
aV-
aV0.5
p503
aV80.1
p504
aV2
aV2
aV6.97
p505
aa(lp506
V2010/2011
p507
aVHoffenheim
p508
aVGB
p509
aV0(1)
p510
aV1
aV-
aV-
aV-
aV-
aV-
aV-
aV-
aV-
aV6.00
p511
aa(lp512
VTotal / Average
p513
aV
aV
aV206
p514
aV16750
p515
aV15
p516
aV2
aV27
p517
aV0
aV0.7
p518
aV77.9
p519
aV3.8
p520
aV12
p521
aV7.04
p522
aasS'id'
p523
V87182
p524
sb.