(i__main__
Player
p1
(dp2
S'name'
p3
VNathaniel Mendez-Laing 
p4
sS'offensive_data'
p5
(lp6
(lp7
a(lp8
V2018/2019
p9
aVCardiff
p10
aVEPL
p11
aV3(3)
p12
aV223
p13
aV-
aV-
aV-
aV-
aV1
aV65.5
p14
aV1
aV-
aV6.42
p15
aa(lp16
V2017/2018
p17
aVCardiff
p18
aVEC
p19
aV33(5)
p20
aV2861
p21
aV6
aV5
aV1
aV-
aV1.5
p22
aV64.4
p23
aV1.7
p24
aV2
aV7.13
p25
aa(lp26
VTotal / Average
p27
aV
aV
aV44
p28
aV3084
p29
aV6
aV5
aV1
aV0
aV1.4
p30
aV64.6
p31
aV1.6
p32
aV2
aV7.04
p33
aasS'url'
p34
S'https://www.whoscored.com/Players/87393/History/'
p35
sS'passing_data'
p36
(lp37
(lp38
a(lp39
V2018/2019
p40
aVCardiff
p41
aVEPL
p42
aV3(3)
p43
aV223
p44
aV-
aV-
aV-
aV-
aV1
aV65.5
p45
aV1
aV-
aV6.42
p46
aa(lp47
V2017/2018
p48
aVCardiff
p49
aVEC
p50
aV33(5)
p51
aV2861
p52
aV6
aV5
aV1
aV-
aV1.5
p53
aV64.4
p54
aV1.7
p55
aV2
aV7.13
p56
aa(lp57
VTotal / Average
p58
aV
aV
aV44
p59
aV3084
p60
aV6
aV5
aV1
aV0
aV1.4
p61
aV64.6
p62
aV1.6
p63
aV2
aV7.04
p64
aasS'defensive_data'
p65
(lp66
(lp67
a(lp68
V2018/2019
p69
aVCardiff
p70
aVEPL
p71
aV3(3)
p72
aV223
p73
aV-
aV-
aV-
aV-
aV1
aV65.5
p74
aV1
aV-
aV6.42
p75
aa(lp76
V2017/2018
p77
aVCardiff
p78
aVEC
p79
aV33(5)
p80
aV2861
p81
aV6
aV5
aV1
aV-
aV1.5
p82
aV64.4
p83
aV1.7
p84
aV2
aV7.13
p85
aa(lp86
VTotal / Average
p87
aV
aV
aV44
p88
aV3084
p89
aV6
aV5
aV1
aV0
aV1.4
p90
aV64.6
p91
aV1.6
p92
aV2
aV7.04
p93
aasS'sumary_data'
p94
(lp95
(lp96
a(lp97
V2018/2019
p98
aVCardiff
p99
aVEPL
p100
aV3(3)
p101
aV223
p102
aV-
aV-
aV-
aV-
aV1
aV65.5
p103
aV1
aV-
aV6.42
p104
aa(lp105
V2017/2018
p106
aVCardiff
p107
aVEC
p108
aV33(5)
p109
aV2861
p110
aV6
aV5
aV1
aV-
aV1.5
p111
aV64.4
p112
aV1.7
p113
aV2
aV7.13
p114
aa(lp115
VTotal / Average
p116
aV
aV
aV44
p117
aV3084
p118
aV6
aV5
aV1
aV0
aV1.4
p119
aV64.6
p120
aV1.6
p121
aV2
aV7.04
p122
aasS'id'
p123
V87393
p124
sb.