(i__main__
Player
p1
(dp2
S'name'
p3
VJoe Hart 
p4
sS'offensive_data'
p5
(lp6
(lp7
a(lp8
V2018/2019
p9
aVBurnley
p10
aVEPL
p11
aV17
p12
aV1530
p13
aV-
aV-
aV-
aV-
aV-
aV44
p14
aV0.2
p15
aV-
aV6.73
p16
aa(lp17
V2017/2018
p18
aVWest Ham
p19
aVEPL
p20
aV19
p21
aV1710
p22
aV-
aV1
aV-
aV-
aV-
aV44.3
p23
aV0.2
p24
aV1
aV6.27
p25
aa(lp26
V2016/2017
p27
aVTorino
p28
aVISA
p29
aV36
p30
aV3240
p31
aV-
aV-
aV2
aV-
aV-
aV68.9
p32
aV0.1
p33
aV1
aV6.51
p34
aa(lp35
V2015/2016
p36
aVManchester Ci..
p37
aVUCL
p38
aV12
p39
aV1071
p40
aV-
aV-
aV-
aV-
aV-
aV44.1
p41
aV0.1
p42
aV1
aV6.94
p43
aa(lp44
V2015/2016
p45
aVManchester Ci..
p46
aVEPL
p47
aV35
p48
aV3110
p49
aV-
aV-
aV-
aV-
aV-
aV52.6
p50
aV0.3
p51
aV-
aV6.70
p52
aa(lp53
V2014/2015
p54
aVManchester Ci..
p55
aVUCL
p56
aV8
aV720
p57
aV-
aV-
aV-
aV-
aV-
aV59.4
p58
aV0.1
p59
aV-
aV7.10
p60
aa(lp61
V2014/2015
p62
aVManchester Ci..
p63
aVEPL
p64
aV36
p65
aV3240
p66
aV-
aV-
aV1
aV-
aV-
aV47.6
p67
aV0.4
p68
aV-
aV6.75
p69
aa(lp70
V2016
p71
aVEngland
p72
aVUEC
p73
aV4
aV360
p74
aV-
aV-
aV-
aV-
aV-
aV76.7
p75
aV0.3
p76
aV-
aV5.94
p77
aa(lp78
V2013/2014
p79
aVManchester Ci..
p80
aVUCL
p81
aV7
aV630
p82
aV-
aV-
aV-
aV-
aV-
aV54.5
p83
aV0.1
p84
aV-
aV6.63
p85
aa(lp86
V2013/2014
p87
aVManchester Ci..
p88
aVEPL
p89
aV31
p90
aV2790
p91
aV-
aV-
aV1
aV-
aV-
aV47.3
p92
aV0.2
p93
aV-
aV6.69
p94
aa(lp95
V2014
p96
aVEngland
p97
aVWC
p98
aV2
aV180
p99
aV-
aV-
aV-
aV-
aV-
aV74.3
p100
aV-
aV-
aV6.01
p101
aa(lp102
V2012/2013
p103
aVManchester Ci..
p104
aVUCL
p105
aV6
aV540
p106
aV-
aV-
aV-
aV-
aV-
aV68.1
p107
aV0.2
p108
aV1
aV7.41
p109
aa(lp110
V2012/2013
p111
aVManchester Ci..
p112
aVEPL
p113
aV38
p114
aV3420
p115
aV-
aV-
aV1
aV-
aV-
aV58.8
p116
aV0.1
p117
aV2
aV6.61
p118
aa(lp119
V2012
p120
aVEngland
p121
aVUEC
p122
aV4
aV391
p123
aV-
aV-
aV-
aV-
aV-
aV51.8
p124
aV-
aV-
aV7.70
p125
aa(lp126
V2011/2012
p127
aVManchester Ci..
p128
aVUCL
p129
aV6
aV540
p130
aV-
aV-
aV-
aV-
aV-
aV64.4
p131
aV-
aV-
aV7.06
p132
aa(lp133
V2011/2012
p134
aVManchester Ci..
p135
aVEPL
p136
aV38
p137
aV3420
p138
aV-
aV-
aV-
aV-
aV-
aV50.9
p139
aV-
aV1
aV6.82
p140
aa(lp141
V2010/2011
p142
aVManchester Ci..
p143
aVEPL
p144
aV38
p145
aV3420
p146
aV-
aV-
aV1
aV-
aV-
aV44
p147
aV0.1
p148
aV2
aV6.92
p149
aa(lp150
V2009/2010
p151
aVBirmingham
p152
aVEPL
p153
aV36
p154
aV3240
p155
aV-
aV-
aV3
aV-
aV-
aV35.2
p156
aV-
aV1
aV6.89
p157
aa(lp158
VTotal / Average
p159
aV
aV
aV373
p160
aV33552
p161
aV0
aV1
aV9
aV0
aV0
aV51
p162
aV0.2
p163
aV10
p164
aV6.74
p165
aasS'url'
p166
S'https://www.whoscored.com/Players/8786/History/'
p167
sS'passing_data'
p168
(lp169
(lp170
a(lp171
V2018/2019
p172
aVBurnley
p173
aVEPL
p174
aV17
p175
aV1530
p176
aV-
aV-
aV-
aV-
aV-
aV44
p177
aV0.2
p178
aV-
aV6.73
p179
aa(lp180
V2017/2018
p181
aVWest Ham
p182
aVEPL
p183
aV19
p184
aV1710
p185
aV-
aV1
aV-
aV-
aV-
aV44.3
p186
aV0.2
p187
aV1
aV6.27
p188
aa(lp189
V2016/2017
p190
aVTorino
p191
aVISA
p192
aV36
p193
aV3240
p194
aV-
aV-
aV2
aV-
aV-
aV68.9
p195
aV0.1
p196
aV1
aV6.51
p197
aa(lp198
V2015/2016
p199
aVManchester Ci..
p200
aVUCL
p201
aV12
p202
aV1071
p203
aV-
aV-
aV-
aV-
aV-
aV44.1
p204
aV0.1
p205
aV1
aV6.94
p206
aa(lp207
V2015/2016
p208
aVManchester Ci..
p209
aVEPL
p210
aV35
p211
aV3110
p212
aV-
aV-
aV-
aV-
aV-
aV52.6
p213
aV0.3
p214
aV-
aV6.70
p215
aa(lp216
V2014/2015
p217
aVManchester Ci..
p218
aVUCL
p219
aV8
aV720
p220
aV-
aV-
aV-
aV-
aV-
aV59.4
p221
aV0.1
p222
aV-
aV7.10
p223
aa(lp224
V2014/2015
p225
aVManchester Ci..
p226
aVEPL
p227
aV36
p228
aV3240
p229
aV-
aV-
aV1
aV-
aV-
aV47.6
p230
aV0.4
p231
aV-
aV6.75
p232
aa(lp233
V2016
p234
aVEngland
p235
aVUEC
p236
aV4
aV360
p237
aV-
aV-
aV-
aV-
aV-
aV76.7
p238
aV0.3
p239
aV-
aV5.94
p240
aa(lp241
V2013/2014
p242
aVManchester Ci..
p243
aVUCL
p244
aV7
aV630
p245
aV-
aV-
aV-
aV-
aV-
aV54.5
p246
aV0.1
p247
aV-
aV6.63
p248
aa(lp249
V2013/2014
p250
aVManchester Ci..
p251
aVEPL
p252
aV31
p253
aV2790
p254
aV-
aV-
aV1
aV-
aV-
aV47.3
p255
aV0.2
p256
aV-
aV6.69
p257
aa(lp258
V2014
p259
aVEngland
p260
aVWC
p261
aV2
aV180
p262
aV-
aV-
aV-
aV-
aV-
aV74.3
p263
aV-
aV-
aV6.01
p264
aa(lp265
V2012/2013
p266
aVManchester Ci..
p267
aVUCL
p268
aV6
aV540
p269
aV-
aV-
aV-
aV-
aV-
aV68.1
p270
aV0.2
p271
aV1
aV7.41
p272
aa(lp273
V2012/2013
p274
aVManchester Ci..
p275
aVEPL
p276
aV38
p277
aV3420
p278
aV-
aV-
aV1
aV-
aV-
aV58.8
p279
aV0.1
p280
aV2
aV6.61
p281
aa(lp282
V2012
p283
aVEngland
p284
aVUEC
p285
aV4
aV391
p286
aV-
aV-
aV-
aV-
aV-
aV51.8
p287
aV-
aV-
aV7.70
p288
aa(lp289
V2011/2012
p290
aVManchester Ci..
p291
aVUCL
p292
aV6
aV540
p293
aV-
aV-
aV-
aV-
aV-
aV64.4
p294
aV-
aV-
aV7.06
p295
aa(lp296
V2011/2012
p297
aVManchester Ci..
p298
aVEPL
p299
aV38
p300
aV3420
p301
aV-
aV-
aV-
aV-
aV-
aV50.9
p302
aV-
aV1
aV6.82
p303
aa(lp304
V2010/2011
p305
aVManchester Ci..
p306
aVEPL
p307
aV38
p308
aV3420
p309
aV-
aV-
aV1
aV-
aV-
aV44
p310
aV0.1
p311
aV2
aV6.92
p312
aa(lp313
V2009/2010
p314
aVBirmingham
p315
aVEPL
p316
aV36
p317
aV3240
p318
aV-
aV-
aV3
aV-
aV-
aV35.2
p319
aV-
aV1
aV6.89
p320
aa(lp321
VTotal / Average
p322
aV
aV
aV373
p323
aV33552
p324
aV0
aV1
aV9
aV0
aV0
aV51
p325
aV0.2
p326
aV10
p327
aV6.74
p328
aasS'defensive_data'
p329
(lp330
(lp331
a(lp332
V2018/2019
p333
aVBurnley
p334
aVEPL
p335
aV17
p336
aV1530
p337
aV-
aV-
aV-
aV-
aV-
aV44
p338
aV0.2
p339
aV-
aV6.73
p340
aa(lp341
V2017/2018
p342
aVWest Ham
p343
aVEPL
p344
aV19
p345
aV1710
p346
aV-
aV1
aV-
aV-
aV-
aV44.3
p347
aV0.2
p348
aV1
aV6.27
p349
aa(lp350
V2016/2017
p351
aVTorino
p352
aVISA
p353
aV36
p354
aV3240
p355
aV-
aV-
aV2
aV-
aV-
aV68.9
p356
aV0.1
p357
aV1
aV6.51
p358
aa(lp359
V2015/2016
p360
aVManchester Ci..
p361
aVUCL
p362
aV12
p363
aV1071
p364
aV-
aV-
aV-
aV-
aV-
aV44.1
p365
aV0.1
p366
aV1
aV6.94
p367
aa(lp368
V2015/2016
p369
aVManchester Ci..
p370
aVEPL
p371
aV35
p372
aV3110
p373
aV-
aV-
aV-
aV-
aV-
aV52.6
p374
aV0.3
p375
aV-
aV6.70
p376
aa(lp377
V2014/2015
p378
aVManchester Ci..
p379
aVUCL
p380
aV8
aV720
p381
aV-
aV-
aV-
aV-
aV-
aV59.4
p382
aV0.1
p383
aV-
aV7.10
p384
aa(lp385
V2014/2015
p386
aVManchester Ci..
p387
aVEPL
p388
aV36
p389
aV3240
p390
aV-
aV-
aV1
aV-
aV-
aV47.6
p391
aV0.4
p392
aV-
aV6.75
p393
aa(lp394
V2016
p395
aVEngland
p396
aVUEC
p397
aV4
aV360
p398
aV-
aV-
aV-
aV-
aV-
aV76.7
p399
aV0.3
p400
aV-
aV5.94
p401
aa(lp402
V2013/2014
p403
aVManchester Ci..
p404
aVUCL
p405
aV7
aV630
p406
aV-
aV-
aV-
aV-
aV-
aV54.5
p407
aV0.1
p408
aV-
aV6.63
p409
aa(lp410
V2013/2014
p411
aVManchester Ci..
p412
aVEPL
p413
aV31
p414
aV2790
p415
aV-
aV-
aV1
aV-
aV-
aV47.3
p416
aV0.2
p417
aV-
aV6.69
p418
aa(lp419
V2014
p420
aVEngland
p421
aVWC
p422
aV2
aV180
p423
aV-
aV-
aV-
aV-
aV-
aV74.3
p424
aV-
aV-
aV6.01
p425
aa(lp426
V2012/2013
p427
aVManchester Ci..
p428
aVUCL
p429
aV6
aV540
p430
aV-
aV-
aV-
aV-
aV-
aV68.1
p431
aV0.2
p432
aV1
aV7.41
p433
aa(lp434
V2012/2013
p435
aVManchester Ci..
p436
aVEPL
p437
aV38
p438
aV3420
p439
aV-
aV-
aV1
aV-
aV-
aV58.8
p440
aV0.1
p441
aV2
aV6.61
p442
aa(lp443
V2012
p444
aVEngland
p445
aVUEC
p446
aV4
aV391
p447
aV-
aV-
aV-
aV-
aV-
aV51.8
p448
aV-
aV-
aV7.70
p449
aa(lp450
V2011/2012
p451
aVManchester Ci..
p452
aVUCL
p453
aV6
aV540
p454
aV-
aV-
aV-
aV-
aV-
aV64.4
p455
aV-
aV-
aV7.06
p456
aa(lp457
V2011/2012
p458
aVManchester Ci..
p459
aVEPL
p460
aV38
p461
aV3420
p462
aV-
aV-
aV-
aV-
aV-
aV50.9
p463
aV-
aV1
aV6.82
p464
aa(lp465
V2010/2011
p466
aVManchester Ci..
p467
aVEPL
p468
aV38
p469
aV3420
p470
aV-
aV-
aV1
aV-
aV-
aV44
p471
aV0.1
p472
aV2
aV6.92
p473
aa(lp474
V2009/2010
p475
aVBirmingham
p476
aVEPL
p477
aV36
p478
aV3240
p479
aV-
aV-
aV3
aV-
aV-
aV35.2
p480
aV-
aV1
aV6.89
p481
aa(lp482
VTotal / Average
p483
aV
aV
aV373
p484
aV33552
p485
aV0
aV1
aV9
aV0
aV0
aV51
p486
aV0.2
p487
aV10
p488
aV6.74
p489
aasS'sumary_data'
p490
(lp491
(lp492
a(lp493
V2018/2019
p494
aVBurnley
p495
aVEPL
p496
aV17
p497
aV1530
p498
aV-
aV-
aV-
aV-
aV-
aV44
p499
aV0.2
p500
aV-
aV6.73
p501
aa(lp502
V2017/2018
p503
aVWest Ham
p504
aVEPL
p505
aV19
p506
aV1710
p507
aV-
aV1
aV-
aV-
aV-
aV44.3
p508
aV0.2
p509
aV1
aV6.27
p510
aa(lp511
V2016/2017
p512
aVTorino
p513
aVISA
p514
aV36
p515
aV3240
p516
aV-
aV-
aV2
aV-
aV-
aV68.9
p517
aV0.1
p518
aV1
aV6.51
p519
aa(lp520
V2015/2016
p521
aVManchester Ci..
p522
aVUCL
p523
aV12
p524
aV1071
p525
aV-
aV-
aV-
aV-
aV-
aV44.1
p526
aV0.1
p527
aV1
aV6.94
p528
aa(lp529
V2015/2016
p530
aVManchester Ci..
p531
aVEPL
p532
aV35
p533
aV3110
p534
aV-
aV-
aV-
aV-
aV-
aV52.6
p535
aV0.3
p536
aV-
aV6.70
p537
aa(lp538
V2014/2015
p539
aVManchester Ci..
p540
aVUCL
p541
aV8
aV720
p542
aV-
aV-
aV-
aV-
aV-
aV59.4
p543
aV0.1
p544
aV-
aV7.10
p545
aa(lp546
V2014/2015
p547
aVManchester Ci..
p548
aVEPL
p549
aV36
p550
aV3240
p551
aV-
aV-
aV1
aV-
aV-
aV47.6
p552
aV0.4
p553
aV-
aV6.75
p554
aa(lp555
V2016
p556
aVEngland
p557
aVUEC
p558
aV4
aV360
p559
aV-
aV-
aV-
aV-
aV-
aV76.7
p560
aV0.3
p561
aV-
aV5.94
p562
aa(lp563
V2013/2014
p564
aVManchester Ci..
p565
aVUCL
p566
aV7
aV630
p567
aV-
aV-
aV-
aV-
aV-
aV54.5
p568
aV0.1
p569
aV-
aV6.63
p570
aa(lp571
V2013/2014
p572
aVManchester Ci..
p573
aVEPL
p574
aV31
p575
aV2790
p576
aV-
aV-
aV1
aV-
aV-
aV47.3
p577
aV0.2
p578
aV-
aV6.69
p579
aa(lp580
V2014
p581
aVEngland
p582
aVWC
p583
aV2
aV180
p584
aV-
aV-
aV-
aV-
aV-
aV74.3
p585
aV-
aV-
aV6.01
p586
aa(lp587
V2012/2013
p588
aVManchester Ci..
p589
aVUCL
p590
aV6
aV540
p591
aV-
aV-
aV-
aV-
aV-
aV68.1
p592
aV0.2
p593
aV1
aV7.41
p594
aa(lp595
V2012/2013
p596
aVManchester Ci..
p597
aVEPL
p598
aV38
p599
aV3420
p600
aV-
aV-
aV1
aV-
aV-
aV58.8
p601
aV0.1
p602
aV2
aV6.61
p603
aa(lp604
V2012
p605
aVEngland
p606
aVUEC
p607
aV4
aV391
p608
aV-
aV-
aV-
aV-
aV-
aV51.8
p609
aV-
aV-
aV7.70
p610
aa(lp611
V2011/2012
p612
aVManchester Ci..
p613
aVUCL
p614
aV6
aV540
p615
aV-
aV-
aV-
aV-
aV-
aV64.4
p616
aV-
aV-
aV7.06
p617
aa(lp618
V2011/2012
p619
aVManchester Ci..
p620
aVEPL
p621
aV38
p622
aV3420
p623
aV-
aV-
aV-
aV-
aV-
aV50.9
p624
aV-
aV1
aV6.82
p625
aa(lp626
V2010/2011
p627
aVManchester Ci..
p628
aVEPL
p629
aV38
p630
aV3420
p631
aV-
aV-
aV1
aV-
aV-
aV44
p632
aV0.1
p633
aV2
aV6.92
p634
aa(lp635
V2009/2010
p636
aVBirmingham
p637
aVEPL
p638
aV36
p639
aV3240
p640
aV-
aV-
aV3
aV-
aV-
aV35.2
p641
aV-
aV1
aV6.89
p642
aa(lp643
VTotal / Average
p644
aV
aV
aV373
p645
aV33552
p646
aV0
aV1
aV9
aV0
aV0
aV51
p647
aV0.2
p648
aV10
p649
aV6.74
p650
aasS'id'
p651
V8786
p652
sb.