(i__main__
Player
p1
(dp2
S'name'
p3
VDanilo 
p4
sS'offensive_data'
p5
(lp6
(lp7
a(lp8
V2018/2019
p9
aVManchester Ci..
p10
aVEPL
p11
aV1
aV90
p12
aV-
aV-
aV-
aV-
aV3
aV88.5
p13
aV1
aV-
aV7.31
p14
aa(lp15
V2018/2019
p16
aVManchester Ci..
p17
aVUCL
p18
aV0(1)
p19
aV29
p20
aV-
aV-
aV-
aV-
aV-
aV96.4
p21
aV1
aV-
aV6.52
p22
aa(lp23
V2017/2018
p24
aVManchester Ci..
p25
aVUCL
p26
aV4(2)
p27
aV368
p28
aV-
aV-
aV2
aV-
aV0.5
p29
aV91.1
p30
aV-
aV-
aV6.76
p31
aa(lp32
V2017/2018
p33
aVManchester Ci..
p34
aVEPL
p35
aV13(10)
p36
aV1342
p37
aV3
aV2
aV2
aV-
aV0.8
p38
aV89.9
p39
aV0.7
p40
aV2
aV6.91
p41
aa(lp42
V2016/2017
p43
aVReal Madrid
p44
aVSLL
p45
aV17
p46
aV1488
p47
aV1
aV2
aV2
aV-
aV0.6
p48
aV86.4
p49
aV1.7
p50
aV-
aV7.41
p51
aa(lp52
V2016/2017
p53
aVReal Madrid
p54
aVUCL
p55
aV3
aV270
p56
aV-
aV1
aV1
aV-
aV-
aV86
p57
aV0.3
p58
aV-
aV6.71
p59
aa(lp60
V2018
p61
aVBrazil
p62
aVWC
p63
aV1
aV90
p64
aV-
aV-
aV-
aV-
aV-
aV92.5
p65
aV-
aV-
aV6.58
p66
aa(lp67
V2015/2016
p68
aVReal Madrid
p69
aVSLL
p70
aV23(1)
p71
aV2044
p72
aV2
aV5
aV6
aV-
aV0.8
p73
aV86
p74
aV1.3
p75
aV-
aV7.27
p76
aa(lp77
V2015/2016
p78
aVReal Madrid
p79
aVUCL
p80
aV5(2)
p81
aV575
p82
aV-
aV1
aV3
aV-
aV0.7
p83
aV88.3
p84
aV0.7
p85
aV-
aV7.20
p86
aa(lp87
V2014/2015
p88
aVFC Porto
p89
aVUCL
p90
aV8
aV652
p91
aV1
aV1
aV3
aV-
aV1.6
p92
aV77.2
p93
aV0.9
p94
aV-
aV7.43
p95
aa(lp96
V2013/2014
p97
aVFC Porto
p98
aVUCL
p99
aV6
aV540
p100
aV-
aV2
aV-
aV-
aV1.5
p101
aV79.9
p102
aV1.2
p103
aV-
aV7.53
p104
aa(lp105
V2013/2014
p106
aVFC Porto
p107
aVUEL
p108
aV6
aV514
p109
aV-
aV-
aV1
aV-
aV0.3
p110
aV82.3
p111
aV1.3
p112
aV-
aV7.04
p113
aa(lp114
V2012/2013
p115
aVFC Porto
p116
aVUCL
p117
aV7
aV630
p118
aV-
aV1
aV1
aV-
aV1.1
p119
aV81.1
p120
aV0.9
p121
aV-
aV7.13
p122
aa(lp123
VTotal / Average
p124
aV
aV
aV110
p125
aV8632
p126
aV7
aV15
p127
aV21
p128
aV0
aV0.8
p129
aV86
p130
aV1
aV2
aV7.16
p131
aasS'url'
p132
S'https://www.whoscored.com/Players/88300/History/'
p133
sS'passing_data'
p134
(lp135
(lp136
a(lp137
V2018/2019
p138
aVManchester Ci..
p139
aVEPL
p140
aV1
aV90
p141
aV-
aV-
aV-
aV-
aV3
aV88.5
p142
aV1
aV-
aV7.31
p143
aa(lp144
V2018/2019
p145
aVManchester Ci..
p146
aVUCL
p147
aV0(1)
p148
aV29
p149
aV-
aV-
aV-
aV-
aV-
aV96.4
p150
aV1
aV-
aV6.52
p151
aa(lp152
V2017/2018
p153
aVManchester Ci..
p154
aVUCL
p155
aV4(2)
p156
aV368
p157
aV-
aV-
aV2
aV-
aV0.5
p158
aV91.1
p159
aV-
aV-
aV6.76
p160
aa(lp161
V2017/2018
p162
aVManchester Ci..
p163
aVEPL
p164
aV13(10)
p165
aV1342
p166
aV3
aV2
aV2
aV-
aV0.8
p167
aV89.9
p168
aV0.7
p169
aV2
aV6.91
p170
aa(lp171
V2016/2017
p172
aVReal Madrid
p173
aVSLL
p174
aV17
p175
aV1488
p176
aV1
aV2
aV2
aV-
aV0.6
p177
aV86.4
p178
aV1.7
p179
aV-
aV7.41
p180
aa(lp181
V2016/2017
p182
aVReal Madrid
p183
aVUCL
p184
aV3
aV270
p185
aV-
aV1
aV1
aV-
aV-
aV86
p186
aV0.3
p187
aV-
aV6.71
p188
aa(lp189
V2018
p190
aVBrazil
p191
aVWC
p192
aV1
aV90
p193
aV-
aV-
aV-
aV-
aV-
aV92.5
p194
aV-
aV-
aV6.58
p195
aa(lp196
V2015/2016
p197
aVReal Madrid
p198
aVSLL
p199
aV23(1)
p200
aV2044
p201
aV2
aV5
aV6
aV-
aV0.8
p202
aV86
p203
aV1.3
p204
aV-
aV7.27
p205
aa(lp206
V2015/2016
p207
aVReal Madrid
p208
aVUCL
p209
aV5(2)
p210
aV575
p211
aV-
aV1
aV3
aV-
aV0.7
p212
aV88.3
p213
aV0.7
p214
aV-
aV7.20
p215
aa(lp216
V2014/2015
p217
aVFC Porto
p218
aVUCL
p219
aV8
aV652
p220
aV1
aV1
aV3
aV-
aV1.6
p221
aV77.2
p222
aV0.9
p223
aV-
aV7.43
p224
aa(lp225
V2013/2014
p226
aVFC Porto
p227
aVUCL
p228
aV6
aV540
p229
aV-
aV2
aV-
aV-
aV1.5
p230
aV79.9
p231
aV1.2
p232
aV-
aV7.53
p233
aa(lp234
V2013/2014
p235
aVFC Porto
p236
aVUEL
p237
aV6
aV514
p238
aV-
aV-
aV1
aV-
aV0.3
p239
aV82.3
p240
aV1.3
p241
aV-
aV7.04
p242
aa(lp243
V2012/2013
p244
aVFC Porto
p245
aVUCL
p246
aV7
aV630
p247
aV-
aV1
aV1
aV-
aV1.1
p248
aV81.1
p249
aV0.9
p250
aV-
aV7.13
p251
aa(lp252
VTotal / Average
p253
aV
aV
aV110
p254
aV8632
p255
aV7
aV15
p256
aV21
p257
aV0
aV0.8
p258
aV86
p259
aV1
aV2
aV7.16
p260
aasS'defensive_data'
p261
(lp262
(lp263
a(lp264
V2018/2019
p265
aVManchester Ci..
p266
aVEPL
p267
aV1
aV90
p268
aV-
aV-
aV-
aV-
aV3
aV88.5
p269
aV1
aV-
aV7.31
p270
aa(lp271
V2018/2019
p272
aVManchester Ci..
p273
aVUCL
p274
aV0(1)
p275
aV29
p276
aV-
aV-
aV-
aV-
aV-
aV96.4
p277
aV1
aV-
aV6.52
p278
aa(lp279
V2017/2018
p280
aVManchester Ci..
p281
aVUCL
p282
aV4(2)
p283
aV368
p284
aV-
aV-
aV2
aV-
aV0.5
p285
aV91.1
p286
aV-
aV-
aV6.76
p287
aa(lp288
V2017/2018
p289
aVManchester Ci..
p290
aVEPL
p291
aV13(10)
p292
aV1342
p293
aV3
aV2
aV2
aV-
aV0.8
p294
aV89.9
p295
aV0.7
p296
aV2
aV6.91
p297
aa(lp298
V2016/2017
p299
aVReal Madrid
p300
aVSLL
p301
aV17
p302
aV1488
p303
aV1
aV2
aV2
aV-
aV0.6
p304
aV86.4
p305
aV1.7
p306
aV-
aV7.41
p307
aa(lp308
V2016/2017
p309
aVReal Madrid
p310
aVUCL
p311
aV3
aV270
p312
aV-
aV1
aV1
aV-
aV-
aV86
p313
aV0.3
p314
aV-
aV6.71
p315
aa(lp316
V2018
p317
aVBrazil
p318
aVWC
p319
aV1
aV90
p320
aV-
aV-
aV-
aV-
aV-
aV92.5
p321
aV-
aV-
aV6.58
p322
aa(lp323
V2015/2016
p324
aVReal Madrid
p325
aVSLL
p326
aV23(1)
p327
aV2044
p328
aV2
aV5
aV6
aV-
aV0.8
p329
aV86
p330
aV1.3
p331
aV-
aV7.27
p332
aa(lp333
V2015/2016
p334
aVReal Madrid
p335
aVUCL
p336
aV5(2)
p337
aV575
p338
aV-
aV1
aV3
aV-
aV0.7
p339
aV88.3
p340
aV0.7
p341
aV-
aV7.20
p342
aa(lp343
V2014/2015
p344
aVFC Porto
p345
aVUCL
p346
aV8
aV652
p347
aV1
aV1
aV3
aV-
aV1.6
p348
aV77.2
p349
aV0.9
p350
aV-
aV7.43
p351
aa(lp352
V2013/2014
p353
aVFC Porto
p354
aVUCL
p355
aV6
aV540
p356
aV-
aV2
aV-
aV-
aV1.5
p357
aV79.9
p358
aV1.2
p359
aV-
aV7.53
p360
aa(lp361
V2013/2014
p362
aVFC Porto
p363
aVUEL
p364
aV6
aV514
p365
aV-
aV-
aV1
aV-
aV0.3
p366
aV82.3
p367
aV1.3
p368
aV-
aV7.04
p369
aa(lp370
V2012/2013
p371
aVFC Porto
p372
aVUCL
p373
aV7
aV630
p374
aV-
aV1
aV1
aV-
aV1.1
p375
aV81.1
p376
aV0.9
p377
aV-
aV7.13
p378
aa(lp379
VTotal / Average
p380
aV
aV
aV110
p381
aV8632
p382
aV7
aV15
p383
aV21
p384
aV0
aV0.8
p385
aV86
p386
aV1
aV2
aV7.16
p387
aasS'sumary_data'
p388
(lp389
(lp390
a(lp391
V2018/2019
p392
aVManchester Ci..
p393
aVEPL
p394
aV1
aV90
p395
aV-
aV-
aV-
aV-
aV3
aV88.5
p396
aV1
aV-
aV7.31
p397
aa(lp398
V2018/2019
p399
aVManchester Ci..
p400
aVUCL
p401
aV0(1)
p402
aV29
p403
aV-
aV-
aV-
aV-
aV-
aV96.4
p404
aV1
aV-
aV6.52
p405
aa(lp406
V2017/2018
p407
aVManchester Ci..
p408
aVUCL
p409
aV4(2)
p410
aV368
p411
aV-
aV-
aV2
aV-
aV0.5
p412
aV91.1
p413
aV-
aV-
aV6.76
p414
aa(lp415
V2017/2018
p416
aVManchester Ci..
p417
aVEPL
p418
aV13(10)
p419
aV1342
p420
aV3
aV2
aV2
aV-
aV0.8
p421
aV89.9
p422
aV0.7
p423
aV2
aV6.91
p424
aa(lp425
V2016/2017
p426
aVReal Madrid
p427
aVSLL
p428
aV17
p429
aV1488
p430
aV1
aV2
aV2
aV-
aV0.6
p431
aV86.4
p432
aV1.7
p433
aV-
aV7.41
p434
aa(lp435
V2016/2017
p436
aVReal Madrid
p437
aVUCL
p438
aV3
aV270
p439
aV-
aV1
aV1
aV-
aV-
aV86
p440
aV0.3
p441
aV-
aV6.71
p442
aa(lp443
V2018
p444
aVBrazil
p445
aVWC
p446
aV1
aV90
p447
aV-
aV-
aV-
aV-
aV-
aV92.5
p448
aV-
aV-
aV6.58
p449
aa(lp450
V2015/2016
p451
aVReal Madrid
p452
aVSLL
p453
aV23(1)
p454
aV2044
p455
aV2
aV5
aV6
aV-
aV0.8
p456
aV86
p457
aV1.3
p458
aV-
aV7.27
p459
aa(lp460
V2015/2016
p461
aVReal Madrid
p462
aVUCL
p463
aV5(2)
p464
aV575
p465
aV-
aV1
aV3
aV-
aV0.7
p466
aV88.3
p467
aV0.7
p468
aV-
aV7.20
p469
aa(lp470
V2014/2015
p471
aVFC Porto
p472
aVUCL
p473
aV8
aV652
p474
aV1
aV1
aV3
aV-
aV1.6
p475
aV77.2
p476
aV0.9
p477
aV-
aV7.43
p478
aa(lp479
V2013/2014
p480
aVFC Porto
p481
aVUCL
p482
aV6
aV540
p483
aV-
aV2
aV-
aV-
aV1.5
p484
aV79.9
p485
aV1.2
p486
aV-
aV7.53
p487
aa(lp488
V2013/2014
p489
aVFC Porto
p490
aVUEL
p491
aV6
aV514
p492
aV-
aV-
aV1
aV-
aV0.3
p493
aV82.3
p494
aV1.3
p495
aV-
aV7.04
p496
aa(lp497
V2012/2013
p498
aVFC Porto
p499
aVUCL
p500
aV7
aV630
p501
aV-
aV1
aV1
aV-
aV1.1
p502
aV81.1
p503
aV0.9
p504
aV-
aV7.13
p505
aa(lp506
VTotal / Average
p507
aV
aV
aV110
p508
aV8632
p509
aV7
aV15
p510
aV21
p511
aV0
aV0.8
p512
aV86
p513
aV1
aV2
aV7.16
p514
aasS'id'
p515
V88300
p516
sb.