(i__main__
Player
p1
(dp2
S'name'
p3
VGranit Xhaka 
p4
sS'offensive_data'
p5
(lp6
(lp7
a(lp8
V2018/2019
p9
aVArsenal
p10
aVEPL
p11
aV16
p12
aV1376
p13
aV2
aV1
aV6
aV-
aV1.1
p14
aV84.7
p15
aV2
aV2
aV7.05
p16
aa(lp17
V2018/2019
p18
aVArsenal
p19
aVUEL
p20
aV1
aV90
p21
aV-
aV-
aV-
aV-
aV-
aV85.7
p22
aV1
aV-
aV7.07
p23
aa(lp24
V2018/2019
p25
aVSwitzerland
p26
aVUNL
p27
aV4
aV360
p28
aV-
aV1
aV2
aV-
aV0.5
p29
aV89
p30
aV1.8
p31
aV1
aV7.25
p32
aa(lp33
V2017/2018
p34
aVArsenal
p35
aVUEL
p36
aV5(1)
p37
aV495
p38
aV1
aV-
aV1
aV-
aV1.2
p39
aV91.2
p40
aV1.5
p41
aV-
aV7.47
p42
aa(lp43
V2017/2018
p44
aVArsenal
p45
aVEPL
p46
aV37(1)
p47
aV3266
p48
aV1
aV7
aV10
p49
aV-
aV1.7
p50
aV86.9
p51
aV1.3
p52
aV-
aV7.02
p53
aa(lp54
V2016/2017
p55
aVArsenal
p56
aVUCL
p57
aV5(2)
p58
aV479
p59
aV1
aV-
aV3
aV-
aV0.3
p60
aV88.6
p61
aV0.6
p62
aV-
aV6.57
p63
aa(lp64
V2016/2017
p65
aVArsenal
p66
aVEPL
p67
aV28(4)
p68
aV2486
p69
aV2
aV2
aV5
aV2
aV1.1
p70
aV89.5
p71
aV1.1
p72
aV-
aV6.96
p73
aa(lp74
V2018
p75
aVSwitzerland
p76
aVWC
p77
aV4
aV360
p78
aV1
aV-
aV1
aV-
aV1
aV90.1
p79
aV1
aV-
aV6.84
p80
aa(lp81
V2015/2016
p82
aVBorussia M.Gl..
p83
aVGB
p84
aV28
p85
aV2368
p86
aV3
aV1
aV5
aV3
aV1.2
p87
aV85.1
p88
aV3.4
p89
aV1
aV7.35
p90
aa(lp91
V2015/2016
p92
aVBorussia M.Gl..
p93
aVUCL
p94
aV5
aV450
p95
aV-
aV1
aV1
aV-
aV2.2
p96
aV84.4
p97
aV2.4
p98
aV1
aV7.35
p99
aa(lp100
V2014/2015
p101
aVBorussia M.Gl..
p102
aVGB
p103
aV30
p104
aV2639
p105
aV2
aV1
aV10
p106
aV1
aV2
aV86.1
p107
aV3.2
p108
aV3
aV7.61
p109
aa(lp110
V2014/2015
p111
aVBorussia M.Gl..
p112
aVUEL
p113
aV7
aV588
p114
aV2
aV1
aV2
aV1
aV2
aV88.6
p115
aV1.4
p116
aV2
aV7.79
p117
aa(lp118
V2016
p119
aVSwitzerland
p120
aVUEC
p121
aV4
aV390
p122
aV-
aV-
aV1
aV-
aV1
aV88.7
p123
aV3.3
p124
aV-
aV7.38
p125
aa(lp126
V2013/2014
p127
aVBorussia M.Gl..
p128
aVGB
p129
aV23(5)
p130
aV2035
p131
aV-
aV1
aV10
p132
aV1
aV1
aV86.5
p133
aV1.9
p134
aV-
aV7.02
p135
aa(lp136
V2014
p137
aVSwitzerland
p138
aVWC
p139
aV4
aV323
p140
aV1
aV-
aV1
aV-
aV2.8
p141
aV82
p142
aV1.8
p143
aV-
aV6.80
p144
aa(lp145
V2012/2013
p146
aVBorussia M.Gl..
p147
aVGB
p148
aV15(7)
p149
aV1484
p150
aV1
aV-
aV4
aV-
aV1
aV81.2
p151
aV1.6
p152
aV-
aV6.83
p153
aa(lp154
V2012/2013
p155
aVBorussia M.Gl..
p156
aVUEL
p157
aV2(5)
p158
aV283
p159
aV-
aV-
aV-
aV-
aV0.6
p160
aV87
p161
aV0.6
p162
aV-
aV6.51
p163
aa(lp164
V2011/2012
p165
aVFC Basel 1893
p166
aVUCL
p167
aV8
aV682
p168
aV-
aV-
aV2
aV-
aV0.8
p169
aV86.9
p170
aV1.4
p171
aV-
aV6.95
p172
aa(lp173
V2010/2011
p174
aVFC Basel 1893
p175
aVUCL
p176
aV0(2)
p177
aV48
p178
aV-
aV-
aV-
aV-
aV1
aV92.3
p179
aV-
aV-
aV6.17
p180
aa(lp181
VTotal / Average
p182
aV
aV
aV253
p183
aV20202
p184
aV17
p185
aV16
p186
aV64
p187
aV8
aV1.3
p188
aV86.5
p189
aV1.9
p190
aV10
p191
aV7.11
p192
aasS'url'
p193
S'https://www.whoscored.com/Players/89401/History/'
p194
sS'passing_data'
p195
(lp196
(lp197
a(lp198
V2018/2019
p199
aVArsenal
p200
aVEPL
p201
aV16
p202
aV1376
p203
aV2
aV1
aV6
aV-
aV1.1
p204
aV84.7
p205
aV2
aV2
aV7.05
p206
aa(lp207
V2018/2019
p208
aVArsenal
p209
aVUEL
p210
aV1
aV90
p211
aV-
aV-
aV-
aV-
aV-
aV85.7
p212
aV1
aV-
aV7.07
p213
aa(lp214
V2018/2019
p215
aVSwitzerland
p216
aVUNL
p217
aV4
aV360
p218
aV-
aV1
aV2
aV-
aV0.5
p219
aV89
p220
aV1.8
p221
aV1
aV7.25
p222
aa(lp223
V2017/2018
p224
aVArsenal
p225
aVUEL
p226
aV5(1)
p227
aV495
p228
aV1
aV-
aV1
aV-
aV1.2
p229
aV91.2
p230
aV1.5
p231
aV-
aV7.47
p232
aa(lp233
V2017/2018
p234
aVArsenal
p235
aVEPL
p236
aV37(1)
p237
aV3266
p238
aV1
aV7
aV10
p239
aV-
aV1.7
p240
aV86.9
p241
aV1.3
p242
aV-
aV7.02
p243
aa(lp244
V2016/2017
p245
aVArsenal
p246
aVUCL
p247
aV5(2)
p248
aV479
p249
aV1
aV-
aV3
aV-
aV0.3
p250
aV88.6
p251
aV0.6
p252
aV-
aV6.57
p253
aa(lp254
V2016/2017
p255
aVArsenal
p256
aVEPL
p257
aV28(4)
p258
aV2486
p259
aV2
aV2
aV5
aV2
aV1.1
p260
aV89.5
p261
aV1.1
p262
aV-
aV6.96
p263
aa(lp264
V2018
p265
aVSwitzerland
p266
aVWC
p267
aV4
aV360
p268
aV1
aV-
aV1
aV-
aV1
aV90.1
p269
aV1
aV-
aV6.84
p270
aa(lp271
V2015/2016
p272
aVBorussia M.Gl..
p273
aVGB
p274
aV28
p275
aV2368
p276
aV3
aV1
aV5
aV3
aV1.2
p277
aV85.1
p278
aV3.4
p279
aV1
aV7.35
p280
aa(lp281
V2015/2016
p282
aVBorussia M.Gl..
p283
aVUCL
p284
aV5
aV450
p285
aV-
aV1
aV1
aV-
aV2.2
p286
aV84.4
p287
aV2.4
p288
aV1
aV7.35
p289
aa(lp290
V2014/2015
p291
aVBorussia M.Gl..
p292
aVGB
p293
aV30
p294
aV2639
p295
aV2
aV1
aV10
p296
aV1
aV2
aV86.1
p297
aV3.2
p298
aV3
aV7.61
p299
aa(lp300
V2014/2015
p301
aVBorussia M.Gl..
p302
aVUEL
p303
aV7
aV588
p304
aV2
aV1
aV2
aV1
aV2
aV88.6
p305
aV1.4
p306
aV2
aV7.79
p307
aa(lp308
V2016
p309
aVSwitzerland
p310
aVUEC
p311
aV4
aV390
p312
aV-
aV-
aV1
aV-
aV1
aV88.7
p313
aV3.3
p314
aV-
aV7.38
p315
aa(lp316
V2013/2014
p317
aVBorussia M.Gl..
p318
aVGB
p319
aV23(5)
p320
aV2035
p321
aV-
aV1
aV10
p322
aV1
aV1
aV86.5
p323
aV1.9
p324
aV-
aV7.02
p325
aa(lp326
V2014
p327
aVSwitzerland
p328
aVWC
p329
aV4
aV323
p330
aV1
aV-
aV1
aV-
aV2.8
p331
aV82
p332
aV1.8
p333
aV-
aV6.80
p334
aa(lp335
V2012/2013
p336
aVBorussia M.Gl..
p337
aVGB
p338
aV15(7)
p339
aV1484
p340
aV1
aV-
aV4
aV-
aV1
aV81.2
p341
aV1.6
p342
aV-
aV6.83
p343
aa(lp344
V2012/2013
p345
aVBorussia M.Gl..
p346
aVUEL
p347
aV2(5)
p348
aV283
p349
aV-
aV-
aV-
aV-
aV0.6
p350
aV87
p351
aV0.6
p352
aV-
aV6.51
p353
aa(lp354
V2011/2012
p355
aVFC Basel 1893
p356
aVUCL
p357
aV8
aV682
p358
aV-
aV-
aV2
aV-
aV0.8
p359
aV86.9
p360
aV1.4
p361
aV-
aV6.95
p362
aa(lp363
V2010/2011
p364
aVFC Basel 1893
p365
aVUCL
p366
aV0(2)
p367
aV48
p368
aV-
aV-
aV-
aV-
aV1
aV92.3
p369
aV-
aV-
aV6.17
p370
aa(lp371
VTotal / Average
p372
aV
aV
aV253
p373
aV20202
p374
aV17
p375
aV16
p376
aV64
p377
aV8
aV1.3
p378
aV86.5
p379
aV1.9
p380
aV10
p381
aV7.11
p382
aasS'defensive_data'
p383
(lp384
(lp385
a(lp386
V2018/2019
p387
aVArsenal
p388
aVEPL
p389
aV16
p390
aV1376
p391
aV2
aV1
aV6
aV-
aV1.1
p392
aV84.7
p393
aV2
aV2
aV7.05
p394
aa(lp395
V2018/2019
p396
aVArsenal
p397
aVUEL
p398
aV1
aV90
p399
aV-
aV-
aV-
aV-
aV-
aV85.7
p400
aV1
aV-
aV7.07
p401
aa(lp402
V2018/2019
p403
aVSwitzerland
p404
aVUNL
p405
aV4
aV360
p406
aV-
aV1
aV2
aV-
aV0.5
p407
aV89
p408
aV1.8
p409
aV1
aV7.25
p410
aa(lp411
V2017/2018
p412
aVArsenal
p413
aVUEL
p414
aV5(1)
p415
aV495
p416
aV1
aV-
aV1
aV-
aV1.2
p417
aV91.2
p418
aV1.5
p419
aV-
aV7.47
p420
aa(lp421
V2017/2018
p422
aVArsenal
p423
aVEPL
p424
aV37(1)
p425
aV3266
p426
aV1
aV7
aV10
p427
aV-
aV1.7
p428
aV86.9
p429
aV1.3
p430
aV-
aV7.02
p431
aa(lp432
V2016/2017
p433
aVArsenal
p434
aVUCL
p435
aV5(2)
p436
aV479
p437
aV1
aV-
aV3
aV-
aV0.3
p438
aV88.6
p439
aV0.6
p440
aV-
aV6.57
p441
aa(lp442
V2016/2017
p443
aVArsenal
p444
aVEPL
p445
aV28(4)
p446
aV2486
p447
aV2
aV2
aV5
aV2
aV1.1
p448
aV89.5
p449
aV1.1
p450
aV-
aV6.96
p451
aa(lp452
V2018
p453
aVSwitzerland
p454
aVWC
p455
aV4
aV360
p456
aV1
aV-
aV1
aV-
aV1
aV90.1
p457
aV1
aV-
aV6.84
p458
aa(lp459
V2015/2016
p460
aVBorussia M.Gl..
p461
aVGB
p462
aV28
p463
aV2368
p464
aV3
aV1
aV5
aV3
aV1.2
p465
aV85.1
p466
aV3.4
p467
aV1
aV7.35
p468
aa(lp469
V2015/2016
p470
aVBorussia M.Gl..
p471
aVUCL
p472
aV5
aV450
p473
aV-
aV1
aV1
aV-
aV2.2
p474
aV84.4
p475
aV2.4
p476
aV1
aV7.35
p477
aa(lp478
V2014/2015
p479
aVBorussia M.Gl..
p480
aVGB
p481
aV30
p482
aV2639
p483
aV2
aV1
aV10
p484
aV1
aV2
aV86.1
p485
aV3.2
p486
aV3
aV7.61
p487
aa(lp488
V2014/2015
p489
aVBorussia M.Gl..
p490
aVUEL
p491
aV7
aV588
p492
aV2
aV1
aV2
aV1
aV2
aV88.6
p493
aV1.4
p494
aV2
aV7.79
p495
aa(lp496
V2016
p497
aVSwitzerland
p498
aVUEC
p499
aV4
aV390
p500
aV-
aV-
aV1
aV-
aV1
aV88.7
p501
aV3.3
p502
aV-
aV7.38
p503
aa(lp504
V2013/2014
p505
aVBorussia M.Gl..
p506
aVGB
p507
aV23(5)
p508
aV2035
p509
aV-
aV1
aV10
p510
aV1
aV1
aV86.5
p511
aV1.9
p512
aV-
aV7.02
p513
aa(lp514
V2014
p515
aVSwitzerland
p516
aVWC
p517
aV4
aV323
p518
aV1
aV-
aV1
aV-
aV2.8
p519
aV82
p520
aV1.8
p521
aV-
aV6.80
p522
aa(lp523
V2012/2013
p524
aVBorussia M.Gl..
p525
aVGB
p526
aV15(7)
p527
aV1484
p528
aV1
aV-
aV4
aV-
aV1
aV81.2
p529
aV1.6
p530
aV-
aV6.83
p531
aa(lp532
V2012/2013
p533
aVBorussia M.Gl..
p534
aVUEL
p535
aV2(5)
p536
aV283
p537
aV-
aV-
aV-
aV-
aV0.6
p538
aV87
p539
aV0.6
p540
aV-
aV6.51
p541
aa(lp542
V2011/2012
p543
aVFC Basel 1893
p544
aVUCL
p545
aV8
aV682
p546
aV-
aV-
aV2
aV-
aV0.8
p547
aV86.9
p548
aV1.4
p549
aV-
aV6.95
p550
aa(lp551
V2010/2011
p552
aVFC Basel 1893
p553
aVUCL
p554
aV0(2)
p555
aV48
p556
aV-
aV-
aV-
aV-
aV1
aV92.3
p557
aV-
aV-
aV6.17
p558
aa(lp559
VTotal / Average
p560
aV
aV
aV253
p561
aV20202
p562
aV17
p563
aV16
p564
aV64
p565
aV8
aV1.3
p566
aV86.5
p567
aV1.9
p568
aV10
p569
aV7.11
p570
aasS'sumary_data'
p571
(lp572
(lp573
a(lp574
V2018/2019
p575
aVArsenal
p576
aVEPL
p577
aV16
p578
aV1376
p579
aV2
aV1
aV6
aV-
aV1.1
p580
aV84.7
p581
aV2
aV2
aV7.05
p582
aa(lp583
V2018/2019
p584
aVArsenal
p585
aVUEL
p586
aV1
aV90
p587
aV-
aV-
aV-
aV-
aV-
aV85.7
p588
aV1
aV-
aV7.07
p589
aa(lp590
V2018/2019
p591
aVSwitzerland
p592
aVUNL
p593
aV4
aV360
p594
aV-
aV1
aV2
aV-
aV0.5
p595
aV89
p596
aV1.8
p597
aV1
aV7.25
p598
aa(lp599
V2017/2018
p600
aVArsenal
p601
aVUEL
p602
aV5(1)
p603
aV495
p604
aV1
aV-
aV1
aV-
aV1.2
p605
aV91.2
p606
aV1.5
p607
aV-
aV7.47
p608
aa(lp609
V2017/2018
p610
aVArsenal
p611
aVEPL
p612
aV37(1)
p613
aV3266
p614
aV1
aV7
aV10
p615
aV-
aV1.7
p616
aV86.9
p617
aV1.3
p618
aV-
aV7.02
p619
aa(lp620
V2016/2017
p621
aVArsenal
p622
aVUCL
p623
aV5(2)
p624
aV479
p625
aV1
aV-
aV3
aV-
aV0.3
p626
aV88.6
p627
aV0.6
p628
aV-
aV6.57
p629
aa(lp630
V2016/2017
p631
aVArsenal
p632
aVEPL
p633
aV28(4)
p634
aV2486
p635
aV2
aV2
aV5
aV2
aV1.1
p636
aV89.5
p637
aV1.1
p638
aV-
aV6.96
p639
aa(lp640
V2018
p641
aVSwitzerland
p642
aVWC
p643
aV4
aV360
p644
aV1
aV-
aV1
aV-
aV1
aV90.1
p645
aV1
aV-
aV6.84
p646
aa(lp647
V2015/2016
p648
aVBorussia M.Gl..
p649
aVGB
p650
aV28
p651
aV2368
p652
aV3
aV1
aV5
aV3
aV1.2
p653
aV85.1
p654
aV3.4
p655
aV1
aV7.35
p656
aa(lp657
V2015/2016
p658
aVBorussia M.Gl..
p659
aVUCL
p660
aV5
aV450
p661
aV-
aV1
aV1
aV-
aV2.2
p662
aV84.4
p663
aV2.4
p664
aV1
aV7.35
p665
aa(lp666
V2014/2015
p667
aVBorussia M.Gl..
p668
aVGB
p669
aV30
p670
aV2639
p671
aV2
aV1
aV10
p672
aV1
aV2
aV86.1
p673
aV3.2
p674
aV3
aV7.61
p675
aa(lp676
V2014/2015
p677
aVBorussia M.Gl..
p678
aVUEL
p679
aV7
aV588
p680
aV2
aV1
aV2
aV1
aV2
aV88.6
p681
aV1.4
p682
aV2
aV7.79
p683
aa(lp684
V2016
p685
aVSwitzerland
p686
aVUEC
p687
aV4
aV390
p688
aV-
aV-
aV1
aV-
aV1
aV88.7
p689
aV3.3
p690
aV-
aV7.38
p691
aa(lp692
V2013/2014
p693
aVBorussia M.Gl..
p694
aVGB
p695
aV23(5)
p696
aV2035
p697
aV-
aV1
aV10
p698
aV1
aV1
aV86.5
p699
aV1.9
p700
aV-
aV7.02
p701
aa(lp702
V2014
p703
aVSwitzerland
p704
aVWC
p705
aV4
aV323
p706
aV1
aV-
aV1
aV-
aV2.8
p707
aV82
p708
aV1.8
p709
aV-
aV6.80
p710
aa(lp711
V2012/2013
p712
aVBorussia M.Gl..
p713
aVGB
p714
aV15(7)
p715
aV1484
p716
aV1
aV-
aV4
aV-
aV1
aV81.2
p717
aV1.6
p718
aV-
aV6.83
p719
aa(lp720
V2012/2013
p721
aVBorussia M.Gl..
p722
aVUEL
p723
aV2(5)
p724
aV283
p725
aV-
aV-
aV-
aV-
aV0.6
p726
aV87
p727
aV0.6
p728
aV-
aV6.51
p729
aa(lp730
V2011/2012
p731
aVFC Basel 1893
p732
aVUCL
p733
aV8
aV682
p734
aV-
aV-
aV2
aV-
aV0.8
p735
aV86.9
p736
aV1.4
p737
aV-
aV6.95
p738
aa(lp739
V2010/2011
p740
aVFC Basel 1893
p741
aVUCL
p742
aV0(2)
p743
aV48
p744
aV-
aV-
aV-
aV-
aV1
aV92.3
p745
aV-
aV-
aV6.17
p746
aa(lp747
VTotal / Average
p748
aV
aV
aV253
p749
aV20202
p750
aV17
p751
aV16
p752
aV64
p753
aV8
aV1.3
p754
aV86.5
p755
aV1.9
p756
aV10
p757
aV7.11
p758
aasS'id'
p759
V89401
p760
sb.