(i__main__
Player
p1
(dp2
S'name'
p3
VLucas Digne 
p4
sS'offensive_data'
p5
(lp6
(lp7
a(lp8
V2018/2019
p9
aVEverton
p10
aVEPL
p11
aV14(1)
p12
aV1250
p13
aV1
aV2
aV2
aV-
aV1.1
p14
aV79.8
p15
aV2.1
p16
aV1
aV7.34
p17
aa(lp18
V2018/2019
p19
aVFrance
p20
aVUNL
p21
aV1
aV90
p22
aV-
aV-
aV1
aV-
aV-
aV78.4
p23
aV2
aV-
aV6.23
p24
aa(lp25
V2017/2018
p26
aVBarcelona
p27
aVSLL
p28
aV8(4)
p29
aV702
p30
aV-
aV2
aV2
aV-
aV0.2
p31
aV87.9
p32
aV0.8
p33
aV-
aV6.72
p34
aa(lp35
V2017/2018
p36
aVBarcelona
p37
aVUCL
p38
aV3
aV270
p39
aV1
aV-
aV1
aV-
aV0.3
p40
aV89.1
p41
aV2.3
p42
aV-
aV7.51
p43
aa(lp44
V2016/2017
p45
aVBarcelona
p46
aVSLL
p47
aV14(3)
p48
aV1175
p49
aV-
aV-
aV3
aV-
aV0.3
p50
aV87.3
p51
aV1.2
p52
aV-
aV6.92
p53
aa(lp54
V2016/2017
p55
aVBarcelona
p56
aVUCL
p57
aV2(2)
p58
aV284
p59
aV-
aV-
aV-
aV-
aV0.3
p60
aV90.1
p61
aV1
aV-
aV6.70
p62
aa(lp63
V2015/2016
p64
aVRoma
p65
aVISA
p66
aV32(1)
p67
aV2859
p68
aV3
aV3
aV4
aV-
aV0.5
p69
aV81.3
p70
aV2.3
p71
aV1
aV7.13
p72
aa(lp73
V2015/2016
p74
aVRoma
p75
aVUCL
p76
aV8
aV720
p77
aV-
aV2
aV1
aV-
aV0.5
p78
aV76.5
p79
aV2.4
p80
aV-
aV6.85
p81
aa(lp82
V2014/2015
p83
aVParis Saint-G..
p84
aVUCL
p85
aV0(1)
p86
aV4
aV-
aV-
aV-
aV-
aV-
aV100
p87
aV-
aV-
aV6.08
p88
aa(lp89
V2014/2015
p90
aVParis Saint-G..
p91
aVFL1
p92
aV14(1)
p93
aV1270
p94
aV-
aV1
aV1
aV-
aV0.3
p95
aV88.2
p96
aV2.2
p97
aV1
aV6.94
p98
aa(lp99
V2013/2014
p100
aVParis Saint-G..
p101
aVUCL
p102
aV2
aV180
p103
aV-
aV1
aV-
aV-
aV0.5
p104
aV79.5
p105
aV1.5
p106
aV-
aV7.10
p107
aa(lp108
V2013/2014
p109
aVParis Saint-G..
p110
aVFL1
p111
aV15
p112
aV1336
p113
aV-
aV1
aV3
aV-
aV0.7
p114
aV90.7
p115
aV1.6
p116
aV-
aV7.30
p117
aa(lp118
V2014
p119
aVFrance
p120
aVWC
p121
aV1
aV90
p122
aV-
aV-
aV-
aV-
aV-
aV91.2
p123
aV2
aV-
aV7.26
p124
aa(lp125
V2012/2013
p126
aVLille
p127
aVUCL
p128
aV4(1)
p129
aV368
p130
aV-
aV1
aV2
aV-
aV0.4
p131
aV78.7
p132
aV2.4
p133
aV1
aV7.00
p134
aa(lp135
V2012/2013
p136
aVLille
p137
aVFL1
p138
aV31(2)
p139
aV2804
p140
aV2
aV-
aV3
aV1
aV0.7
p141
aV81.7
p142
aV2.6
p143
aV-
aV6.81
p144
aa(lp145
V2011/2012
p146
aVLille
p147
aVFL1
p148
aV13(3)
p149
aV1203
p150
aV-
aV-
aV1
aV-
aV0.1
p151
aV80.3
p152
aV1.9
p153
aV-
aV7.02
p154
aa(lp155
VTotal / Average
p156
aV
aV
aV181
p157
aV14605
p158
aV7
aV13
p159
aV24
p160
aV1
aV0.5
p161
aV83.7
p162
aV2
aV4
aV7.00
p163
aasS'url'
p164
S'https://www.whoscored.com/Players/89925/History/'
p165
sS'passing_data'
p166
(lp167
(lp168
a(lp169
V2018/2019
p170
aVEverton
p171
aVEPL
p172
aV14(1)
p173
aV1250
p174
aV1
aV2
aV2
aV-
aV1.1
p175
aV79.8
p176
aV2.1
p177
aV1
aV7.34
p178
aa(lp179
V2018/2019
p180
aVFrance
p181
aVUNL
p182
aV1
aV90
p183
aV-
aV-
aV1
aV-
aV-
aV78.4
p184
aV2
aV-
aV6.23
p185
aa(lp186
V2017/2018
p187
aVBarcelona
p188
aVSLL
p189
aV8(4)
p190
aV702
p191
aV-
aV2
aV2
aV-
aV0.2
p192
aV87.9
p193
aV0.8
p194
aV-
aV6.72
p195
aa(lp196
V2017/2018
p197
aVBarcelona
p198
aVUCL
p199
aV3
aV270
p200
aV1
aV-
aV1
aV-
aV0.3
p201
aV89.1
p202
aV2.3
p203
aV-
aV7.51
p204
aa(lp205
V2016/2017
p206
aVBarcelona
p207
aVSLL
p208
aV14(3)
p209
aV1175
p210
aV-
aV-
aV3
aV-
aV0.3
p211
aV87.3
p212
aV1.2
p213
aV-
aV6.92
p214
aa(lp215
V2016/2017
p216
aVBarcelona
p217
aVUCL
p218
aV2(2)
p219
aV284
p220
aV-
aV-
aV-
aV-
aV0.3
p221
aV90.1
p222
aV1
aV-
aV6.70
p223
aa(lp224
V2015/2016
p225
aVRoma
p226
aVISA
p227
aV32(1)
p228
aV2859
p229
aV3
aV3
aV4
aV-
aV0.5
p230
aV81.3
p231
aV2.3
p232
aV1
aV7.13
p233
aa(lp234
V2015/2016
p235
aVRoma
p236
aVUCL
p237
aV8
aV720
p238
aV-
aV2
aV1
aV-
aV0.5
p239
aV76.5
p240
aV2.4
p241
aV-
aV6.85
p242
aa(lp243
V2014/2015
p244
aVParis Saint-G..
p245
aVUCL
p246
aV0(1)
p247
aV4
aV-
aV-
aV-
aV-
aV-
aV100
p248
aV-
aV-
aV6.08
p249
aa(lp250
V2014/2015
p251
aVParis Saint-G..
p252
aVFL1
p253
aV14(1)
p254
aV1270
p255
aV-
aV1
aV1
aV-
aV0.3
p256
aV88.2
p257
aV2.2
p258
aV1
aV6.94
p259
aa(lp260
V2013/2014
p261
aVParis Saint-G..
p262
aVUCL
p263
aV2
aV180
p264
aV-
aV1
aV-
aV-
aV0.5
p265
aV79.5
p266
aV1.5
p267
aV-
aV7.10
p268
aa(lp269
V2013/2014
p270
aVParis Saint-G..
p271
aVFL1
p272
aV15
p273
aV1336
p274
aV-
aV1
aV3
aV-
aV0.7
p275
aV90.7
p276
aV1.6
p277
aV-
aV7.30
p278
aa(lp279
V2014
p280
aVFrance
p281
aVWC
p282
aV1
aV90
p283
aV-
aV-
aV-
aV-
aV-
aV91.2
p284
aV2
aV-
aV7.26
p285
aa(lp286
V2012/2013
p287
aVLille
p288
aVUCL
p289
aV4(1)
p290
aV368
p291
aV-
aV1
aV2
aV-
aV0.4
p292
aV78.7
p293
aV2.4
p294
aV1
aV7.00
p295
aa(lp296
V2012/2013
p297
aVLille
p298
aVFL1
p299
aV31(2)
p300
aV2804
p301
aV2
aV-
aV3
aV1
aV0.7
p302
aV81.7
p303
aV2.6
p304
aV-
aV6.81
p305
aa(lp306
V2011/2012
p307
aVLille
p308
aVFL1
p309
aV13(3)
p310
aV1203
p311
aV-
aV-
aV1
aV-
aV0.1
p312
aV80.3
p313
aV1.9
p314
aV-
aV7.02
p315
aa(lp316
VTotal / Average
p317
aV
aV
aV181
p318
aV14605
p319
aV7
aV13
p320
aV24
p321
aV1
aV0.5
p322
aV83.7
p323
aV2
aV4
aV7.00
p324
aasS'defensive_data'
p325
(lp326
(lp327
a(lp328
V2018/2019
p329
aVEverton
p330
aVEPL
p331
aV14(1)
p332
aV1250
p333
aV1
aV2
aV2
aV-
aV1.1
p334
aV79.8
p335
aV2.1
p336
aV1
aV7.34
p337
aa(lp338
V2018/2019
p339
aVFrance
p340
aVUNL
p341
aV1
aV90
p342
aV-
aV-
aV1
aV-
aV-
aV78.4
p343
aV2
aV-
aV6.23
p344
aa(lp345
V2017/2018
p346
aVBarcelona
p347
aVSLL
p348
aV8(4)
p349
aV702
p350
aV-
aV2
aV2
aV-
aV0.2
p351
aV87.9
p352
aV0.8
p353
aV-
aV6.72
p354
aa(lp355
V2017/2018
p356
aVBarcelona
p357
aVUCL
p358
aV3
aV270
p359
aV1
aV-
aV1
aV-
aV0.3
p360
aV89.1
p361
aV2.3
p362
aV-
aV7.51
p363
aa(lp364
V2016/2017
p365
aVBarcelona
p366
aVSLL
p367
aV14(3)
p368
aV1175
p369
aV-
aV-
aV3
aV-
aV0.3
p370
aV87.3
p371
aV1.2
p372
aV-
aV6.92
p373
aa(lp374
V2016/2017
p375
aVBarcelona
p376
aVUCL
p377
aV2(2)
p378
aV284
p379
aV-
aV-
aV-
aV-
aV0.3
p380
aV90.1
p381
aV1
aV-
aV6.70
p382
aa(lp383
V2015/2016
p384
aVRoma
p385
aVISA
p386
aV32(1)
p387
aV2859
p388
aV3
aV3
aV4
aV-
aV0.5
p389
aV81.3
p390
aV2.3
p391
aV1
aV7.13
p392
aa(lp393
V2015/2016
p394
aVRoma
p395
aVUCL
p396
aV8
aV720
p397
aV-
aV2
aV1
aV-
aV0.5
p398
aV76.5
p399
aV2.4
p400
aV-
aV6.85
p401
aa(lp402
V2014/2015
p403
aVParis Saint-G..
p404
aVUCL
p405
aV0(1)
p406
aV4
aV-
aV-
aV-
aV-
aV-
aV100
p407
aV-
aV-
aV6.08
p408
aa(lp409
V2014/2015
p410
aVParis Saint-G..
p411
aVFL1
p412
aV14(1)
p413
aV1270
p414
aV-
aV1
aV1
aV-
aV0.3
p415
aV88.2
p416
aV2.2
p417
aV1
aV6.94
p418
aa(lp419
V2013/2014
p420
aVParis Saint-G..
p421
aVUCL
p422
aV2
aV180
p423
aV-
aV1
aV-
aV-
aV0.5
p424
aV79.5
p425
aV1.5
p426
aV-
aV7.10
p427
aa(lp428
V2013/2014
p429
aVParis Saint-G..
p430
aVFL1
p431
aV15
p432
aV1336
p433
aV-
aV1
aV3
aV-
aV0.7
p434
aV90.7
p435
aV1.6
p436
aV-
aV7.30
p437
aa(lp438
V2014
p439
aVFrance
p440
aVWC
p441
aV1
aV90
p442
aV-
aV-
aV-
aV-
aV-
aV91.2
p443
aV2
aV-
aV7.26
p444
aa(lp445
V2012/2013
p446
aVLille
p447
aVUCL
p448
aV4(1)
p449
aV368
p450
aV-
aV1
aV2
aV-
aV0.4
p451
aV78.7
p452
aV2.4
p453
aV1
aV7.00
p454
aa(lp455
V2012/2013
p456
aVLille
p457
aVFL1
p458
aV31(2)
p459
aV2804
p460
aV2
aV-
aV3
aV1
aV0.7
p461
aV81.7
p462
aV2.6
p463
aV-
aV6.81
p464
aa(lp465
V2011/2012
p466
aVLille
p467
aVFL1
p468
aV13(3)
p469
aV1203
p470
aV-
aV-
aV1
aV-
aV0.1
p471
aV80.3
p472
aV1.9
p473
aV-
aV7.02
p474
aa(lp475
VTotal / Average
p476
aV
aV
aV181
p477
aV14605
p478
aV7
aV13
p479
aV24
p480
aV1
aV0.5
p481
aV83.7
p482
aV2
aV4
aV7.00
p483
aasS'sumary_data'
p484
(lp485
(lp486
a(lp487
V2018/2019
p488
aVEverton
p489
aVEPL
p490
aV14(1)
p491
aV1250
p492
aV1
aV2
aV2
aV-
aV1.1
p493
aV79.8
p494
aV2.1
p495
aV1
aV7.34
p496
aa(lp497
V2018/2019
p498
aVFrance
p499
aVUNL
p500
aV1
aV90
p501
aV-
aV-
aV1
aV-
aV-
aV78.4
p502
aV2
aV-
aV6.23
p503
aa(lp504
V2017/2018
p505
aVBarcelona
p506
aVSLL
p507
aV8(4)
p508
aV702
p509
aV-
aV2
aV2
aV-
aV0.2
p510
aV87.9
p511
aV0.8
p512
aV-
aV6.72
p513
aa(lp514
V2017/2018
p515
aVBarcelona
p516
aVUCL
p517
aV3
aV270
p518
aV1
aV-
aV1
aV-
aV0.3
p519
aV89.1
p520
aV2.3
p521
aV-
aV7.51
p522
aa(lp523
V2016/2017
p524
aVBarcelona
p525
aVSLL
p526
aV14(3)
p527
aV1175
p528
aV-
aV-
aV3
aV-
aV0.3
p529
aV87.3
p530
aV1.2
p531
aV-
aV6.92
p532
aa(lp533
V2016/2017
p534
aVBarcelona
p535
aVUCL
p536
aV2(2)
p537
aV284
p538
aV-
aV-
aV-
aV-
aV0.3
p539
aV90.1
p540
aV1
aV-
aV6.70
p541
aa(lp542
V2015/2016
p543
aVRoma
p544
aVISA
p545
aV32(1)
p546
aV2859
p547
aV3
aV3
aV4
aV-
aV0.5
p548
aV81.3
p549
aV2.3
p550
aV1
aV7.13
p551
aa(lp552
V2015/2016
p553
aVRoma
p554
aVUCL
p555
aV8
aV720
p556
aV-
aV2
aV1
aV-
aV0.5
p557
aV76.5
p558
aV2.4
p559
aV-
aV6.85
p560
aa(lp561
V2014/2015
p562
aVParis Saint-G..
p563
aVUCL
p564
aV0(1)
p565
aV4
aV-
aV-
aV-
aV-
aV-
aV100
p566
aV-
aV-
aV6.08
p567
aa(lp568
V2014/2015
p569
aVParis Saint-G..
p570
aVFL1
p571
aV14(1)
p572
aV1270
p573
aV-
aV1
aV1
aV-
aV0.3
p574
aV88.2
p575
aV2.2
p576
aV1
aV6.94
p577
aa(lp578
V2013/2014
p579
aVParis Saint-G..
p580
aVUCL
p581
aV2
aV180
p582
aV-
aV1
aV-
aV-
aV0.5
p583
aV79.5
p584
aV1.5
p585
aV-
aV7.10
p586
aa(lp587
V2013/2014
p588
aVParis Saint-G..
p589
aVFL1
p590
aV15
p591
aV1336
p592
aV-
aV1
aV3
aV-
aV0.7
p593
aV90.7
p594
aV1.6
p595
aV-
aV7.30
p596
aa(lp597
V2014
p598
aVFrance
p599
aVWC
p600
aV1
aV90
p601
aV-
aV-
aV-
aV-
aV-
aV91.2
p602
aV2
aV-
aV7.26
p603
aa(lp604
V2012/2013
p605
aVLille
p606
aVUCL
p607
aV4(1)
p608
aV368
p609
aV-
aV1
aV2
aV-
aV0.4
p610
aV78.7
p611
aV2.4
p612
aV1
aV7.00
p613
aa(lp614
V2012/2013
p615
aVLille
p616
aVFL1
p617
aV31(2)
p618
aV2804
p619
aV2
aV-
aV3
aV1
aV0.7
p620
aV81.7
p621
aV2.6
p622
aV-
aV6.81
p623
aa(lp624
V2011/2012
p625
aVLille
p626
aVFL1
p627
aV13(3)
p628
aV1203
p629
aV-
aV-
aV1
aV-
aV0.1
p630
aV80.3
p631
aV1.9
p632
aV-
aV7.02
p633
aa(lp634
VTotal / Average
p635
aV
aV
aV181
p636
aV14605
p637
aV7
aV13
p638
aV24
p639
aV1
aV0.5
p640
aV83.7
p641
aV2
aV4
aV7.00
p642
aasS'id'
p643
V89925
p644
sb.