(i__main__
Player
p1
(dp2
S'name'
p3
VRoberto Pereyra 
p4
sS'offensive_data'
p5
(lp6
(lp7
a(lp8
V2018/2019
p9
aVWatford
p10
aVEPL
p11
aV17
p12
aV1454
p13
aV5
aV-
aV1
aV-
aV2.1
p14
aV81
p15
aV-
aV1
aV6.71
p16
aa(lp17
V2017/2018
p18
aVWatford
p19
aVEPL
p20
aV18(14)
p21
aV1622
p22
aV5
aV2
aV3
aV-
aV1
aV84.9
p23
aV0.1
p24
aV1
aV6.51
p25
aa(lp26
V2016/2017
p27
aVWatford
p28
aVEPL
p29
aV12(1)
p30
aV1040
p31
aV2
aV2
aV2
aV1
aV0.7
p32
aV83.6
p33
aV0.2
p34
aV1
aV6.62
p35
aa(lp36
V2015/2016
p37
aVJuventus
p38
aVISA
p39
aV9(4)
p40
aV798
p41
aV-
aV1
aV-
aV-
aV0.8
p42
aV90.5
p43
aV-
aV1
aV6.84
p44
aa(lp45
V2015/2016
p46
aVJuventus
p47
aVUCL
p48
aV0(2)
p49
aV61
p50
aV-
aV-
aV1
aV-
aV-
aV87
p51
aV-
aV-
aV6.21
p52
aa(lp53
V2015
p54
aVArgentina
p55
aVICA
p56
aV0(2)
p57
aV32
p58
aV-
aV-
aV-
aV-
aV-
aV72.2
p59
aV-
aV-
aV6.03
p60
aa(lp61
V2014/2015
p62
aVJuventus
p63
aVISA
p64
aV27(8)
p65
aV2281
p66
aV4
aV3
aV2
aV-
aV0.9
p67
aV86.3
p68
aV0.1
p69
aV-
aV6.88
p70
aa(lp71
V2014/2015
p72
aVJuventus
p73
aVUCL
p74
aV3(9)
p75
aV388
p76
aV-
aV1
aV2
aV-
aV0.3
p77
aV86.4
p78
aV0.1
p79
aV-
aV6.37
p80
aa(lp81
V2013/2014
p82
aVUdinese
p83
aVISA
p84
aV33(3)
p85
aV2950
p86
aV2
aV6
aV6
aV-
aV0.5
p87
aV87.5
p88
aV0.4
p89
aV-
aV6.95
p90
aa(lp91
V2012/2013
p92
aVUdinese
p93
aVISA
p94
aV31(6)
p95
aV2808
p96
aV5
aV1
aV2
aV-
aV0.4
p97
aV86.2
p98
aV0.3
p99
aV1
aV6.88
p100
aa(lp101
V2012/2013
p102
aVUdinese
p103
aVUEL
p104
aV5(1)
p105
aV456
p106
aV-
aV-
aV1
aV-
aV0.3
p107
aV81.3
p108
aV0.2
p109
aV-
aV6.49
p110
aa(lp111
V2011/2012
p112
aVUdinese
p113
aVISA
p114
aV7(4)
p115
aV667
p116
aV1
aV1
aV3
aV-
aV0.4
p117
aV88.4
p118
aV0.2
p119
aV-
aV6.76
p120
aa(lp121
VTotal / Average
p122
aV
aV
aV216
p123
aV14557
p124
aV24
p125
aV17
p126
aV23
p127
aV1
aV0.7
p128
aV85.8
p129
aV0.2
p130
aV5
aV6.74
p131
aasS'url'
p132
S'https://www.whoscored.com/Players/90000/History/'
p133
sS'passing_data'
p134
(lp135
(lp136
a(lp137
V2018/2019
p138
aVWatford
p139
aVEPL
p140
aV17
p141
aV1454
p142
aV5
aV-
aV1
aV-
aV2.1
p143
aV81
p144
aV-
aV1
aV6.71
p145
aa(lp146
V2017/2018
p147
aVWatford
p148
aVEPL
p149
aV18(14)
p150
aV1622
p151
aV5
aV2
aV3
aV-
aV1
aV84.9
p152
aV0.1
p153
aV1
aV6.51
p154
aa(lp155
V2016/2017
p156
aVWatford
p157
aVEPL
p158
aV12(1)
p159
aV1040
p160
aV2
aV2
aV2
aV1
aV0.7
p161
aV83.6
p162
aV0.2
p163
aV1
aV6.62
p164
aa(lp165
V2015/2016
p166
aVJuventus
p167
aVISA
p168
aV9(4)
p169
aV798
p170
aV-
aV1
aV-
aV-
aV0.8
p171
aV90.5
p172
aV-
aV1
aV6.84
p173
aa(lp174
V2015/2016
p175
aVJuventus
p176
aVUCL
p177
aV0(2)
p178
aV61
p179
aV-
aV-
aV1
aV-
aV-
aV87
p180
aV-
aV-
aV6.21
p181
aa(lp182
V2015
p183
aVArgentina
p184
aVICA
p185
aV0(2)
p186
aV32
p187
aV-
aV-
aV-
aV-
aV-
aV72.2
p188
aV-
aV-
aV6.03
p189
aa(lp190
V2014/2015
p191
aVJuventus
p192
aVISA
p193
aV27(8)
p194
aV2281
p195
aV4
aV3
aV2
aV-
aV0.9
p196
aV86.3
p197
aV0.1
p198
aV-
aV6.88
p199
aa(lp200
V2014/2015
p201
aVJuventus
p202
aVUCL
p203
aV3(9)
p204
aV388
p205
aV-
aV1
aV2
aV-
aV0.3
p206
aV86.4
p207
aV0.1
p208
aV-
aV6.37
p209
aa(lp210
V2013/2014
p211
aVUdinese
p212
aVISA
p213
aV33(3)
p214
aV2950
p215
aV2
aV6
aV6
aV-
aV0.5
p216
aV87.5
p217
aV0.4
p218
aV-
aV6.95
p219
aa(lp220
V2012/2013
p221
aVUdinese
p222
aVISA
p223
aV31(6)
p224
aV2808
p225
aV5
aV1
aV2
aV-
aV0.4
p226
aV86.2
p227
aV0.3
p228
aV1
aV6.88
p229
aa(lp230
V2012/2013
p231
aVUdinese
p232
aVUEL
p233
aV5(1)
p234
aV456
p235
aV-
aV-
aV1
aV-
aV0.3
p236
aV81.3
p237
aV0.2
p238
aV-
aV6.49
p239
aa(lp240
V2011/2012
p241
aVUdinese
p242
aVISA
p243
aV7(4)
p244
aV667
p245
aV1
aV1
aV3
aV-
aV0.4
p246
aV88.4
p247
aV0.2
p248
aV-
aV6.76
p249
aa(lp250
VTotal / Average
p251
aV
aV
aV216
p252
aV14557
p253
aV24
p254
aV17
p255
aV23
p256
aV1
aV0.7
p257
aV85.8
p258
aV0.2
p259
aV5
aV6.74
p260
aasS'defensive_data'
p261
(lp262
(lp263
a(lp264
V2018/2019
p265
aVWatford
p266
aVEPL
p267
aV17
p268
aV1454
p269
aV5
aV-
aV1
aV-
aV2.1
p270
aV81
p271
aV-
aV1
aV6.71
p272
aa(lp273
V2017/2018
p274
aVWatford
p275
aVEPL
p276
aV18(14)
p277
aV1622
p278
aV5
aV2
aV3
aV-
aV1
aV84.9
p279
aV0.1
p280
aV1
aV6.51
p281
aa(lp282
V2016/2017
p283
aVWatford
p284
aVEPL
p285
aV12(1)
p286
aV1040
p287
aV2
aV2
aV2
aV1
aV0.7
p288
aV83.6
p289
aV0.2
p290
aV1
aV6.62
p291
aa(lp292
V2015/2016
p293
aVJuventus
p294
aVISA
p295
aV9(4)
p296
aV798
p297
aV-
aV1
aV-
aV-
aV0.8
p298
aV90.5
p299
aV-
aV1
aV6.84
p300
aa(lp301
V2015/2016
p302
aVJuventus
p303
aVUCL
p304
aV0(2)
p305
aV61
p306
aV-
aV-
aV1
aV-
aV-
aV87
p307
aV-
aV-
aV6.21
p308
aa(lp309
V2015
p310
aVArgentina
p311
aVICA
p312
aV0(2)
p313
aV32
p314
aV-
aV-
aV-
aV-
aV-
aV72.2
p315
aV-
aV-
aV6.03
p316
aa(lp317
V2014/2015
p318
aVJuventus
p319
aVISA
p320
aV27(8)
p321
aV2281
p322
aV4
aV3
aV2
aV-
aV0.9
p323
aV86.3
p324
aV0.1
p325
aV-
aV6.88
p326
aa(lp327
V2014/2015
p328
aVJuventus
p329
aVUCL
p330
aV3(9)
p331
aV388
p332
aV-
aV1
aV2
aV-
aV0.3
p333
aV86.4
p334
aV0.1
p335
aV-
aV6.37
p336
aa(lp337
V2013/2014
p338
aVUdinese
p339
aVISA
p340
aV33(3)
p341
aV2950
p342
aV2
aV6
aV6
aV-
aV0.5
p343
aV87.5
p344
aV0.4
p345
aV-
aV6.95
p346
aa(lp347
V2012/2013
p348
aVUdinese
p349
aVISA
p350
aV31(6)
p351
aV2808
p352
aV5
aV1
aV2
aV-
aV0.4
p353
aV86.2
p354
aV0.3
p355
aV1
aV6.88
p356
aa(lp357
V2012/2013
p358
aVUdinese
p359
aVUEL
p360
aV5(1)
p361
aV456
p362
aV-
aV-
aV1
aV-
aV0.3
p363
aV81.3
p364
aV0.2
p365
aV-
aV6.49
p366
aa(lp367
V2011/2012
p368
aVUdinese
p369
aVISA
p370
aV7(4)
p371
aV667
p372
aV1
aV1
aV3
aV-
aV0.4
p373
aV88.4
p374
aV0.2
p375
aV-
aV6.76
p376
aa(lp377
VTotal / Average
p378
aV
aV
aV216
p379
aV14557
p380
aV24
p381
aV17
p382
aV23
p383
aV1
aV0.7
p384
aV85.8
p385
aV0.2
p386
aV5
aV6.74
p387
aasS'sumary_data'
p388
(lp389
(lp390
a(lp391
V2018/2019
p392
aVWatford
p393
aVEPL
p394
aV17
p395
aV1454
p396
aV5
aV-
aV1
aV-
aV2.1
p397
aV81
p398
aV-
aV1
aV6.71
p399
aa(lp400
V2017/2018
p401
aVWatford
p402
aVEPL
p403
aV18(14)
p404
aV1622
p405
aV5
aV2
aV3
aV-
aV1
aV84.9
p406
aV0.1
p407
aV1
aV6.51
p408
aa(lp409
V2016/2017
p410
aVWatford
p411
aVEPL
p412
aV12(1)
p413
aV1040
p414
aV2
aV2
aV2
aV1
aV0.7
p415
aV83.6
p416
aV0.2
p417
aV1
aV6.62
p418
aa(lp419
V2015/2016
p420
aVJuventus
p421
aVISA
p422
aV9(4)
p423
aV798
p424
aV-
aV1
aV-
aV-
aV0.8
p425
aV90.5
p426
aV-
aV1
aV6.84
p427
aa(lp428
V2015/2016
p429
aVJuventus
p430
aVUCL
p431
aV0(2)
p432
aV61
p433
aV-
aV-
aV1
aV-
aV-
aV87
p434
aV-
aV-
aV6.21
p435
aa(lp436
V2015
p437
aVArgentina
p438
aVICA
p439
aV0(2)
p440
aV32
p441
aV-
aV-
aV-
aV-
aV-
aV72.2
p442
aV-
aV-
aV6.03
p443
aa(lp444
V2014/2015
p445
aVJuventus
p446
aVISA
p447
aV27(8)
p448
aV2281
p449
aV4
aV3
aV2
aV-
aV0.9
p450
aV86.3
p451
aV0.1
p452
aV-
aV6.88
p453
aa(lp454
V2014/2015
p455
aVJuventus
p456
aVUCL
p457
aV3(9)
p458
aV388
p459
aV-
aV1
aV2
aV-
aV0.3
p460
aV86.4
p461
aV0.1
p462
aV-
aV6.37
p463
aa(lp464
V2013/2014
p465
aVUdinese
p466
aVISA
p467
aV33(3)
p468
aV2950
p469
aV2
aV6
aV6
aV-
aV0.5
p470
aV87.5
p471
aV0.4
p472
aV-
aV6.95
p473
aa(lp474
V2012/2013
p475
aVUdinese
p476
aVISA
p477
aV31(6)
p478
aV2808
p479
aV5
aV1
aV2
aV-
aV0.4
p480
aV86.2
p481
aV0.3
p482
aV1
aV6.88
p483
aa(lp484
V2012/2013
p485
aVUdinese
p486
aVUEL
p487
aV5(1)
p488
aV456
p489
aV-
aV-
aV1
aV-
aV0.3
p490
aV81.3
p491
aV0.2
p492
aV-
aV6.49
p493
aa(lp494
V2011/2012
p495
aVUdinese
p496
aVISA
p497
aV7(4)
p498
aV667
p499
aV1
aV1
aV3
aV-
aV0.4
p500
aV88.4
p501
aV0.2
p502
aV-
aV6.76
p503
aa(lp504
VTotal / Average
p505
aV
aV
aV216
p506
aV14557
p507
aV24
p508
aV17
p509
aV23
p510
aV1
aV0.7
p511
aV85.8
p512
aV0.2
p513
aV5
aV6.74
p514
aasS'id'
p515
V90000
p516
sb.