(i__main__
Player
p1
(dp2
S'name'
p3
VNampalys Mendy 
p4
sS'offensive_data'
p5
(lp6
(lp7
a(lp8
V2018/2019
p9
aVLeicester
p10
aVEPL
p11
aV15
p12
aV1320
p13
aV-
aV-
aV2
aV-
aV0.1
p14
aV89.5
p15
aV0.3
p16
aV-
aV6.48
p17
aa(lp18
V2017/2018
p19
aVNice
p20
aVUEL
p21
aV3(1)
p22
aV272
p23
aV-
aV-
aV1
aV-
aV-
aV95.9
p24
aV0.3
p25
aV-
aV6.64
p26
aa(lp27
V2017/2018
p28
aVNice
p29
aVFL1
p30
aV11(3)
p31
aV967
p32
aV-
aV1
aV2
aV-
aV0.1
p33
aV90.7
p34
aV0.2
p35
aV-
aV6.27
p36
aa(lp37
V2016/2017
p38
aVLeicester
p39
aVUCL
p40
aV1
aV90
p41
aV-
aV-
aV-
aV-
aV-
aV88.5
p42
aV-
aV-
aV5.84
p43
aa(lp44
V2016/2017
p45
aVLeicester
p46
aVEPL
p47
aV4
aV272
p48
aV-
aV-
aV1
aV-
aV-
aV81.1
p49
aV1
aV-
aV6.38
p50
aa(lp51
V2015/2016
p52
aVNice
p53
aVFL1
p54
aV38
p55
aV3392
p56
aV1
aV2
aV2
aV1
aV0.2
p57
aV92.1
p58
aV0.2
p59
aV-
aV6.84
p60
aa(lp61
V2014/2015
p62
aVNice
p63
aVFL1
p64
aV36
p65
aV3240
p66
aV-
aV-
aV5
aV-
aV0.3
p67
aV84.2
p68
aV0.4
p69
aV-
aV6.70
p70
aa(lp71
V2013/2014
p72
aVNice
p73
aVFL1
p74
aV36
p75
aV3110
p76
aV-
aV1
aV5
aV-
aV0.3
p77
aV87.8
p78
aV0.5
p79
aV-
aV6.57
p80
aa(lp81
V2010/2011
p82
aVMonaco
p83
aVFL1
p84
aV13(1)
p85
aV1087
p86
aV-
aV-
aV3
aV-
aV0.2
p87
aV83.1
p88
aV0.3
p89
aV-
aV6.52
p90
aa(lp91
VTotal / Average
p92
aV
aV
aV162
p93
aV13750
p94
aV1
aV4
aV21
p95
aV1
aV0.2
p96
aV88.1
p97
aV0.3
p98
aV0
aV6.62
p99
aasS'url'
p100
S'https://www.whoscored.com/Players/90278/History/'
p101
sS'passing_data'
p102
(lp103
(lp104
a(lp105
V2018/2019
p106
aVLeicester
p107
aVEPL
p108
aV15
p109
aV1320
p110
aV-
aV-
aV2
aV-
aV0.1
p111
aV89.5
p112
aV0.3
p113
aV-
aV6.48
p114
aa(lp115
V2017/2018
p116
aVNice
p117
aVUEL
p118
aV3(1)
p119
aV272
p120
aV-
aV-
aV1
aV-
aV-
aV95.9
p121
aV0.3
p122
aV-
aV6.64
p123
aa(lp124
V2017/2018
p125
aVNice
p126
aVFL1
p127
aV11(3)
p128
aV967
p129
aV-
aV1
aV2
aV-
aV0.1
p130
aV90.7
p131
aV0.2
p132
aV-
aV6.27
p133
aa(lp134
V2016/2017
p135
aVLeicester
p136
aVUCL
p137
aV1
aV90
p138
aV-
aV-
aV-
aV-
aV-
aV88.5
p139
aV-
aV-
aV5.84
p140
aa(lp141
V2016/2017
p142
aVLeicester
p143
aVEPL
p144
aV4
aV272
p145
aV-
aV-
aV1
aV-
aV-
aV81.1
p146
aV1
aV-
aV6.38
p147
aa(lp148
V2015/2016
p149
aVNice
p150
aVFL1
p151
aV38
p152
aV3392
p153
aV1
aV2
aV2
aV1
aV0.2
p154
aV92.1
p155
aV0.2
p156
aV-
aV6.84
p157
aa(lp158
V2014/2015
p159
aVNice
p160
aVFL1
p161
aV36
p162
aV3240
p163
aV-
aV-
aV5
aV-
aV0.3
p164
aV84.2
p165
aV0.4
p166
aV-
aV6.70
p167
aa(lp168
V2013/2014
p169
aVNice
p170
aVFL1
p171
aV36
p172
aV3110
p173
aV-
aV1
aV5
aV-
aV0.3
p174
aV87.8
p175
aV0.5
p176
aV-
aV6.57
p177
aa(lp178
V2010/2011
p179
aVMonaco
p180
aVFL1
p181
aV13(1)
p182
aV1087
p183
aV-
aV-
aV3
aV-
aV0.2
p184
aV83.1
p185
aV0.3
p186
aV-
aV6.52
p187
aa(lp188
VTotal / Average
p189
aV
aV
aV162
p190
aV13750
p191
aV1
aV4
aV21
p192
aV1
aV0.2
p193
aV88.1
p194
aV0.3
p195
aV0
aV6.62
p196
aasS'defensive_data'
p197
(lp198
(lp199
a(lp200
V2018/2019
p201
aVLeicester
p202
aVEPL
p203
aV15
p204
aV1320
p205
aV-
aV-
aV2
aV-
aV0.1
p206
aV89.5
p207
aV0.3
p208
aV-
aV6.48
p209
aa(lp210
V2017/2018
p211
aVNice
p212
aVUEL
p213
aV3(1)
p214
aV272
p215
aV-
aV-
aV1
aV-
aV-
aV95.9
p216
aV0.3
p217
aV-
aV6.64
p218
aa(lp219
V2017/2018
p220
aVNice
p221
aVFL1
p222
aV11(3)
p223
aV967
p224
aV-
aV1
aV2
aV-
aV0.1
p225
aV90.7
p226
aV0.2
p227
aV-
aV6.27
p228
aa(lp229
V2016/2017
p230
aVLeicester
p231
aVUCL
p232
aV1
aV90
p233
aV-
aV-
aV-
aV-
aV-
aV88.5
p234
aV-
aV-
aV5.84
p235
aa(lp236
V2016/2017
p237
aVLeicester
p238
aVEPL
p239
aV4
aV272
p240
aV-
aV-
aV1
aV-
aV-
aV81.1
p241
aV1
aV-
aV6.38
p242
aa(lp243
V2015/2016
p244
aVNice
p245
aVFL1
p246
aV38
p247
aV3392
p248
aV1
aV2
aV2
aV1
aV0.2
p249
aV92.1
p250
aV0.2
p251
aV-
aV6.84
p252
aa(lp253
V2014/2015
p254
aVNice
p255
aVFL1
p256
aV36
p257
aV3240
p258
aV-
aV-
aV5
aV-
aV0.3
p259
aV84.2
p260
aV0.4
p261
aV-
aV6.70
p262
aa(lp263
V2013/2014
p264
aVNice
p265
aVFL1
p266
aV36
p267
aV3110
p268
aV-
aV1
aV5
aV-
aV0.3
p269
aV87.8
p270
aV0.5
p271
aV-
aV6.57
p272
aa(lp273
V2010/2011
p274
aVMonaco
p275
aVFL1
p276
aV13(1)
p277
aV1087
p278
aV-
aV-
aV3
aV-
aV0.2
p279
aV83.1
p280
aV0.3
p281
aV-
aV6.52
p282
aa(lp283
VTotal / Average
p284
aV
aV
aV162
p285
aV13750
p286
aV1
aV4
aV21
p287
aV1
aV0.2
p288
aV88.1
p289
aV0.3
p290
aV0
aV6.62
p291
aasS'sumary_data'
p292
(lp293
(lp294
a(lp295
V2018/2019
p296
aVLeicester
p297
aVEPL
p298
aV15
p299
aV1320
p300
aV-
aV-
aV2
aV-
aV0.1
p301
aV89.5
p302
aV0.3
p303
aV-
aV6.48
p304
aa(lp305
V2017/2018
p306
aVNice
p307
aVUEL
p308
aV3(1)
p309
aV272
p310
aV-
aV-
aV1
aV-
aV-
aV95.9
p311
aV0.3
p312
aV-
aV6.64
p313
aa(lp314
V2017/2018
p315
aVNice
p316
aVFL1
p317
aV11(3)
p318
aV967
p319
aV-
aV1
aV2
aV-
aV0.1
p320
aV90.7
p321
aV0.2
p322
aV-
aV6.27
p323
aa(lp324
V2016/2017
p325
aVLeicester
p326
aVUCL
p327
aV1
aV90
p328
aV-
aV-
aV-
aV-
aV-
aV88.5
p329
aV-
aV-
aV5.84
p330
aa(lp331
V2016/2017
p332
aVLeicester
p333
aVEPL
p334
aV4
aV272
p335
aV-
aV-
aV1
aV-
aV-
aV81.1
p336
aV1
aV-
aV6.38
p337
aa(lp338
V2015/2016
p339
aVNice
p340
aVFL1
p341
aV38
p342
aV3392
p343
aV1
aV2
aV2
aV1
aV0.2
p344
aV92.1
p345
aV0.2
p346
aV-
aV6.84
p347
aa(lp348
V2014/2015
p349
aVNice
p350
aVFL1
p351
aV36
p352
aV3240
p353
aV-
aV-
aV5
aV-
aV0.3
p354
aV84.2
p355
aV0.4
p356
aV-
aV6.70
p357
aa(lp358
V2013/2014
p359
aVNice
p360
aVFL1
p361
aV36
p362
aV3110
p363
aV-
aV1
aV5
aV-
aV0.3
p364
aV87.8
p365
aV0.5
p366
aV-
aV6.57
p367
aa(lp368
V2010/2011
p369
aVMonaco
p370
aVFL1
p371
aV13(1)
p372
aV1087
p373
aV-
aV-
aV3
aV-
aV0.2
p374
aV83.1
p375
aV0.3
p376
aV-
aV6.52
p377
aa(lp378
VTotal / Average
p379
aV
aV
aV162
p380
aV13750
p381
aV1
aV4
aV21
p382
aV1
aV0.2
p383
aV88.1
p384
aV0.3
p385
aV0
aV6.62
p386
aasS'id'
p387
V90278
p388
sb.