(i__main__
Player
p1
(dp2
S'name'
p3
VOriol Romeu 
p4
sS'offensive_data'
p5
(lp6
(lp7
a(lp8
V2018/2019
p9
aVSouthampton
p10
aVEPL
p11
aV6(4)
p12
aV535
p13
aV-
aV-
aV4
aV-
aV0.2
p14
aV82.9
p15
aV0.9
p16
aV-
aV6.44
p17
aa(lp18
V2017/2018
p19
aVSouthampton
p20
aVEPL
p21
aV34
p22
aV2903
p23
aV1
aV-
aV11
p24
aV-
aV0.8
p25
aV82.6
p26
aV2.9
p27
aV1
aV6.92
p28
aa(lp29
V2016/2017
p30
aVSouthampton
p31
aVEPL
p32
aV35
p33
aV3072
p34
aV1
aV-
aV11
p35
aV-
aV0.8
p36
aV84.2
p37
aV2.1
p38
aV1
aV7.15
p39
aa(lp40
V2016/2017
p41
aVSouthampton
p42
aVUEL
p43
aV5(1)
p44
aV478
p45
aV-
aV-
aV1
aV-
aV1.3
p46
aV86.8
p47
aV2.8
p48
aV-
aV6.74
p49
aa(lp50
V2015/2016
p51
aVSouthampton
p52
aVEPL
p53
aV17(12)
p54
aV1609
p55
aV1
aV-
aV7
aV-
aV1
aV85
p56
aV0.9
p57
aV-
aV6.80
p58
aa(lp59
V2014/2015
p60
aVVfB Stuttgart
p61
aVGB
p62
aV20(7)
p63
aV1824
p64
aV-
aV-
aV6
aV-
aV0.4
p65
aV83
p66
aV2.1
p67
aV-
aV6.72
p68
aa(lp69
V2013/2014
p70
aVValencia
p71
aVSLL
p72
aV11(2)
p73
aV998
p74
aV-
aV-
aV3
aV-
aV0.2
p75
aV88.6
p76
aV1.9
p77
aV-
aV6.68
p78
aa(lp79
V2013/2014
p80
aVValencia
p81
aVUEL
p82
aV4(1)
p83
aV285
p84
aV-
aV-
aV1
aV-
aV-
aV91.8
p85
aV3
aV-
aV6.97
p86
aa(lp87
V2012/2013
p88
aVChelsea
p89
aVUCL
p90
aV1
aV90
p91
aV-
aV-
aV-
aV-
aV2
aV91.6
p92
aV1
aV-
aV6.93
p93
aa(lp94
V2012/2013
p95
aVChelsea
p96
aVEPL
p97
aV4(2)
p98
aV237
p99
aV-
aV-
aV1
aV-
aV1
aV89.3
p100
aV1
aV-
aV6.49
p101
aa(lp102
V2011/2012
p103
aVChelsea
p104
aVUCL
p105
aV3
aV257
p106
aV-
aV-
aV1
aV-
aV0.7
p107
aV94.7
p108
aV0.3
p109
aV-
aV7.79
p110
aa(lp111
V2011/2012
p112
aVChelsea
p113
aVEPL
p114
aV11(5)
p115
aV951
p116
aV-
aV-
aV2
aV-
aV0.4
p117
aV89.5
p118
aV0.5
p119
aV-
aV6.72
p120
aa(lp121
V2010/2011
p122
aVBarcelona
p123
aVSLL
p124
aV0(1)
p125
aV8
aV-
aV-
aV-
aV-
aV-
aV100
p126
aV-
aV-
aV6.23
p127
aa(lp128
VTotal / Average
p129
aV
aV
aV186
p130
aV13247
p131
aV3
aV0
aV48
p132
aV0
aV0.7
p133
aV85.3
p134
aV1.8
p135
aV2
aV6.85
p136
aasS'url'
p137
S'https://www.whoscored.com/Players/90780/History/'
p138
sS'passing_data'
p139
(lp140
(lp141
a(lp142
V2018/2019
p143
aVSouthampton
p144
aVEPL
p145
aV6(4)
p146
aV535
p147
aV-
aV-
aV4
aV-
aV0.2
p148
aV82.9
p149
aV0.9
p150
aV-
aV6.44
p151
aa(lp152
V2017/2018
p153
aVSouthampton
p154
aVEPL
p155
aV34
p156
aV2903
p157
aV1
aV-
aV11
p158
aV-
aV0.8
p159
aV82.6
p160
aV2.9
p161
aV1
aV6.92
p162
aa(lp163
V2016/2017
p164
aVSouthampton
p165
aVEPL
p166
aV35
p167
aV3072
p168
aV1
aV-
aV11
p169
aV-
aV0.8
p170
aV84.2
p171
aV2.1
p172
aV1
aV7.15
p173
aa(lp174
V2016/2017
p175
aVSouthampton
p176
aVUEL
p177
aV5(1)
p178
aV478
p179
aV-
aV-
aV1
aV-
aV1.3
p180
aV86.8
p181
aV2.8
p182
aV-
aV6.74
p183
aa(lp184
V2015/2016
p185
aVSouthampton
p186
aVEPL
p187
aV17(12)
p188
aV1609
p189
aV1
aV-
aV7
aV-
aV1
aV85
p190
aV0.9
p191
aV-
aV6.80
p192
aa(lp193
V2014/2015
p194
aVVfB Stuttgart
p195
aVGB
p196
aV20(7)
p197
aV1824
p198
aV-
aV-
aV6
aV-
aV0.4
p199
aV83
p200
aV2.1
p201
aV-
aV6.72
p202
aa(lp203
V2013/2014
p204
aVValencia
p205
aVSLL
p206
aV11(2)
p207
aV998
p208
aV-
aV-
aV3
aV-
aV0.2
p209
aV88.6
p210
aV1.9
p211
aV-
aV6.68
p212
aa(lp213
V2013/2014
p214
aVValencia
p215
aVUEL
p216
aV4(1)
p217
aV285
p218
aV-
aV-
aV1
aV-
aV-
aV91.8
p219
aV3
aV-
aV6.97
p220
aa(lp221
V2012/2013
p222
aVChelsea
p223
aVUCL
p224
aV1
aV90
p225
aV-
aV-
aV-
aV-
aV2
aV91.6
p226
aV1
aV-
aV6.93
p227
aa(lp228
V2012/2013
p229
aVChelsea
p230
aVEPL
p231
aV4(2)
p232
aV237
p233
aV-
aV-
aV1
aV-
aV1
aV89.3
p234
aV1
aV-
aV6.49
p235
aa(lp236
V2011/2012
p237
aVChelsea
p238
aVUCL
p239
aV3
aV257
p240
aV-
aV-
aV1
aV-
aV0.7
p241
aV94.7
p242
aV0.3
p243
aV-
aV7.79
p244
aa(lp245
V2011/2012
p246
aVChelsea
p247
aVEPL
p248
aV11(5)
p249
aV951
p250
aV-
aV-
aV2
aV-
aV0.4
p251
aV89.5
p252
aV0.5
p253
aV-
aV6.72
p254
aa(lp255
V2010/2011
p256
aVBarcelona
p257
aVSLL
p258
aV0(1)
p259
aV8
aV-
aV-
aV-
aV-
aV-
aV100
p260
aV-
aV-
aV6.23
p261
aa(lp262
VTotal / Average
p263
aV
aV
aV186
p264
aV13247
p265
aV3
aV0
aV48
p266
aV0
aV0.7
p267
aV85.3
p268
aV1.8
p269
aV2
aV6.85
p270
aasS'defensive_data'
p271
(lp272
(lp273
a(lp274
V2018/2019
p275
aVSouthampton
p276
aVEPL
p277
aV6(4)
p278
aV535
p279
aV-
aV-
aV4
aV-
aV0.2
p280
aV82.9
p281
aV0.9
p282
aV-
aV6.44
p283
aa(lp284
V2017/2018
p285
aVSouthampton
p286
aVEPL
p287
aV34
p288
aV2903
p289
aV1
aV-
aV11
p290
aV-
aV0.8
p291
aV82.6
p292
aV2.9
p293
aV1
aV6.92
p294
aa(lp295
V2016/2017
p296
aVSouthampton
p297
aVEPL
p298
aV35
p299
aV3072
p300
aV1
aV-
aV11
p301
aV-
aV0.8
p302
aV84.2
p303
aV2.1
p304
aV1
aV7.15
p305
aa(lp306
V2016/2017
p307
aVSouthampton
p308
aVUEL
p309
aV5(1)
p310
aV478
p311
aV-
aV-
aV1
aV-
aV1.3
p312
aV86.8
p313
aV2.8
p314
aV-
aV6.74
p315
aa(lp316
V2015/2016
p317
aVSouthampton
p318
aVEPL
p319
aV17(12)
p320
aV1609
p321
aV1
aV-
aV7
aV-
aV1
aV85
p322
aV0.9
p323
aV-
aV6.80
p324
aa(lp325
V2014/2015
p326
aVVfB Stuttgart
p327
aVGB
p328
aV20(7)
p329
aV1824
p330
aV-
aV-
aV6
aV-
aV0.4
p331
aV83
p332
aV2.1
p333
aV-
aV6.72
p334
aa(lp335
V2013/2014
p336
aVValencia
p337
aVSLL
p338
aV11(2)
p339
aV998
p340
aV-
aV-
aV3
aV-
aV0.2
p341
aV88.6
p342
aV1.9
p343
aV-
aV6.68
p344
aa(lp345
V2013/2014
p346
aVValencia
p347
aVUEL
p348
aV4(1)
p349
aV285
p350
aV-
aV-
aV1
aV-
aV-
aV91.8
p351
aV3
aV-
aV6.97
p352
aa(lp353
V2012/2013
p354
aVChelsea
p355
aVUCL
p356
aV1
aV90
p357
aV-
aV-
aV-
aV-
aV2
aV91.6
p358
aV1
aV-
aV6.93
p359
aa(lp360
V2012/2013
p361
aVChelsea
p362
aVEPL
p363
aV4(2)
p364
aV237
p365
aV-
aV-
aV1
aV-
aV1
aV89.3
p366
aV1
aV-
aV6.49
p367
aa(lp368
V2011/2012
p369
aVChelsea
p370
aVUCL
p371
aV3
aV257
p372
aV-
aV-
aV1
aV-
aV0.7
p373
aV94.7
p374
aV0.3
p375
aV-
aV7.79
p376
aa(lp377
V2011/2012
p378
aVChelsea
p379
aVEPL
p380
aV11(5)
p381
aV951
p382
aV-
aV-
aV2
aV-
aV0.4
p383
aV89.5
p384
aV0.5
p385
aV-
aV6.72
p386
aa(lp387
V2010/2011
p388
aVBarcelona
p389
aVSLL
p390
aV0(1)
p391
aV8
aV-
aV-
aV-
aV-
aV-
aV100
p392
aV-
aV-
aV6.23
p393
aa(lp394
VTotal / Average
p395
aV
aV
aV186
p396
aV13247
p397
aV3
aV0
aV48
p398
aV0
aV0.7
p399
aV85.3
p400
aV1.8
p401
aV2
aV6.85
p402
aasS'sumary_data'
p403
(lp404
(lp405
a(lp406
V2018/2019
p407
aVSouthampton
p408
aVEPL
p409
aV6(4)
p410
aV535
p411
aV-
aV-
aV4
aV-
aV0.2
p412
aV82.9
p413
aV0.9
p414
aV-
aV6.44
p415
aa(lp416
V2017/2018
p417
aVSouthampton
p418
aVEPL
p419
aV34
p420
aV2903
p421
aV1
aV-
aV11
p422
aV-
aV0.8
p423
aV82.6
p424
aV2.9
p425
aV1
aV6.92
p426
aa(lp427
V2016/2017
p428
aVSouthampton
p429
aVEPL
p430
aV35
p431
aV3072
p432
aV1
aV-
aV11
p433
aV-
aV0.8
p434
aV84.2
p435
aV2.1
p436
aV1
aV7.15
p437
aa(lp438
V2016/2017
p439
aVSouthampton
p440
aVUEL
p441
aV5(1)
p442
aV478
p443
aV-
aV-
aV1
aV-
aV1.3
p444
aV86.8
p445
aV2.8
p446
aV-
aV6.74
p447
aa(lp448
V2015/2016
p449
aVSouthampton
p450
aVEPL
p451
aV17(12)
p452
aV1609
p453
aV1
aV-
aV7
aV-
aV1
aV85
p454
aV0.9
p455
aV-
aV6.80
p456
aa(lp457
V2014/2015
p458
aVVfB Stuttgart
p459
aVGB
p460
aV20(7)
p461
aV1824
p462
aV-
aV-
aV6
aV-
aV0.4
p463
aV83
p464
aV2.1
p465
aV-
aV6.72
p466
aa(lp467
V2013/2014
p468
aVValencia
p469
aVSLL
p470
aV11(2)
p471
aV998
p472
aV-
aV-
aV3
aV-
aV0.2
p473
aV88.6
p474
aV1.9
p475
aV-
aV6.68
p476
aa(lp477
V2013/2014
p478
aVValencia
p479
aVUEL
p480
aV4(1)
p481
aV285
p482
aV-
aV-
aV1
aV-
aV-
aV91.8
p483
aV3
aV-
aV6.97
p484
aa(lp485
V2012/2013
p486
aVChelsea
p487
aVUCL
p488
aV1
aV90
p489
aV-
aV-
aV-
aV-
aV2
aV91.6
p490
aV1
aV-
aV6.93
p491
aa(lp492
V2012/2013
p493
aVChelsea
p494
aVEPL
p495
aV4(2)
p496
aV237
p497
aV-
aV-
aV1
aV-
aV1
aV89.3
p498
aV1
aV-
aV6.49
p499
aa(lp500
V2011/2012
p501
aVChelsea
p502
aVUCL
p503
aV3
aV257
p504
aV-
aV-
aV1
aV-
aV0.7
p505
aV94.7
p506
aV0.3
p507
aV-
aV7.79
p508
aa(lp509
V2011/2012
p510
aVChelsea
p511
aVEPL
p512
aV11(5)
p513
aV951
p514
aV-
aV-
aV2
aV-
aV0.4
p515
aV89.5
p516
aV0.5
p517
aV-
aV6.72
p518
aa(lp519
V2010/2011
p520
aVBarcelona
p521
aVSLL
p522
aV0(1)
p523
aV8
aV-
aV-
aV-
aV-
aV-
aV100
p524
aV-
aV-
aV6.23
p525
aa(lp526
VTotal / Average
p527
aV
aV
aV186
p528
aV13247
p529
aV3
aV0
aV48
p530
aV0
aV0.7
p531
aV85.3
p532
aV1.8
p533
aV2
aV6.85
p534
aasS'id'
p535
V90780
p536
sb.