(i__main__
Player
p1
(dp2
S'name'
p3
VJason Puncheon 
p4
sS'offensive_data'
p5
(lp6
(lp7
a(lp8
V2018/2019
p9
aVCrystal Palac..
p10
aVEPL
p11
aV0(4)
p12
aV10
p13
aV-
aV-
aV-
aV-
aV-
aV75
p14
aV-
aV-
aV6.02
p15
aa(lp16
V2017/2018
p17
aVCrystal Palac..
p18
aVEPL
p19
aV6(4)
p20
aV571
p21
aV-
aV-
aV5
aV-
aV1
aV84
p22
aV0.4
p23
aV-
aV6.07
p24
aa(lp25
V2016/2017
p26
aVCrystal Palac..
p27
aVEPL
p28
aV35(1)
p29
aV3096
p30
aV-
aV5
aV9
aV-
aV1.3
p31
aV81.2
p32
aV0.7
p33
aV1
aV6.90
p34
aa(lp35
V2015/2016
p36
aVCrystal Palac..
p37
aVEPL
p38
aV31
p39
aV2625
p40
aV2
aV3
aV3
aV-
aV1.7
p41
aV80
p42
aV0.4
p43
aV1
aV6.98
p44
aa(lp45
V2014/2015
p46
aVCrystal Palac..
p47
aVEPL
p48
aV31(6)
p49
aV2825
p50
aV6
aV7
aV7
aV1
aV1.8
p51
aV76.4
p52
aV0.4
p53
aV2
aV6.99
p54
aa(lp55
V2013/2014
p56
aVCrystal Palac..
p57
aVEPL
p58
aV29(5)
p59
aV2516
p60
aV7
aV2
aV2
aV-
aV2.3
p61
aV78.5
p62
aV0.3
p63
aV4
aV7.02
p64
aa(lp65
V2012/2013
p66
aVSouthampton
p67
aVEPL
p68
aV25(7)
p69
aV2066
p70
aV5
aV1
aV1
aV-
aV2.1
p71
aV79
p72
aV0.3
p73
aV-
aV6.81
p74
aa(lp75
V2011/2012
p76
aVQueens Park R..
p77
aVEPL
p78
aV0(2)
p79
aV15
p80
aV-
aV-
aV-
aV-
aV-
aV87.5
p81
aV-
aV-
aV6.02
p82
aa(lp83
V2010/2011
p84
aVBlackpool
p85
aVEPL
p86
aV6(5)
p87
aV648
p88
aV3
aV-
aV-
aV-
aV1.9
p89
aV81.5
p90
aV0.3
p91
aV-
aV6.75
p92
aa(lp93
VTotal / Average
p94
aV
aV
aV197
p95
aV14372
p96
aV23
p97
aV18
p98
aV27
p99
aV1
aV1.7
p100
aV79.4
p101
aV0.4
p102
aV8
aV6.86
p103
aasS'url'
p104
S'https://www.whoscored.com/Players/9156/History/'
p105
sS'passing_data'
p106
(lp107
(lp108
a(lp109
V2018/2019
p110
aVCrystal Palac..
p111
aVEPL
p112
aV0(4)
p113
aV10
p114
aV-
aV-
aV-
aV-
aV-
aV75
p115
aV-
aV-
aV6.02
p116
aa(lp117
V2017/2018
p118
aVCrystal Palac..
p119
aVEPL
p120
aV6(4)
p121
aV571
p122
aV-
aV-
aV5
aV-
aV1
aV84
p123
aV0.4
p124
aV-
aV6.07
p125
aa(lp126
V2016/2017
p127
aVCrystal Palac..
p128
aVEPL
p129
aV35(1)
p130
aV3096
p131
aV-
aV5
aV9
aV-
aV1.3
p132
aV81.2
p133
aV0.7
p134
aV1
aV6.90
p135
aa(lp136
V2015/2016
p137
aVCrystal Palac..
p138
aVEPL
p139
aV31
p140
aV2625
p141
aV2
aV3
aV3
aV-
aV1.7
p142
aV80
p143
aV0.4
p144
aV1
aV6.98
p145
aa(lp146
V2014/2015
p147
aVCrystal Palac..
p148
aVEPL
p149
aV31(6)
p150
aV2825
p151
aV6
aV7
aV7
aV1
aV1.8
p152
aV76.4
p153
aV0.4
p154
aV2
aV6.99
p155
aa(lp156
V2013/2014
p157
aVCrystal Palac..
p158
aVEPL
p159
aV29(5)
p160
aV2516
p161
aV7
aV2
aV2
aV-
aV2.3
p162
aV78.5
p163
aV0.3
p164
aV4
aV7.02
p165
aa(lp166
V2012/2013
p167
aVSouthampton
p168
aVEPL
p169
aV25(7)
p170
aV2066
p171
aV5
aV1
aV1
aV-
aV2.1
p172
aV79
p173
aV0.3
p174
aV-
aV6.81
p175
aa(lp176
V2011/2012
p177
aVQueens Park R..
p178
aVEPL
p179
aV0(2)
p180
aV15
p181
aV-
aV-
aV-
aV-
aV-
aV87.5
p182
aV-
aV-
aV6.02
p183
aa(lp184
V2010/2011
p185
aVBlackpool
p186
aVEPL
p187
aV6(5)
p188
aV648
p189
aV3
aV-
aV-
aV-
aV1.9
p190
aV81.5
p191
aV0.3
p192
aV-
aV6.75
p193
aa(lp194
VTotal / Average
p195
aV
aV
aV197
p196
aV14372
p197
aV23
p198
aV18
p199
aV27
p200
aV1
aV1.7
p201
aV79.4
p202
aV0.4
p203
aV8
aV6.86
p204
aasS'defensive_data'
p205
(lp206
(lp207
a(lp208
V2018/2019
p209
aVCrystal Palac..
p210
aVEPL
p211
aV0(4)
p212
aV10
p213
aV-
aV-
aV-
aV-
aV-
aV75
p214
aV-
aV-
aV6.02
p215
aa(lp216
V2017/2018
p217
aVCrystal Palac..
p218
aVEPL
p219
aV6(4)
p220
aV571
p221
aV-
aV-
aV5
aV-
aV1
aV84
p222
aV0.4
p223
aV-
aV6.07
p224
aa(lp225
V2016/2017
p226
aVCrystal Palac..
p227
aVEPL
p228
aV35(1)
p229
aV3096
p230
aV-
aV5
aV9
aV-
aV1.3
p231
aV81.2
p232
aV0.7
p233
aV1
aV6.90
p234
aa(lp235
V2015/2016
p236
aVCrystal Palac..
p237
aVEPL
p238
aV31
p239
aV2625
p240
aV2
aV3
aV3
aV-
aV1.7
p241
aV80
p242
aV0.4
p243
aV1
aV6.98
p244
aa(lp245
V2014/2015
p246
aVCrystal Palac..
p247
aVEPL
p248
aV31(6)
p249
aV2825
p250
aV6
aV7
aV7
aV1
aV1.8
p251
aV76.4
p252
aV0.4
p253
aV2
aV6.99
p254
aa(lp255
V2013/2014
p256
aVCrystal Palac..
p257
aVEPL
p258
aV29(5)
p259
aV2516
p260
aV7
aV2
aV2
aV-
aV2.3
p261
aV78.5
p262
aV0.3
p263
aV4
aV7.02
p264
aa(lp265
V2012/2013
p266
aVSouthampton
p267
aVEPL
p268
aV25(7)
p269
aV2066
p270
aV5
aV1
aV1
aV-
aV2.1
p271
aV79
p272
aV0.3
p273
aV-
aV6.81
p274
aa(lp275
V2011/2012
p276
aVQueens Park R..
p277
aVEPL
p278
aV0(2)
p279
aV15
p280
aV-
aV-
aV-
aV-
aV-
aV87.5
p281
aV-
aV-
aV6.02
p282
aa(lp283
V2010/2011
p284
aVBlackpool
p285
aVEPL
p286
aV6(5)
p287
aV648
p288
aV3
aV-
aV-
aV-
aV1.9
p289
aV81.5
p290
aV0.3
p291
aV-
aV6.75
p292
aa(lp293
VTotal / Average
p294
aV
aV
aV197
p295
aV14372
p296
aV23
p297
aV18
p298
aV27
p299
aV1
aV1.7
p300
aV79.4
p301
aV0.4
p302
aV8
aV6.86
p303
aasS'sumary_data'
p304
(lp305
(lp306
a(lp307
V2018/2019
p308
aVCrystal Palac..
p309
aVEPL
p310
aV0(4)
p311
aV10
p312
aV-
aV-
aV-
aV-
aV-
aV75
p313
aV-
aV-
aV6.02
p314
aa(lp315
V2017/2018
p316
aVCrystal Palac..
p317
aVEPL
p318
aV6(4)
p319
aV571
p320
aV-
aV-
aV5
aV-
aV1
aV84
p321
aV0.4
p322
aV-
aV6.07
p323
aa(lp324
V2016/2017
p325
aVCrystal Palac..
p326
aVEPL
p327
aV35(1)
p328
aV3096
p329
aV-
aV5
aV9
aV-
aV1.3
p330
aV81.2
p331
aV0.7
p332
aV1
aV6.90
p333
aa(lp334
V2015/2016
p335
aVCrystal Palac..
p336
aVEPL
p337
aV31
p338
aV2625
p339
aV2
aV3
aV3
aV-
aV1.7
p340
aV80
p341
aV0.4
p342
aV1
aV6.98
p343
aa(lp344
V2014/2015
p345
aVCrystal Palac..
p346
aVEPL
p347
aV31(6)
p348
aV2825
p349
aV6
aV7
aV7
aV1
aV1.8
p350
aV76.4
p351
aV0.4
p352
aV2
aV6.99
p353
aa(lp354
V2013/2014
p355
aVCrystal Palac..
p356
aVEPL
p357
aV29(5)
p358
aV2516
p359
aV7
aV2
aV2
aV-
aV2.3
p360
aV78.5
p361
aV0.3
p362
aV4
aV7.02
p363
aa(lp364
V2012/2013
p365
aVSouthampton
p366
aVEPL
p367
aV25(7)
p368
aV2066
p369
aV5
aV1
aV1
aV-
aV2.1
p370
aV79
p371
aV0.3
p372
aV-
aV6.81
p373
aa(lp374
V2011/2012
p375
aVQueens Park R..
p376
aVEPL
p377
aV0(2)
p378
aV15
p379
aV-
aV-
aV-
aV-
aV-
aV87.5
p380
aV-
aV-
aV6.02
p381
aa(lp382
V2010/2011
p383
aVBlackpool
p384
aVEPL
p385
aV6(5)
p386
aV648
p387
aV3
aV-
aV-
aV-
aV1.9
p388
aV81.5
p389
aV0.3
p390
aV-
aV6.75
p391
aa(lp392
VTotal / Average
p393
aV
aV
aV197
p394
aV14372
p395
aV23
p396
aV18
p397
aV27
p398
aV1
aV1.7
p399
aV79.4
p400
aV0.4
p401
aV8
aV6.86
p402
aasS'id'
p403
V9156
p404
sb.