(i__main__
Player
p1
(dp2
S'name'
p3
VDanny Ings 
p4
sS'offensive_data'
p5
(lp6
(lp7
a(lp8
V2018/2019
p9
aVSouthampton
p10
aVEPL
p11
aV11(1)
p12
aV897
p13
aV6
aV1
aV1
aV-
aV3
aV73.8
p14
aV0.8
p15
aV-
aV6.97
p16
aa(lp17
V2017/2018
p18
aVLiverpool
p19
aVUCL
p20
aV0(4)
p21
aV55
p22
aV-
aV1
aV-
aV-
aV0.5
p23
aV43.8
p24
aV0.3
p25
aV-
aV6.24
p26
aa(lp27
V2017/2018
p28
aVLiverpool
p29
aVEPL
p30
aV3(5)
p31
aV265
p32
aV1
aV-
aV-
aV-
aV1
aV61.8
p33
aV0.5
p34
aV-
aV6.33
p35
aa(lp36
V2015/2016
p37
aVLiverpool
p38
aVUEL
p39
aV1(1)
p40
aV78
p41
aV-
aV-
aV-
aV-
aV2
aV62.5
p42
aV0.5
p43
aV-
aV6.19
p44
aa(lp45
V2015/2016
p46
aVLiverpool
p47
aVEPL
p48
aV3(3)
p49
aV340
p50
aV2
aV-
aV1
aV-
aV1.7
p51
aV76.3
p52
aV0.5
p53
aV-
aV6.54
p54
aa(lp55
V2015
p56
aVEngland U21
p57
aVIEU
p58
aV1(2)
p59
aV151
p60
aV-
aV-
aV-
aV-
aV1
aV81.6
p61
aV-
aV-
aV6.03
p62
aa(lp63
V2014/2015
p64
aVBurnley
p65
aVEPL
p66
aV35
p67
aV3035
p68
aV11
p69
aV4
aV6
aV-
aV2.8
p70
aV70.9
p71
aV0.9
p72
aV1
aV6.89
p73
aa(lp74
V2013/2014
p75
aVBurnley
p76
aVEC
p77
aV40
p78
aV3541
p79
aV21
p80
aV5
aV1
aV-
aV3.6
p81
aV74.3
p82
aV0.8
p83
aV4
aV7.18
p84
aa(lp85
VTotal / Average
p86
aV
aV
aV110
p87
aV8362
p88
aV41
p89
aV11
p90
aV9
aV0
aV2.8
p91
aV71.3
p92
aV0.7
p93
aV5
aV6.88
p94
aasS'url'
p95
S'https://www.whoscored.com/Players/91762/History/'
p96
sS'passing_data'
p97
(lp98
(lp99
a(lp100
V2018/2019
p101
aVSouthampton
p102
aVEPL
p103
aV11(1)
p104
aV897
p105
aV6
aV1
aV1
aV-
aV3
aV73.8
p106
aV0.8
p107
aV-
aV6.97
p108
aa(lp109
V2017/2018
p110
aVLiverpool
p111
aVUCL
p112
aV0(4)
p113
aV55
p114
aV-
aV1
aV-
aV-
aV0.5
p115
aV43.8
p116
aV0.3
p117
aV-
aV6.24
p118
aa(lp119
V2017/2018
p120
aVLiverpool
p121
aVEPL
p122
aV3(5)
p123
aV265
p124
aV1
aV-
aV-
aV-
aV1
aV61.8
p125
aV0.5
p126
aV-
aV6.33
p127
aa(lp128
V2015/2016
p129
aVLiverpool
p130
aVUEL
p131
aV1(1)
p132
aV78
p133
aV-
aV-
aV-
aV-
aV2
aV62.5
p134
aV0.5
p135
aV-
aV6.19
p136
aa(lp137
V2015/2016
p138
aVLiverpool
p139
aVEPL
p140
aV3(3)
p141
aV340
p142
aV2
aV-
aV1
aV-
aV1.7
p143
aV76.3
p144
aV0.5
p145
aV-
aV6.54
p146
aa(lp147
V2015
p148
aVEngland U21
p149
aVIEU
p150
aV1(2)
p151
aV151
p152
aV-
aV-
aV-
aV-
aV1
aV81.6
p153
aV-
aV-
aV6.03
p154
aa(lp155
V2014/2015
p156
aVBurnley
p157
aVEPL
p158
aV35
p159
aV3035
p160
aV11
p161
aV4
aV6
aV-
aV2.8
p162
aV70.9
p163
aV0.9
p164
aV1
aV6.89
p165
aa(lp166
V2013/2014
p167
aVBurnley
p168
aVEC
p169
aV40
p170
aV3541
p171
aV21
p172
aV5
aV1
aV-
aV3.6
p173
aV74.3
p174
aV0.8
p175
aV4
aV7.18
p176
aa(lp177
VTotal / Average
p178
aV
aV
aV110
p179
aV8362
p180
aV41
p181
aV11
p182
aV9
aV0
aV2.8
p183
aV71.3
p184
aV0.7
p185
aV5
aV6.88
p186
aasS'defensive_data'
p187
(lp188
(lp189
a(lp190
V2018/2019
p191
aVSouthampton
p192
aVEPL
p193
aV11(1)
p194
aV897
p195
aV6
aV1
aV1
aV-
aV3
aV73.8
p196
aV0.8
p197
aV-
aV6.97
p198
aa(lp199
V2017/2018
p200
aVLiverpool
p201
aVUCL
p202
aV0(4)
p203
aV55
p204
aV-
aV1
aV-
aV-
aV0.5
p205
aV43.8
p206
aV0.3
p207
aV-
aV6.24
p208
aa(lp209
V2017/2018
p210
aVLiverpool
p211
aVEPL
p212
aV3(5)
p213
aV265
p214
aV1
aV-
aV-
aV-
aV1
aV61.8
p215
aV0.5
p216
aV-
aV6.33
p217
aa(lp218
V2015/2016
p219
aVLiverpool
p220
aVUEL
p221
aV1(1)
p222
aV78
p223
aV-
aV-
aV-
aV-
aV2
aV62.5
p224
aV0.5
p225
aV-
aV6.19
p226
aa(lp227
V2015/2016
p228
aVLiverpool
p229
aVEPL
p230
aV3(3)
p231
aV340
p232
aV2
aV-
aV1
aV-
aV1.7
p233
aV76.3
p234
aV0.5
p235
aV-
aV6.54
p236
aa(lp237
V2015
p238
aVEngland U21
p239
aVIEU
p240
aV1(2)
p241
aV151
p242
aV-
aV-
aV-
aV-
aV1
aV81.6
p243
aV-
aV-
aV6.03
p244
aa(lp245
V2014/2015
p246
aVBurnley
p247
aVEPL
p248
aV35
p249
aV3035
p250
aV11
p251
aV4
aV6
aV-
aV2.8
p252
aV70.9
p253
aV0.9
p254
aV1
aV6.89
p255
aa(lp256
V2013/2014
p257
aVBurnley
p258
aVEC
p259
aV40
p260
aV3541
p261
aV21
p262
aV5
aV1
aV-
aV3.6
p263
aV74.3
p264
aV0.8
p265
aV4
aV7.18
p266
aa(lp267
VTotal / Average
p268
aV
aV
aV110
p269
aV8362
p270
aV41
p271
aV11
p272
aV9
aV0
aV2.8
p273
aV71.3
p274
aV0.7
p275
aV5
aV6.88
p276
aasS'sumary_data'
p277
(lp278
(lp279
a(lp280
V2018/2019
p281
aVSouthampton
p282
aVEPL
p283
aV11(1)
p284
aV897
p285
aV6
aV1
aV1
aV-
aV3
aV73.8
p286
aV0.8
p287
aV-
aV6.97
p288
aa(lp289
V2017/2018
p290
aVLiverpool
p291
aVUCL
p292
aV0(4)
p293
aV55
p294
aV-
aV1
aV-
aV-
aV0.5
p295
aV43.8
p296
aV0.3
p297
aV-
aV6.24
p298
aa(lp299
V2017/2018
p300
aVLiverpool
p301
aVEPL
p302
aV3(5)
p303
aV265
p304
aV1
aV-
aV-
aV-
aV1
aV61.8
p305
aV0.5
p306
aV-
aV6.33
p307
aa(lp308
V2015/2016
p309
aVLiverpool
p310
aVUEL
p311
aV1(1)
p312
aV78
p313
aV-
aV-
aV-
aV-
aV2
aV62.5
p314
aV0.5
p315
aV-
aV6.19
p316
aa(lp317
V2015/2016
p318
aVLiverpool
p319
aVEPL
p320
aV3(3)
p321
aV340
p322
aV2
aV-
aV1
aV-
aV1.7
p323
aV76.3
p324
aV0.5
p325
aV-
aV6.54
p326
aa(lp327
V2015
p328
aVEngland U21
p329
aVIEU
p330
aV1(2)
p331
aV151
p332
aV-
aV-
aV-
aV-
aV1
aV81.6
p333
aV-
aV-
aV6.03
p334
aa(lp335
V2014/2015
p336
aVBurnley
p337
aVEPL
p338
aV35
p339
aV3035
p340
aV11
p341
aV4
aV6
aV-
aV2.8
p342
aV70.9
p343
aV0.9
p344
aV1
aV6.89
p345
aa(lp346
V2013/2014
p347
aVBurnley
p348
aVEC
p349
aV40
p350
aV3541
p351
aV21
p352
aV5
aV1
aV-
aV3.6
p353
aV74.3
p354
aV0.8
p355
aV4
aV7.18
p356
aa(lp357
VTotal / Average
p358
aV
aV
aV110
p359
aV8362
p360
aV41
p361
aV11
p362
aV9
aV0
aV2.8
p363
aV71.3
p364
aV0.7
p365
aV5
aV6.88
p366
aasS'id'
p367
V91762
p368
sb.