(i__main__
Player
p1
(dp2
S'name'
p3
VJeffrey Schlupp 
p4
sS'offensive_data'
p5
(lp6
(lp7
a(lp8
V2018/2019
p9
aVCrystal Palac..
p10
aVEPL
p11
aV6(9)
p12
aV634
p13
aV2
aV-
aV1
aV-
aV0.5
p14
aV75.9
p15
aV1.1
p16
aV-
aV6.42
p17
aa(lp18
V2017/2018
p19
aVCrystal Palac..
p20
aVEPL
p21
aV21(3)
p22
aV1748
p23
aV-
aV1
aV3
aV-
aV0.6
p24
aV74.2
p25
aV1.6
p26
aV-
aV6.66
p27
aa(lp28
V2016/2017
p29
aVLeicester
p30
aVUCL
p31
aV2(1)
p32
aV139
p33
aV-
aV-
aV-
aV-
aV1.3
p34
aV69.8
p35
aV3.7
p36
aV-
aV6.73
p37
aa(lp38
V2016/2017
p39
aVLeicester
p40
aVEPL
p41
aV1(3)
p42
aV139
p43
aV-
aV-
aV-
aV-
aV-
aV88
p44
aV1
aV-
aV6.24
p45
aa(lp46
V2016/2017
p47
aVCrystal Palac..
p48
aVEPL
p49
aV11(4)
p50
aV997
p51
aV-
aV-
aV-
aV-
aV0.2
p52
aV69.5
p53
aV1.3
p54
aV-
aV6.80
p55
aa(lp56
V2015/2016
p57
aVLeicester
p58
aVEPL
p59
aV14(10)
p60
aV1385
p61
aV1
aV2
aV4
aV-
aV1.1
p62
aV73.1
p63
aV1.1
p64
aV-
aV6.86
p65
aa(lp66
V2014/2015
p67
aVLeicester
p68
aVEPL
p69
aV30(2)
p70
aV2539
p71
aV3
aV2
aV4
aV-
aV1.3
p72
aV71.2
p73
aV1.3
p74
aV1
aV7.11
p75
aa(lp76
V2013/2014
p77
aVLeicester
p78
aVEC
p79
aV15(11)
p80
aV1426
p81
aV1
aV1
aV1
aV-
aV0.5
p82
aV74.1
p83
aV1.2
p84
aV1
aV6.98
p85
aa(lp86
VTotal / Average
p87
aV
aV
aV143
p88
aV9007
p89
aV7
aV6
aV13
p90
aV0
aV0.8
p91
aV73.3
p92
aV1.3
p93
aV2
aV6.83
p94
aasS'url'
p95
S'https://www.whoscored.com/Players/91822/History/'
p96
sS'passing_data'
p97
(lp98
(lp99
a(lp100
V2018/2019
p101
aVCrystal Palac..
p102
aVEPL
p103
aV6(9)
p104
aV634
p105
aV2
aV-
aV1
aV-
aV0.5
p106
aV75.9
p107
aV1.1
p108
aV-
aV6.42
p109
aa(lp110
V2017/2018
p111
aVCrystal Palac..
p112
aVEPL
p113
aV21(3)
p114
aV1748
p115
aV-
aV1
aV3
aV-
aV0.6
p116
aV74.2
p117
aV1.6
p118
aV-
aV6.66
p119
aa(lp120
V2016/2017
p121
aVLeicester
p122
aVUCL
p123
aV2(1)
p124
aV139
p125
aV-
aV-
aV-
aV-
aV1.3
p126
aV69.8
p127
aV3.7
p128
aV-
aV6.73
p129
aa(lp130
V2016/2017
p131
aVLeicester
p132
aVEPL
p133
aV1(3)
p134
aV139
p135
aV-
aV-
aV-
aV-
aV-
aV88
p136
aV1
aV-
aV6.24
p137
aa(lp138
V2016/2017
p139
aVCrystal Palac..
p140
aVEPL
p141
aV11(4)
p142
aV997
p143
aV-
aV-
aV-
aV-
aV0.2
p144
aV69.5
p145
aV1.3
p146
aV-
aV6.80
p147
aa(lp148
V2015/2016
p149
aVLeicester
p150
aVEPL
p151
aV14(10)
p152
aV1385
p153
aV1
aV2
aV4
aV-
aV1.1
p154
aV73.1
p155
aV1.1
p156
aV-
aV6.86
p157
aa(lp158
V2014/2015
p159
aVLeicester
p160
aVEPL
p161
aV30(2)
p162
aV2539
p163
aV3
aV2
aV4
aV-
aV1.3
p164
aV71.2
p165
aV1.3
p166
aV1
aV7.11
p167
aa(lp168
V2013/2014
p169
aVLeicester
p170
aVEC
p171
aV15(11)
p172
aV1426
p173
aV1
aV1
aV1
aV-
aV0.5
p174
aV74.1
p175
aV1.2
p176
aV1
aV6.98
p177
aa(lp178
VTotal / Average
p179
aV
aV
aV143
p180
aV9007
p181
aV7
aV6
aV13
p182
aV0
aV0.8
p183
aV73.3
p184
aV1.3
p185
aV2
aV6.83
p186
aasS'defensive_data'
p187
(lp188
(lp189
a(lp190
V2018/2019
p191
aVCrystal Palac..
p192
aVEPL
p193
aV6(9)
p194
aV634
p195
aV2
aV-
aV1
aV-
aV0.5
p196
aV75.9
p197
aV1.1
p198
aV-
aV6.42
p199
aa(lp200
V2017/2018
p201
aVCrystal Palac..
p202
aVEPL
p203
aV21(3)
p204
aV1748
p205
aV-
aV1
aV3
aV-
aV0.6
p206
aV74.2
p207
aV1.6
p208
aV-
aV6.66
p209
aa(lp210
V2016/2017
p211
aVLeicester
p212
aVUCL
p213
aV2(1)
p214
aV139
p215
aV-
aV-
aV-
aV-
aV1.3
p216
aV69.8
p217
aV3.7
p218
aV-
aV6.73
p219
aa(lp220
V2016/2017
p221
aVLeicester
p222
aVEPL
p223
aV1(3)
p224
aV139
p225
aV-
aV-
aV-
aV-
aV-
aV88
p226
aV1
aV-
aV6.24
p227
aa(lp228
V2016/2017
p229
aVCrystal Palac..
p230
aVEPL
p231
aV11(4)
p232
aV997
p233
aV-
aV-
aV-
aV-
aV0.2
p234
aV69.5
p235
aV1.3
p236
aV-
aV6.80
p237
aa(lp238
V2015/2016
p239
aVLeicester
p240
aVEPL
p241
aV14(10)
p242
aV1385
p243
aV1
aV2
aV4
aV-
aV1.1
p244
aV73.1
p245
aV1.1
p246
aV-
aV6.86
p247
aa(lp248
V2014/2015
p249
aVLeicester
p250
aVEPL
p251
aV30(2)
p252
aV2539
p253
aV3
aV2
aV4
aV-
aV1.3
p254
aV71.2
p255
aV1.3
p256
aV1
aV7.11
p257
aa(lp258
V2013/2014
p259
aVLeicester
p260
aVEC
p261
aV15(11)
p262
aV1426
p263
aV1
aV1
aV1
aV-
aV0.5
p264
aV74.1
p265
aV1.2
p266
aV1
aV6.98
p267
aa(lp268
VTotal / Average
p269
aV
aV
aV143
p270
aV9007
p271
aV7
aV6
aV13
p272
aV0
aV0.8
p273
aV73.3
p274
aV1.3
p275
aV2
aV6.83
p276
aasS'sumary_data'
p277
(lp278
(lp279
a(lp280
V2018/2019
p281
aVCrystal Palac..
p282
aVEPL
p283
aV6(9)
p284
aV634
p285
aV2
aV-
aV1
aV-
aV0.5
p286
aV75.9
p287
aV1.1
p288
aV-
aV6.42
p289
aa(lp290
V2017/2018
p291
aVCrystal Palac..
p292
aVEPL
p293
aV21(3)
p294
aV1748
p295
aV-
aV1
aV3
aV-
aV0.6
p296
aV74.2
p297
aV1.6
p298
aV-
aV6.66
p299
aa(lp300
V2016/2017
p301
aVLeicester
p302
aVUCL
p303
aV2(1)
p304
aV139
p305
aV-
aV-
aV-
aV-
aV1.3
p306
aV69.8
p307
aV3.7
p308
aV-
aV6.73
p309
aa(lp310
V2016/2017
p311
aVLeicester
p312
aVEPL
p313
aV1(3)
p314
aV139
p315
aV-
aV-
aV-
aV-
aV-
aV88
p316
aV1
aV-
aV6.24
p317
aa(lp318
V2016/2017
p319
aVCrystal Palac..
p320
aVEPL
p321
aV11(4)
p322
aV997
p323
aV-
aV-
aV-
aV-
aV0.2
p324
aV69.5
p325
aV1.3
p326
aV-
aV6.80
p327
aa(lp328
V2015/2016
p329
aVLeicester
p330
aVEPL
p331
aV14(10)
p332
aV1385
p333
aV1
aV2
aV4
aV-
aV1.1
p334
aV73.1
p335
aV1.1
p336
aV-
aV6.86
p337
aa(lp338
V2014/2015
p339
aVLeicester
p340
aVEPL
p341
aV30(2)
p342
aV2539
p343
aV3
aV2
aV4
aV-
aV1.3
p344
aV71.2
p345
aV1.3
p346
aV1
aV7.11
p347
aa(lp348
V2013/2014
p349
aVLeicester
p350
aVEC
p351
aV15(11)
p352
aV1426
p353
aV1
aV1
aV1
aV-
aV0.5
p354
aV74.1
p355
aV1.2
p356
aV1
aV6.98
p357
aa(lp358
VTotal / Average
p359
aV
aV
aV143
p360
aV9007
p361
aV7
aV6
aV13
p362
aV0
aV0.8
p363
aV73.3
p364
aV1.3
p365
aV2
aV6.83
p366
aasS'id'
p367
V91822
p368
sb.