(i__main__
Player
p1
(dp2
S'name'
p3
VSon Heung-Min 
p4
sS'offensive_data'
p5
(lp6
(lp7
a(lp8
V2018/2019
p9
aVTottenham
p10
aVEPL
p11
aV7(5)
p12
aV665
p13
aV3
aV2
aV-
aV-
aV2.1
p14
aV83.1
p15
aV0.3
p16
aV-
aV6.97
p17
aa(lp18
V2018/2019
p19
aVTottenham
p20
aVUCL
p21
aV5(1)
p22
aV385
p23
aV-
aV1
aV2
aV-
aV1.8
p24
aV83.4
p25
aV0.5
p26
aV-
aV6.51
p27
aa(lp28
V2017/2018
p29
aVTottenham
p30
aVUCL
p31
aV5(2)
p32
aV426
p33
aV4
aV-
aV-
aV-
aV3.6
p34
aV86
p35
aV0.1
p36
aV1
aV7.09
p37
aa(lp38
V2017/2018
p39
aVTottenham
p40
aVEPL
p41
aV27(10)
p42
aV2312
p43
aV12
p44
aV6
aV-
aV-
aV2
aV85.2
p45
aV0.1
p46
aV3
aV6.99
p47
aa(lp48
V2016/2017
p49
aVTottenham
p50
aVUCL
p51
aV6
aV425
p52
aV1
aV-
aV-
aV-
aV2.3
p53
aV79.2
p54
aV0.3
p55
aV1
aV6.43
p56
aa(lp57
V2016/2017
p58
aVTottenham
p59
aVEPL
p60
aV23(11)
p61
aV2070
p62
aV14
p63
aV6
aV2
aV-
aV2.4
p64
aV81.2
p65
aV0.3
p66
aV3
aV7.14
p67
aa(lp68
V2016/2017
p69
aVTottenham
p70
aVUEL
p71
aV0(2)
p72
aV54
p73
aV-
aV-
aV-
aV-
aV0.5
p74
aV88.9
p75
aV0.5
p76
aV-
aV6.22
p77
aa(lp78
V2018
p79
aVSouth Korea
p80
aVWC
p81
aV3
aV270
p82
aV2
aV-
aV1
aV-
aV4.3
p83
aV86.5
p84
aV0.7
p85
aV-
aV7.43
p86
aa(lp87
V2015/2016
p88
aVBayer Leverku..
p89
aVGB
p90
aV1
aV64
p91
aV-
aV-
aV-
aV-
aV2
aV76.5
p92
aV1
aV-
aV6.19
p93
aa(lp94
V2015/2016
p95
aVTottenham
p96
aVUEL
p97
aV6(1)
p98
aV503
p99
aV3
aV4
aV-
aV-
aV2.4
p100
aV79
p101
aV0.3
p102
aV1
aV7.19
p103
aa(lp104
V2015/2016
p105
aVTottenham
p106
aVEPL
p107
aV13(15)
p108
aV1107
p109
aV4
aV1
aV-
aV-
aV1.4
p110
aV79.6
p111
aV0.3
p112
aV-
aV6.53
p113
aa(lp114
V2014/2015
p115
aVBayer Leverku..
p116
aVGB
p117
aV28(2)
p118
aV2292
p119
aV11
p120
aV2
aV4
aV-
aV2.1
p121
aV76.1
p122
aV1.1
p123
aV1
aV7.14
p124
aa(lp125
V2014/2015
p126
aVBayer Leverku..
p127
aVUCL
p128
aV7(1)
p129
aV605
p130
aV3
aV-
aV-
aV-
aV2
aV83.1
p131
aV1
aV2
aV7.10
p132
aa(lp133
V2013/2014
p134
aVBayer Leverku..
p135
aVUCL
p136
aV7(1)
p137
aV511
p138
aV-
aV2
aV1
aV-
aV1.8
p139
aV87.5
p140
aV0.1
p141
aV-
aV6.47
p142
aa(lp143
V2013/2014
p144
aVBayer Leverku..
p145
aVGB
p146
aV29(2)
p147
aV2387
p148
aV10
p149
aV4
aV1
aV-
aV2.7
p150
aV80.3
p151
aV0.9
p152
aV3
aV7.39
p153
aa(lp154
V2014
p155
aVSouth Korea
p156
aVWC
p157
aV3
aV248
p158
aV1
aV-
aV1
aV-
aV1.7
p159
aV76.5
p160
aV1.3
p161
aV1
aV7.22
p162
aa(lp163
V2012/2013
p164
aVHamburger SV
p165
aVGB
p166
aV31(2)
p167
aV2703
p168
aV12
p169
aV2
aV4
aV-
aV2.4
p170
aV77.6
p171
aV1.6
p172
aV2
aV7.02
p173
aa(lp174
V2011/2012
p175
aVHamburger SV
p176
aVGB
p177
aV11(16)
p178
aV1245
p179
aV5
aV-
aV-
aV-
aV1.4
p180
aV78.4
p181
aV0.4
p182
aV1
aV6.59
p183
aa(lp184
V2010/2011
p185
aVHamburger SV
p186
aVGB
p187
aV8(5)
p188
aV729
p189
aV3
aV-
aV1
aV-
aV1.5
p190
aV77.1
p191
aV0.3
p192
aV-
aV6.61
p193
aa(lp194
VTotal / Average
p195
aV
aV
aV296
p196
aV19001
p197
aV88
p198
aV30
p199
aV17
p200
aV0
aV2.1
p201
aV80.5
p202
aV0.6
p203
aV19
p204
aV6.94
p205
aasS'url'
p206
S'https://www.whoscored.com/Players/91909/History/'
p207
sS'passing_data'
p208
(lp209
(lp210
a(lp211
V2018/2019
p212
aVTottenham
p213
aVEPL
p214
aV7(5)
p215
aV665
p216
aV3
aV2
aV-
aV-
aV2.1
p217
aV83.1
p218
aV0.3
p219
aV-
aV6.97
p220
aa(lp221
V2018/2019
p222
aVTottenham
p223
aVUCL
p224
aV5(1)
p225
aV385
p226
aV-
aV1
aV2
aV-
aV1.8
p227
aV83.4
p228
aV0.5
p229
aV-
aV6.51
p230
aa(lp231
V2017/2018
p232
aVTottenham
p233
aVUCL
p234
aV5(2)
p235
aV426
p236
aV4
aV-
aV-
aV-
aV3.6
p237
aV86
p238
aV0.1
p239
aV1
aV7.09
p240
aa(lp241
V2017/2018
p242
aVTottenham
p243
aVEPL
p244
aV27(10)
p245
aV2312
p246
aV12
p247
aV6
aV-
aV-
aV2
aV85.2
p248
aV0.1
p249
aV3
aV6.99
p250
aa(lp251
V2016/2017
p252
aVTottenham
p253
aVUCL
p254
aV6
aV425
p255
aV1
aV-
aV-
aV-
aV2.3
p256
aV79.2
p257
aV0.3
p258
aV1
aV6.43
p259
aa(lp260
V2016/2017
p261
aVTottenham
p262
aVEPL
p263
aV23(11)
p264
aV2070
p265
aV14
p266
aV6
aV2
aV-
aV2.4
p267
aV81.2
p268
aV0.3
p269
aV3
aV7.14
p270
aa(lp271
V2016/2017
p272
aVTottenham
p273
aVUEL
p274
aV0(2)
p275
aV54
p276
aV-
aV-
aV-
aV-
aV0.5
p277
aV88.9
p278
aV0.5
p279
aV-
aV6.22
p280
aa(lp281
V2018
p282
aVSouth Korea
p283
aVWC
p284
aV3
aV270
p285
aV2
aV-
aV1
aV-
aV4.3
p286
aV86.5
p287
aV0.7
p288
aV-
aV7.43
p289
aa(lp290
V2015/2016
p291
aVBayer Leverku..
p292
aVGB
p293
aV1
aV64
p294
aV-
aV-
aV-
aV-
aV2
aV76.5
p295
aV1
aV-
aV6.19
p296
aa(lp297
V2015/2016
p298
aVTottenham
p299
aVUEL
p300
aV6(1)
p301
aV503
p302
aV3
aV4
aV-
aV-
aV2.4
p303
aV79
p304
aV0.3
p305
aV1
aV7.19
p306
aa(lp307
V2015/2016
p308
aVTottenham
p309
aVEPL
p310
aV13(15)
p311
aV1107
p312
aV4
aV1
aV-
aV-
aV1.4
p313
aV79.6
p314
aV0.3
p315
aV-
aV6.53
p316
aa(lp317
V2014/2015
p318
aVBayer Leverku..
p319
aVGB
p320
aV28(2)
p321
aV2292
p322
aV11
p323
aV2
aV4
aV-
aV2.1
p324
aV76.1
p325
aV1.1
p326
aV1
aV7.14
p327
aa(lp328
V2014/2015
p329
aVBayer Leverku..
p330
aVUCL
p331
aV7(1)
p332
aV605
p333
aV3
aV-
aV-
aV-
aV2
aV83.1
p334
aV1
aV2
aV7.10
p335
aa(lp336
V2013/2014
p337
aVBayer Leverku..
p338
aVUCL
p339
aV7(1)
p340
aV511
p341
aV-
aV2
aV1
aV-
aV1.8
p342
aV87.5
p343
aV0.1
p344
aV-
aV6.47
p345
aa(lp346
V2013/2014
p347
aVBayer Leverku..
p348
aVGB
p349
aV29(2)
p350
aV2387
p351
aV10
p352
aV4
aV1
aV-
aV2.7
p353
aV80.3
p354
aV0.9
p355
aV3
aV7.39
p356
aa(lp357
V2014
p358
aVSouth Korea
p359
aVWC
p360
aV3
aV248
p361
aV1
aV-
aV1
aV-
aV1.7
p362
aV76.5
p363
aV1.3
p364
aV1
aV7.22
p365
aa(lp366
V2012/2013
p367
aVHamburger SV
p368
aVGB
p369
aV31(2)
p370
aV2703
p371
aV12
p372
aV2
aV4
aV-
aV2.4
p373
aV77.6
p374
aV1.6
p375
aV2
aV7.02
p376
aa(lp377
V2011/2012
p378
aVHamburger SV
p379
aVGB
p380
aV11(16)
p381
aV1245
p382
aV5
aV-
aV-
aV-
aV1.4
p383
aV78.4
p384
aV0.4
p385
aV1
aV6.59
p386
aa(lp387
V2010/2011
p388
aVHamburger SV
p389
aVGB
p390
aV8(5)
p391
aV729
p392
aV3
aV-
aV1
aV-
aV1.5
p393
aV77.1
p394
aV0.3
p395
aV-
aV6.61
p396
aa(lp397
VTotal / Average
p398
aV
aV
aV296
p399
aV19001
p400
aV88
p401
aV30
p402
aV17
p403
aV0
aV2.1
p404
aV80.5
p405
aV0.6
p406
aV19
p407
aV6.94
p408
aasS'defensive_data'
p409
(lp410
(lp411
a(lp412
V2018/2019
p413
aVTottenham
p414
aVEPL
p415
aV7(5)
p416
aV665
p417
aV3
aV2
aV-
aV-
aV2.1
p418
aV83.1
p419
aV0.3
p420
aV-
aV6.97
p421
aa(lp422
V2018/2019
p423
aVTottenham
p424
aVUCL
p425
aV5(1)
p426
aV385
p427
aV-
aV1
aV2
aV-
aV1.8
p428
aV83.4
p429
aV0.5
p430
aV-
aV6.51
p431
aa(lp432
V2017/2018
p433
aVTottenham
p434
aVUCL
p435
aV5(2)
p436
aV426
p437
aV4
aV-
aV-
aV-
aV3.6
p438
aV86
p439
aV0.1
p440
aV1
aV7.09
p441
aa(lp442
V2017/2018
p443
aVTottenham
p444
aVEPL
p445
aV27(10)
p446
aV2312
p447
aV12
p448
aV6
aV-
aV-
aV2
aV85.2
p449
aV0.1
p450
aV3
aV6.99
p451
aa(lp452
V2016/2017
p453
aVTottenham
p454
aVUCL
p455
aV6
aV425
p456
aV1
aV-
aV-
aV-
aV2.3
p457
aV79.2
p458
aV0.3
p459
aV1
aV6.43
p460
aa(lp461
V2016/2017
p462
aVTottenham
p463
aVEPL
p464
aV23(11)
p465
aV2070
p466
aV14
p467
aV6
aV2
aV-
aV2.4
p468
aV81.2
p469
aV0.3
p470
aV3
aV7.14
p471
aa(lp472
V2016/2017
p473
aVTottenham
p474
aVUEL
p475
aV0(2)
p476
aV54
p477
aV-
aV-
aV-
aV-
aV0.5
p478
aV88.9
p479
aV0.5
p480
aV-
aV6.22
p481
aa(lp482
V2018
p483
aVSouth Korea
p484
aVWC
p485
aV3
aV270
p486
aV2
aV-
aV1
aV-
aV4.3
p487
aV86.5
p488
aV0.7
p489
aV-
aV7.43
p490
aa(lp491
V2015/2016
p492
aVBayer Leverku..
p493
aVGB
p494
aV1
aV64
p495
aV-
aV-
aV-
aV-
aV2
aV76.5
p496
aV1
aV-
aV6.19
p497
aa(lp498
V2015/2016
p499
aVTottenham
p500
aVUEL
p501
aV6(1)
p502
aV503
p503
aV3
aV4
aV-
aV-
aV2.4
p504
aV79
p505
aV0.3
p506
aV1
aV7.19
p507
aa(lp508
V2015/2016
p509
aVTottenham
p510
aVEPL
p511
aV13(15)
p512
aV1107
p513
aV4
aV1
aV-
aV-
aV1.4
p514
aV79.6
p515
aV0.3
p516
aV-
aV6.53
p517
aa(lp518
V2014/2015
p519
aVBayer Leverku..
p520
aVGB
p521
aV28(2)
p522
aV2292
p523
aV11
p524
aV2
aV4
aV-
aV2.1
p525
aV76.1
p526
aV1.1
p527
aV1
aV7.14
p528
aa(lp529
V2014/2015
p530
aVBayer Leverku..
p531
aVUCL
p532
aV7(1)
p533
aV605
p534
aV3
aV-
aV-
aV-
aV2
aV83.1
p535
aV1
aV2
aV7.10
p536
aa(lp537
V2013/2014
p538
aVBayer Leverku..
p539
aVUCL
p540
aV7(1)
p541
aV511
p542
aV-
aV2
aV1
aV-
aV1.8
p543
aV87.5
p544
aV0.1
p545
aV-
aV6.47
p546
aa(lp547
V2013/2014
p548
aVBayer Leverku..
p549
aVGB
p550
aV29(2)
p551
aV2387
p552
aV10
p553
aV4
aV1
aV-
aV2.7
p554
aV80.3
p555
aV0.9
p556
aV3
aV7.39
p557
aa(lp558
V2014
p559
aVSouth Korea
p560
aVWC
p561
aV3
aV248
p562
aV1
aV-
aV1
aV-
aV1.7
p563
aV76.5
p564
aV1.3
p565
aV1
aV7.22
p566
aa(lp567
V2012/2013
p568
aVHamburger SV
p569
aVGB
p570
aV31(2)
p571
aV2703
p572
aV12
p573
aV2
aV4
aV-
aV2.4
p574
aV77.6
p575
aV1.6
p576
aV2
aV7.02
p577
aa(lp578
V2011/2012
p579
aVHamburger SV
p580
aVGB
p581
aV11(16)
p582
aV1245
p583
aV5
aV-
aV-
aV-
aV1.4
p584
aV78.4
p585
aV0.4
p586
aV1
aV6.59
p587
aa(lp588
V2010/2011
p589
aVHamburger SV
p590
aVGB
p591
aV8(5)
p592
aV729
p593
aV3
aV-
aV1
aV-
aV1.5
p594
aV77.1
p595
aV0.3
p596
aV-
aV6.61
p597
aa(lp598
VTotal / Average
p599
aV
aV
aV296
p600
aV19001
p601
aV88
p602
aV30
p603
aV17
p604
aV0
aV2.1
p605
aV80.5
p606
aV0.6
p607
aV19
p608
aV6.94
p609
aasS'sumary_data'
p610
(lp611
(lp612
a(lp613
V2018/2019
p614
aVTottenham
p615
aVEPL
p616
aV7(5)
p617
aV665
p618
aV3
aV2
aV-
aV-
aV2.1
p619
aV83.1
p620
aV0.3
p621
aV-
aV6.97
p622
aa(lp623
V2018/2019
p624
aVTottenham
p625
aVUCL
p626
aV5(1)
p627
aV385
p628
aV-
aV1
aV2
aV-
aV1.8
p629
aV83.4
p630
aV0.5
p631
aV-
aV6.51
p632
aa(lp633
V2017/2018
p634
aVTottenham
p635
aVUCL
p636
aV5(2)
p637
aV426
p638
aV4
aV-
aV-
aV-
aV3.6
p639
aV86
p640
aV0.1
p641
aV1
aV7.09
p642
aa(lp643
V2017/2018
p644
aVTottenham
p645
aVEPL
p646
aV27(10)
p647
aV2312
p648
aV12
p649
aV6
aV-
aV-
aV2
aV85.2
p650
aV0.1
p651
aV3
aV6.99
p652
aa(lp653
V2016/2017
p654
aVTottenham
p655
aVUCL
p656
aV6
aV425
p657
aV1
aV-
aV-
aV-
aV2.3
p658
aV79.2
p659
aV0.3
p660
aV1
aV6.43
p661
aa(lp662
V2016/2017
p663
aVTottenham
p664
aVEPL
p665
aV23(11)
p666
aV2070
p667
aV14
p668
aV6
aV2
aV-
aV2.4
p669
aV81.2
p670
aV0.3
p671
aV3
aV7.14
p672
aa(lp673
V2016/2017
p674
aVTottenham
p675
aVUEL
p676
aV0(2)
p677
aV54
p678
aV-
aV-
aV-
aV-
aV0.5
p679
aV88.9
p680
aV0.5
p681
aV-
aV6.22
p682
aa(lp683
V2018
p684
aVSouth Korea
p685
aVWC
p686
aV3
aV270
p687
aV2
aV-
aV1
aV-
aV4.3
p688
aV86.5
p689
aV0.7
p690
aV-
aV7.43
p691
aa(lp692
V2015/2016
p693
aVBayer Leverku..
p694
aVGB
p695
aV1
aV64
p696
aV-
aV-
aV-
aV-
aV2
aV76.5
p697
aV1
aV-
aV6.19
p698
aa(lp699
V2015/2016
p700
aVTottenham
p701
aVUEL
p702
aV6(1)
p703
aV503
p704
aV3
aV4
aV-
aV-
aV2.4
p705
aV79
p706
aV0.3
p707
aV1
aV7.19
p708
aa(lp709
V2015/2016
p710
aVTottenham
p711
aVEPL
p712
aV13(15)
p713
aV1107
p714
aV4
aV1
aV-
aV-
aV1.4
p715
aV79.6
p716
aV0.3
p717
aV-
aV6.53
p718
aa(lp719
V2014/2015
p720
aVBayer Leverku..
p721
aVGB
p722
aV28(2)
p723
aV2292
p724
aV11
p725
aV2
aV4
aV-
aV2.1
p726
aV76.1
p727
aV1.1
p728
aV1
aV7.14
p729
aa(lp730
V2014/2015
p731
aVBayer Leverku..
p732
aVUCL
p733
aV7(1)
p734
aV605
p735
aV3
aV-
aV-
aV-
aV2
aV83.1
p736
aV1
aV2
aV7.10
p737
aa(lp738
V2013/2014
p739
aVBayer Leverku..
p740
aVUCL
p741
aV7(1)
p742
aV511
p743
aV-
aV2
aV1
aV-
aV1.8
p744
aV87.5
p745
aV0.1
p746
aV-
aV6.47
p747
aa(lp748
V2013/2014
p749
aVBayer Leverku..
p750
aVGB
p751
aV29(2)
p752
aV2387
p753
aV10
p754
aV4
aV1
aV-
aV2.7
p755
aV80.3
p756
aV0.9
p757
aV3
aV7.39
p758
aa(lp759
V2014
p760
aVSouth Korea
p761
aVWC
p762
aV3
aV248
p763
aV1
aV-
aV1
aV-
aV1.7
p764
aV76.5
p765
aV1.3
p766
aV1
aV7.22
p767
aa(lp768
V2012/2013
p769
aVHamburger SV
p770
aVGB
p771
aV31(2)
p772
aV2703
p773
aV12
p774
aV2
aV4
aV-
aV2.4
p775
aV77.6
p776
aV1.6
p777
aV2
aV7.02
p778
aa(lp779
V2011/2012
p780
aVHamburger SV
p781
aVGB
p782
aV11(16)
p783
aV1245
p784
aV5
aV-
aV-
aV-
aV1.4
p785
aV78.4
p786
aV0.4
p787
aV1
aV6.59
p788
aa(lp789
V2010/2011
p790
aVHamburger SV
p791
aVGB
p792
aV8(5)
p793
aV729
p794
aV3
aV-
aV1
aV-
aV1.5
p795
aV77.1
p796
aV0.3
p797
aV-
aV6.61
p798
aa(lp799
VTotal / Average
p800
aV
aV
aV296
p801
aV19001
p802
aV88
p803
aV30
p804
aV17
p805
aV0
aV2.1
p806
aV80.5
p807
aV0.6
p808
aV19
p809
aV6.94
p810
aasS'id'
p811
V91909
p812
sb.