(i__main__
Player
p1
(dp2
S'name'
p3
VNeil Etheridge 
p4
sS'offensive_data'
p5
(lp6
(lp7
a(lp8
V2018/2019
p9
aVCardiff
p10
aVEPL
p11
aV17
p12
aV1530
p13
aV-
aV-
aV1
aV-
aV-
aV32.5
p14
aV0.1
p15
aV1
aV6.69
p16
aa(lp17
V2017/2018
p18
aVCardiff
p19
aVEC
p20
aV45
p21
aV4050
p22
aV-
aV-
aV1
aV-
aV-
aV31.8
p23
aV0.4
p24
aV-
aV6.63
p25
aa(lp26
V2014/2015
p27
aVCharlton
p28
aVEC
p29
aV4
aV360
p30
aV-
aV-
aV-
aV-
aV-
aV43.6
p31
aV0.5
p32
aV-
aV6.37
p33
aa(lp34
VTotal / Average
p35
aV
aV
aV66
p36
aV5940
p37
aV0
aV0
aV2
aV0
aV0
aV32.7
p38
aV0.3
p39
aV1
aV6.63
p40
aasS'url'
p41
S'https://www.whoscored.com/Players/91953/History/'
p42
sS'passing_data'
p43
(lp44
(lp45
a(lp46
V2018/2019
p47
aVCardiff
p48
aVEPL
p49
aV17
p50
aV1530
p51
aV-
aV-
aV1
aV-
aV-
aV32.5
p52
aV0.1
p53
aV1
aV6.69
p54
aa(lp55
V2017/2018
p56
aVCardiff
p57
aVEC
p58
aV45
p59
aV4050
p60
aV-
aV-
aV1
aV-
aV-
aV31.8
p61
aV0.4
p62
aV-
aV6.63
p63
aa(lp64
V2014/2015
p65
aVCharlton
p66
aVEC
p67
aV4
aV360
p68
aV-
aV-
aV-
aV-
aV-
aV43.6
p69
aV0.5
p70
aV-
aV6.37
p71
aa(lp72
VTotal / Average
p73
aV
aV
aV66
p74
aV5940
p75
aV0
aV0
aV2
aV0
aV0
aV32.7
p76
aV0.3
p77
aV1
aV6.63
p78
aasS'defensive_data'
p79
(lp80
(lp81
a(lp82
V2018/2019
p83
aVCardiff
p84
aVEPL
p85
aV17
p86
aV1530
p87
aV-
aV-
aV1
aV-
aV-
aV32.5
p88
aV0.1
p89
aV1
aV6.69
p90
aa(lp91
V2017/2018
p92
aVCardiff
p93
aVEC
p94
aV45
p95
aV4050
p96
aV-
aV-
aV1
aV-
aV-
aV31.8
p97
aV0.4
p98
aV-
aV6.63
p99
aa(lp100
V2014/2015
p101
aVCharlton
p102
aVEC
p103
aV4
aV360
p104
aV-
aV-
aV-
aV-
aV-
aV43.6
p105
aV0.5
p106
aV-
aV6.37
p107
aa(lp108
VTotal / Average
p109
aV
aV
aV66
p110
aV5940
p111
aV0
aV0
aV2
aV0
aV0
aV32.7
p112
aV0.3
p113
aV1
aV6.63
p114
aasS'sumary_data'
p115
(lp116
(lp117
a(lp118
V2018/2019
p119
aVCardiff
p120
aVEPL
p121
aV17
p122
aV1530
p123
aV-
aV-
aV1
aV-
aV-
aV32.5
p124
aV0.1
p125
aV1
aV6.69
p126
aa(lp127
V2017/2018
p128
aVCardiff
p129
aVEC
p130
aV45
p131
aV4050
p132
aV-
aV-
aV1
aV-
aV-
aV31.8
p133
aV0.4
p134
aV-
aV6.63
p135
aa(lp136
V2014/2015
p137
aVCharlton
p138
aVEC
p139
aV4
aV360
p140
aV-
aV-
aV-
aV-
aV-
aV43.6
p141
aV0.5
p142
aV-
aV6.37
p143
aa(lp144
VTotal / Average
p145
aV
aV
aV66
p146
aV5940
p147
aV0
aV0
aV2
aV0
aV0
aV32.7
p148
aV0.3
p149
aV1
aV6.63
p150
aasS'id'
p151
V91953
p152
sb.