(i__main__
Player
p1
(dp2
S'name'
p3
VBernd Leno 
p4
sS'offensive_data'
p5
(lp6
(lp7
a(lp8
V2018/2019
p9
aVArsenal
p10
aVEPL
p11
aV10(1)
p12
aV943
p13
aV-
aV-
aV-
aV-
aV-
aV74.2
p14
aV0.3
p15
aV-
aV6.59
p16
aa(lp17
V2018/2019
p18
aVArsenal
p19
aVUEL
p20
aV3
aV270
p21
aV-
aV-
aV-
aV-
aV-
aV76
p22
aV0.3
p23
aV-
aV6.84
p24
aa(lp25
V2017/2018
p26
aVBayer Leverku..
p27
aVGB
p28
aV33
p29
aV2970
p30
aV-
aV-
aV1
aV-
aV-
aV66.7
p31
aV0.4
p32
aV1
aV6.56
p33
aa(lp34
V2016/2017
p35
aVBayer Leverku..
p36
aVGB
p37
aV34
p38
aV3060
p39
aV-
aV-
aV-
aV-
aV-
aV65.2
p40
aV0.1
p41
aV1
aV6.58
p42
aa(lp43
V2016/2017
p44
aVBayer Leverku..
p45
aVUCL
p46
aV7
aV630
p47
aV-
aV-
aV-
aV-
aV-
aV53.9
p48
aV0.4
p49
aV-
aV6.54
p50
aa(lp51
V2015/2016
p52
aVBayer Leverku..
p53
aVGB
p54
aV33
p55
aV2970
p56
aV-
aV-
aV-
aV-
aV-
aV62.7
p57
aV0.5
p58
aV1
aV6.73
p59
aa(lp60
V2015/2016
p61
aVBayer Leverku..
p62
aVUEL
p63
aV4
aV360
p64
aV-
aV-
aV-
aV-
aV-
aV59.8
p65
aV0.3
p66
aV-
aV6.88
p67
aa(lp68
V2015/2016
p69
aVBayer Leverku..
p70
aVUCL
p71
aV6
aV540
p72
aV-
aV-
aV-
aV-
aV-
aV52
p73
aV0.3
p74
aV-
aV6.14
p75
aa(lp76
V2014/2015
p77
aVBayer Leverku..
p78
aVGB
p79
aV34
p80
aV3060
p81
aV-
aV-
aV1
aV-
aV-
aV55
p82
aV0.5
p83
aV-
aV6.66
p84
aa(lp85
V2014/2015
p86
aVBayer Leverku..
p87
aVUCL
p88
aV8
aV751
p89
aV-
aV-
aV-
aV-
aV-
aV42.1
p90
aV0.8
p91
aV-
aV6.78
p92
aa(lp93
V2013/2014
p94
aVBayer Leverku..
p95
aVUCL
p96
aV8
aV720
p97
aV-
aV-
aV1
aV-
aV-
aV57.9
p98
aV0.3
p99
aV1
aV6.81
p100
aa(lp101
V2013/2014
p102
aVBayer Leverku..
p103
aVGB
p104
aV34
p105
aV3060
p106
aV-
aV-
aV1
aV-
aV-
aV69.5
p107
aV0.8
p108
aV1
aV7.02
p109
aa(lp110
V2013
p111
aVGermany U21
p112
aVIEU
p113
aV2
aV180
p114
aV-
aV-
aV-
aV-
aV-
aV55.9
p115
aV-
aV-
aV4.89
p116
aa(lp117
V2012/2013
p118
aVBayer Leverku..
p119
aVGB
p120
aV32
p121
aV2880
p122
aV-
aV1
aV2
aV-
aV-
aV65.8
p123
aV0.1
p124
aV-
aV6.88
p125
aa(lp126
V2012/2013
p127
aVBayer Leverku..
p128
aVUEL
p129
aV6
aV540
p130
aV-
aV-
aV-
aV-
aV-
aV72.7
p131
aV-
aV-
aV6.94
p132
aa(lp133
V2011/2012
p134
aVBayer Leverku..
p135
aVGB
p136
aV33
p137
aV2970
p138
aV-
aV-
aV1
aV-
aV-
aV62.6
p139
aV-
aV2
aV6.90
p140
aa(lp141
V2011/2012
p142
aVBayer Leverku..
p143
aVUCL
p144
aV8
aV720
p145
aV-
aV-
aV-
aV-
aV-
aV56.8
p146
aV0.1
p147
aV1
aV6.74
p148
aa(lp149
VTotal / Average
p150
aV
aV
aV296
p151
aV26624
p152
aV0
aV1
aV7
aV0
aV0
aV63.1
p153
aV0.3
p154
aV8
aV6.73
p155
aasS'url'
p156
S'https://www.whoscored.com/Players/92173/History/'
p157
sS'passing_data'
p158
(lp159
(lp160
a(lp161
V2018/2019
p162
aVArsenal
p163
aVEPL
p164
aV10(1)
p165
aV943
p166
aV-
aV-
aV-
aV-
aV-
aV74.2
p167
aV0.3
p168
aV-
aV6.59
p169
aa(lp170
V2018/2019
p171
aVArsenal
p172
aVUEL
p173
aV3
aV270
p174
aV-
aV-
aV-
aV-
aV-
aV76
p175
aV0.3
p176
aV-
aV6.84
p177
aa(lp178
V2017/2018
p179
aVBayer Leverku..
p180
aVGB
p181
aV33
p182
aV2970
p183
aV-
aV-
aV1
aV-
aV-
aV66.7
p184
aV0.4
p185
aV1
aV6.56
p186
aa(lp187
V2016/2017
p188
aVBayer Leverku..
p189
aVGB
p190
aV34
p191
aV3060
p192
aV-
aV-
aV-
aV-
aV-
aV65.2
p193
aV0.1
p194
aV1
aV6.58
p195
aa(lp196
V2016/2017
p197
aVBayer Leverku..
p198
aVUCL
p199
aV7
aV630
p200
aV-
aV-
aV-
aV-
aV-
aV53.9
p201
aV0.4
p202
aV-
aV6.54
p203
aa(lp204
V2015/2016
p205
aVBayer Leverku..
p206
aVGB
p207
aV33
p208
aV2970
p209
aV-
aV-
aV-
aV-
aV-
aV62.7
p210
aV0.5
p211
aV1
aV6.73
p212
aa(lp213
V2015/2016
p214
aVBayer Leverku..
p215
aVUEL
p216
aV4
aV360
p217
aV-
aV-
aV-
aV-
aV-
aV59.8
p218
aV0.3
p219
aV-
aV6.88
p220
aa(lp221
V2015/2016
p222
aVBayer Leverku..
p223
aVUCL
p224
aV6
aV540
p225
aV-
aV-
aV-
aV-
aV-
aV52
p226
aV0.3
p227
aV-
aV6.14
p228
aa(lp229
V2014/2015
p230
aVBayer Leverku..
p231
aVGB
p232
aV34
p233
aV3060
p234
aV-
aV-
aV1
aV-
aV-
aV55
p235
aV0.5
p236
aV-
aV6.66
p237
aa(lp238
V2014/2015
p239
aVBayer Leverku..
p240
aVUCL
p241
aV8
aV751
p242
aV-
aV-
aV-
aV-
aV-
aV42.1
p243
aV0.8
p244
aV-
aV6.78
p245
aa(lp246
V2013/2014
p247
aVBayer Leverku..
p248
aVUCL
p249
aV8
aV720
p250
aV-
aV-
aV1
aV-
aV-
aV57.9
p251
aV0.3
p252
aV1
aV6.81
p253
aa(lp254
V2013/2014
p255
aVBayer Leverku..
p256
aVGB
p257
aV34
p258
aV3060
p259
aV-
aV-
aV1
aV-
aV-
aV69.5
p260
aV0.8
p261
aV1
aV7.02
p262
aa(lp263
V2013
p264
aVGermany U21
p265
aVIEU
p266
aV2
aV180
p267
aV-
aV-
aV-
aV-
aV-
aV55.9
p268
aV-
aV-
aV4.89
p269
aa(lp270
V2012/2013
p271
aVBayer Leverku..
p272
aVGB
p273
aV32
p274
aV2880
p275
aV-
aV1
aV2
aV-
aV-
aV65.8
p276
aV0.1
p277
aV-
aV6.88
p278
aa(lp279
V2012/2013
p280
aVBayer Leverku..
p281
aVUEL
p282
aV6
aV540
p283
aV-
aV-
aV-
aV-
aV-
aV72.7
p284
aV-
aV-
aV6.94
p285
aa(lp286
V2011/2012
p287
aVBayer Leverku..
p288
aVGB
p289
aV33
p290
aV2970
p291
aV-
aV-
aV1
aV-
aV-
aV62.6
p292
aV-
aV2
aV6.90
p293
aa(lp294
V2011/2012
p295
aVBayer Leverku..
p296
aVUCL
p297
aV8
aV720
p298
aV-
aV-
aV-
aV-
aV-
aV56.8
p299
aV0.1
p300
aV1
aV6.74
p301
aa(lp302
VTotal / Average
p303
aV
aV
aV296
p304
aV26624
p305
aV0
aV1
aV7
aV0
aV0
aV63.1
p306
aV0.3
p307
aV8
aV6.73
p308
aasS'defensive_data'
p309
(lp310
(lp311
a(lp312
V2018/2019
p313
aVArsenal
p314
aVEPL
p315
aV10(1)
p316
aV943
p317
aV-
aV-
aV-
aV-
aV-
aV74.2
p318
aV0.3
p319
aV-
aV6.59
p320
aa(lp321
V2018/2019
p322
aVArsenal
p323
aVUEL
p324
aV3
aV270
p325
aV-
aV-
aV-
aV-
aV-
aV76
p326
aV0.3
p327
aV-
aV6.84
p328
aa(lp329
V2017/2018
p330
aVBayer Leverku..
p331
aVGB
p332
aV33
p333
aV2970
p334
aV-
aV-
aV1
aV-
aV-
aV66.7
p335
aV0.4
p336
aV1
aV6.56
p337
aa(lp338
V2016/2017
p339
aVBayer Leverku..
p340
aVGB
p341
aV34
p342
aV3060
p343
aV-
aV-
aV-
aV-
aV-
aV65.2
p344
aV0.1
p345
aV1
aV6.58
p346
aa(lp347
V2016/2017
p348
aVBayer Leverku..
p349
aVUCL
p350
aV7
aV630
p351
aV-
aV-
aV-
aV-
aV-
aV53.9
p352
aV0.4
p353
aV-
aV6.54
p354
aa(lp355
V2015/2016
p356
aVBayer Leverku..
p357
aVGB
p358
aV33
p359
aV2970
p360
aV-
aV-
aV-
aV-
aV-
aV62.7
p361
aV0.5
p362
aV1
aV6.73
p363
aa(lp364
V2015/2016
p365
aVBayer Leverku..
p366
aVUEL
p367
aV4
aV360
p368
aV-
aV-
aV-
aV-
aV-
aV59.8
p369
aV0.3
p370
aV-
aV6.88
p371
aa(lp372
V2015/2016
p373
aVBayer Leverku..
p374
aVUCL
p375
aV6
aV540
p376
aV-
aV-
aV-
aV-
aV-
aV52
p377
aV0.3
p378
aV-
aV6.14
p379
aa(lp380
V2014/2015
p381
aVBayer Leverku..
p382
aVGB
p383
aV34
p384
aV3060
p385
aV-
aV-
aV1
aV-
aV-
aV55
p386
aV0.5
p387
aV-
aV6.66
p388
aa(lp389
V2014/2015
p390
aVBayer Leverku..
p391
aVUCL
p392
aV8
aV751
p393
aV-
aV-
aV-
aV-
aV-
aV42.1
p394
aV0.8
p395
aV-
aV6.78
p396
aa(lp397
V2013/2014
p398
aVBayer Leverku..
p399
aVUCL
p400
aV8
aV720
p401
aV-
aV-
aV1
aV-
aV-
aV57.9
p402
aV0.3
p403
aV1
aV6.81
p404
aa(lp405
V2013/2014
p406
aVBayer Leverku..
p407
aVGB
p408
aV34
p409
aV3060
p410
aV-
aV-
aV1
aV-
aV-
aV69.5
p411
aV0.8
p412
aV1
aV7.02
p413
aa(lp414
V2013
p415
aVGermany U21
p416
aVIEU
p417
aV2
aV180
p418
aV-
aV-
aV-
aV-
aV-
aV55.9
p419
aV-
aV-
aV4.89
p420
aa(lp421
V2012/2013
p422
aVBayer Leverku..
p423
aVGB
p424
aV32
p425
aV2880
p426
aV-
aV1
aV2
aV-
aV-
aV65.8
p427
aV0.1
p428
aV-
aV6.88
p429
aa(lp430
V2012/2013
p431
aVBayer Leverku..
p432
aVUEL
p433
aV6
aV540
p434
aV-
aV-
aV-
aV-
aV-
aV72.7
p435
aV-
aV-
aV6.94
p436
aa(lp437
V2011/2012
p438
aVBayer Leverku..
p439
aVGB
p440
aV33
p441
aV2970
p442
aV-
aV-
aV1
aV-
aV-
aV62.6
p443
aV-
aV2
aV6.90
p444
aa(lp445
V2011/2012
p446
aVBayer Leverku..
p447
aVUCL
p448
aV8
aV720
p449
aV-
aV-
aV-
aV-
aV-
aV56.8
p450
aV0.1
p451
aV1
aV6.74
p452
aa(lp453
VTotal / Average
p454
aV
aV
aV296
p455
aV26624
p456
aV0
aV1
aV7
aV0
aV0
aV63.1
p457
aV0.3
p458
aV8
aV6.73
p459
aasS'sumary_data'
p460
(lp461
(lp462
a(lp463
V2018/2019
p464
aVArsenal
p465
aVEPL
p466
aV10(1)
p467
aV943
p468
aV-
aV-
aV-
aV-
aV-
aV74.2
p469
aV0.3
p470
aV-
aV6.59
p471
aa(lp472
V2018/2019
p473
aVArsenal
p474
aVUEL
p475
aV3
aV270
p476
aV-
aV-
aV-
aV-
aV-
aV76
p477
aV0.3
p478
aV-
aV6.84
p479
aa(lp480
V2017/2018
p481
aVBayer Leverku..
p482
aVGB
p483
aV33
p484
aV2970
p485
aV-
aV-
aV1
aV-
aV-
aV66.7
p486
aV0.4
p487
aV1
aV6.56
p488
aa(lp489
V2016/2017
p490
aVBayer Leverku..
p491
aVGB
p492
aV34
p493
aV3060
p494
aV-
aV-
aV-
aV-
aV-
aV65.2
p495
aV0.1
p496
aV1
aV6.58
p497
aa(lp498
V2016/2017
p499
aVBayer Leverku..
p500
aVUCL
p501
aV7
aV630
p502
aV-
aV-
aV-
aV-
aV-
aV53.9
p503
aV0.4
p504
aV-
aV6.54
p505
aa(lp506
V2015/2016
p507
aVBayer Leverku..
p508
aVGB
p509
aV33
p510
aV2970
p511
aV-
aV-
aV-
aV-
aV-
aV62.7
p512
aV0.5
p513
aV1
aV6.73
p514
aa(lp515
V2015/2016
p516
aVBayer Leverku..
p517
aVUEL
p518
aV4
aV360
p519
aV-
aV-
aV-
aV-
aV-
aV59.8
p520
aV0.3
p521
aV-
aV6.88
p522
aa(lp523
V2015/2016
p524
aVBayer Leverku..
p525
aVUCL
p526
aV6
aV540
p527
aV-
aV-
aV-
aV-
aV-
aV52
p528
aV0.3
p529
aV-
aV6.14
p530
aa(lp531
V2014/2015
p532
aVBayer Leverku..
p533
aVGB
p534
aV34
p535
aV3060
p536
aV-
aV-
aV1
aV-
aV-
aV55
p537
aV0.5
p538
aV-
aV6.66
p539
aa(lp540
V2014/2015
p541
aVBayer Leverku..
p542
aVUCL
p543
aV8
aV751
p544
aV-
aV-
aV-
aV-
aV-
aV42.1
p545
aV0.8
p546
aV-
aV6.78
p547
aa(lp548
V2013/2014
p549
aVBayer Leverku..
p550
aVUCL
p551
aV8
aV720
p552
aV-
aV-
aV1
aV-
aV-
aV57.9
p553
aV0.3
p554
aV1
aV6.81
p555
aa(lp556
V2013/2014
p557
aVBayer Leverku..
p558
aVGB
p559
aV34
p560
aV3060
p561
aV-
aV-
aV1
aV-
aV-
aV69.5
p562
aV0.8
p563
aV1
aV7.02
p564
aa(lp565
V2013
p566
aVGermany U21
p567
aVIEU
p568
aV2
aV180
p569
aV-
aV-
aV-
aV-
aV-
aV55.9
p570
aV-
aV-
aV4.89
p571
aa(lp572
V2012/2013
p573
aVBayer Leverku..
p574
aVGB
p575
aV32
p576
aV2880
p577
aV-
aV1
aV2
aV-
aV-
aV65.8
p578
aV0.1
p579
aV-
aV6.88
p580
aa(lp581
V2012/2013
p582
aVBayer Leverku..
p583
aVUEL
p584
aV6
aV540
p585
aV-
aV-
aV-
aV-
aV-
aV72.7
p586
aV-
aV-
aV6.94
p587
aa(lp588
V2011/2012
p589
aVBayer Leverku..
p590
aVGB
p591
aV33
p592
aV2970
p593
aV-
aV-
aV1
aV-
aV-
aV62.6
p594
aV-
aV2
aV6.90
p595
aa(lp596
V2011/2012
p597
aVBayer Leverku..
p598
aVUCL
p599
aV8
aV720
p600
aV-
aV-
aV-
aV-
aV-
aV56.8
p601
aV0.1
p602
aV1
aV6.74
p603
aa(lp604
VTotal / Average
p605
aV
aV
aV296
p606
aV26624
p607
aV0
aV1
aV7
aV0
aV0
aV63.1
p608
aV0.3
p609
aV8
aV6.73
p610
aasS'id'
p611
V92173
p612
sb.