(i__main__
Player
p1
(dp2
S'name'
p3
VLucas Moura 
p4
sS'offensive_data'
p5
(lp6
(lp7
a(lp8
V2018/2019
p9
aVTottenham
p10
aVEPL
p11
aV15(1)
p12
aV1224
p13
aV5
aV-
aV2
aV-
aV1.4
p14
aV75.7
p15
aV1.1
p16
aV1
aV7.00
p17
aa(lp18
V2018/2019
p19
aVTottenham
p20
aVUCL
p21
aV4(2)
p22
aV323
p23
aV2
aV-
aV-
aV-
aV2.3
p24
aV82.4
p25
aV0.8
p26
aV-
aV7.14
p27
aa(lp28
V2017/2018
p29
aVTottenham
p30
aVUCL
p31
aV0(1)
p32
aV1
aV-
aV-
aV-
aV-
aV-
aV80
p33
aV1
aV-
aV6.06
p34
aa(lp35
V2017/2018
p36
aVParis Saint-G..
p37
aVFL1
p38
aV0(5)
p39
aV72
p40
aV1
aV1
aV1
aV-
aV0.6
p41
aV88.6
p42
aV0.2
p43
aV-
aV6.53
p44
aa(lp45
V2017/2018
p46
aVTottenham
p47
aVEPL
p48
aV2(4)
p49
aV208
p50
aV-
aV1
aV-
aV-
aV0.8
p51
aV77.9
p52
aV0.7
p53
aV-
aV6.48
p54
aa(lp55
V2016/2017
p56
aVParis Saint-G..
p57
aVUCL
p58
aV6(1)
p59
aV512
p60
aV1
aV1
aV-
aV-
aV2
aV80.4
p61
aV1.4
p62
aV1
aV7.60
p63
aa(lp64
V2016/2017
p65
aVParis Saint-G..
p66
aVFL1
p67
aV29(8)
p68
aV2435
p69
aV12
p70
aV5
aV-
aV-
aV1.8
p71
aV82.7
p72
aV0.5
p73
aV4
aV7.41
p74
aa(lp75
V2015/2016
p76
aVParis Saint-G..
p77
aVUCL
p78
aV3(6)
p79
aV367
p80
aV2
aV1
aV1
aV-
aV1
aV85.8
p81
aV0.7
p82
aV1
aV7.28
p83
aa(lp84
V2015/2016
p85
aVParis Saint-G..
p86
aVFL1
p87
aV26(10)
p88
aV2328
p89
aV9
aV4
aV3
aV-
aV1.8
p90
aV85.1
p91
aV0.9
p92
aV1
aV7.40
p93
aa(lp94
V2014/2015
p95
aVParis Saint-G..
p96
aVUCL
p97
aV5(3)
p98
aV507
p99
aV-
aV1
aV-
aV-
aV1.5
p100
aV85.3
p101
aV1.3
p102
aV2
aV7.48
p103
aa(lp104
V2014/2015
p105
aVParis Saint-G..
p106
aVFL1
p107
aV22(7)
p108
aV1901
p109
aV7
aV5
aV2
aV-
aV1.4
p110
aV86.6
p111
aV0.9
p112
aV6
aV7.47
p113
aa(lp114
V2013/2014
p115
aVParis Saint-G..
p116
aVUCL
p117
aV5(5)
p118
aV495
p119
aV-
aV1
aV1
aV-
aV1.3
p120
aV90.4
p121
aV0.7
p122
aV-
aV6.88
p123
aa(lp124
V2013/2014
p125
aVParis Saint-G..
p126
aVFL1
p127
aV18(18)
p128
aV1936
p129
aV5
aV11
p130
aV2
aV-
aV1.7
p131
aV86.6
p132
aV0.6
p133
aV5
aV7.22
p134
aa(lp135
V2013
p136
aVBrazil
p137
aVICC
p138
aV0(2)
p139
aV28
p140
aV-
aV-
aV-
aV-
aV-
aV100
p141
aV-
aV-
aV6.03
p142
aa(lp143
V2012/2013
p144
aVParis Saint-G..
p145
aVUCL
p146
aV4
aV316
p147
aV-
aV1
aV-
aV-
aV3
aV73.6
p148
aV2.8
p149
aV2
aV7.60
p150
aa(lp151
V2012/2013
p152
aVParis Saint-G..
p153
aVFL1
p154
aV9(1)
p155
aV741
p156
aV-
aV3
aV1
aV-
aV2.4
p157
aV84.5
p158
aV0.9
p159
aV-
aV7.21
p160
aa(lp161
VTotal / Average
p162
aV
aV
aV222
p163
aV13394
p164
aV44
p165
aV35
p166
aV13
p167
aV0
aV1.6
p168
aV84.3
p169
aV0.8
p170
aV23
p171
aV7.26
p172
aasS'url'
p173
S'https://www.whoscored.com/Players/92508/History/'
p174
sS'passing_data'
p175
(lp176
(lp177
a(lp178
V2018/2019
p179
aVTottenham
p180
aVEPL
p181
aV15(1)
p182
aV1224
p183
aV5
aV-
aV2
aV-
aV1.4
p184
aV75.7
p185
aV1.1
p186
aV1
aV7.00
p187
aa(lp188
V2018/2019
p189
aVTottenham
p190
aVUCL
p191
aV4(2)
p192
aV323
p193
aV2
aV-
aV-
aV-
aV2.3
p194
aV82.4
p195
aV0.8
p196
aV-
aV7.14
p197
aa(lp198
V2017/2018
p199
aVTottenham
p200
aVUCL
p201
aV0(1)
p202
aV1
aV-
aV-
aV-
aV-
aV-
aV80
p203
aV1
aV-
aV6.06
p204
aa(lp205
V2017/2018
p206
aVParis Saint-G..
p207
aVFL1
p208
aV0(5)
p209
aV72
p210
aV1
aV1
aV1
aV-
aV0.6
p211
aV88.6
p212
aV0.2
p213
aV-
aV6.53
p214
aa(lp215
V2017/2018
p216
aVTottenham
p217
aVEPL
p218
aV2(4)
p219
aV208
p220
aV-
aV1
aV-
aV-
aV0.8
p221
aV77.9
p222
aV0.7
p223
aV-
aV6.48
p224
aa(lp225
V2016/2017
p226
aVParis Saint-G..
p227
aVUCL
p228
aV6(1)
p229
aV512
p230
aV1
aV1
aV-
aV-
aV2
aV80.4
p231
aV1.4
p232
aV1
aV7.60
p233
aa(lp234
V2016/2017
p235
aVParis Saint-G..
p236
aVFL1
p237
aV29(8)
p238
aV2435
p239
aV12
p240
aV5
aV-
aV-
aV1.8
p241
aV82.7
p242
aV0.5
p243
aV4
aV7.41
p244
aa(lp245
V2015/2016
p246
aVParis Saint-G..
p247
aVUCL
p248
aV3(6)
p249
aV367
p250
aV2
aV1
aV1
aV-
aV1
aV85.8
p251
aV0.7
p252
aV1
aV7.28
p253
aa(lp254
V2015/2016
p255
aVParis Saint-G..
p256
aVFL1
p257
aV26(10)
p258
aV2328
p259
aV9
aV4
aV3
aV-
aV1.8
p260
aV85.1
p261
aV0.9
p262
aV1
aV7.40
p263
aa(lp264
V2014/2015
p265
aVParis Saint-G..
p266
aVUCL
p267
aV5(3)
p268
aV507
p269
aV-
aV1
aV-
aV-
aV1.5
p270
aV85.3
p271
aV1.3
p272
aV2
aV7.48
p273
aa(lp274
V2014/2015
p275
aVParis Saint-G..
p276
aVFL1
p277
aV22(7)
p278
aV1901
p279
aV7
aV5
aV2
aV-
aV1.4
p280
aV86.6
p281
aV0.9
p282
aV6
aV7.47
p283
aa(lp284
V2013/2014
p285
aVParis Saint-G..
p286
aVUCL
p287
aV5(5)
p288
aV495
p289
aV-
aV1
aV1
aV-
aV1.3
p290
aV90.4
p291
aV0.7
p292
aV-
aV6.88
p293
aa(lp294
V2013/2014
p295
aVParis Saint-G..
p296
aVFL1
p297
aV18(18)
p298
aV1936
p299
aV5
aV11
p300
aV2
aV-
aV1.7
p301
aV86.6
p302
aV0.6
p303
aV5
aV7.22
p304
aa(lp305
V2013
p306
aVBrazil
p307
aVICC
p308
aV0(2)
p309
aV28
p310
aV-
aV-
aV-
aV-
aV-
aV100
p311
aV-
aV-
aV6.03
p312
aa(lp313
V2012/2013
p314
aVParis Saint-G..
p315
aVUCL
p316
aV4
aV316
p317
aV-
aV1
aV-
aV-
aV3
aV73.6
p318
aV2.8
p319
aV2
aV7.60
p320
aa(lp321
V2012/2013
p322
aVParis Saint-G..
p323
aVFL1
p324
aV9(1)
p325
aV741
p326
aV-
aV3
aV1
aV-
aV2.4
p327
aV84.5
p328
aV0.9
p329
aV-
aV7.21
p330
aa(lp331
VTotal / Average
p332
aV
aV
aV222
p333
aV13394
p334
aV44
p335
aV35
p336
aV13
p337
aV0
aV1.6
p338
aV84.3
p339
aV0.8
p340
aV23
p341
aV7.26
p342
aasS'defensive_data'
p343
(lp344
(lp345
a(lp346
V2018/2019
p347
aVTottenham
p348
aVEPL
p349
aV15(1)
p350
aV1224
p351
aV5
aV-
aV2
aV-
aV1.4
p352
aV75.7
p353
aV1.1
p354
aV1
aV7.00
p355
aa(lp356
V2018/2019
p357
aVTottenham
p358
aVUCL
p359
aV4(2)
p360
aV323
p361
aV2
aV-
aV-
aV-
aV2.3
p362
aV82.4
p363
aV0.8
p364
aV-
aV7.14
p365
aa(lp366
V2017/2018
p367
aVTottenham
p368
aVUCL
p369
aV0(1)
p370
aV1
aV-
aV-
aV-
aV-
aV-
aV80
p371
aV1
aV-
aV6.06
p372
aa(lp373
V2017/2018
p374
aVParis Saint-G..
p375
aVFL1
p376
aV0(5)
p377
aV72
p378
aV1
aV1
aV1
aV-
aV0.6
p379
aV88.6
p380
aV0.2
p381
aV-
aV6.53
p382
aa(lp383
V2017/2018
p384
aVTottenham
p385
aVEPL
p386
aV2(4)
p387
aV208
p388
aV-
aV1
aV-
aV-
aV0.8
p389
aV77.9
p390
aV0.7
p391
aV-
aV6.48
p392
aa(lp393
V2016/2017
p394
aVParis Saint-G..
p395
aVUCL
p396
aV6(1)
p397
aV512
p398
aV1
aV1
aV-
aV-
aV2
aV80.4
p399
aV1.4
p400
aV1
aV7.60
p401
aa(lp402
V2016/2017
p403
aVParis Saint-G..
p404
aVFL1
p405
aV29(8)
p406
aV2435
p407
aV12
p408
aV5
aV-
aV-
aV1.8
p409
aV82.7
p410
aV0.5
p411
aV4
aV7.41
p412
aa(lp413
V2015/2016
p414
aVParis Saint-G..
p415
aVUCL
p416
aV3(6)
p417
aV367
p418
aV2
aV1
aV1
aV-
aV1
aV85.8
p419
aV0.7
p420
aV1
aV7.28
p421
aa(lp422
V2015/2016
p423
aVParis Saint-G..
p424
aVFL1
p425
aV26(10)
p426
aV2328
p427
aV9
aV4
aV3
aV-
aV1.8
p428
aV85.1
p429
aV0.9
p430
aV1
aV7.40
p431
aa(lp432
V2014/2015
p433
aVParis Saint-G..
p434
aVUCL
p435
aV5(3)
p436
aV507
p437
aV-
aV1
aV-
aV-
aV1.5
p438
aV85.3
p439
aV1.3
p440
aV2
aV7.48
p441
aa(lp442
V2014/2015
p443
aVParis Saint-G..
p444
aVFL1
p445
aV22(7)
p446
aV1901
p447
aV7
aV5
aV2
aV-
aV1.4
p448
aV86.6
p449
aV0.9
p450
aV6
aV7.47
p451
aa(lp452
V2013/2014
p453
aVParis Saint-G..
p454
aVUCL
p455
aV5(5)
p456
aV495
p457
aV-
aV1
aV1
aV-
aV1.3
p458
aV90.4
p459
aV0.7
p460
aV-
aV6.88
p461
aa(lp462
V2013/2014
p463
aVParis Saint-G..
p464
aVFL1
p465
aV18(18)
p466
aV1936
p467
aV5
aV11
p468
aV2
aV-
aV1.7
p469
aV86.6
p470
aV0.6
p471
aV5
aV7.22
p472
aa(lp473
V2013
p474
aVBrazil
p475
aVICC
p476
aV0(2)
p477
aV28
p478
aV-
aV-
aV-
aV-
aV-
aV100
p479
aV-
aV-
aV6.03
p480
aa(lp481
V2012/2013
p482
aVParis Saint-G..
p483
aVUCL
p484
aV4
aV316
p485
aV-
aV1
aV-
aV-
aV3
aV73.6
p486
aV2.8
p487
aV2
aV7.60
p488
aa(lp489
V2012/2013
p490
aVParis Saint-G..
p491
aVFL1
p492
aV9(1)
p493
aV741
p494
aV-
aV3
aV1
aV-
aV2.4
p495
aV84.5
p496
aV0.9
p497
aV-
aV7.21
p498
aa(lp499
VTotal / Average
p500
aV
aV
aV222
p501
aV13394
p502
aV44
p503
aV35
p504
aV13
p505
aV0
aV1.6
p506
aV84.3
p507
aV0.8
p508
aV23
p509
aV7.26
p510
aasS'sumary_data'
p511
(lp512
(lp513
a(lp514
V2018/2019
p515
aVTottenham
p516
aVEPL
p517
aV15(1)
p518
aV1224
p519
aV5
aV-
aV2
aV-
aV1.4
p520
aV75.7
p521
aV1.1
p522
aV1
aV7.00
p523
aa(lp524
V2018/2019
p525
aVTottenham
p526
aVUCL
p527
aV4(2)
p528
aV323
p529
aV2
aV-
aV-
aV-
aV2.3
p530
aV82.4
p531
aV0.8
p532
aV-
aV7.14
p533
aa(lp534
V2017/2018
p535
aVTottenham
p536
aVUCL
p537
aV0(1)
p538
aV1
aV-
aV-
aV-
aV-
aV-
aV80
p539
aV1
aV-
aV6.06
p540
aa(lp541
V2017/2018
p542
aVParis Saint-G..
p543
aVFL1
p544
aV0(5)
p545
aV72
p546
aV1
aV1
aV1
aV-
aV0.6
p547
aV88.6
p548
aV0.2
p549
aV-
aV6.53
p550
aa(lp551
V2017/2018
p552
aVTottenham
p553
aVEPL
p554
aV2(4)
p555
aV208
p556
aV-
aV1
aV-
aV-
aV0.8
p557
aV77.9
p558
aV0.7
p559
aV-
aV6.48
p560
aa(lp561
V2016/2017
p562
aVParis Saint-G..
p563
aVUCL
p564
aV6(1)
p565
aV512
p566
aV1
aV1
aV-
aV-
aV2
aV80.4
p567
aV1.4
p568
aV1
aV7.60
p569
aa(lp570
V2016/2017
p571
aVParis Saint-G..
p572
aVFL1
p573
aV29(8)
p574
aV2435
p575
aV12
p576
aV5
aV-
aV-
aV1.8
p577
aV82.7
p578
aV0.5
p579
aV4
aV7.41
p580
aa(lp581
V2015/2016
p582
aVParis Saint-G..
p583
aVUCL
p584
aV3(6)
p585
aV367
p586
aV2
aV1
aV1
aV-
aV1
aV85.8
p587
aV0.7
p588
aV1
aV7.28
p589
aa(lp590
V2015/2016
p591
aVParis Saint-G..
p592
aVFL1
p593
aV26(10)
p594
aV2328
p595
aV9
aV4
aV3
aV-
aV1.8
p596
aV85.1
p597
aV0.9
p598
aV1
aV7.40
p599
aa(lp600
V2014/2015
p601
aVParis Saint-G..
p602
aVUCL
p603
aV5(3)
p604
aV507
p605
aV-
aV1
aV-
aV-
aV1.5
p606
aV85.3
p607
aV1.3
p608
aV2
aV7.48
p609
aa(lp610
V2014/2015
p611
aVParis Saint-G..
p612
aVFL1
p613
aV22(7)
p614
aV1901
p615
aV7
aV5
aV2
aV-
aV1.4
p616
aV86.6
p617
aV0.9
p618
aV6
aV7.47
p619
aa(lp620
V2013/2014
p621
aVParis Saint-G..
p622
aVUCL
p623
aV5(5)
p624
aV495
p625
aV-
aV1
aV1
aV-
aV1.3
p626
aV90.4
p627
aV0.7
p628
aV-
aV6.88
p629
aa(lp630
V2013/2014
p631
aVParis Saint-G..
p632
aVFL1
p633
aV18(18)
p634
aV1936
p635
aV5
aV11
p636
aV2
aV-
aV1.7
p637
aV86.6
p638
aV0.6
p639
aV5
aV7.22
p640
aa(lp641
V2013
p642
aVBrazil
p643
aVICC
p644
aV0(2)
p645
aV28
p646
aV-
aV-
aV-
aV-
aV-
aV100
p647
aV-
aV-
aV6.03
p648
aa(lp649
V2012/2013
p650
aVParis Saint-G..
p651
aVUCL
p652
aV4
aV316
p653
aV-
aV1
aV-
aV-
aV3
aV73.6
p654
aV2.8
p655
aV2
aV7.60
p656
aa(lp657
V2012/2013
p658
aVParis Saint-G..
p659
aVFL1
p660
aV9(1)
p661
aV741
p662
aV-
aV3
aV1
aV-
aV2.4
p663
aV84.5
p664
aV0.9
p665
aV-
aV7.21
p666
aa(lp667
VTotal / Average
p668
aV
aV
aV222
p669
aV13394
p670
aV44
p671
aV35
p672
aV13
p673
aV0
aV1.6
p674
aV84.3
p675
aV0.8
p676
aV23
p677
aV7.26
p678
aasS'id'
p679
V92508
p680
sb.