(i__main__
Player
p1
(dp2
S'name'
p3
VRoss Barkley 
p4
sS'offensive_data'
p5
(lp6
(lp7
a(lp8
V2018/2019
p9
aVChelsea
p10
aVEPL
p11
aV5(9)
p12
aV536
p13
aV3
aV3
aV-
aV-
aV1.4
p14
aV91.5
p15
aV0.6
p16
aV1
aV6.70
p17
aa(lp18
V2018/2019
p19
aVChelsea
p20
aVUEL
p21
aV4(1)
p22
aV384
p23
aV-
aV1
aV1
aV-
aV2.4
p24
aV93.8
p25
aV0.8
p26
aV-
aV7.12
p27
aa(lp28
V2018/2019
p29
aVEngland
p30
aVUNL
p31
aV3
aV229
p32
aV-
aV-
aV1
aV-
aV1.3
p33
aV91.6
p34
aV1.7
p35
aV-
aV6.69
p36
aa(lp37
V2017/2018
p38
aVChelsea
p39
aVEPL
p40
aV2
aV131
p41
aV-
aV-
aV-
aV-
aV1
aV76
p42
aV1
aV-
aV6.37
p43
aa(lp44
V2016/2017
p45
aVEverton
p46
aVEPL
p47
aV32(4)
p48
aV2909
p49
aV5
aV8
aV5
aV-
aV2.4
p50
aV82.5
p51
aV1.2
p52
aV1
aV7.15
p53
aa(lp54
V2015/2016
p55
aVEverton
p56
aVEPL
p57
aV36(2)
p58
aV3087
p59
aV8
aV8
aV4
aV-
aV2.5
p60
aV86
p61
aV0.8
p62
aV3
aV7.31
p63
aa(lp64
V2014/2015
p65
aVEverton
p66
aVUEL
p67
aV4(1)
p68
aV361
p69
aV-
aV1
aV1
aV-
aV3.4
p70
aV80.8
p71
aV0.4
p72
aV-
aV7.08
p73
aa(lp74
V2014/2015
p75
aVEverton
p76
aVEPL
p77
aV22(7)
p78
aV1966
p79
aV2
aV2
aV1
aV-
aV1.8
p80
aV87.9
p81
aV0.9
p82
aV1
aV6.80
p83
aa(lp84
V2013/2014
p85
aVEverton
p86
aVEPL
p87
aV25(9)
p88
aV2291
p89
aV6
aV-
aV5
aV-
aV2.3
p90
aV85
p91
aV0.7
p92
aV2
aV7.00
p93
aa(lp94
V2014
p95
aVEngland
p96
aVWC
p97
aV1(2)
p98
aV145
p99
aV-
aV-
aV1
aV-
aV0.7
p100
aV90.3
p101
aV0.7
p102
aV-
aV6.51
p103
aa(lp104
V2012/2013
p105
aVEverton
p106
aVEPL
p107
aV2(5)
p108
aV206
p109
aV-
aV-
aV2
aV-
aV1
aV79.2
p110
aV1.3
p111
aV-
aV6.48
p112
aa(lp113
V2011/2012
p114
aVEverton
p115
aVEPL
p116
aV2(4)
p117
aV214
p118
aV-
aV-
aV-
aV-
aV1.2
p119
aV82.1
p120
aV0.7
p121
aV-
aV6.27
p122
aa(lp123
VTotal / Average
p124
aV
aV
aV182
p125
aV12459
p126
aV24
p127
aV23
p128
aV21
p129
aV0
aV2.1
p130
aV85.6
p131
aV0.9
p132
aV8
aV6.98
p133
aasS'url'
p134
S'https://www.whoscored.com/Players/92547/History/'
p135
sS'passing_data'
p136
(lp137
(lp138
a(lp139
V2018/2019
p140
aVChelsea
p141
aVEPL
p142
aV5(9)
p143
aV536
p144
aV3
aV3
aV-
aV-
aV1.4
p145
aV91.5
p146
aV0.6
p147
aV1
aV6.70
p148
aa(lp149
V2018/2019
p150
aVChelsea
p151
aVUEL
p152
aV4(1)
p153
aV384
p154
aV-
aV1
aV1
aV-
aV2.4
p155
aV93.8
p156
aV0.8
p157
aV-
aV7.12
p158
aa(lp159
V2018/2019
p160
aVEngland
p161
aVUNL
p162
aV3
aV229
p163
aV-
aV-
aV1
aV-
aV1.3
p164
aV91.6
p165
aV1.7
p166
aV-
aV6.69
p167
aa(lp168
V2017/2018
p169
aVChelsea
p170
aVEPL
p171
aV2
aV131
p172
aV-
aV-
aV-
aV-
aV1
aV76
p173
aV1
aV-
aV6.37
p174
aa(lp175
V2016/2017
p176
aVEverton
p177
aVEPL
p178
aV32(4)
p179
aV2909
p180
aV5
aV8
aV5
aV-
aV2.4
p181
aV82.5
p182
aV1.2
p183
aV1
aV7.15
p184
aa(lp185
V2015/2016
p186
aVEverton
p187
aVEPL
p188
aV36(2)
p189
aV3087
p190
aV8
aV8
aV4
aV-
aV2.5
p191
aV86
p192
aV0.8
p193
aV3
aV7.31
p194
aa(lp195
V2014/2015
p196
aVEverton
p197
aVUEL
p198
aV4(1)
p199
aV361
p200
aV-
aV1
aV1
aV-
aV3.4
p201
aV80.8
p202
aV0.4
p203
aV-
aV7.08
p204
aa(lp205
V2014/2015
p206
aVEverton
p207
aVEPL
p208
aV22(7)
p209
aV1966
p210
aV2
aV2
aV1
aV-
aV1.8
p211
aV87.9
p212
aV0.9
p213
aV1
aV6.80
p214
aa(lp215
V2013/2014
p216
aVEverton
p217
aVEPL
p218
aV25(9)
p219
aV2291
p220
aV6
aV-
aV5
aV-
aV2.3
p221
aV85
p222
aV0.7
p223
aV2
aV7.00
p224
aa(lp225
V2014
p226
aVEngland
p227
aVWC
p228
aV1(2)
p229
aV145
p230
aV-
aV-
aV1
aV-
aV0.7
p231
aV90.3
p232
aV0.7
p233
aV-
aV6.51
p234
aa(lp235
V2012/2013
p236
aVEverton
p237
aVEPL
p238
aV2(5)
p239
aV206
p240
aV-
aV-
aV2
aV-
aV1
aV79.2
p241
aV1.3
p242
aV-
aV6.48
p243
aa(lp244
V2011/2012
p245
aVEverton
p246
aVEPL
p247
aV2(4)
p248
aV214
p249
aV-
aV-
aV-
aV-
aV1.2
p250
aV82.1
p251
aV0.7
p252
aV-
aV6.27
p253
aa(lp254
VTotal / Average
p255
aV
aV
aV182
p256
aV12459
p257
aV24
p258
aV23
p259
aV21
p260
aV0
aV2.1
p261
aV85.6
p262
aV0.9
p263
aV8
aV6.98
p264
aasS'defensive_data'
p265
(lp266
(lp267
a(lp268
V2018/2019
p269
aVChelsea
p270
aVEPL
p271
aV5(9)
p272
aV536
p273
aV3
aV3
aV-
aV-
aV1.4
p274
aV91.5
p275
aV0.6
p276
aV1
aV6.70
p277
aa(lp278
V2018/2019
p279
aVChelsea
p280
aVUEL
p281
aV4(1)
p282
aV384
p283
aV-
aV1
aV1
aV-
aV2.4
p284
aV93.8
p285
aV0.8
p286
aV-
aV7.12
p287
aa(lp288
V2018/2019
p289
aVEngland
p290
aVUNL
p291
aV3
aV229
p292
aV-
aV-
aV1
aV-
aV1.3
p293
aV91.6
p294
aV1.7
p295
aV-
aV6.69
p296
aa(lp297
V2017/2018
p298
aVChelsea
p299
aVEPL
p300
aV2
aV131
p301
aV-
aV-
aV-
aV-
aV1
aV76
p302
aV1
aV-
aV6.37
p303
aa(lp304
V2016/2017
p305
aVEverton
p306
aVEPL
p307
aV32(4)
p308
aV2909
p309
aV5
aV8
aV5
aV-
aV2.4
p310
aV82.5
p311
aV1.2
p312
aV1
aV7.15
p313
aa(lp314
V2015/2016
p315
aVEverton
p316
aVEPL
p317
aV36(2)
p318
aV3087
p319
aV8
aV8
aV4
aV-
aV2.5
p320
aV86
p321
aV0.8
p322
aV3
aV7.31
p323
aa(lp324
V2014/2015
p325
aVEverton
p326
aVUEL
p327
aV4(1)
p328
aV361
p329
aV-
aV1
aV1
aV-
aV3.4
p330
aV80.8
p331
aV0.4
p332
aV-
aV7.08
p333
aa(lp334
V2014/2015
p335
aVEverton
p336
aVEPL
p337
aV22(7)
p338
aV1966
p339
aV2
aV2
aV1
aV-
aV1.8
p340
aV87.9
p341
aV0.9
p342
aV1
aV6.80
p343
aa(lp344
V2013/2014
p345
aVEverton
p346
aVEPL
p347
aV25(9)
p348
aV2291
p349
aV6
aV-
aV5
aV-
aV2.3
p350
aV85
p351
aV0.7
p352
aV2
aV7.00
p353
aa(lp354
V2014
p355
aVEngland
p356
aVWC
p357
aV1(2)
p358
aV145
p359
aV-
aV-
aV1
aV-
aV0.7
p360
aV90.3
p361
aV0.7
p362
aV-
aV6.51
p363
aa(lp364
V2012/2013
p365
aVEverton
p366
aVEPL
p367
aV2(5)
p368
aV206
p369
aV-
aV-
aV2
aV-
aV1
aV79.2
p370
aV1.3
p371
aV-
aV6.48
p372
aa(lp373
V2011/2012
p374
aVEverton
p375
aVEPL
p376
aV2(4)
p377
aV214
p378
aV-
aV-
aV-
aV-
aV1.2
p379
aV82.1
p380
aV0.7
p381
aV-
aV6.27
p382
aa(lp383
VTotal / Average
p384
aV
aV
aV182
p385
aV12459
p386
aV24
p387
aV23
p388
aV21
p389
aV0
aV2.1
p390
aV85.6
p391
aV0.9
p392
aV8
aV6.98
p393
aasS'sumary_data'
p394
(lp395
(lp396
a(lp397
V2018/2019
p398
aVChelsea
p399
aVEPL
p400
aV5(9)
p401
aV536
p402
aV3
aV3
aV-
aV-
aV1.4
p403
aV91.5
p404
aV0.6
p405
aV1
aV6.70
p406
aa(lp407
V2018/2019
p408
aVChelsea
p409
aVUEL
p410
aV4(1)
p411
aV384
p412
aV-
aV1
aV1
aV-
aV2.4
p413
aV93.8
p414
aV0.8
p415
aV-
aV7.12
p416
aa(lp417
V2018/2019
p418
aVEngland
p419
aVUNL
p420
aV3
aV229
p421
aV-
aV-
aV1
aV-
aV1.3
p422
aV91.6
p423
aV1.7
p424
aV-
aV6.69
p425
aa(lp426
V2017/2018
p427
aVChelsea
p428
aVEPL
p429
aV2
aV131
p430
aV-
aV-
aV-
aV-
aV1
aV76
p431
aV1
aV-
aV6.37
p432
aa(lp433
V2016/2017
p434
aVEverton
p435
aVEPL
p436
aV32(4)
p437
aV2909
p438
aV5
aV8
aV5
aV-
aV2.4
p439
aV82.5
p440
aV1.2
p441
aV1
aV7.15
p442
aa(lp443
V2015/2016
p444
aVEverton
p445
aVEPL
p446
aV36(2)
p447
aV3087
p448
aV8
aV8
aV4
aV-
aV2.5
p449
aV86
p450
aV0.8
p451
aV3
aV7.31
p452
aa(lp453
V2014/2015
p454
aVEverton
p455
aVUEL
p456
aV4(1)
p457
aV361
p458
aV-
aV1
aV1
aV-
aV3.4
p459
aV80.8
p460
aV0.4
p461
aV-
aV7.08
p462
aa(lp463
V2014/2015
p464
aVEverton
p465
aVEPL
p466
aV22(7)
p467
aV1966
p468
aV2
aV2
aV1
aV-
aV1.8
p469
aV87.9
p470
aV0.9
p471
aV1
aV6.80
p472
aa(lp473
V2013/2014
p474
aVEverton
p475
aVEPL
p476
aV25(9)
p477
aV2291
p478
aV6
aV-
aV5
aV-
aV2.3
p479
aV85
p480
aV0.7
p481
aV2
aV7.00
p482
aa(lp483
V2014
p484
aVEngland
p485
aVWC
p486
aV1(2)
p487
aV145
p488
aV-
aV-
aV1
aV-
aV0.7
p489
aV90.3
p490
aV0.7
p491
aV-
aV6.51
p492
aa(lp493
V2012/2013
p494
aVEverton
p495
aVEPL
p496
aV2(5)
p497
aV206
p498
aV-
aV-
aV2
aV-
aV1
aV79.2
p499
aV1.3
p500
aV-
aV6.48
p501
aa(lp502
V2011/2012
p503
aVEverton
p504
aVEPL
p505
aV2(4)
p506
aV214
p507
aV-
aV-
aV-
aV-
aV1.2
p508
aV82.1
p509
aV0.7
p510
aV-
aV6.27
p511
aa(lp512
VTotal / Average
p513
aV
aV
aV182
p514
aV12459
p515
aV24
p516
aV23
p517
aV21
p518
aV0
aV2.1
p519
aV85.6
p520
aV0.9
p521
aV8
aV6.98
p522
aasS'id'
p523
V92547
p524
sb.