(i__main__
Player
p1
(dp2
S'name'
p3
VJack Stephens 
p4
sS'offensive_data'
p5
(lp6
(lp7
a(lp8
V2018/2019
p9
aVSouthampton
p10
aVEPL
p11
aV7(1)
p12
aV675
p13
aV-
aV-
aV1
aV-
aV0.5
p14
aV71.9
p15
aV2.4
p16
aV1
aV6.68
p17
aa(lp18
V2017/2018
p19
aVSouthampton
p20
aVEPL
p21
aV22
p22
aV1980
p23
aV2
aV-
aV6
aV1
aV0.5
p24
aV75.5
p25
aV2
aV1
aV6.79
p26
aa(lp27
V2016/2017
p28
aVSouthampton
p29
aVEPL
p30
aV15(2)
p31
aV1469
p32
aV-
aV1
aV1
aV-
aV0.2
p33
aV83.9
p34
aV1.7
p35
aV-
aV6.78
p36
aa(lp37
V2015/2016
p38
aVMiddlesbrough
p39
aVEC
p40
aV0(1)
p41
aV11
p42
aV-
aV-
aV-
aV-
aV-
aV78.6
p43
aV-
aV-
aV6.04
p44
aa(lp45
VTotal / Average
p46
aV
aV
aV48
p47
aV4135
p48
aV2
aV1
aV8
aV1
aV0.4
p49
aV78
p50
aV1.9
p51
aV2
aV6.75
p52
aasS'url'
p53
S'https://www.whoscored.com/Players/92550/History/'
p54
sS'passing_data'
p55
(lp56
(lp57
a(lp58
V2018/2019
p59
aVSouthampton
p60
aVEPL
p61
aV7(1)
p62
aV675
p63
aV-
aV-
aV1
aV-
aV0.5
p64
aV71.9
p65
aV2.4
p66
aV1
aV6.68
p67
aa(lp68
V2017/2018
p69
aVSouthampton
p70
aVEPL
p71
aV22
p72
aV1980
p73
aV2
aV-
aV6
aV1
aV0.5
p74
aV75.5
p75
aV2
aV1
aV6.79
p76
aa(lp77
V2016/2017
p78
aVSouthampton
p79
aVEPL
p80
aV15(2)
p81
aV1469
p82
aV-
aV1
aV1
aV-
aV0.2
p83
aV83.9
p84
aV1.7
p85
aV-
aV6.78
p86
aa(lp87
V2015/2016
p88
aVMiddlesbrough
p89
aVEC
p90
aV0(1)
p91
aV11
p92
aV-
aV-
aV-
aV-
aV-
aV78.6
p93
aV-
aV-
aV6.04
p94
aa(lp95
VTotal / Average
p96
aV
aV
aV48
p97
aV4135
p98
aV2
aV1
aV8
aV1
aV0.4
p99
aV78
p100
aV1.9
p101
aV2
aV6.75
p102
aasS'defensive_data'
p103
(lp104
(lp105
a(lp106
V2018/2019
p107
aVSouthampton
p108
aVEPL
p109
aV7(1)
p110
aV675
p111
aV-
aV-
aV1
aV-
aV0.5
p112
aV71.9
p113
aV2.4
p114
aV1
aV6.68
p115
aa(lp116
V2017/2018
p117
aVSouthampton
p118
aVEPL
p119
aV22
p120
aV1980
p121
aV2
aV-
aV6
aV1
aV0.5
p122
aV75.5
p123
aV2
aV1
aV6.79
p124
aa(lp125
V2016/2017
p126
aVSouthampton
p127
aVEPL
p128
aV15(2)
p129
aV1469
p130
aV-
aV1
aV1
aV-
aV0.2
p131
aV83.9
p132
aV1.7
p133
aV-
aV6.78
p134
aa(lp135
V2015/2016
p136
aVMiddlesbrough
p137
aVEC
p138
aV0(1)
p139
aV11
p140
aV-
aV-
aV-
aV-
aV-
aV78.6
p141
aV-
aV-
aV6.04
p142
aa(lp143
VTotal / Average
p144
aV
aV
aV48
p145
aV4135
p146
aV2
aV1
aV8
aV1
aV0.4
p147
aV78
p148
aV1.9
p149
aV2
aV6.75
p150
aasS'sumary_data'
p151
(lp152
(lp153
a(lp154
V2018/2019
p155
aVSouthampton
p156
aVEPL
p157
aV7(1)
p158
aV675
p159
aV-
aV-
aV1
aV-
aV0.5
p160
aV71.9
p161
aV2.4
p162
aV1
aV6.68
p163
aa(lp164
V2017/2018
p165
aVSouthampton
p166
aVEPL
p167
aV22
p168
aV1980
p169
aV2
aV-
aV6
aV1
aV0.5
p170
aV75.5
p171
aV2
aV1
aV6.79
p172
aa(lp173
V2016/2017
p174
aVSouthampton
p175
aVEPL
p176
aV15(2)
p177
aV1469
p178
aV-
aV1
aV1
aV-
aV0.2
p179
aV83.9
p180
aV1.7
p181
aV-
aV6.78
p182
aa(lp183
V2015/2016
p184
aVMiddlesbrough
p185
aVEC
p186
aV0(1)
p187
aV11
p188
aV-
aV-
aV-
aV-
aV-
aV78.6
p189
aV-
aV-
aV6.04
p190
aa(lp191
VTotal / Average
p192
aV
aV
aV48
p193
aV4135
p194
aV2
aV1
aV8
aV1
aV0.4
p195
aV78
p196
aV1.9
p197
aV2
aV6.75
p198
aasS'id'
p199
V92550
p200
sb.