(i__main__
Player
p1
(dp2
S'name'
p3
VNathaniel Chalobah 
p4
sS'offensive_data'
p5
(lp6
(lp7
a(lp8
V2018/2019
p9
aVWatford
p10
aVEPL
p11
aV2(4)
p12
aV192
p13
aV-
aV-
aV2
aV-
aV0.3
p14
aV70.9
p15
aV0.5
p16
aV-
aV6.12
p17
aa(lp18
V2018/2019
p19
aVEngland
p20
aVUNL
p21
aV0(1)
p22
aV1
aV-
aV-
aV-
aV-
aV-
aV-
aV-
aV-
aV6.00
p23
aa(lp24
V2017/2018
p25
aVWatford
p26
aVEPL
p27
aV5(1)
p28
aV448
p29
aV-
aV-
aV1
aV-
aV2
aV72.5
p30
aV1.8
p31
aV-
aV6.86
p32
aa(lp33
V2016/2017
p34
aVChelsea
p35
aVEPL
p36
aV1(9)
p37
aV159
p38
aV-
aV1
aV2
aV-
aV0.1
p39
aV82.5
p40
aV0.4
p41
aV-
aV6.28
p42
aa(lp43
V2015/2016
p44
aVNapoli
p45
aVISA
p46
aV0(5)
p47
aV29
p48
aV-
aV-
aV-
aV-
aV-
aV93
p49
aV0.4
p50
aV-
aV6.15
p51
aa(lp52
V2015/2016
p53
aVNapoli
p54
aVUEL
p55
aV2(1)
p56
aV176
p57
aV1
aV1
aV1
aV-
aV0.3
p58
aV83.8
p59
aV0.3
p60
aV-
aV7.10
p61
aa(lp62
V2015
p63
aVEngland U21
p64
aVIEU
p65
aV3
aV270
p66
aV-
aV-
aV-
aV-
aV1.7
p67
aV77.6
p68
aV1.7
p69
aV-
aV7.08
p70
aa(lp71
V2014/2015
p72
aVReading
p73
aVEC
p74
aV15
p75
aV1199
p76
aV1
aV1
aV-
aV-
aV1.3
p77
aV74.5
p78
aV1.8
p79
aV-
aV6.89
p80
aa(lp81
V2014/2015
p82
aVBurnley
p83
aVEPL
p84
aV0(4)
p85
aV66
p86
aV-
aV-
aV1
aV-
aV0.3
p87
aV87.9
p88
aV-
aV-
aV5.89
p89
aa(lp90
V2013/2014
p91
aVMiddlesbrough
p92
aVEC
p93
aV15(4)
p94
aV1286
p95
aV1
aV-
aV3
aV-
aV0.9
p96
aV77.8
p97
aV1.7
p98
aV1
aV6.75
p99
aa(lp100
V2013/2014
p101
aVNottingham Fo..
p102
aVEC
p103
aV7(5)
p104
aV598
p105
aV2
aV-
aV1
aV1
aV0.8
p106
aV80.7
p107
aV1.3
p108
aV-
aV6.43
p109
aa(lp110
V2013
p111
aVEngland U21
p112
aVIEU
p113
aV2(1)
p114
aV193
p115
aV-
aV-
aV1
aV-
aV1
aV82
p116
aV1.7
p117
aV-
aV6.61
p118
aa(lp119
VTotal / Average
p120
aV
aV
aV87
p121
aV4617
p122
aV5
aV3
aV12
p123
aV1
aV0.8
p124
aV78.1
p125
aV1.2
p126
aV1
aV6.58
p127
aasS'url'
p128
S'https://www.whoscored.com/Players/92729/History/'
p129
sS'passing_data'
p130
(lp131
(lp132
a(lp133
V2018/2019
p134
aVWatford
p135
aVEPL
p136
aV2(4)
p137
aV192
p138
aV-
aV-
aV2
aV-
aV0.3
p139
aV70.9
p140
aV0.5
p141
aV-
aV6.12
p142
aa(lp143
V2018/2019
p144
aVEngland
p145
aVUNL
p146
aV0(1)
p147
aV1
aV-
aV-
aV-
aV-
aV-
aV-
aV-
aV-
aV6.00
p148
aa(lp149
V2017/2018
p150
aVWatford
p151
aVEPL
p152
aV5(1)
p153
aV448
p154
aV-
aV-
aV1
aV-
aV2
aV72.5
p155
aV1.8
p156
aV-
aV6.86
p157
aa(lp158
V2016/2017
p159
aVChelsea
p160
aVEPL
p161
aV1(9)
p162
aV159
p163
aV-
aV1
aV2
aV-
aV0.1
p164
aV82.5
p165
aV0.4
p166
aV-
aV6.28
p167
aa(lp168
V2015/2016
p169
aVNapoli
p170
aVISA
p171
aV0(5)
p172
aV29
p173
aV-
aV-
aV-
aV-
aV-
aV93
p174
aV0.4
p175
aV-
aV6.15
p176
aa(lp177
V2015/2016
p178
aVNapoli
p179
aVUEL
p180
aV2(1)
p181
aV176
p182
aV1
aV1
aV1
aV-
aV0.3
p183
aV83.8
p184
aV0.3
p185
aV-
aV7.10
p186
aa(lp187
V2015
p188
aVEngland U21
p189
aVIEU
p190
aV3
aV270
p191
aV-
aV-
aV-
aV-
aV1.7
p192
aV77.6
p193
aV1.7
p194
aV-
aV7.08
p195
aa(lp196
V2014/2015
p197
aVReading
p198
aVEC
p199
aV15
p200
aV1199
p201
aV1
aV1
aV-
aV-
aV1.3
p202
aV74.5
p203
aV1.8
p204
aV-
aV6.89
p205
aa(lp206
V2014/2015
p207
aVBurnley
p208
aVEPL
p209
aV0(4)
p210
aV66
p211
aV-
aV-
aV1
aV-
aV0.3
p212
aV87.9
p213
aV-
aV-
aV5.89
p214
aa(lp215
V2013/2014
p216
aVMiddlesbrough
p217
aVEC
p218
aV15(4)
p219
aV1286
p220
aV1
aV-
aV3
aV-
aV0.9
p221
aV77.8
p222
aV1.7
p223
aV1
aV6.75
p224
aa(lp225
V2013/2014
p226
aVNottingham Fo..
p227
aVEC
p228
aV7(5)
p229
aV598
p230
aV2
aV-
aV1
aV1
aV0.8
p231
aV80.7
p232
aV1.3
p233
aV-
aV6.43
p234
aa(lp235
V2013
p236
aVEngland U21
p237
aVIEU
p238
aV2(1)
p239
aV193
p240
aV-
aV-
aV1
aV-
aV1
aV82
p241
aV1.7
p242
aV-
aV6.61
p243
aa(lp244
VTotal / Average
p245
aV
aV
aV87
p246
aV4617
p247
aV5
aV3
aV12
p248
aV1
aV0.8
p249
aV78.1
p250
aV1.2
p251
aV1
aV6.58
p252
aasS'defensive_data'
p253
(lp254
(lp255
a(lp256
V2018/2019
p257
aVWatford
p258
aVEPL
p259
aV2(4)
p260
aV192
p261
aV-
aV-
aV2
aV-
aV0.3
p262
aV70.9
p263
aV0.5
p264
aV-
aV6.12
p265
aa(lp266
V2018/2019
p267
aVEngland
p268
aVUNL
p269
aV0(1)
p270
aV1
aV-
aV-
aV-
aV-
aV-
aV-
aV-
aV-
aV6.00
p271
aa(lp272
V2017/2018
p273
aVWatford
p274
aVEPL
p275
aV5(1)
p276
aV448
p277
aV-
aV-
aV1
aV-
aV2
aV72.5
p278
aV1.8
p279
aV-
aV6.86
p280
aa(lp281
V2016/2017
p282
aVChelsea
p283
aVEPL
p284
aV1(9)
p285
aV159
p286
aV-
aV1
aV2
aV-
aV0.1
p287
aV82.5
p288
aV0.4
p289
aV-
aV6.28
p290
aa(lp291
V2015/2016
p292
aVNapoli
p293
aVISA
p294
aV0(5)
p295
aV29
p296
aV-
aV-
aV-
aV-
aV-
aV93
p297
aV0.4
p298
aV-
aV6.15
p299
aa(lp300
V2015/2016
p301
aVNapoli
p302
aVUEL
p303
aV2(1)
p304
aV176
p305
aV1
aV1
aV1
aV-
aV0.3
p306
aV83.8
p307
aV0.3
p308
aV-
aV7.10
p309
aa(lp310
V2015
p311
aVEngland U21
p312
aVIEU
p313
aV3
aV270
p314
aV-
aV-
aV-
aV-
aV1.7
p315
aV77.6
p316
aV1.7
p317
aV-
aV7.08
p318
aa(lp319
V2014/2015
p320
aVReading
p321
aVEC
p322
aV15
p323
aV1199
p324
aV1
aV1
aV-
aV-
aV1.3
p325
aV74.5
p326
aV1.8
p327
aV-
aV6.89
p328
aa(lp329
V2014/2015
p330
aVBurnley
p331
aVEPL
p332
aV0(4)
p333
aV66
p334
aV-
aV-
aV1
aV-
aV0.3
p335
aV87.9
p336
aV-
aV-
aV5.89
p337
aa(lp338
V2013/2014
p339
aVMiddlesbrough
p340
aVEC
p341
aV15(4)
p342
aV1286
p343
aV1
aV-
aV3
aV-
aV0.9
p344
aV77.8
p345
aV1.7
p346
aV1
aV6.75
p347
aa(lp348
V2013/2014
p349
aVNottingham Fo..
p350
aVEC
p351
aV7(5)
p352
aV598
p353
aV2
aV-
aV1
aV1
aV0.8
p354
aV80.7
p355
aV1.3
p356
aV-
aV6.43
p357
aa(lp358
V2013
p359
aVEngland U21
p360
aVIEU
p361
aV2(1)
p362
aV193
p363
aV-
aV-
aV1
aV-
aV1
aV82
p364
aV1.7
p365
aV-
aV6.61
p366
aa(lp367
VTotal / Average
p368
aV
aV
aV87
p369
aV4617
p370
aV5
aV3
aV12
p371
aV1
aV0.8
p372
aV78.1
p373
aV1.2
p374
aV1
aV6.58
p375
aasS'sumary_data'
p376
(lp377
(lp378
a(lp379
V2018/2019
p380
aVWatford
p381
aVEPL
p382
aV2(4)
p383
aV192
p384
aV-
aV-
aV2
aV-
aV0.3
p385
aV70.9
p386
aV0.5
p387
aV-
aV6.12
p388
aa(lp389
V2018/2019
p390
aVEngland
p391
aVUNL
p392
aV0(1)
p393
aV1
aV-
aV-
aV-
aV-
aV-
aV-
aV-
aV-
aV6.00
p394
aa(lp395
V2017/2018
p396
aVWatford
p397
aVEPL
p398
aV5(1)
p399
aV448
p400
aV-
aV-
aV1
aV-
aV2
aV72.5
p401
aV1.8
p402
aV-
aV6.86
p403
aa(lp404
V2016/2017
p405
aVChelsea
p406
aVEPL
p407
aV1(9)
p408
aV159
p409
aV-
aV1
aV2
aV-
aV0.1
p410
aV82.5
p411
aV0.4
p412
aV-
aV6.28
p413
aa(lp414
V2015/2016
p415
aVNapoli
p416
aVISA
p417
aV0(5)
p418
aV29
p419
aV-
aV-
aV-
aV-
aV-
aV93
p420
aV0.4
p421
aV-
aV6.15
p422
aa(lp423
V2015/2016
p424
aVNapoli
p425
aVUEL
p426
aV2(1)
p427
aV176
p428
aV1
aV1
aV1
aV-
aV0.3
p429
aV83.8
p430
aV0.3
p431
aV-
aV7.10
p432
aa(lp433
V2015
p434
aVEngland U21
p435
aVIEU
p436
aV3
aV270
p437
aV-
aV-
aV-
aV-
aV1.7
p438
aV77.6
p439
aV1.7
p440
aV-
aV7.08
p441
aa(lp442
V2014/2015
p443
aVReading
p444
aVEC
p445
aV15
p446
aV1199
p447
aV1
aV1
aV-
aV-
aV1.3
p448
aV74.5
p449
aV1.8
p450
aV-
aV6.89
p451
aa(lp452
V2014/2015
p453
aVBurnley
p454
aVEPL
p455
aV0(4)
p456
aV66
p457
aV-
aV-
aV1
aV-
aV0.3
p458
aV87.9
p459
aV-
aV-
aV5.89
p460
aa(lp461
V2013/2014
p462
aVMiddlesbrough
p463
aVEC
p464
aV15(4)
p465
aV1286
p466
aV1
aV-
aV3
aV-
aV0.9
p467
aV77.8
p468
aV1.7
p469
aV1
aV6.75
p470
aa(lp471
V2013/2014
p472
aVNottingham Fo..
p473
aVEC
p474
aV7(5)
p475
aV598
p476
aV2
aV-
aV1
aV1
aV0.8
p477
aV80.7
p478
aV1.3
p479
aV-
aV6.43
p480
aa(lp481
V2013
p482
aVEngland U21
p483
aVIEU
p484
aV2(1)
p485
aV193
p486
aV-
aV-
aV1
aV-
aV1
aV82
p487
aV1.7
p488
aV-
aV6.61
p489
aa(lp490
VTotal / Average
p491
aV
aV
aV87
p492
aV4617
p493
aV5
aV3
aV12
p494
aV1
aV0.8
p495
aV78.1
p496
aV1.2
p497
aV1
aV6.58
p498
aasS'id'
p499
V92729
p500
sb.