(i__main__
Player
p1
(dp2
S'name'
p3
VElias Kachunga 
p4
sS'offensive_data'
p5
(lp6
(lp7
a(lp8
V2018/2019
p9
aVHuddersfield
p10
aVEPL
p11
aV2(1)
p12
aV156
p13
aV-
aV-
aV-
aV-
aV0.7
p14
aV76.5
p15
aV1
aV-
aV6.11
p16
aa(lp17
V2017/2018
p18
aVHuddersfield
p19
aVEPL
p20
aV17(2)
p21
aV1338
p22
aV1
aV1
aV1
aV-
aV0.6
p23
aV66.4
p24
aV0.9
p25
aV-
aV6.46
p26
aa(lp27
V2016/2017
p28
aVHuddersfield
p29
aVEC
p30
aV44(1)
p31
aV3816
p32
aV12
p33
aV2
aV7
aV-
aV1.6
p34
aV73.3
p35
aV1.6
p36
aV4
aV6.88
p37
aa(lp38
V2015/2016
p39
aVIngolstadt
p40
aVGB
p41
aV3(7)
p42
aV269
p43
aV-
aV-
aV-
aV-
aV0.4
p44
aV69.6
p45
aV0.9
p46
aV-
aV6.19
p47
aa(lp48
V2014/2015
p49
aVPaderborn
p50
aVGB
p51
aV24(8)
p52
aV2227
p53
aV6
aV1
aV4
aV-
aV1.7
p54
aV69.5
p55
aV2.5
p56
aV1
aV6.63
p57
aa(lp58
V2010/2011
p59
aVBorussia M.Gl..
p60
aVGB
p61
aV0(2)
p62
aV30
p63
aV-
aV-
aV-
aV-
aV-
aV-
aV-
aV-
aV5.87
p64
aa(lp65
VTotal / Average
p66
aV
aV
aV111
p67
aV7836
p68
aV19
p69
aV4
aV12
p70
aV0
aV1.3
p71
aV69.5
p72
aV1.6
p73
aV5
aV6.63
p74
aasS'url'
p75
S'https://www.whoscored.com/Players/92804/History/'
p76
sS'passing_data'
p77
(lp78
(lp79
a(lp80
V2018/2019
p81
aVHuddersfield
p82
aVEPL
p83
aV2(1)
p84
aV156
p85
aV-
aV-
aV-
aV-
aV0.7
p86
aV76.5
p87
aV1
aV-
aV6.11
p88
aa(lp89
V2017/2018
p90
aVHuddersfield
p91
aVEPL
p92
aV17(2)
p93
aV1338
p94
aV1
aV1
aV1
aV-
aV0.6
p95
aV66.4
p96
aV0.9
p97
aV-
aV6.46
p98
aa(lp99
V2016/2017
p100
aVHuddersfield
p101
aVEC
p102
aV44(1)
p103
aV3816
p104
aV12
p105
aV2
aV7
aV-
aV1.6
p106
aV73.3
p107
aV1.6
p108
aV4
aV6.88
p109
aa(lp110
V2015/2016
p111
aVIngolstadt
p112
aVGB
p113
aV3(7)
p114
aV269
p115
aV-
aV-
aV-
aV-
aV0.4
p116
aV69.6
p117
aV0.9
p118
aV-
aV6.19
p119
aa(lp120
V2014/2015
p121
aVPaderborn
p122
aVGB
p123
aV24(8)
p124
aV2227
p125
aV6
aV1
aV4
aV-
aV1.7
p126
aV69.5
p127
aV2.5
p128
aV1
aV6.63
p129
aa(lp130
V2010/2011
p131
aVBorussia M.Gl..
p132
aVGB
p133
aV0(2)
p134
aV30
p135
aV-
aV-
aV-
aV-
aV-
aV-
aV-
aV-
aV5.87
p136
aa(lp137
VTotal / Average
p138
aV
aV
aV111
p139
aV7836
p140
aV19
p141
aV4
aV12
p142
aV0
aV1.3
p143
aV69.5
p144
aV1.6
p145
aV5
aV6.63
p146
aasS'defensive_data'
p147
(lp148
(lp149
a(lp150
V2018/2019
p151
aVHuddersfield
p152
aVEPL
p153
aV2(1)
p154
aV156
p155
aV-
aV-
aV-
aV-
aV0.7
p156
aV76.5
p157
aV1
aV-
aV6.11
p158
aa(lp159
V2017/2018
p160
aVHuddersfield
p161
aVEPL
p162
aV17(2)
p163
aV1338
p164
aV1
aV1
aV1
aV-
aV0.6
p165
aV66.4
p166
aV0.9
p167
aV-
aV6.46
p168
aa(lp169
V2016/2017
p170
aVHuddersfield
p171
aVEC
p172
aV44(1)
p173
aV3816
p174
aV12
p175
aV2
aV7
aV-
aV1.6
p176
aV73.3
p177
aV1.6
p178
aV4
aV6.88
p179
aa(lp180
V2015/2016
p181
aVIngolstadt
p182
aVGB
p183
aV3(7)
p184
aV269
p185
aV-
aV-
aV-
aV-
aV0.4
p186
aV69.6
p187
aV0.9
p188
aV-
aV6.19
p189
aa(lp190
V2014/2015
p191
aVPaderborn
p192
aVGB
p193
aV24(8)
p194
aV2227
p195
aV6
aV1
aV4
aV-
aV1.7
p196
aV69.5
p197
aV2.5
p198
aV1
aV6.63
p199
aa(lp200
V2010/2011
p201
aVBorussia M.Gl..
p202
aVGB
p203
aV0(2)
p204
aV30
p205
aV-
aV-
aV-
aV-
aV-
aV-
aV-
aV-
aV5.87
p206
aa(lp207
VTotal / Average
p208
aV
aV
aV111
p209
aV7836
p210
aV19
p211
aV4
aV12
p212
aV0
aV1.3
p213
aV69.5
p214
aV1.6
p215
aV5
aV6.63
p216
aasS'sumary_data'
p217
(lp218
(lp219
a(lp220
V2018/2019
p221
aVHuddersfield
p222
aVEPL
p223
aV2(1)
p224
aV156
p225
aV-
aV-
aV-
aV-
aV0.7
p226
aV76.5
p227
aV1
aV-
aV6.11
p228
aa(lp229
V2017/2018
p230
aVHuddersfield
p231
aVEPL
p232
aV17(2)
p233
aV1338
p234
aV1
aV1
aV1
aV-
aV0.6
p235
aV66.4
p236
aV0.9
p237
aV-
aV6.46
p238
aa(lp239
V2016/2017
p240
aVHuddersfield
p241
aVEC
p242
aV44(1)
p243
aV3816
p244
aV12
p245
aV2
aV7
aV-
aV1.6
p246
aV73.3
p247
aV1.6
p248
aV4
aV6.88
p249
aa(lp250
V2015/2016
p251
aVIngolstadt
p252
aVGB
p253
aV3(7)
p254
aV269
p255
aV-
aV-
aV-
aV-
aV0.4
p256
aV69.6
p257
aV0.9
p258
aV-
aV6.19
p259
aa(lp260
V2014/2015
p261
aVPaderborn
p262
aVGB
p263
aV24(8)
p264
aV2227
p265
aV6
aV1
aV4
aV-
aV1.7
p266
aV69.5
p267
aV2.5
p268
aV1
aV6.63
p269
aa(lp270
V2010/2011
p271
aVBorussia M.Gl..
p272
aVGB
p273
aV0(2)
p274
aV30
p275
aV-
aV-
aV-
aV-
aV-
aV-
aV-
aV-
aV5.87
p276
aa(lp277
VTotal / Average
p278
aV
aV
aV111
p279
aV7836
p280
aV19
p281
aV4
aV12
p282
aV0
aV1.3
p283
aV69.5
p284
aV1.6
p285
aV5
aV6.63
p286
aasS'id'
p287
V92804
p288
sb.