(i__main__
Player
p1
(dp2
S'name'
p3
VSimon Francis 
p4
sS'offensive_data'
p5
(lp6
(lp7
a(lp8
V2018/2019
p9
aVBournemouth
p10
aVEPL
p11
aV11(4)
p12
aV1092
p13
aV-
aV2
aV1
aV-
aV0.2
p14
aV73.5
p15
aV2.7
p16
aV-
aV6.77
p17
aa(lp18
V2017/2018
p19
aVBournemouth
p20
aVEPL
p21
aV31(1)
p22
aV2710
p23
aV-
aV1
aV8
aV1
aV0.4
p24
aV73.5
p25
aV4.4
p26
aV1
aV6.96
p27
aa(lp28
V2016/2017
p29
aVBournemouth
p30
aVEPL
p31
aV34
p32
aV2941
p33
aV-
aV1
aV4
aV1
aV0.2
p34
aV79.6
p35
aV3.4
p36
aV-
aV6.94
p37
aa(lp38
V2015/2016
p39
aVBournemouth
p40
aVEPL
p41
aV38
p42
aV3387
p43
aV-
aV4
aV5
aV1
aV0.2
p44
aV79.2
p45
aV2.8
p46
aV1
aV7.16
p47
aa(lp48
V2014/2015
p49
aVBournemouth
p50
aVEC
p51
aV42
p52
aV3769
p53
aV1
aV6
aV8
aV1
aV0.5
p54
aV77.1
p55
aV2.9
p56
aV4
aV7.63
p57
aa(lp58
V2013/2014
p59
aVBournemouth
p60
aVEC
p61
aV45(1)
p62
aV4095
p63
aV1
aV8
aV6
aV-
aV0.5
p64
aV72.6
p65
aV3.5
p66
aV2
aV7.43
p67
aa(lp68
VTotal / Average
p69
aV
aV
aV207
p70
aV17994
p71
aV2
aV22
p72
aV32
p73
aV4
aV0.4
p74
aV76.1
p75
aV3.3
p76
aV8
aV7.22
p77
aasS'url'
p78
S'https://www.whoscored.com/Players/9298/History/'
p79
sS'passing_data'
p80
(lp81
(lp82
a(lp83
V2018/2019
p84
aVBournemouth
p85
aVEPL
p86
aV11(4)
p87
aV1092
p88
aV-
aV2
aV1
aV-
aV0.2
p89
aV73.5
p90
aV2.7
p91
aV-
aV6.77
p92
aa(lp93
V2017/2018
p94
aVBournemouth
p95
aVEPL
p96
aV31(1)
p97
aV2710
p98
aV-
aV1
aV8
aV1
aV0.4
p99
aV73.5
p100
aV4.4
p101
aV1
aV6.96
p102
aa(lp103
V2016/2017
p104
aVBournemouth
p105
aVEPL
p106
aV34
p107
aV2941
p108
aV-
aV1
aV4
aV1
aV0.2
p109
aV79.6
p110
aV3.4
p111
aV-
aV6.94
p112
aa(lp113
V2015/2016
p114
aVBournemouth
p115
aVEPL
p116
aV38
p117
aV3387
p118
aV-
aV4
aV5
aV1
aV0.2
p119
aV79.2
p120
aV2.8
p121
aV1
aV7.16
p122
aa(lp123
V2014/2015
p124
aVBournemouth
p125
aVEC
p126
aV42
p127
aV3769
p128
aV1
aV6
aV8
aV1
aV0.5
p129
aV77.1
p130
aV2.9
p131
aV4
aV7.63
p132
aa(lp133
V2013/2014
p134
aVBournemouth
p135
aVEC
p136
aV45(1)
p137
aV4095
p138
aV1
aV8
aV6
aV-
aV0.5
p139
aV72.6
p140
aV3.5
p141
aV2
aV7.43
p142
aa(lp143
VTotal / Average
p144
aV
aV
aV207
p145
aV17994
p146
aV2
aV22
p147
aV32
p148
aV4
aV0.4
p149
aV76.1
p150
aV3.3
p151
aV8
aV7.22
p152
aasS'defensive_data'
p153
(lp154
(lp155
a(lp156
V2018/2019
p157
aVBournemouth
p158
aVEPL
p159
aV11(4)
p160
aV1092
p161
aV-
aV2
aV1
aV-
aV0.2
p162
aV73.5
p163
aV2.7
p164
aV-
aV6.77
p165
aa(lp166
V2017/2018
p167
aVBournemouth
p168
aVEPL
p169
aV31(1)
p170
aV2710
p171
aV-
aV1
aV8
aV1
aV0.4
p172
aV73.5
p173
aV4.4
p174
aV1
aV6.96
p175
aa(lp176
V2016/2017
p177
aVBournemouth
p178
aVEPL
p179
aV34
p180
aV2941
p181
aV-
aV1
aV4
aV1
aV0.2
p182
aV79.6
p183
aV3.4
p184
aV-
aV6.94
p185
aa(lp186
V2015/2016
p187
aVBournemouth
p188
aVEPL
p189
aV38
p190
aV3387
p191
aV-
aV4
aV5
aV1
aV0.2
p192
aV79.2
p193
aV2.8
p194
aV1
aV7.16
p195
aa(lp196
V2014/2015
p197
aVBournemouth
p198
aVEC
p199
aV42
p200
aV3769
p201
aV1
aV6
aV8
aV1
aV0.5
p202
aV77.1
p203
aV2.9
p204
aV4
aV7.63
p205
aa(lp206
V2013/2014
p207
aVBournemouth
p208
aVEC
p209
aV45(1)
p210
aV4095
p211
aV1
aV8
aV6
aV-
aV0.5
p212
aV72.6
p213
aV3.5
p214
aV2
aV7.43
p215
aa(lp216
VTotal / Average
p217
aV
aV
aV207
p218
aV17994
p219
aV2
aV22
p220
aV32
p221
aV4
aV0.4
p222
aV76.1
p223
aV3.3
p224
aV8
aV7.22
p225
aasS'sumary_data'
p226
(lp227
(lp228
a(lp229
V2018/2019
p230
aVBournemouth
p231
aVEPL
p232
aV11(4)
p233
aV1092
p234
aV-
aV2
aV1
aV-
aV0.2
p235
aV73.5
p236
aV2.7
p237
aV-
aV6.77
p238
aa(lp239
V2017/2018
p240
aVBournemouth
p241
aVEPL
p242
aV31(1)
p243
aV2710
p244
aV-
aV1
aV8
aV1
aV0.4
p245
aV73.5
p246
aV4.4
p247
aV1
aV6.96
p248
aa(lp249
V2016/2017
p250
aVBournemouth
p251
aVEPL
p252
aV34
p253
aV2941
p254
aV-
aV1
aV4
aV1
aV0.2
p255
aV79.6
p256
aV3.4
p257
aV-
aV6.94
p258
aa(lp259
V2015/2016
p260
aVBournemouth
p261
aVEPL
p262
aV38
p263
aV3387
p264
aV-
aV4
aV5
aV1
aV0.2
p265
aV79.2
p266
aV2.8
p267
aV1
aV7.16
p268
aa(lp269
V2014/2015
p270
aVBournemouth
p271
aVEC
p272
aV42
p273
aV3769
p274
aV1
aV6
aV8
aV1
aV0.5
p275
aV77.1
p276
aV2.9
p277
aV4
aV7.63
p278
aa(lp279
V2013/2014
p280
aVBournemouth
p281
aVEC
p282
aV45(1)
p283
aV4095
p284
aV1
aV8
aV6
aV-
aV0.5
p285
aV72.6
p286
aV3.5
p287
aV2
aV7.43
p288
aa(lp289
VTotal / Average
p290
aV
aV
aV207
p291
aV17994
p292
aV2
aV22
p293
aV32
p294
aV4
aV0.4
p295
aV76.1
p296
aV3.3
p297
aV8
aV7.22
p298
aasS'id'
p299
V9298
p300
sb.