(i__main__
Player
p1
(dp2
S'name'
p3
VFelipe Anderson 
p4
sS'offensive_data'
p5
(lp6
(lp7
a(lp8
V2018/2019
p9
aVWest Ham
p10
aVEPL
p11
aV17
p12
aV1416
p13
aV6
aV2
aV3
aV-
aV1.5
p14
aV76.7
p15
aV0.4
p16
aV3
aV7.30
p17
aa(lp18
V2017/2018
p19
aVLazio
p20
aVISA
p21
aV9(12)
p22
aV1152
p23
aV4
aV7
aV-
aV-
aV1.2
p24
aV76.6
p25
aV0.1
p26
aV3
aV7.45
p27
aa(lp28
V2017/2018
p29
aVLazio
p30
aVUEL
p31
aV3(4)
p32
aV369
p33
aV3
aV3
aV-
aV-
aV1.7
p34
aV78.7
p35
aV0.3
p36
aV2
aV7.69
p37
aa(lp38
V2016/2017
p39
aVLazio
p40
aVISA
p41
aV33(3)
p42
aV2919
p43
aV4
aV9
aV5
aV-
aV2
aV74.9
p44
aV0.5
p45
aV7
aV7.62
p46
aa(lp47
V2015/2016
p48
aVLazio
p49
aVISA
p50
aV21(14)
p51
aV2072
p52
aV7
aV4
aV2
aV-
aV1.4
p53
aV71.6
p54
aV0.2
p55
aV3
aV6.94
p56
aa(lp57
V2015/2016
p58
aVLazio
p59
aVUEL
p60
aV6(1)
p61
aV520
p62
aV2
aV-
aV-
aV-
aV2
aV73
p63
aV-
aV1
aV7.28
p64
aa(lp65
V2014/2015
p66
aVLazio
p67
aVISA
p68
aV23(9)
p69
aV2097
p70
aV10
p71
aV7
aV5
aV-
aV2
aV77.4
p72
aV0.2
p73
aV8
aV7.47
p74
aa(lp75
V2013/2014
p76
aVLazio
p77
aVISA
p78
aV7(6)
p79
aV529
p80
aV-
aV1
aV1
aV-
aV1.2
p81
aV81.2
p82
aV0.3
p83
aV-
aV6.45
p84
aa(lp85
V2013/2014
p86
aVLazio
p87
aVUEL
p88
aV4(1)
p89
aV282
p90
aV1
aV-
aV-
aV-
aV3.6
p91
aV79.6
p92
aV0.2
p93
aV-
aV7.34
p94
aa(lp95
V2013
p96
aVSantos FC
p97
aVBSA
p98
aV1(2)
p99
aV77
p100
aV-
aV-
aV-
aV-
aV1
aV76.7
p101
aV-
aV-
aV6.40
p102
aa(lp103
VTotal / Average
p104
aV
aV
aV176
p105
aV11433
p106
aV37
p107
aV33
p108
aV16
p109
aV0
aV1.7
p110
aV75.8
p111
aV0.3
p112
aV27
p113
aV7.28
p114
aasS'url'
p115
S'https://www.whoscored.com/Players/93026/History/'
p116
sS'passing_data'
p117
(lp118
(lp119
a(lp120
V2018/2019
p121
aVWest Ham
p122
aVEPL
p123
aV17
p124
aV1416
p125
aV6
aV2
aV3
aV-
aV1.5
p126
aV76.7
p127
aV0.4
p128
aV3
aV7.30
p129
aa(lp130
V2017/2018
p131
aVLazio
p132
aVISA
p133
aV9(12)
p134
aV1152
p135
aV4
aV7
aV-
aV-
aV1.2
p136
aV76.6
p137
aV0.1
p138
aV3
aV7.45
p139
aa(lp140
V2017/2018
p141
aVLazio
p142
aVUEL
p143
aV3(4)
p144
aV369
p145
aV3
aV3
aV-
aV-
aV1.7
p146
aV78.7
p147
aV0.3
p148
aV2
aV7.69
p149
aa(lp150
V2016/2017
p151
aVLazio
p152
aVISA
p153
aV33(3)
p154
aV2919
p155
aV4
aV9
aV5
aV-
aV2
aV74.9
p156
aV0.5
p157
aV7
aV7.62
p158
aa(lp159
V2015/2016
p160
aVLazio
p161
aVISA
p162
aV21(14)
p163
aV2072
p164
aV7
aV4
aV2
aV-
aV1.4
p165
aV71.6
p166
aV0.2
p167
aV3
aV6.94
p168
aa(lp169
V2015/2016
p170
aVLazio
p171
aVUEL
p172
aV6(1)
p173
aV520
p174
aV2
aV-
aV-
aV-
aV2
aV73
p175
aV-
aV1
aV7.28
p176
aa(lp177
V2014/2015
p178
aVLazio
p179
aVISA
p180
aV23(9)
p181
aV2097
p182
aV10
p183
aV7
aV5
aV-
aV2
aV77.4
p184
aV0.2
p185
aV8
aV7.47
p186
aa(lp187
V2013/2014
p188
aVLazio
p189
aVISA
p190
aV7(6)
p191
aV529
p192
aV-
aV1
aV1
aV-
aV1.2
p193
aV81.2
p194
aV0.3
p195
aV-
aV6.45
p196
aa(lp197
V2013/2014
p198
aVLazio
p199
aVUEL
p200
aV4(1)
p201
aV282
p202
aV1
aV-
aV-
aV-
aV3.6
p203
aV79.6
p204
aV0.2
p205
aV-
aV7.34
p206
aa(lp207
V2013
p208
aVSantos FC
p209
aVBSA
p210
aV1(2)
p211
aV77
p212
aV-
aV-
aV-
aV-
aV1
aV76.7
p213
aV-
aV-
aV6.40
p214
aa(lp215
VTotal / Average
p216
aV
aV
aV176
p217
aV11433
p218
aV37
p219
aV33
p220
aV16
p221
aV0
aV1.7
p222
aV75.8
p223
aV0.3
p224
aV27
p225
aV7.28
p226
aasS'defensive_data'
p227
(lp228
(lp229
a(lp230
V2018/2019
p231
aVWest Ham
p232
aVEPL
p233
aV17
p234
aV1416
p235
aV6
aV2
aV3
aV-
aV1.5
p236
aV76.7
p237
aV0.4
p238
aV3
aV7.30
p239
aa(lp240
V2017/2018
p241
aVLazio
p242
aVISA
p243
aV9(12)
p244
aV1152
p245
aV4
aV7
aV-
aV-
aV1.2
p246
aV76.6
p247
aV0.1
p248
aV3
aV7.45
p249
aa(lp250
V2017/2018
p251
aVLazio
p252
aVUEL
p253
aV3(4)
p254
aV369
p255
aV3
aV3
aV-
aV-
aV1.7
p256
aV78.7
p257
aV0.3
p258
aV2
aV7.69
p259
aa(lp260
V2016/2017
p261
aVLazio
p262
aVISA
p263
aV33(3)
p264
aV2919
p265
aV4
aV9
aV5
aV-
aV2
aV74.9
p266
aV0.5
p267
aV7
aV7.62
p268
aa(lp269
V2015/2016
p270
aVLazio
p271
aVISA
p272
aV21(14)
p273
aV2072
p274
aV7
aV4
aV2
aV-
aV1.4
p275
aV71.6
p276
aV0.2
p277
aV3
aV6.94
p278
aa(lp279
V2015/2016
p280
aVLazio
p281
aVUEL
p282
aV6(1)
p283
aV520
p284
aV2
aV-
aV-
aV-
aV2
aV73
p285
aV-
aV1
aV7.28
p286
aa(lp287
V2014/2015
p288
aVLazio
p289
aVISA
p290
aV23(9)
p291
aV2097
p292
aV10
p293
aV7
aV5
aV-
aV2
aV77.4
p294
aV0.2
p295
aV8
aV7.47
p296
aa(lp297
V2013/2014
p298
aVLazio
p299
aVISA
p300
aV7(6)
p301
aV529
p302
aV-
aV1
aV1
aV-
aV1.2
p303
aV81.2
p304
aV0.3
p305
aV-
aV6.45
p306
aa(lp307
V2013/2014
p308
aVLazio
p309
aVUEL
p310
aV4(1)
p311
aV282
p312
aV1
aV-
aV-
aV-
aV3.6
p313
aV79.6
p314
aV0.2
p315
aV-
aV7.34
p316
aa(lp317
V2013
p318
aVSantos FC
p319
aVBSA
p320
aV1(2)
p321
aV77
p322
aV-
aV-
aV-
aV-
aV1
aV76.7
p323
aV-
aV-
aV6.40
p324
aa(lp325
VTotal / Average
p326
aV
aV
aV176
p327
aV11433
p328
aV37
p329
aV33
p330
aV16
p331
aV0
aV1.7
p332
aV75.8
p333
aV0.3
p334
aV27
p335
aV7.28
p336
aasS'sumary_data'
p337
(lp338
(lp339
a(lp340
V2018/2019
p341
aVWest Ham
p342
aVEPL
p343
aV17
p344
aV1416
p345
aV6
aV2
aV3
aV-
aV1.5
p346
aV76.7
p347
aV0.4
p348
aV3
aV7.30
p349
aa(lp350
V2017/2018
p351
aVLazio
p352
aVISA
p353
aV9(12)
p354
aV1152
p355
aV4
aV7
aV-
aV-
aV1.2
p356
aV76.6
p357
aV0.1
p358
aV3
aV7.45
p359
aa(lp360
V2017/2018
p361
aVLazio
p362
aVUEL
p363
aV3(4)
p364
aV369
p365
aV3
aV3
aV-
aV-
aV1.7
p366
aV78.7
p367
aV0.3
p368
aV2
aV7.69
p369
aa(lp370
V2016/2017
p371
aVLazio
p372
aVISA
p373
aV33(3)
p374
aV2919
p375
aV4
aV9
aV5
aV-
aV2
aV74.9
p376
aV0.5
p377
aV7
aV7.62
p378
aa(lp379
V2015/2016
p380
aVLazio
p381
aVISA
p382
aV21(14)
p383
aV2072
p384
aV7
aV4
aV2
aV-
aV1.4
p385
aV71.6
p386
aV0.2
p387
aV3
aV6.94
p388
aa(lp389
V2015/2016
p390
aVLazio
p391
aVUEL
p392
aV6(1)
p393
aV520
p394
aV2
aV-
aV-
aV-
aV2
aV73
p395
aV-
aV1
aV7.28
p396
aa(lp397
V2014/2015
p398
aVLazio
p399
aVISA
p400
aV23(9)
p401
aV2097
p402
aV10
p403
aV7
aV5
aV-
aV2
aV77.4
p404
aV0.2
p405
aV8
aV7.47
p406
aa(lp407
V2013/2014
p408
aVLazio
p409
aVISA
p410
aV7(6)
p411
aV529
p412
aV-
aV1
aV1
aV-
aV1.2
p413
aV81.2
p414
aV0.3
p415
aV-
aV6.45
p416
aa(lp417
V2013/2014
p418
aVLazio
p419
aVUEL
p420
aV4(1)
p421
aV282
p422
aV1
aV-
aV-
aV-
aV3.6
p423
aV79.6
p424
aV0.2
p425
aV-
aV7.34
p426
aa(lp427
V2013
p428
aVSantos FC
p429
aVBSA
p430
aV1(2)
p431
aV77
p432
aV-
aV-
aV-
aV-
aV1
aV76.7
p433
aV-
aV-
aV6.40
p434
aa(lp435
VTotal / Average
p436
aV
aV
aV176
p437
aV11433
p438
aV37
p439
aV33
p440
aV16
p441
aV0
aV1.7
p442
aV75.8
p443
aV0.3
p444
aV27
p445
aV7.28
p446
aasS'id'
p447
V93026
p448
sb.