(i__main__
Player
p1
(dp2
S'name'
p3
VRyan Fraser 
p4
sS'offensive_data'
p5
(lp6
(lp7
a(lp8
V2018/2019
p9
aVBournemouth
p10
aVEPL
p11
aV17
p12
aV1455
p13
aV4
aV7
aV1
aV-
aV1.2
p14
aV77.7
p15
aV0.4
p16
aV2
aV7.06
p17
aa(lp18
V2018/2019
p19
aVScotland
p20
aVUNL
p21
aV2
aV163
p22
aV1
aV3
aV-
aV-
aV1.5
p23
aV79.2
p24
aV0.5
p25
aV-
aV8.00
p26
aa(lp27
V2017/2018
p28
aVBournemouth
p29
aVEPL
p30
aV23(3)
p31
aV2010
p32
aV5
aV3
aV-
aV-
aV1.2
p33
aV76.6
p34
aV0.3
p35
aV1
aV6.71
p36
aa(lp37
V2016/2017
p38
aVBournemouth
p39
aVEPL
p40
aV19(9)
p41
aV1769
p42
aV3
aV5
aV3
aV-
aV0.9
p43
aV79
p44
aV0.2
p45
aV1
aV6.71
p46
aa(lp47
V2015/2016
p48
aVIpswich
p49
aVEC
p50
aV15(3)
p51
aV1244
p52
aV4
aV2
aV3
aV-
aV2.2
p53
aV71.8
p54
aV0.3
p55
aV3
aV7.02
p56
aa(lp57
V2014/2015
p58
aVBournemouth
p59
aVEC
p60
aV6(15)
p61
aV697
p62
aV1
aV1
aV3
aV-
aV1.1
p63
aV87.7
p64
aV-
aV-
aV6.42
p65
aa(lp66
V2013/2014
p67
aVBournemouth
p68
aVEC
p69
aV23(14)
p70
aV1987
p71
aV3
aV1
aV2
aV-
aV1.3
p72
aV80.1
p73
aV0.2
p74
aV-
aV6.62
p75
aa(lp76
VTotal / Average
p77
aV
aV
aV149
p78
aV9325
p79
aV21
p80
aV22
p81
aV12
p82
aV0
aV1.3
p83
aV79
p84
aV0.2
p85
aV7
aV6.74
p86
aasS'url'
p87
S'https://www.whoscored.com/Players/93160/History/'
p88
sS'passing_data'
p89
(lp90
(lp91
a(lp92
V2018/2019
p93
aVBournemouth
p94
aVEPL
p95
aV17
p96
aV1455
p97
aV4
aV7
aV1
aV-
aV1.2
p98
aV77.7
p99
aV0.4
p100
aV2
aV7.06
p101
aa(lp102
V2018/2019
p103
aVScotland
p104
aVUNL
p105
aV2
aV163
p106
aV1
aV3
aV-
aV-
aV1.5
p107
aV79.2
p108
aV0.5
p109
aV-
aV8.00
p110
aa(lp111
V2017/2018
p112
aVBournemouth
p113
aVEPL
p114
aV23(3)
p115
aV2010
p116
aV5
aV3
aV-
aV-
aV1.2
p117
aV76.6
p118
aV0.3
p119
aV1
aV6.71
p120
aa(lp121
V2016/2017
p122
aVBournemouth
p123
aVEPL
p124
aV19(9)
p125
aV1769
p126
aV3
aV5
aV3
aV-
aV0.9
p127
aV79
p128
aV0.2
p129
aV1
aV6.71
p130
aa(lp131
V2015/2016
p132
aVIpswich
p133
aVEC
p134
aV15(3)
p135
aV1244
p136
aV4
aV2
aV3
aV-
aV2.2
p137
aV71.8
p138
aV0.3
p139
aV3
aV7.02
p140
aa(lp141
V2014/2015
p142
aVBournemouth
p143
aVEC
p144
aV6(15)
p145
aV697
p146
aV1
aV1
aV3
aV-
aV1.1
p147
aV87.7
p148
aV-
aV-
aV6.42
p149
aa(lp150
V2013/2014
p151
aVBournemouth
p152
aVEC
p153
aV23(14)
p154
aV1987
p155
aV3
aV1
aV2
aV-
aV1.3
p156
aV80.1
p157
aV0.2
p158
aV-
aV6.62
p159
aa(lp160
VTotal / Average
p161
aV
aV
aV149
p162
aV9325
p163
aV21
p164
aV22
p165
aV12
p166
aV0
aV1.3
p167
aV79
p168
aV0.2
p169
aV7
aV6.74
p170
aasS'defensive_data'
p171
(lp172
(lp173
a(lp174
V2018/2019
p175
aVBournemouth
p176
aVEPL
p177
aV17
p178
aV1455
p179
aV4
aV7
aV1
aV-
aV1.2
p180
aV77.7
p181
aV0.4
p182
aV2
aV7.06
p183
aa(lp184
V2018/2019
p185
aVScotland
p186
aVUNL
p187
aV2
aV163
p188
aV1
aV3
aV-
aV-
aV1.5
p189
aV79.2
p190
aV0.5
p191
aV-
aV8.00
p192
aa(lp193
V2017/2018
p194
aVBournemouth
p195
aVEPL
p196
aV23(3)
p197
aV2010
p198
aV5
aV3
aV-
aV-
aV1.2
p199
aV76.6
p200
aV0.3
p201
aV1
aV6.71
p202
aa(lp203
V2016/2017
p204
aVBournemouth
p205
aVEPL
p206
aV19(9)
p207
aV1769
p208
aV3
aV5
aV3
aV-
aV0.9
p209
aV79
p210
aV0.2
p211
aV1
aV6.71
p212
aa(lp213
V2015/2016
p214
aVIpswich
p215
aVEC
p216
aV15(3)
p217
aV1244
p218
aV4
aV2
aV3
aV-
aV2.2
p219
aV71.8
p220
aV0.3
p221
aV3
aV7.02
p222
aa(lp223
V2014/2015
p224
aVBournemouth
p225
aVEC
p226
aV6(15)
p227
aV697
p228
aV1
aV1
aV3
aV-
aV1.1
p229
aV87.7
p230
aV-
aV-
aV6.42
p231
aa(lp232
V2013/2014
p233
aVBournemouth
p234
aVEC
p235
aV23(14)
p236
aV1987
p237
aV3
aV1
aV2
aV-
aV1.3
p238
aV80.1
p239
aV0.2
p240
aV-
aV6.62
p241
aa(lp242
VTotal / Average
p243
aV
aV
aV149
p244
aV9325
p245
aV21
p246
aV22
p247
aV12
p248
aV0
aV1.3
p249
aV79
p250
aV0.2
p251
aV7
aV6.74
p252
aasS'sumary_data'
p253
(lp254
(lp255
a(lp256
V2018/2019
p257
aVBournemouth
p258
aVEPL
p259
aV17
p260
aV1455
p261
aV4
aV7
aV1
aV-
aV1.2
p262
aV77.7
p263
aV0.4
p264
aV2
aV7.06
p265
aa(lp266
V2018/2019
p267
aVScotland
p268
aVUNL
p269
aV2
aV163
p270
aV1
aV3
aV-
aV-
aV1.5
p271
aV79.2
p272
aV0.5
p273
aV-
aV8.00
p274
aa(lp275
V2017/2018
p276
aVBournemouth
p277
aVEPL
p278
aV23(3)
p279
aV2010
p280
aV5
aV3
aV-
aV-
aV1.2
p281
aV76.6
p282
aV0.3
p283
aV1
aV6.71
p284
aa(lp285
V2016/2017
p286
aVBournemouth
p287
aVEPL
p288
aV19(9)
p289
aV1769
p290
aV3
aV5
aV3
aV-
aV0.9
p291
aV79
p292
aV0.2
p293
aV1
aV6.71
p294
aa(lp295
V2015/2016
p296
aVIpswich
p297
aVEC
p298
aV15(3)
p299
aV1244
p300
aV4
aV2
aV3
aV-
aV2.2
p301
aV71.8
p302
aV0.3
p303
aV3
aV7.02
p304
aa(lp305
V2014/2015
p306
aVBournemouth
p307
aVEC
p308
aV6(15)
p309
aV697
p310
aV1
aV1
aV3
aV-
aV1.1
p311
aV87.7
p312
aV-
aV-
aV6.42
p313
aa(lp314
V2013/2014
p315
aVBournemouth
p316
aVEC
p317
aV23(14)
p318
aV1987
p319
aV3
aV1
aV2
aV-
aV1.3
p320
aV80.1
p321
aV0.2
p322
aV-
aV6.62
p323
aa(lp324
VTotal / Average
p325
aV
aV
aV149
p326
aV9325
p327
aV21
p328
aV22
p329
aV12
p330
aV0
aV1.3
p331
aV79
p332
aV0.2
p333
aV7
aV6.74
p334
aasS'id'
p335
V93160
p336
sb.