(i__main__
Player
p1
(dp2
S'name'
p3
VRobbie Brady 
p4
sS'offensive_data'
p5
(lp6
(lp7
a(lp8
V2018/2019
p9
aVBurnley
p10
aVEPL
p11
aV5(3)
p12
aV510
p13
aV-
aV1
aV3
aV-
aV1
aV60.1
p14
aV0.8
p15
aV-
aV6.33
p16
aa(lp17
V2018/2019
p18
aVIreland
p19
aVUNL
p20
aV1
aV66
p21
aV-
aV-
aV-
aV-
aV2
aV64.3
p22
aV-
aV-
aV6.37
p23
aa(lp24
V2017/2018
p25
aVBurnley
p26
aVEPL
p27
aV15
p28
aV1279
p29
aV1
aV2
aV3
aV-
aV1.6
p30
aV68.1
p31
aV0.6
p32
aV2
aV7.10
p33
aa(lp34
V2016/2017
p35
aVNorwich
p36
aVEC
p37
aV22(1)
p38
aV1849
p39
aV4
aV4
aV2
aV1
aV1.5
p40
aV74
p41
aV0.9
p42
aV2
aV7.15
p43
aa(lp44
V2016/2017
p45
aVBurnley
p46
aVEPL
p47
aV7(7)
p48
aV716
p49
aV1
aV2
aV1
aV-
aV1.4
p50
aV68
p51
aV0.6
p52
aV-
aV6.77
p53
aa(lp54
V2015/2016
p55
aVNorwich
p56
aVEPL
p57
aV34(2)
p58
aV2988
p59
aV3
aV2
aV3
aV-
aV1.5
p60
aV70.5
p61
aV1.2
p62
aV4
aV7.15
p63
aa(lp64
V2014/2015
p65
aVHull
p66
aVEPL
p67
aV17(10)
p68
aV1756
p69
aV-
aV2
aV2
aV-
aV0.9
p70
aV69.2
p71
aV1.5
p72
aV1
aV6.95
p73
aa(lp74
V2016
p75
aVIreland
p76
aVUEC
p77
aV4
aV360
p78
aV2
aV-
aV-
aV-
aV1.8
p79
aV73.1
p80
aV0.5
p81
aV1
aV6.97
p82
aa(lp83
V2013/2014
p84
aVHull
p85
aVEPL
p86
aV11(5)
p87
aV892
p88
aV3
aV1
aV2
aV-
aV0.7
p89
aV80
p90
aV0.8
p91
aV1
aV6.65
p92
aa(lp93
VTotal / Average
p94
aV
aV
aV144
p95
aV10416
p96
aV14
p97
aV14
p98
aV16
p99
aV1
aV1.3
p100
aV70.8
p101
aV1
aV11
p102
aV6.96
p103
aasS'url'
p104
S'https://www.whoscored.com/Players/93473/History/'
p105
sS'passing_data'
p106
(lp107
(lp108
a(lp109
V2018/2019
p110
aVBurnley
p111
aVEPL
p112
aV5(3)
p113
aV510
p114
aV-
aV1
aV3
aV-
aV1
aV60.1
p115
aV0.8
p116
aV-
aV6.33
p117
aa(lp118
V2018/2019
p119
aVIreland
p120
aVUNL
p121
aV1
aV66
p122
aV-
aV-
aV-
aV-
aV2
aV64.3
p123
aV-
aV-
aV6.37
p124
aa(lp125
V2017/2018
p126
aVBurnley
p127
aVEPL
p128
aV15
p129
aV1279
p130
aV1
aV2
aV3
aV-
aV1.6
p131
aV68.1
p132
aV0.6
p133
aV2
aV7.10
p134
aa(lp135
V2016/2017
p136
aVNorwich
p137
aVEC
p138
aV22(1)
p139
aV1849
p140
aV4
aV4
aV2
aV1
aV1.5
p141
aV74
p142
aV0.9
p143
aV2
aV7.15
p144
aa(lp145
V2016/2017
p146
aVBurnley
p147
aVEPL
p148
aV7(7)
p149
aV716
p150
aV1
aV2
aV1
aV-
aV1.4
p151
aV68
p152
aV0.6
p153
aV-
aV6.77
p154
aa(lp155
V2015/2016
p156
aVNorwich
p157
aVEPL
p158
aV34(2)
p159
aV2988
p160
aV3
aV2
aV3
aV-
aV1.5
p161
aV70.5
p162
aV1.2
p163
aV4
aV7.15
p164
aa(lp165
V2014/2015
p166
aVHull
p167
aVEPL
p168
aV17(10)
p169
aV1756
p170
aV-
aV2
aV2
aV-
aV0.9
p171
aV69.2
p172
aV1.5
p173
aV1
aV6.95
p174
aa(lp175
V2016
p176
aVIreland
p177
aVUEC
p178
aV4
aV360
p179
aV2
aV-
aV-
aV-
aV1.8
p180
aV73.1
p181
aV0.5
p182
aV1
aV6.97
p183
aa(lp184
V2013/2014
p185
aVHull
p186
aVEPL
p187
aV11(5)
p188
aV892
p189
aV3
aV1
aV2
aV-
aV0.7
p190
aV80
p191
aV0.8
p192
aV1
aV6.65
p193
aa(lp194
VTotal / Average
p195
aV
aV
aV144
p196
aV10416
p197
aV14
p198
aV14
p199
aV16
p200
aV1
aV1.3
p201
aV70.8
p202
aV1
aV11
p203
aV6.96
p204
aasS'defensive_data'
p205
(lp206
(lp207
a(lp208
V2018/2019
p209
aVBurnley
p210
aVEPL
p211
aV5(3)
p212
aV510
p213
aV-
aV1
aV3
aV-
aV1
aV60.1
p214
aV0.8
p215
aV-
aV6.33
p216
aa(lp217
V2018/2019
p218
aVIreland
p219
aVUNL
p220
aV1
aV66
p221
aV-
aV-
aV-
aV-
aV2
aV64.3
p222
aV-
aV-
aV6.37
p223
aa(lp224
V2017/2018
p225
aVBurnley
p226
aVEPL
p227
aV15
p228
aV1279
p229
aV1
aV2
aV3
aV-
aV1.6
p230
aV68.1
p231
aV0.6
p232
aV2
aV7.10
p233
aa(lp234
V2016/2017
p235
aVNorwich
p236
aVEC
p237
aV22(1)
p238
aV1849
p239
aV4
aV4
aV2
aV1
aV1.5
p240
aV74
p241
aV0.9
p242
aV2
aV7.15
p243
aa(lp244
V2016/2017
p245
aVBurnley
p246
aVEPL
p247
aV7(7)
p248
aV716
p249
aV1
aV2
aV1
aV-
aV1.4
p250
aV68
p251
aV0.6
p252
aV-
aV6.77
p253
aa(lp254
V2015/2016
p255
aVNorwich
p256
aVEPL
p257
aV34(2)
p258
aV2988
p259
aV3
aV2
aV3
aV-
aV1.5
p260
aV70.5
p261
aV1.2
p262
aV4
aV7.15
p263
aa(lp264
V2014/2015
p265
aVHull
p266
aVEPL
p267
aV17(10)
p268
aV1756
p269
aV-
aV2
aV2
aV-
aV0.9
p270
aV69.2
p271
aV1.5
p272
aV1
aV6.95
p273
aa(lp274
V2016
p275
aVIreland
p276
aVUEC
p277
aV4
aV360
p278
aV2
aV-
aV-
aV-
aV1.8
p279
aV73.1
p280
aV0.5
p281
aV1
aV6.97
p282
aa(lp283
V2013/2014
p284
aVHull
p285
aVEPL
p286
aV11(5)
p287
aV892
p288
aV3
aV1
aV2
aV-
aV0.7
p289
aV80
p290
aV0.8
p291
aV1
aV6.65
p292
aa(lp293
VTotal / Average
p294
aV
aV
aV144
p295
aV10416
p296
aV14
p297
aV14
p298
aV16
p299
aV1
aV1.3
p300
aV70.8
p301
aV1
aV11
p302
aV6.96
p303
aasS'sumary_data'
p304
(lp305
(lp306
a(lp307
V2018/2019
p308
aVBurnley
p309
aVEPL
p310
aV5(3)
p311
aV510
p312
aV-
aV1
aV3
aV-
aV1
aV60.1
p313
aV0.8
p314
aV-
aV6.33
p315
aa(lp316
V2018/2019
p317
aVIreland
p318
aVUNL
p319
aV1
aV66
p320
aV-
aV-
aV-
aV-
aV2
aV64.3
p321
aV-
aV-
aV6.37
p322
aa(lp323
V2017/2018
p324
aVBurnley
p325
aVEPL
p326
aV15
p327
aV1279
p328
aV1
aV2
aV3
aV-
aV1.6
p329
aV68.1
p330
aV0.6
p331
aV2
aV7.10
p332
aa(lp333
V2016/2017
p334
aVNorwich
p335
aVEC
p336
aV22(1)
p337
aV1849
p338
aV4
aV4
aV2
aV1
aV1.5
p339
aV74
p340
aV0.9
p341
aV2
aV7.15
p342
aa(lp343
V2016/2017
p344
aVBurnley
p345
aVEPL
p346
aV7(7)
p347
aV716
p348
aV1
aV2
aV1
aV-
aV1.4
p349
aV68
p350
aV0.6
p351
aV-
aV6.77
p352
aa(lp353
V2015/2016
p354
aVNorwich
p355
aVEPL
p356
aV34(2)
p357
aV2988
p358
aV3
aV2
aV3
aV-
aV1.5
p359
aV70.5
p360
aV1.2
p361
aV4
aV7.15
p362
aa(lp363
V2014/2015
p364
aVHull
p365
aVEPL
p366
aV17(10)
p367
aV1756
p368
aV-
aV2
aV2
aV-
aV0.9
p369
aV69.2
p370
aV1.5
p371
aV1
aV6.95
p372
aa(lp373
V2016
p374
aVIreland
p375
aVUEC
p376
aV4
aV360
p377
aV2
aV-
aV-
aV-
aV1.8
p378
aV73.1
p379
aV0.5
p380
aV1
aV6.97
p381
aa(lp382
V2013/2014
p383
aVHull
p384
aVEPL
p385
aV11(5)
p386
aV892
p387
aV3
aV1
aV2
aV-
aV0.7
p388
aV80
p389
aV0.8
p390
aV1
aV6.65
p391
aa(lp392
VTotal / Average
p393
aV
aV
aV144
p394
aV10416
p395
aV14
p396
aV14
p397
aV16
p398
aV1
aV1.3
p399
aV70.8
p400
aV1
aV11
p401
aV6.96
p402
aasS'id'
p403
V93473
p404
sb.