(i__main__
Player
p1
(dp2
S'name'
p3
VStuart Armstrong 
p4
sS'offensive_data'
p5
(lp6
(lp7
a(lp8
V2018/2019
p9
aVSouthampton
p10
aVEPL
p11
aV7(6)
p12
aV658
p13
aV3
aV-
aV2
aV-
aV0.9
p14
aV82.2
p15
aV0.2
p16
aV-
aV6.52
p17
aa(lp18
V2018/2019
p19
aVScotland
p20
aVUNL
p21
aV2(1)
p22
aV182
p23
aV-
aV-
aV-
aV-
aV2
aV88
p24
aV0.3
p25
aV-
aV6.98
p26
aa(lp27
V2017/2018
p28
aVCeltic
p29
aVUCL
p30
aV4
aV236
p31
aV-
aV-
aV-
aV-
aV0.8
p32
aV83.2
p33
aV-
aV-
aV6.28
p34
aa(lp35
V2016/2017
p36
aVCeltic
p37
aVUCL
p38
aV3(2)
p39
aV325
p40
aV-
aV-
aV1
aV-
aV0.6
p41
aV81.4
p42
aV0.2
p43
aV-
aV6.29
p44
aa(lp45
V2015/2016
p46
aVCeltic
p47
aVUEL
p48
aV4(1)
p49
aV318
p50
aV-
aV-
aV-
aV-
aV0.2
p51
aV78.3
p52
aV0.2
p53
aV-
aV6.30
p54
aa(lp55
V2014/2015
p56
aVCeltic
p57
aVUEL
p58
aV2
aV153
p59
aV1
aV-
aV-
aV-
aV1.5
p60
aV80.7
p61
aV0.5
p62
aV-
aV6.65
p63
aa(lp64
VTotal / Average
p65
aV
aV
aV32
p66
aV1872
p67
aV4
aV0
aV3
aV0
aV0.9
p68
aV82.1
p69
aV0.2
p70
aV0
aV6.47
p71
aasS'url'
p72
S'https://www.whoscored.com/Players/93677/History/'
p73
sS'passing_data'
p74
(lp75
(lp76
a(lp77
V2018/2019
p78
aVSouthampton
p79
aVEPL
p80
aV7(6)
p81
aV658
p82
aV3
aV-
aV2
aV-
aV0.9
p83
aV82.2
p84
aV0.2
p85
aV-
aV6.52
p86
aa(lp87
V2018/2019
p88
aVScotland
p89
aVUNL
p90
aV2(1)
p91
aV182
p92
aV-
aV-
aV-
aV-
aV2
aV88
p93
aV0.3
p94
aV-
aV6.98
p95
aa(lp96
V2017/2018
p97
aVCeltic
p98
aVUCL
p99
aV4
aV236
p100
aV-
aV-
aV-
aV-
aV0.8
p101
aV83.2
p102
aV-
aV-
aV6.28
p103
aa(lp104
V2016/2017
p105
aVCeltic
p106
aVUCL
p107
aV3(2)
p108
aV325
p109
aV-
aV-
aV1
aV-
aV0.6
p110
aV81.4
p111
aV0.2
p112
aV-
aV6.29
p113
aa(lp114
V2015/2016
p115
aVCeltic
p116
aVUEL
p117
aV4(1)
p118
aV318
p119
aV-
aV-
aV-
aV-
aV0.2
p120
aV78.3
p121
aV0.2
p122
aV-
aV6.30
p123
aa(lp124
V2014/2015
p125
aVCeltic
p126
aVUEL
p127
aV2
aV153
p128
aV1
aV-
aV-
aV-
aV1.5
p129
aV80.7
p130
aV0.5
p131
aV-
aV6.65
p132
aa(lp133
VTotal / Average
p134
aV
aV
aV32
p135
aV1872
p136
aV4
aV0
aV3
aV0
aV0.9
p137
aV82.1
p138
aV0.2
p139
aV0
aV6.47
p140
aasS'defensive_data'
p141
(lp142
(lp143
a(lp144
V2018/2019
p145
aVSouthampton
p146
aVEPL
p147
aV7(6)
p148
aV658
p149
aV3
aV-
aV2
aV-
aV0.9
p150
aV82.2
p151
aV0.2
p152
aV-
aV6.52
p153
aa(lp154
V2018/2019
p155
aVScotland
p156
aVUNL
p157
aV2(1)
p158
aV182
p159
aV-
aV-
aV-
aV-
aV2
aV88
p160
aV0.3
p161
aV-
aV6.98
p162
aa(lp163
V2017/2018
p164
aVCeltic
p165
aVUCL
p166
aV4
aV236
p167
aV-
aV-
aV-
aV-
aV0.8
p168
aV83.2
p169
aV-
aV-
aV6.28
p170
aa(lp171
V2016/2017
p172
aVCeltic
p173
aVUCL
p174
aV3(2)
p175
aV325
p176
aV-
aV-
aV1
aV-
aV0.6
p177
aV81.4
p178
aV0.2
p179
aV-
aV6.29
p180
aa(lp181
V2015/2016
p182
aVCeltic
p183
aVUEL
p184
aV4(1)
p185
aV318
p186
aV-
aV-
aV-
aV-
aV0.2
p187
aV78.3
p188
aV0.2
p189
aV-
aV6.30
p190
aa(lp191
V2014/2015
p192
aVCeltic
p193
aVUEL
p194
aV2
aV153
p195
aV1
aV-
aV-
aV-
aV1.5
p196
aV80.7
p197
aV0.5
p198
aV-
aV6.65
p199
aa(lp200
VTotal / Average
p201
aV
aV
aV32
p202
aV1872
p203
aV4
aV0
aV3
aV0
aV0.9
p204
aV82.1
p205
aV0.2
p206
aV0
aV6.47
p207
aasS'sumary_data'
p208
(lp209
(lp210
a(lp211
V2018/2019
p212
aVSouthampton
p213
aVEPL
p214
aV7(6)
p215
aV658
p216
aV3
aV-
aV2
aV-
aV0.9
p217
aV82.2
p218
aV0.2
p219
aV-
aV6.52
p220
aa(lp221
V2018/2019
p222
aVScotland
p223
aVUNL
p224
aV2(1)
p225
aV182
p226
aV-
aV-
aV-
aV-
aV2
aV88
p227
aV0.3
p228
aV-
aV6.98
p229
aa(lp230
V2017/2018
p231
aVCeltic
p232
aVUCL
p233
aV4
aV236
p234
aV-
aV-
aV-
aV-
aV0.8
p235
aV83.2
p236
aV-
aV-
aV6.28
p237
aa(lp238
V2016/2017
p239
aVCeltic
p240
aVUCL
p241
aV3(2)
p242
aV325
p243
aV-
aV-
aV1
aV-
aV0.6
p244
aV81.4
p245
aV0.2
p246
aV-
aV6.29
p247
aa(lp248
V2015/2016
p249
aVCeltic
p250
aVUEL
p251
aV4(1)
p252
aV318
p253
aV-
aV-
aV-
aV-
aV0.2
p254
aV78.3
p255
aV0.2
p256
aV-
aV6.30
p257
aa(lp258
V2014/2015
p259
aVCeltic
p260
aVUEL
p261
aV2
aV153
p262
aV1
aV-
aV-
aV-
aV1.5
p263
aV80.7
p264
aV0.5
p265
aV-
aV6.65
p266
aa(lp267
VTotal / Average
p268
aV
aV
aV32
p269
aV1872
p270
aV4
aV0
aV3
aV0
aV0.9
p271
aV82.1
p272
aV0.2
p273
aV0
aV6.47
p274
aasS'id'
p275
V93677
p276
sb.