(i__main__
Player
p1
(dp2
S'name'
p3
VMateo Kovacic 
p4
sS'offensive_data'
p5
(lp6
(lp7
a(lp8
V2018/2019
p9
aVChelsea
p10
aVEPL
p11
aV11(4)
p12
aV863
p13
aV-
aV1
aV1
aV-
aV1.1
p14
aV92.8
p15
aV0.3
p16
aV-
aV6.72
p17
aa(lp18
V2018/2019
p19
aVChelsea
p20
aVUEL
p21
aV2(1)
p22
aV193
p23
aV-
aV-
aV-
aV-
aV1.3
p24
aV93.1
p25
aV-
aV-
aV7.12
p26
aa(lp27
V2018/2019
p28
aVCroatia
p29
aVUNL
p30
aV2
aV163
p31
aV-
aV-
aV1
aV-
aV-
aV92
p32
aV0.5
p33
aV-
aV5.52
p34
aa(lp35
V2017/2018
p36
aVReal Madrid
p37
aVSLL
p38
aV10(11)
p39
aV989
p40
aV-
aV1
aV2
aV-
aV0.4
p41
aV93.7
p42
aV-
aV2
aV6.73
p43
aa(lp44
V2017/2018
p45
aVReal Madrid
p46
aVUCL
p47
aV4(3)
p48
aV258
p49
aV-
aV1
aV2
aV-
aV0.1
p50
aV90.7
p51
aV0.1
p52
aV-
aV6.47
p53
aa(lp54
V2016/2017
p55
aVReal Madrid
p56
aVSLL
p57
aV19(8)
p58
aV1689
p59
aV1
aV3
aV2
aV-
aV0.5
p60
aV91.3
p61
aV0.1
p62
aV1
aV7.12
p63
aa(lp64
V2016/2017
p65
aVReal Madrid
p66
aVUCL
p67
aV2(4)
p68
aV219
p69
aV1
aV-
aV1
aV-
aV0.5
p70
aV95.5
p71
aV-
aV-
aV6.80
p72
aa(lp73
V2018
p74
aVCroatia
p75
aVWC
p76
aV1(4)
p77
aV183
p78
aV-
aV1
aV-
aV-
aV0.8
p79
aV94.3
p80
aV0.6
p81
aV-
aV6.73
p82
aa(lp83
V2015/2016
p84
aVReal Madrid
p85
aVSLL
p86
aV8(17)
p87
aV1030
p88
aV-
aV2
aV4
aV1
aV0.4
p89
aV90.5
p90
aV0.1
p91
aV-
aV6.50
p92
aa(lp93
V2015/2016
p94
aVReal Madrid
p95
aVUCL
p96
aV3(5)
p97
aV340
p98
aV1
aV-
aV1
aV-
aV0.6
p99
aV92.5
p100
aV0.1
p101
aV-
aV6.87
p102
aa(lp103
V2014/2015
p104
aVInter
p105
aVISA
p106
aV26(9)
p107
aV2463
p108
aV5
aV3
aV3
aV1
aV1.2
p109
aV87.5
p110
aV0.3
p111
aV1
aV7.15
p112
aa(lp113
V2014/2015
p114
aVInter
p115
aVUEL
p116
aV3(3)
p117
aV253
p118
aV-
aV-
aV-
aV-
aV0.7
p119
aV87.9
p120
aV-
aV-
aV6.39
p121
aa(lp122
V2016
p123
aVCroatia
p124
aVUEC
p125
aV0(2)
p126
aV36
p127
aV-
aV-
aV-
aV-
aV0.5
p128
aV82.4
p129
aV-
aV-
aV6.26
p130
aa(lp131
V2013/2014
p132
aVInter
p133
aVISA
p134
aV14(18)
p135
aV1608
p136
aV-
aV4
aV2
aV-
aV0.6
p137
aV89.8
p138
aV0.1
p139
aV2
aV6.95
p140
aa(lp141
V2014
p142
aVCroatia
p143
aVWC
p144
aV1(2)
p145
aV111
p146
aV-
aV-
aV-
aV-
aV0.3
p147
aV90.3
p148
aV-
aV-
aV6.19
p149
aa(lp150
V2012/2013
p151
aVInter
p152
aVISA
p153
aV11(2)
p154
aV1026
p155
aV-
aV1
aV2
aV-
aV0.5
p156
aV90.3
p157
aV-
aV1
aV7.27
p158
aa(lp159
V2012/2013
p160
aVInter
p161
aVUEL
p162
aV4
aV315
p163
aV-
aV1
aV1
aV-
aV0.8
p164
aV92.1
p165
aV-
aV1
aV7.39
p166
aa(lp167
V2012/2013
p168
aVDinamo Zagreb
p169
aVUCL
p170
aV5(1)
p171
aV456
p172
aV-
aV-
aV-
aV-
aV0.2
p173
aV88.2
p174
aV-
aV-
aV6.59
p175
aa(lp176
V2011/2012
p177
aVDinamo Zagreb
p178
aVUCL
p179
aV5(1)
p180
aV413
p181
aV1
aV-
aV-
aV-
aV0.3
p182
aV89.8
p183
aV0.2
p184
aV-
aV6.39
p185
aa(lp186
VTotal / Average
p187
aV
aV
aV226
p188
aV12608
p189
aV9
aV18
p190
aV22
p191
aV2
aV0.6
p192
aV90.6
p193
aV0.1
p194
aV8
aV6.85
p195
aasS'url'
p196
S'https://www.whoscored.com/Players/93894/History/'
p197
sS'passing_data'
p198
(lp199
(lp200
a(lp201
V2018/2019
p202
aVChelsea
p203
aVEPL
p204
aV11(4)
p205
aV863
p206
aV-
aV1
aV1
aV-
aV1.1
p207
aV92.8
p208
aV0.3
p209
aV-
aV6.72
p210
aa(lp211
V2018/2019
p212
aVChelsea
p213
aVUEL
p214
aV2(1)
p215
aV193
p216
aV-
aV-
aV-
aV-
aV1.3
p217
aV93.1
p218
aV-
aV-
aV7.12
p219
aa(lp220
V2018/2019
p221
aVCroatia
p222
aVUNL
p223
aV2
aV163
p224
aV-
aV-
aV1
aV-
aV-
aV92
p225
aV0.5
p226
aV-
aV5.52
p227
aa(lp228
V2017/2018
p229
aVReal Madrid
p230
aVSLL
p231
aV10(11)
p232
aV989
p233
aV-
aV1
aV2
aV-
aV0.4
p234
aV93.7
p235
aV-
aV2
aV6.73
p236
aa(lp237
V2017/2018
p238
aVReal Madrid
p239
aVUCL
p240
aV4(3)
p241
aV258
p242
aV-
aV1
aV2
aV-
aV0.1
p243
aV90.7
p244
aV0.1
p245
aV-
aV6.47
p246
aa(lp247
V2016/2017
p248
aVReal Madrid
p249
aVSLL
p250
aV19(8)
p251
aV1689
p252
aV1
aV3
aV2
aV-
aV0.5
p253
aV91.3
p254
aV0.1
p255
aV1
aV7.12
p256
aa(lp257
V2016/2017
p258
aVReal Madrid
p259
aVUCL
p260
aV2(4)
p261
aV219
p262
aV1
aV-
aV1
aV-
aV0.5
p263
aV95.5
p264
aV-
aV-
aV6.80
p265
aa(lp266
V2018
p267
aVCroatia
p268
aVWC
p269
aV1(4)
p270
aV183
p271
aV-
aV1
aV-
aV-
aV0.8
p272
aV94.3
p273
aV0.6
p274
aV-
aV6.73
p275
aa(lp276
V2015/2016
p277
aVReal Madrid
p278
aVSLL
p279
aV8(17)
p280
aV1030
p281
aV-
aV2
aV4
aV1
aV0.4
p282
aV90.5
p283
aV0.1
p284
aV-
aV6.50
p285
aa(lp286
V2015/2016
p287
aVReal Madrid
p288
aVUCL
p289
aV3(5)
p290
aV340
p291
aV1
aV-
aV1
aV-
aV0.6
p292
aV92.5
p293
aV0.1
p294
aV-
aV6.87
p295
aa(lp296
V2014/2015
p297
aVInter
p298
aVISA
p299
aV26(9)
p300
aV2463
p301
aV5
aV3
aV3
aV1
aV1.2
p302
aV87.5
p303
aV0.3
p304
aV1
aV7.15
p305
aa(lp306
V2014/2015
p307
aVInter
p308
aVUEL
p309
aV3(3)
p310
aV253
p311
aV-
aV-
aV-
aV-
aV0.7
p312
aV87.9
p313
aV-
aV-
aV6.39
p314
aa(lp315
V2016
p316
aVCroatia
p317
aVUEC
p318
aV0(2)
p319
aV36
p320
aV-
aV-
aV-
aV-
aV0.5
p321
aV82.4
p322
aV-
aV-
aV6.26
p323
aa(lp324
V2013/2014
p325
aVInter
p326
aVISA
p327
aV14(18)
p328
aV1608
p329
aV-
aV4
aV2
aV-
aV0.6
p330
aV89.8
p331
aV0.1
p332
aV2
aV6.95
p333
aa(lp334
V2014
p335
aVCroatia
p336
aVWC
p337
aV1(2)
p338
aV111
p339
aV-
aV-
aV-
aV-
aV0.3
p340
aV90.3
p341
aV-
aV-
aV6.19
p342
aa(lp343
V2012/2013
p344
aVInter
p345
aVISA
p346
aV11(2)
p347
aV1026
p348
aV-
aV1
aV2
aV-
aV0.5
p349
aV90.3
p350
aV-
aV1
aV7.27
p351
aa(lp352
V2012/2013
p353
aVInter
p354
aVUEL
p355
aV4
aV315
p356
aV-
aV1
aV1
aV-
aV0.8
p357
aV92.1
p358
aV-
aV1
aV7.39
p359
aa(lp360
V2012/2013
p361
aVDinamo Zagreb
p362
aVUCL
p363
aV5(1)
p364
aV456
p365
aV-
aV-
aV-
aV-
aV0.2
p366
aV88.2
p367
aV-
aV-
aV6.59
p368
aa(lp369
V2011/2012
p370
aVDinamo Zagreb
p371
aVUCL
p372
aV5(1)
p373
aV413
p374
aV1
aV-
aV-
aV-
aV0.3
p375
aV89.8
p376
aV0.2
p377
aV-
aV6.39
p378
aa(lp379
VTotal / Average
p380
aV
aV
aV226
p381
aV12608
p382
aV9
aV18
p383
aV22
p384
aV2
aV0.6
p385
aV90.6
p386
aV0.1
p387
aV8
aV6.85
p388
aasS'defensive_data'
p389
(lp390
(lp391
a(lp392
V2018/2019
p393
aVChelsea
p394
aVEPL
p395
aV11(4)
p396
aV863
p397
aV-
aV1
aV1
aV-
aV1.1
p398
aV92.8
p399
aV0.3
p400
aV-
aV6.72
p401
aa(lp402
V2018/2019
p403
aVChelsea
p404
aVUEL
p405
aV2(1)
p406
aV193
p407
aV-
aV-
aV-
aV-
aV1.3
p408
aV93.1
p409
aV-
aV-
aV7.12
p410
aa(lp411
V2018/2019
p412
aVCroatia
p413
aVUNL
p414
aV2
aV163
p415
aV-
aV-
aV1
aV-
aV-
aV92
p416
aV0.5
p417
aV-
aV5.52
p418
aa(lp419
V2017/2018
p420
aVReal Madrid
p421
aVSLL
p422
aV10(11)
p423
aV989
p424
aV-
aV1
aV2
aV-
aV0.4
p425
aV93.7
p426
aV-
aV2
aV6.73
p427
aa(lp428
V2017/2018
p429
aVReal Madrid
p430
aVUCL
p431
aV4(3)
p432
aV258
p433
aV-
aV1
aV2
aV-
aV0.1
p434
aV90.7
p435
aV0.1
p436
aV-
aV6.47
p437
aa(lp438
V2016/2017
p439
aVReal Madrid
p440
aVSLL
p441
aV19(8)
p442
aV1689
p443
aV1
aV3
aV2
aV-
aV0.5
p444
aV91.3
p445
aV0.1
p446
aV1
aV7.12
p447
aa(lp448
V2016/2017
p449
aVReal Madrid
p450
aVUCL
p451
aV2(4)
p452
aV219
p453
aV1
aV-
aV1
aV-
aV0.5
p454
aV95.5
p455
aV-
aV-
aV6.80
p456
aa(lp457
V2018
p458
aVCroatia
p459
aVWC
p460
aV1(4)
p461
aV183
p462
aV-
aV1
aV-
aV-
aV0.8
p463
aV94.3
p464
aV0.6
p465
aV-
aV6.73
p466
aa(lp467
V2015/2016
p468
aVReal Madrid
p469
aVSLL
p470
aV8(17)
p471
aV1030
p472
aV-
aV2
aV4
aV1
aV0.4
p473
aV90.5
p474
aV0.1
p475
aV-
aV6.50
p476
aa(lp477
V2015/2016
p478
aVReal Madrid
p479
aVUCL
p480
aV3(5)
p481
aV340
p482
aV1
aV-
aV1
aV-
aV0.6
p483
aV92.5
p484
aV0.1
p485
aV-
aV6.87
p486
aa(lp487
V2014/2015
p488
aVInter
p489
aVISA
p490
aV26(9)
p491
aV2463
p492
aV5
aV3
aV3
aV1
aV1.2
p493
aV87.5
p494
aV0.3
p495
aV1
aV7.15
p496
aa(lp497
V2014/2015
p498
aVInter
p499
aVUEL
p500
aV3(3)
p501
aV253
p502
aV-
aV-
aV-
aV-
aV0.7
p503
aV87.9
p504
aV-
aV-
aV6.39
p505
aa(lp506
V2016
p507
aVCroatia
p508
aVUEC
p509
aV0(2)
p510
aV36
p511
aV-
aV-
aV-
aV-
aV0.5
p512
aV82.4
p513
aV-
aV-
aV6.26
p514
aa(lp515
V2013/2014
p516
aVInter
p517
aVISA
p518
aV14(18)
p519
aV1608
p520
aV-
aV4
aV2
aV-
aV0.6
p521
aV89.8
p522
aV0.1
p523
aV2
aV6.95
p524
aa(lp525
V2014
p526
aVCroatia
p527
aVWC
p528
aV1(2)
p529
aV111
p530
aV-
aV-
aV-
aV-
aV0.3
p531
aV90.3
p532
aV-
aV-
aV6.19
p533
aa(lp534
V2012/2013
p535
aVInter
p536
aVISA
p537
aV11(2)
p538
aV1026
p539
aV-
aV1
aV2
aV-
aV0.5
p540
aV90.3
p541
aV-
aV1
aV7.27
p542
aa(lp543
V2012/2013
p544
aVInter
p545
aVUEL
p546
aV4
aV315
p547
aV-
aV1
aV1
aV-
aV0.8
p548
aV92.1
p549
aV-
aV1
aV7.39
p550
aa(lp551
V2012/2013
p552
aVDinamo Zagreb
p553
aVUCL
p554
aV5(1)
p555
aV456
p556
aV-
aV-
aV-
aV-
aV0.2
p557
aV88.2
p558
aV-
aV-
aV6.59
p559
aa(lp560
V2011/2012
p561
aVDinamo Zagreb
p562
aVUCL
p563
aV5(1)
p564
aV413
p565
aV1
aV-
aV-
aV-
aV0.3
p566
aV89.8
p567
aV0.2
p568
aV-
aV6.39
p569
aa(lp570
VTotal / Average
p571
aV
aV
aV226
p572
aV12608
p573
aV9
aV18
p574
aV22
p575
aV2
aV0.6
p576
aV90.6
p577
aV0.1
p578
aV8
aV6.85
p579
aasS'sumary_data'
p580
(lp581
(lp582
a(lp583
V2018/2019
p584
aVChelsea
p585
aVEPL
p586
aV11(4)
p587
aV863
p588
aV-
aV1
aV1
aV-
aV1.1
p589
aV92.8
p590
aV0.3
p591
aV-
aV6.72
p592
aa(lp593
V2018/2019
p594
aVChelsea
p595
aVUEL
p596
aV2(1)
p597
aV193
p598
aV-
aV-
aV-
aV-
aV1.3
p599
aV93.1
p600
aV-
aV-
aV7.12
p601
aa(lp602
V2018/2019
p603
aVCroatia
p604
aVUNL
p605
aV2
aV163
p606
aV-
aV-
aV1
aV-
aV-
aV92
p607
aV0.5
p608
aV-
aV5.52
p609
aa(lp610
V2017/2018
p611
aVReal Madrid
p612
aVSLL
p613
aV10(11)
p614
aV989
p615
aV-
aV1
aV2
aV-
aV0.4
p616
aV93.7
p617
aV-
aV2
aV6.73
p618
aa(lp619
V2017/2018
p620
aVReal Madrid
p621
aVUCL
p622
aV4(3)
p623
aV258
p624
aV-
aV1
aV2
aV-
aV0.1
p625
aV90.7
p626
aV0.1
p627
aV-
aV6.47
p628
aa(lp629
V2016/2017
p630
aVReal Madrid
p631
aVSLL
p632
aV19(8)
p633
aV1689
p634
aV1
aV3
aV2
aV-
aV0.5
p635
aV91.3
p636
aV0.1
p637
aV1
aV7.12
p638
aa(lp639
V2016/2017
p640
aVReal Madrid
p641
aVUCL
p642
aV2(4)
p643
aV219
p644
aV1
aV-
aV1
aV-
aV0.5
p645
aV95.5
p646
aV-
aV-
aV6.80
p647
aa(lp648
V2018
p649
aVCroatia
p650
aVWC
p651
aV1(4)
p652
aV183
p653
aV-
aV1
aV-
aV-
aV0.8
p654
aV94.3
p655
aV0.6
p656
aV-
aV6.73
p657
aa(lp658
V2015/2016
p659
aVReal Madrid
p660
aVSLL
p661
aV8(17)
p662
aV1030
p663
aV-
aV2
aV4
aV1
aV0.4
p664
aV90.5
p665
aV0.1
p666
aV-
aV6.50
p667
aa(lp668
V2015/2016
p669
aVReal Madrid
p670
aVUCL
p671
aV3(5)
p672
aV340
p673
aV1
aV-
aV1
aV-
aV0.6
p674
aV92.5
p675
aV0.1
p676
aV-
aV6.87
p677
aa(lp678
V2014/2015
p679
aVInter
p680
aVISA
p681
aV26(9)
p682
aV2463
p683
aV5
aV3
aV3
aV1
aV1.2
p684
aV87.5
p685
aV0.3
p686
aV1
aV7.15
p687
aa(lp688
V2014/2015
p689
aVInter
p690
aVUEL
p691
aV3(3)
p692
aV253
p693
aV-
aV-
aV-
aV-
aV0.7
p694
aV87.9
p695
aV-
aV-
aV6.39
p696
aa(lp697
V2016
p698
aVCroatia
p699
aVUEC
p700
aV0(2)
p701
aV36
p702
aV-
aV-
aV-
aV-
aV0.5
p703
aV82.4
p704
aV-
aV-
aV6.26
p705
aa(lp706
V2013/2014
p707
aVInter
p708
aVISA
p709
aV14(18)
p710
aV1608
p711
aV-
aV4
aV2
aV-
aV0.6
p712
aV89.8
p713
aV0.1
p714
aV2
aV6.95
p715
aa(lp716
V2014
p717
aVCroatia
p718
aVWC
p719
aV1(2)
p720
aV111
p721
aV-
aV-
aV-
aV-
aV0.3
p722
aV90.3
p723
aV-
aV-
aV6.19
p724
aa(lp725
V2012/2013
p726
aVInter
p727
aVISA
p728
aV11(2)
p729
aV1026
p730
aV-
aV1
aV2
aV-
aV0.5
p731
aV90.3
p732
aV-
aV1
aV7.27
p733
aa(lp734
V2012/2013
p735
aVInter
p736
aVUEL
p737
aV4
aV315
p738
aV-
aV1
aV1
aV-
aV0.8
p739
aV92.1
p740
aV-
aV1
aV7.39
p741
aa(lp742
V2012/2013
p743
aVDinamo Zagreb
p744
aVUCL
p745
aV5(1)
p746
aV456
p747
aV-
aV-
aV-
aV-
aV0.2
p748
aV88.2
p749
aV-
aV-
aV6.59
p750
aa(lp751
V2011/2012
p752
aVDinamo Zagreb
p753
aVUCL
p754
aV5(1)
p755
aV413
p756
aV1
aV-
aV-
aV-
aV0.3
p757
aV89.8
p758
aV0.2
p759
aV-
aV6.39
p760
aa(lp761
VTotal / Average
p762
aV
aV
aV226
p763
aV12608
p764
aV9
aV18
p765
aV22
p766
aV2
aV0.6
p767
aV90.6
p768
aV0.1
p769
aV8
aV6.85
p770
aasS'id'
p771
V93894
p772
sb.