(i__main__
Player
p1
(dp2
S'name'
p3
VMatt Doherty 
p4
sS'offensive_data'
p5
(lp6
(lp7
a(lp8
V2018/2019
p9
aVWolverhampton..
p10
aVEPL
p11
aV17
p12
aV1491
p13
aV3
aV3
aV2
aV-
aV1.4
p14
aV70
p15
aV5.5
p16
aV2
aV7.36
p17
aa(lp18
V2018/2019
p19
aVIreland
p20
aVUNL
p21
aV2
aV180
p22
aV-
aV-
aV-
aV-
aV-
aV69.6
p23
aV2.5
p24
aV-
aV6.29
p25
aa(lp26
V2017/2018
p27
aVWolverhampton..
p28
aVEC
p29
aV45
p30
aV3987
p31
aV4
aV4
aV2
aV1
aV0.5
p32
aV79.2
p33
aV2.9
p34
aV3
aV7.12
p35
aa(lp36
V2016/2017
p37
aVWolverhampton..
p38
aVEC
p39
aV41(1)
p40
aV3608
p41
aV4
aV4
aV5
aV-
aV0.9
p42
aV73.5
p43
aV3.4
p44
aV2
aV7.18
p45
aa(lp46
V2015/2016
p47
aVWolverhampton..
p48
aVEC
p49
aV28(6)
p50
aV2550
p51
aV2
aV3
aV1
aV-
aV0.6
p52
aV69.9
p53
aV3.4
p54
aV6
aV7.30
p55
aa(lp56
V2014/2015
p57
aVWolverhampton..
p58
aVEC
p59
aV26(7)
p60
aV2420
p61
aV-
aV4
aV5
aV1
aV0.5
p62
aV78.7
p63
aV2.9
p64
aV1
aV6.86
p65
aa(lp66
V2011/2012
p67
aVWolverhampton..
p68
aVEPL
p69
aV0(1)
p70
aV45
p71
aV-
aV-
aV-
aV-
aV-
aV77.8
p72
aV-
aV-
aV6.90
p73
aa(lp74
VTotal / Average
p75
aV
aV
aV174
p76
aV14281
p77
aV13
p78
aV18
p79
aV15
p80
aV2
aV0.7
p81
aV74.9
p82
aV3.4
p83
aV14
p84
aV7.13
p85
aasS'url'
p86
S'https://www.whoscored.com/Players/94042/History/'
p87
sS'passing_data'
p88
(lp89
(lp90
a(lp91
V2018/2019
p92
aVWolverhampton..
p93
aVEPL
p94
aV17
p95
aV1491
p96
aV3
aV3
aV2
aV-
aV1.4
p97
aV70
p98
aV5.5
p99
aV2
aV7.36
p100
aa(lp101
V2018/2019
p102
aVIreland
p103
aVUNL
p104
aV2
aV180
p105
aV-
aV-
aV-
aV-
aV-
aV69.6
p106
aV2.5
p107
aV-
aV6.29
p108
aa(lp109
V2017/2018
p110
aVWolverhampton..
p111
aVEC
p112
aV45
p113
aV3987
p114
aV4
aV4
aV2
aV1
aV0.5
p115
aV79.2
p116
aV2.9
p117
aV3
aV7.12
p118
aa(lp119
V2016/2017
p120
aVWolverhampton..
p121
aVEC
p122
aV41(1)
p123
aV3608
p124
aV4
aV4
aV5
aV-
aV0.9
p125
aV73.5
p126
aV3.4
p127
aV2
aV7.18
p128
aa(lp129
V2015/2016
p130
aVWolverhampton..
p131
aVEC
p132
aV28(6)
p133
aV2550
p134
aV2
aV3
aV1
aV-
aV0.6
p135
aV69.9
p136
aV3.4
p137
aV6
aV7.30
p138
aa(lp139
V2014/2015
p140
aVWolverhampton..
p141
aVEC
p142
aV26(7)
p143
aV2420
p144
aV-
aV4
aV5
aV1
aV0.5
p145
aV78.7
p146
aV2.9
p147
aV1
aV6.86
p148
aa(lp149
V2011/2012
p150
aVWolverhampton..
p151
aVEPL
p152
aV0(1)
p153
aV45
p154
aV-
aV-
aV-
aV-
aV-
aV77.8
p155
aV-
aV-
aV6.90
p156
aa(lp157
VTotal / Average
p158
aV
aV
aV174
p159
aV14281
p160
aV13
p161
aV18
p162
aV15
p163
aV2
aV0.7
p164
aV74.9
p165
aV3.4
p166
aV14
p167
aV7.13
p168
aasS'defensive_data'
p169
(lp170
(lp171
a(lp172
V2018/2019
p173
aVWolverhampton..
p174
aVEPL
p175
aV17
p176
aV1491
p177
aV3
aV3
aV2
aV-
aV1.4
p178
aV70
p179
aV5.5
p180
aV2
aV7.36
p181
aa(lp182
V2018/2019
p183
aVIreland
p184
aVUNL
p185
aV2
aV180
p186
aV-
aV-
aV-
aV-
aV-
aV69.6
p187
aV2.5
p188
aV-
aV6.29
p189
aa(lp190
V2017/2018
p191
aVWolverhampton..
p192
aVEC
p193
aV45
p194
aV3987
p195
aV4
aV4
aV2
aV1
aV0.5
p196
aV79.2
p197
aV2.9
p198
aV3
aV7.12
p199
aa(lp200
V2016/2017
p201
aVWolverhampton..
p202
aVEC
p203
aV41(1)
p204
aV3608
p205
aV4
aV4
aV5
aV-
aV0.9
p206
aV73.5
p207
aV3.4
p208
aV2
aV7.18
p209
aa(lp210
V2015/2016
p211
aVWolverhampton..
p212
aVEC
p213
aV28(6)
p214
aV2550
p215
aV2
aV3
aV1
aV-
aV0.6
p216
aV69.9
p217
aV3.4
p218
aV6
aV7.30
p219
aa(lp220
V2014/2015
p221
aVWolverhampton..
p222
aVEC
p223
aV26(7)
p224
aV2420
p225
aV-
aV4
aV5
aV1
aV0.5
p226
aV78.7
p227
aV2.9
p228
aV1
aV6.86
p229
aa(lp230
V2011/2012
p231
aVWolverhampton..
p232
aVEPL
p233
aV0(1)
p234
aV45
p235
aV-
aV-
aV-
aV-
aV-
aV77.8
p236
aV-
aV-
aV6.90
p237
aa(lp238
VTotal / Average
p239
aV
aV
aV174
p240
aV14281
p241
aV13
p242
aV18
p243
aV15
p244
aV2
aV0.7
p245
aV74.9
p246
aV3.4
p247
aV14
p248
aV7.13
p249
aasS'sumary_data'
p250
(lp251
(lp252
a(lp253
V2018/2019
p254
aVWolverhampton..
p255
aVEPL
p256
aV17
p257
aV1491
p258
aV3
aV3
aV2
aV-
aV1.4
p259
aV70
p260
aV5.5
p261
aV2
aV7.36
p262
aa(lp263
V2018/2019
p264
aVIreland
p265
aVUNL
p266
aV2
aV180
p267
aV-
aV-
aV-
aV-
aV-
aV69.6
p268
aV2.5
p269
aV-
aV6.29
p270
aa(lp271
V2017/2018
p272
aVWolverhampton..
p273
aVEC
p274
aV45
p275
aV3987
p276
aV4
aV4
aV2
aV1
aV0.5
p277
aV79.2
p278
aV2.9
p279
aV3
aV7.12
p280
aa(lp281
V2016/2017
p282
aVWolverhampton..
p283
aVEC
p284
aV41(1)
p285
aV3608
p286
aV4
aV4
aV5
aV-
aV0.9
p287
aV73.5
p288
aV3.4
p289
aV2
aV7.18
p290
aa(lp291
V2015/2016
p292
aVWolverhampton..
p293
aVEC
p294
aV28(6)
p295
aV2550
p296
aV2
aV3
aV1
aV-
aV0.6
p297
aV69.9
p298
aV3.4
p299
aV6
aV7.30
p300
aa(lp301
V2014/2015
p302
aVWolverhampton..
p303
aVEC
p304
aV26(7)
p305
aV2420
p306
aV-
aV4
aV5
aV1
aV0.5
p307
aV78.7
p308
aV2.9
p309
aV1
aV6.86
p310
aa(lp311
V2011/2012
p312
aVWolverhampton..
p313
aVEPL
p314
aV0(1)
p315
aV45
p316
aV-
aV-
aV-
aV-
aV-
aV77.8
p317
aV-
aV-
aV6.90
p318
aa(lp319
VTotal / Average
p320
aV
aV
aV174
p321
aV14281
p322
aV13
p323
aV18
p324
aV15
p325
aV2
aV0.7
p326
aV74.9
p327
aV3.4
p328
aV14
p329
aV7.13
p330
aasS'id'
p331
V94042
p332
sb.