(i__main__
Player
p1
(dp2
S'name'
p3
VNeeskens Kebano 
p4
sS'offensive_data'
p5
(lp6
(lp7
a(lp8
V2018/2019
p9
aVFulham
p10
aVEPL
p11
aV0(2)
p12
aV27
p13
aV-
aV-
aV-
aV-
aV-
aV77.8
p14
aV0.5
p15
aV-
aV6.13
p16
aa(lp17
V2017/2018
p18
aVFulham
p19
aVEC
p20
aV10(17)
p21
aV1083
p22
aV3
aV3
aV1
aV-
aV1.3
p23
aV79.4
p24
aV0.4
p25
aV2
aV6.63
p26
aa(lp27
V2016/2017
p28
aVFulham
p29
aVEC
p30
aV13(17)
p31
aV1340
p32
aV6
aV2
aV-
aV-
aV1
aV89
p33
aV0.4
p34
aV1
aV6.60
p35
aa(lp36
V2015
p37
aVDR Congo
p38
aVACoN
p39
aV0(2)
p40
aV45
p41
aV-
aV1
aV-
aV-
aV1
aV93.3
p42
aV-
aV-
aV6.58
p43
aa(lp44
V2010/2011
p45
aVParis Saint-G..
p46
aVFL1
p47
aV1(2)
p48
aV76
p49
aV-
aV-
aV-
aV-
aV0.7
p50
aV65.9
p51
aV0.3
p52
aV-
aV6.24
p53
aa(lp54
VTotal / Average
p55
aV
aV
aV64
p56
aV2571
p57
aV9
aV6
aV1
aV0
aV1.1
p58
aV83.7
p59
aV0.4
p60
aV3
aV6.58
p61
aasS'url'
p62
S'https://www.whoscored.com/Players/94933/History/'
p63
sS'passing_data'
p64
(lp65
(lp66
a(lp67
V2018/2019
p68
aVFulham
p69
aVEPL
p70
aV0(2)
p71
aV27
p72
aV-
aV-
aV-
aV-
aV-
aV77.8
p73
aV0.5
p74
aV-
aV6.13
p75
aa(lp76
V2017/2018
p77
aVFulham
p78
aVEC
p79
aV10(17)
p80
aV1083
p81
aV3
aV3
aV1
aV-
aV1.3
p82
aV79.4
p83
aV0.4
p84
aV2
aV6.63
p85
aa(lp86
V2016/2017
p87
aVFulham
p88
aVEC
p89
aV13(17)
p90
aV1340
p91
aV6
aV2
aV-
aV-
aV1
aV89
p92
aV0.4
p93
aV1
aV6.60
p94
aa(lp95
V2015
p96
aVDR Congo
p97
aVACoN
p98
aV0(2)
p99
aV45
p100
aV-
aV1
aV-
aV-
aV1
aV93.3
p101
aV-
aV-
aV6.58
p102
aa(lp103
V2010/2011
p104
aVParis Saint-G..
p105
aVFL1
p106
aV1(2)
p107
aV76
p108
aV-
aV-
aV-
aV-
aV0.7
p109
aV65.9
p110
aV0.3
p111
aV-
aV6.24
p112
aa(lp113
VTotal / Average
p114
aV
aV
aV64
p115
aV2571
p116
aV9
aV6
aV1
aV0
aV1.1
p117
aV83.7
p118
aV0.4
p119
aV3
aV6.58
p120
aasS'defensive_data'
p121
(lp122
(lp123
a(lp124
V2018/2019
p125
aVFulham
p126
aVEPL
p127
aV0(2)
p128
aV27
p129
aV-
aV-
aV-
aV-
aV-
aV77.8
p130
aV0.5
p131
aV-
aV6.13
p132
aa(lp133
V2017/2018
p134
aVFulham
p135
aVEC
p136
aV10(17)
p137
aV1083
p138
aV3
aV3
aV1
aV-
aV1.3
p139
aV79.4
p140
aV0.4
p141
aV2
aV6.63
p142
aa(lp143
V2016/2017
p144
aVFulham
p145
aVEC
p146
aV13(17)
p147
aV1340
p148
aV6
aV2
aV-
aV-
aV1
aV89
p149
aV0.4
p150
aV1
aV6.60
p151
aa(lp152
V2015
p153
aVDR Congo
p154
aVACoN
p155
aV0(2)
p156
aV45
p157
aV-
aV1
aV-
aV-
aV1
aV93.3
p158
aV-
aV-
aV6.58
p159
aa(lp160
V2010/2011
p161
aVParis Saint-G..
p162
aVFL1
p163
aV1(2)
p164
aV76
p165
aV-
aV-
aV-
aV-
aV0.7
p166
aV65.9
p167
aV0.3
p168
aV-
aV6.24
p169
aa(lp170
VTotal / Average
p171
aV
aV
aV64
p172
aV2571
p173
aV9
aV6
aV1
aV0
aV1.1
p174
aV83.7
p175
aV0.4
p176
aV3
aV6.58
p177
aasS'sumary_data'
p178
(lp179
(lp180
a(lp181
V2018/2019
p182
aVFulham
p183
aVEPL
p184
aV0(2)
p185
aV27
p186
aV-
aV-
aV-
aV-
aV-
aV77.8
p187
aV0.5
p188
aV-
aV6.13
p189
aa(lp190
V2017/2018
p191
aVFulham
p192
aVEC
p193
aV10(17)
p194
aV1083
p195
aV3
aV3
aV1
aV-
aV1.3
p196
aV79.4
p197
aV0.4
p198
aV2
aV6.63
p199
aa(lp200
V2016/2017
p201
aVFulham
p202
aVEC
p203
aV13(17)
p204
aV1340
p205
aV6
aV2
aV-
aV-
aV1
aV89
p206
aV0.4
p207
aV1
aV6.60
p208
aa(lp209
V2015
p210
aVDR Congo
p211
aVACoN
p212
aV0(2)
p213
aV45
p214
aV-
aV1
aV-
aV-
aV1
aV93.3
p215
aV-
aV-
aV6.58
p216
aa(lp217
V2010/2011
p218
aVParis Saint-G..
p219
aVFL1
p220
aV1(2)
p221
aV76
p222
aV-
aV-
aV-
aV-
aV0.7
p223
aV65.9
p224
aV0.3
p225
aV-
aV6.24
p226
aa(lp227
VTotal / Average
p228
aV
aV
aV64
p229
aV2571
p230
aV9
aV6
aV1
aV0
aV1.1
p231
aV83.7
p232
aV0.4
p233
aV3
aV6.58
p234
aasS'id'
p235
V94933
p236
sb.