(i__main__
Player
p1
(dp2
S'name'
p3
VBen Mee 
p4
sS'offensive_data'
p5
(lp6
(lp7
a(lp8
V2018/2019
p9
aVBurnley
p10
aVEPL
p11
aV17
p12
aV1530
p13
aV-
aV2
aV2
aV-
aV0.4
p14
aV76.5
p15
aV3.1
p16
aV-
aV6.82
p17
aa(lp18
V2017/2018
p19
aVBurnley
p20
aVEPL
p21
aV29
p22
aV2610
p23
aV-
aV-
aV5
aV-
aV0.9
p24
aV76.4
p25
aV4
aV2
aV7.12
p26
aa(lp27
V2016/2017
p28
aVBurnley
p29
aVEPL
p30
aV34
p31
aV3016
p32
aV1
aV-
aV5
aV-
aV0.5
p33
aV73.3
p34
aV3.7
p35
aV2
aV7.14
p36
aa(lp37
V2015/2016
p38
aVBurnley
p39
aVEC
p40
aV46
p41
aV4128
p42
aV2
aV1
aV9
aV-
aV0.5
p43
aV65.3
p44
aV4
aV2
aV7.28
p45
aa(lp46
V2014/2015
p47
aVBurnley
p48
aVEPL
p49
aV32(1)
p50
aV2888
p51
aV2
aV1
aV10
p52
aV-
aV0.6
p53
aV66.5
p54
aV2.6
p55
aV-
aV7.09
p56
aa(lp57
V2013/2014
p58
aVBurnley
p59
aVEC
p60
aV38
p61
aV3358
p62
aV-
aV2
aV6
aV-
aV0.4
p63
aV64.3
p64
aV2.7
p65
aV2
aV7.22
p66
aa(lp67
VTotal / Average
p68
aV
aV
aV197
p69
aV17530
p70
aV5
aV6
aV37
p71
aV0
aV0.5
p72
aV69.3
p73
aV3.4
p74
aV8
aV7.15
p75
aasS'url'
p76
S'https://www.whoscored.com/Players/94935/History/'
p77
sS'passing_data'
p78
(lp79
(lp80
a(lp81
V2018/2019
p82
aVBurnley
p83
aVEPL
p84
aV17
p85
aV1530
p86
aV-
aV2
aV2
aV-
aV0.4
p87
aV76.5
p88
aV3.1
p89
aV-
aV6.82
p90
aa(lp91
V2017/2018
p92
aVBurnley
p93
aVEPL
p94
aV29
p95
aV2610
p96
aV-
aV-
aV5
aV-
aV0.9
p97
aV76.4
p98
aV4
aV2
aV7.12
p99
aa(lp100
V2016/2017
p101
aVBurnley
p102
aVEPL
p103
aV34
p104
aV3016
p105
aV1
aV-
aV5
aV-
aV0.5
p106
aV73.3
p107
aV3.7
p108
aV2
aV7.14
p109
aa(lp110
V2015/2016
p111
aVBurnley
p112
aVEC
p113
aV46
p114
aV4128
p115
aV2
aV1
aV9
aV-
aV0.5
p116
aV65.3
p117
aV4
aV2
aV7.28
p118
aa(lp119
V2014/2015
p120
aVBurnley
p121
aVEPL
p122
aV32(1)
p123
aV2888
p124
aV2
aV1
aV10
p125
aV-
aV0.6
p126
aV66.5
p127
aV2.6
p128
aV-
aV7.09
p129
aa(lp130
V2013/2014
p131
aVBurnley
p132
aVEC
p133
aV38
p134
aV3358
p135
aV-
aV2
aV6
aV-
aV0.4
p136
aV64.3
p137
aV2.7
p138
aV2
aV7.22
p139
aa(lp140
VTotal / Average
p141
aV
aV
aV197
p142
aV17530
p143
aV5
aV6
aV37
p144
aV0
aV0.5
p145
aV69.3
p146
aV3.4
p147
aV8
aV7.15
p148
aasS'defensive_data'
p149
(lp150
(lp151
a(lp152
V2018/2019
p153
aVBurnley
p154
aVEPL
p155
aV17
p156
aV1530
p157
aV-
aV2
aV2
aV-
aV0.4
p158
aV76.5
p159
aV3.1
p160
aV-
aV6.82
p161
aa(lp162
V2017/2018
p163
aVBurnley
p164
aVEPL
p165
aV29
p166
aV2610
p167
aV-
aV-
aV5
aV-
aV0.9
p168
aV76.4
p169
aV4
aV2
aV7.12
p170
aa(lp171
V2016/2017
p172
aVBurnley
p173
aVEPL
p174
aV34
p175
aV3016
p176
aV1
aV-
aV5
aV-
aV0.5
p177
aV73.3
p178
aV3.7
p179
aV2
aV7.14
p180
aa(lp181
V2015/2016
p182
aVBurnley
p183
aVEC
p184
aV46
p185
aV4128
p186
aV2
aV1
aV9
aV-
aV0.5
p187
aV65.3
p188
aV4
aV2
aV7.28
p189
aa(lp190
V2014/2015
p191
aVBurnley
p192
aVEPL
p193
aV32(1)
p194
aV2888
p195
aV2
aV1
aV10
p196
aV-
aV0.6
p197
aV66.5
p198
aV2.6
p199
aV-
aV7.09
p200
aa(lp201
V2013/2014
p202
aVBurnley
p203
aVEC
p204
aV38
p205
aV3358
p206
aV-
aV2
aV6
aV-
aV0.4
p207
aV64.3
p208
aV2.7
p209
aV2
aV7.22
p210
aa(lp211
VTotal / Average
p212
aV
aV
aV197
p213
aV17530
p214
aV5
aV6
aV37
p215
aV0
aV0.5
p216
aV69.3
p217
aV3.4
p218
aV8
aV7.15
p219
aasS'sumary_data'
p220
(lp221
(lp222
a(lp223
V2018/2019
p224
aVBurnley
p225
aVEPL
p226
aV17
p227
aV1530
p228
aV-
aV2
aV2
aV-
aV0.4
p229
aV76.5
p230
aV3.1
p231
aV-
aV6.82
p232
aa(lp233
V2017/2018
p234
aVBurnley
p235
aVEPL
p236
aV29
p237
aV2610
p238
aV-
aV-
aV5
aV-
aV0.9
p239
aV76.4
p240
aV4
aV2
aV7.12
p241
aa(lp242
V2016/2017
p243
aVBurnley
p244
aVEPL
p245
aV34
p246
aV3016
p247
aV1
aV-
aV5
aV-
aV0.5
p248
aV73.3
p249
aV3.7
p250
aV2
aV7.14
p251
aa(lp252
V2015/2016
p253
aVBurnley
p254
aVEC
p255
aV46
p256
aV4128
p257
aV2
aV1
aV9
aV-
aV0.5
p258
aV65.3
p259
aV4
aV2
aV7.28
p260
aa(lp261
V2014/2015
p262
aVBurnley
p263
aVEPL
p264
aV32(1)
p265
aV2888
p266
aV2
aV1
aV10
p267
aV-
aV0.6
p268
aV66.5
p269
aV2.6
p270
aV-
aV7.09
p271
aa(lp272
V2013/2014
p273
aVBurnley
p274
aVEC
p275
aV38
p276
aV3358
p277
aV-
aV2
aV6
aV-
aV0.4
p278
aV64.3
p279
aV2.7
p280
aV2
aV7.22
p281
aa(lp282
VTotal / Average
p283
aV
aV
aV197
p284
aV17530
p285
aV5
aV6
aV37
p286
aV0
aV0.5
p287
aV69.3
p288
aV3.4
p289
aV8
aV7.15
p290
aasS'id'
p291
V94935
p292
sb.