(i__main__
Player
p1
(dp2
S'name'
p3
VVirgil van Dijk 
p4
sS'offensive_data'
p5
(lp6
(lp7
a(lp8
V2018/2019
p9
aVLiverpool
p10
aVEPL
p11
aV17
p12
aV1495
p13
aV-
aV1
aV1
aV-
aV0.9
p14
aV89.5
p15
aV4.2
p16
aV2
aV7.39
p17
aa(lp18
V2018/2019
p19
aVLiverpool
p20
aVUCL
p21
aV6
aV540
p22
aV-
aV1
aV3
aV-
aV1
aV87.5
p23
aV4.5
p24
aV-
aV6.66
p25
aa(lp26
V2018/2019
p27
aVNetherlands
p28
aVUNL
p29
aV4
aV360
p30
aV2
aV-
aV-
aV-
aV0.8
p31
aV89.6
p32
aV2.8
p33
aV-
aV7.36
p34
aa(lp35
V2017/2018
p36
aVLiverpool
p37
aVUCL
p38
aV6
aV540
p39
aV-
aV-
aV1
aV-
aV0.3
p40
aV79.8
p41
aV4.2
p42
aV-
aV7.03
p43
aa(lp44
V2017/2018
p45
aVLiverpool
p46
aVEPL
p47
aV14
p48
aV1260
p49
aV-
aV-
aV1
aV-
aV1.1
p50
aV89.8
p51
aV5.6
p52
aV1
aV7.35
p53
aa(lp54
V2017/2018
p55
aVSouthampton
p56
aVEPL
p57
aV11(1)
p58
aV993
p59
aV-
aV-
aV-
aV-
aV0.9
p60
aV85.8
p61
aV5
aV1
aV7.10
p62
aa(lp63
V2016/2017
p64
aVSouthampton
p65
aVEPL
p66
aV21
p67
aV1854
p68
aV1
aV-
aV3
aV1
aV0.8
p69
aV84.2
p70
aV4.7
p71
aV3
aV7.43
p72
aa(lp73
V2016/2017
p74
aVSouthampton
p75
aVUEL
p76
aV6
aV540
p77
aV2
aV-
aV-
aV-
aV1.7
p78
aV86.1
p79
aV4.2
p80
aV1
aV7.59
p81
aa(lp82
V2015/2016
p83
aVSouthampton
p84
aVEPL
p85
aV34
p86
aV3060
p87
aV3
aV-
aV2
aV-
aV0.9
p88
aV83.1
p89
aV4.8
p90
aV7
aV7.56
p91
aa(lp92
V2014/2015
p93
aVCeltic
p94
aVUEL
p95
aV8
aV666
p96
aV-
aV-
aV2
aV1
aV0.5
p97
aV81.8
p98
aV3.1
p99
aV-
aV7.01
p100
aa(lp101
V2013/2014
p102
aVCeltic
p103
aVUCL
p104
aV6
aV540
p105
aV-
aV-
aV2
aV-
aV0.8
p106
aV78.4
p107
aV2.3
p108
aV-
aV6.67
p109
aa(lp110
VTotal / Average
p111
aV
aV
aV134
p112
aV11848
p113
aV8
aV2
aV15
p114
aV2
aV0.9
p115
aV85.1
p116
aV4.5
p117
aV15
p118
aV7.31
p119
aasS'url'
p120
S'https://www.whoscored.com/Players/95408/History/'
p121
sS'passing_data'
p122
(lp123
(lp124
a(lp125
V2018/2019
p126
aVLiverpool
p127
aVEPL
p128
aV17
p129
aV1495
p130
aV-
aV1
aV1
aV-
aV0.9
p131
aV89.5
p132
aV4.2
p133
aV2
aV7.39
p134
aa(lp135
V2018/2019
p136
aVLiverpool
p137
aVUCL
p138
aV6
aV540
p139
aV-
aV1
aV3
aV-
aV1
aV87.5
p140
aV4.5
p141
aV-
aV6.66
p142
aa(lp143
V2018/2019
p144
aVNetherlands
p145
aVUNL
p146
aV4
aV360
p147
aV2
aV-
aV-
aV-
aV0.8
p148
aV89.6
p149
aV2.8
p150
aV-
aV7.36
p151
aa(lp152
V2017/2018
p153
aVLiverpool
p154
aVUCL
p155
aV6
aV540
p156
aV-
aV-
aV1
aV-
aV0.3
p157
aV79.8
p158
aV4.2
p159
aV-
aV7.03
p160
aa(lp161
V2017/2018
p162
aVLiverpool
p163
aVEPL
p164
aV14
p165
aV1260
p166
aV-
aV-
aV1
aV-
aV1.1
p167
aV89.8
p168
aV5.6
p169
aV1
aV7.35
p170
aa(lp171
V2017/2018
p172
aVSouthampton
p173
aVEPL
p174
aV11(1)
p175
aV993
p176
aV-
aV-
aV-
aV-
aV0.9
p177
aV85.8
p178
aV5
aV1
aV7.10
p179
aa(lp180
V2016/2017
p181
aVSouthampton
p182
aVEPL
p183
aV21
p184
aV1854
p185
aV1
aV-
aV3
aV1
aV0.8
p186
aV84.2
p187
aV4.7
p188
aV3
aV7.43
p189
aa(lp190
V2016/2017
p191
aVSouthampton
p192
aVUEL
p193
aV6
aV540
p194
aV2
aV-
aV-
aV-
aV1.7
p195
aV86.1
p196
aV4.2
p197
aV1
aV7.59
p198
aa(lp199
V2015/2016
p200
aVSouthampton
p201
aVEPL
p202
aV34
p203
aV3060
p204
aV3
aV-
aV2
aV-
aV0.9
p205
aV83.1
p206
aV4.8
p207
aV7
aV7.56
p208
aa(lp209
V2014/2015
p210
aVCeltic
p211
aVUEL
p212
aV8
aV666
p213
aV-
aV-
aV2
aV1
aV0.5
p214
aV81.8
p215
aV3.1
p216
aV-
aV7.01
p217
aa(lp218
V2013/2014
p219
aVCeltic
p220
aVUCL
p221
aV6
aV540
p222
aV-
aV-
aV2
aV-
aV0.8
p223
aV78.4
p224
aV2.3
p225
aV-
aV6.67
p226
aa(lp227
VTotal / Average
p228
aV
aV
aV134
p229
aV11848
p230
aV8
aV2
aV15
p231
aV2
aV0.9
p232
aV85.1
p233
aV4.5
p234
aV15
p235
aV7.31
p236
aasS'defensive_data'
p237
(lp238
(lp239
a(lp240
V2018/2019
p241
aVLiverpool
p242
aVEPL
p243
aV17
p244
aV1495
p245
aV-
aV1
aV1
aV-
aV0.9
p246
aV89.5
p247
aV4.2
p248
aV2
aV7.39
p249
aa(lp250
V2018/2019
p251
aVLiverpool
p252
aVUCL
p253
aV6
aV540
p254
aV-
aV1
aV3
aV-
aV1
aV87.5
p255
aV4.5
p256
aV-
aV6.66
p257
aa(lp258
V2018/2019
p259
aVNetherlands
p260
aVUNL
p261
aV4
aV360
p262
aV2
aV-
aV-
aV-
aV0.8
p263
aV89.6
p264
aV2.8
p265
aV-
aV7.36
p266
aa(lp267
V2017/2018
p268
aVLiverpool
p269
aVUCL
p270
aV6
aV540
p271
aV-
aV-
aV1
aV-
aV0.3
p272
aV79.8
p273
aV4.2
p274
aV-
aV7.03
p275
aa(lp276
V2017/2018
p277
aVLiverpool
p278
aVEPL
p279
aV14
p280
aV1260
p281
aV-
aV-
aV1
aV-
aV1.1
p282
aV89.8
p283
aV5.6
p284
aV1
aV7.35
p285
aa(lp286
V2017/2018
p287
aVSouthampton
p288
aVEPL
p289
aV11(1)
p290
aV993
p291
aV-
aV-
aV-
aV-
aV0.9
p292
aV85.8
p293
aV5
aV1
aV7.10
p294
aa(lp295
V2016/2017
p296
aVSouthampton
p297
aVEPL
p298
aV21
p299
aV1854
p300
aV1
aV-
aV3
aV1
aV0.8
p301
aV84.2
p302
aV4.7
p303
aV3
aV7.43
p304
aa(lp305
V2016/2017
p306
aVSouthampton
p307
aVUEL
p308
aV6
aV540
p309
aV2
aV-
aV-
aV-
aV1.7
p310
aV86.1
p311
aV4.2
p312
aV1
aV7.59
p313
aa(lp314
V2015/2016
p315
aVSouthampton
p316
aVEPL
p317
aV34
p318
aV3060
p319
aV3
aV-
aV2
aV-
aV0.9
p320
aV83.1
p321
aV4.8
p322
aV7
aV7.56
p323
aa(lp324
V2014/2015
p325
aVCeltic
p326
aVUEL
p327
aV8
aV666
p328
aV-
aV-
aV2
aV1
aV0.5
p329
aV81.8
p330
aV3.1
p331
aV-
aV7.01
p332
aa(lp333
V2013/2014
p334
aVCeltic
p335
aVUCL
p336
aV6
aV540
p337
aV-
aV-
aV2
aV-
aV0.8
p338
aV78.4
p339
aV2.3
p340
aV-
aV6.67
p341
aa(lp342
VTotal / Average
p343
aV
aV
aV134
p344
aV11848
p345
aV8
aV2
aV15
p346
aV2
aV0.9
p347
aV85.1
p348
aV4.5
p349
aV15
p350
aV7.31
p351
aasS'sumary_data'
p352
(lp353
(lp354
a(lp355
V2018/2019
p356
aVLiverpool
p357
aVEPL
p358
aV17
p359
aV1495
p360
aV-
aV1
aV1
aV-
aV0.9
p361
aV89.5
p362
aV4.2
p363
aV2
aV7.39
p364
aa(lp365
V2018/2019
p366
aVLiverpool
p367
aVUCL
p368
aV6
aV540
p369
aV-
aV1
aV3
aV-
aV1
aV87.5
p370
aV4.5
p371
aV-
aV6.66
p372
aa(lp373
V2018/2019
p374
aVNetherlands
p375
aVUNL
p376
aV4
aV360
p377
aV2
aV-
aV-
aV-
aV0.8
p378
aV89.6
p379
aV2.8
p380
aV-
aV7.36
p381
aa(lp382
V2017/2018
p383
aVLiverpool
p384
aVUCL
p385
aV6
aV540
p386
aV-
aV-
aV1
aV-
aV0.3
p387
aV79.8
p388
aV4.2
p389
aV-
aV7.03
p390
aa(lp391
V2017/2018
p392
aVLiverpool
p393
aVEPL
p394
aV14
p395
aV1260
p396
aV-
aV-
aV1
aV-
aV1.1
p397
aV89.8
p398
aV5.6
p399
aV1
aV7.35
p400
aa(lp401
V2017/2018
p402
aVSouthampton
p403
aVEPL
p404
aV11(1)
p405
aV993
p406
aV-
aV-
aV-
aV-
aV0.9
p407
aV85.8
p408
aV5
aV1
aV7.10
p409
aa(lp410
V2016/2017
p411
aVSouthampton
p412
aVEPL
p413
aV21
p414
aV1854
p415
aV1
aV-
aV3
aV1
aV0.8
p416
aV84.2
p417
aV4.7
p418
aV3
aV7.43
p419
aa(lp420
V2016/2017
p421
aVSouthampton
p422
aVUEL
p423
aV6
aV540
p424
aV2
aV-
aV-
aV-
aV1.7
p425
aV86.1
p426
aV4.2
p427
aV1
aV7.59
p428
aa(lp429
V2015/2016
p430
aVSouthampton
p431
aVEPL
p432
aV34
p433
aV3060
p434
aV3
aV-
aV2
aV-
aV0.9
p435
aV83.1
p436
aV4.8
p437
aV7
aV7.56
p438
aa(lp439
V2014/2015
p440
aVCeltic
p441
aVUEL
p442
aV8
aV666
p443
aV-
aV-
aV2
aV1
aV0.5
p444
aV81.8
p445
aV3.1
p446
aV-
aV7.01
p447
aa(lp448
V2013/2014
p449
aVCeltic
p450
aVUCL
p451
aV6
aV540
p452
aV-
aV-
aV2
aV-
aV0.8
p453
aV78.4
p454
aV2.3
p455
aV-
aV6.67
p456
aa(lp457
VTotal / Average
p458
aV
aV
aV134
p459
aV11848
p460
aV8
aV2
aV15
p461
aV2
aV0.9
p462
aV85.1
p463
aV4.5
p464
aV15
p465
aV7.31
p466
aasS'id'
p467
V95408
p468
sb.