(i__main__
Player
p1
(dp2
S'name'
p3
VRachid Ghezzal 
p4
sS'offensive_data'
p5
(lp6
(lp7
a(lp8
V2018/2019
p9
aVLeicester
p10
aVEPL
p11
aV5(6)
p12
aV482
p13
aV1
aV-
aV2
aV-
aV1
aV78.9
p14
aV0.6
p15
aV-
aV6.51
p16
aa(lp17
V2017/2018
p18
aVMonaco
p19
aVUCL
p20
aV2(2)
p21
aV142
p22
aV-
aV-
aV-
aV1
aV0.3
p23
aV73.2
p24
aV1
aV-
aV6.23
p25
aa(lp26
V2017/2018
p27
aVMonaco
p28
aVFL1
p29
aV7(19)
p30
aV997
p31
aV2
aV3
aV3
aV1
aV1.1
p32
aV76.7
p33
aV0.3
p34
aV1
aV6.58
p35
aa(lp36
V2016/2017
p37
aVLyon
p38
aVUCL
p39
aV2(3)
p40
aV186
p41
aV-
aV1
aV1
aV-
aV1.2
p42
aV73.4
p43
aV0.4
p44
aV-
aV6.46
p45
aa(lp46
V2016/2017
p47
aVLyon
p48
aVFL1
p49
aV14(11)
p50
aV1287
p51
aV2
aV2
aV1
aV1
aV1.6
p52
aV77.8
p53
aV0.4
p54
aV1
aV6.71
p55
aa(lp56
V2016/2017
p57
aVLyon
p58
aVUEL
p59
aV3(3)
p60
aV279
p61
aV1
aV1
aV-
aV-
aV1
aV75.5
p62
aV0.3
p63
aV-
aV6.95
p64
aa(lp65
V2015/2016
p66
aVLyon
p67
aVUCL
p68
aV1(3)
p69
aV125
p70
aV-
aV1
aV-
aV-
aV0.8
p71
aV82.5
p72
aV0.5
p73
aV-
aV6.60
p74
aa(lp75
V2015/2016
p76
aVLyon
p77
aVFL1
p78
aV16(13)
p79
aV1588
p80
aV8
aV8
aV5
aV-
aV1.8
p81
aV76.2
p82
aV0.6
p83
aV6
aV7.32
p84
aa(lp85
V2014/2015
p86
aVLyon
p87
aVFL1
p88
aV6(12)
p89
aV585
p90
aV-
aV2
aV-
aV-
aV0.6
p91
aV78
p92
aV0.4
p93
aV-
aV6.47
p94
aa(lp95
V2012/2013
p96
aVLyon
p97
aVUEL
p98
aV2(2)
p99
aV170
p100
aV-
aV-
aV-
aV-
aV0.3
p101
aV72.6
p102
aV1
aV-
aV6.36
p103
aa(lp104
V2012/2013
p105
aVLyon
p106
aVFL1
p107
aV10(4)
p108
aV835
p109
aV1
aV1
aV2
aV-
aV1
aV74.9
p110
aV0.4
p111
aV-
aV6.73
p112
aa(lp113
VTotal / Average
p114
aV
aV
aV146
p115
aV6676
p116
aV15
p117
aV19
p118
aV14
p119
aV3
aV1.2
p120
aV76.7
p121
aV0.5
p122
aV8
aV6.74
p123
aasS'url'
p124
S'https://www.whoscored.com/Players/95423/History/'
p125
sS'passing_data'
p126
(lp127
(lp128
a(lp129
V2018/2019
p130
aVLeicester
p131
aVEPL
p132
aV5(6)
p133
aV482
p134
aV1
aV-
aV2
aV-
aV1
aV78.9
p135
aV0.6
p136
aV-
aV6.51
p137
aa(lp138
V2017/2018
p139
aVMonaco
p140
aVUCL
p141
aV2(2)
p142
aV142
p143
aV-
aV-
aV-
aV1
aV0.3
p144
aV73.2
p145
aV1
aV-
aV6.23
p146
aa(lp147
V2017/2018
p148
aVMonaco
p149
aVFL1
p150
aV7(19)
p151
aV997
p152
aV2
aV3
aV3
aV1
aV1.1
p153
aV76.7
p154
aV0.3
p155
aV1
aV6.58
p156
aa(lp157
V2016/2017
p158
aVLyon
p159
aVUCL
p160
aV2(3)
p161
aV186
p162
aV-
aV1
aV1
aV-
aV1.2
p163
aV73.4
p164
aV0.4
p165
aV-
aV6.46
p166
aa(lp167
V2016/2017
p168
aVLyon
p169
aVFL1
p170
aV14(11)
p171
aV1287
p172
aV2
aV2
aV1
aV1
aV1.6
p173
aV77.8
p174
aV0.4
p175
aV1
aV6.71
p176
aa(lp177
V2016/2017
p178
aVLyon
p179
aVUEL
p180
aV3(3)
p181
aV279
p182
aV1
aV1
aV-
aV-
aV1
aV75.5
p183
aV0.3
p184
aV-
aV6.95
p185
aa(lp186
V2015/2016
p187
aVLyon
p188
aVUCL
p189
aV1(3)
p190
aV125
p191
aV-
aV1
aV-
aV-
aV0.8
p192
aV82.5
p193
aV0.5
p194
aV-
aV6.60
p195
aa(lp196
V2015/2016
p197
aVLyon
p198
aVFL1
p199
aV16(13)
p200
aV1588
p201
aV8
aV8
aV5
aV-
aV1.8
p202
aV76.2
p203
aV0.6
p204
aV6
aV7.32
p205
aa(lp206
V2014/2015
p207
aVLyon
p208
aVFL1
p209
aV6(12)
p210
aV585
p211
aV-
aV2
aV-
aV-
aV0.6
p212
aV78
p213
aV0.4
p214
aV-
aV6.47
p215
aa(lp216
V2012/2013
p217
aVLyon
p218
aVUEL
p219
aV2(2)
p220
aV170
p221
aV-
aV-
aV-
aV-
aV0.3
p222
aV72.6
p223
aV1
aV-
aV6.36
p224
aa(lp225
V2012/2013
p226
aVLyon
p227
aVFL1
p228
aV10(4)
p229
aV835
p230
aV1
aV1
aV2
aV-
aV1
aV74.9
p231
aV0.4
p232
aV-
aV6.73
p233
aa(lp234
VTotal / Average
p235
aV
aV
aV146
p236
aV6676
p237
aV15
p238
aV19
p239
aV14
p240
aV3
aV1.2
p241
aV76.7
p242
aV0.5
p243
aV8
aV6.74
p244
aasS'defensive_data'
p245
(lp246
(lp247
a(lp248
V2018/2019
p249
aVLeicester
p250
aVEPL
p251
aV5(6)
p252
aV482
p253
aV1
aV-
aV2
aV-
aV1
aV78.9
p254
aV0.6
p255
aV-
aV6.51
p256
aa(lp257
V2017/2018
p258
aVMonaco
p259
aVUCL
p260
aV2(2)
p261
aV142
p262
aV-
aV-
aV-
aV1
aV0.3
p263
aV73.2
p264
aV1
aV-
aV6.23
p265
aa(lp266
V2017/2018
p267
aVMonaco
p268
aVFL1
p269
aV7(19)
p270
aV997
p271
aV2
aV3
aV3
aV1
aV1.1
p272
aV76.7
p273
aV0.3
p274
aV1
aV6.58
p275
aa(lp276
V2016/2017
p277
aVLyon
p278
aVUCL
p279
aV2(3)
p280
aV186
p281
aV-
aV1
aV1
aV-
aV1.2
p282
aV73.4
p283
aV0.4
p284
aV-
aV6.46
p285
aa(lp286
V2016/2017
p287
aVLyon
p288
aVFL1
p289
aV14(11)
p290
aV1287
p291
aV2
aV2
aV1
aV1
aV1.6
p292
aV77.8
p293
aV0.4
p294
aV1
aV6.71
p295
aa(lp296
V2016/2017
p297
aVLyon
p298
aVUEL
p299
aV3(3)
p300
aV279
p301
aV1
aV1
aV-
aV-
aV1
aV75.5
p302
aV0.3
p303
aV-
aV6.95
p304
aa(lp305
V2015/2016
p306
aVLyon
p307
aVUCL
p308
aV1(3)
p309
aV125
p310
aV-
aV1
aV-
aV-
aV0.8
p311
aV82.5
p312
aV0.5
p313
aV-
aV6.60
p314
aa(lp315
V2015/2016
p316
aVLyon
p317
aVFL1
p318
aV16(13)
p319
aV1588
p320
aV8
aV8
aV5
aV-
aV1.8
p321
aV76.2
p322
aV0.6
p323
aV6
aV7.32
p324
aa(lp325
V2014/2015
p326
aVLyon
p327
aVFL1
p328
aV6(12)
p329
aV585
p330
aV-
aV2
aV-
aV-
aV0.6
p331
aV78
p332
aV0.4
p333
aV-
aV6.47
p334
aa(lp335
V2012/2013
p336
aVLyon
p337
aVUEL
p338
aV2(2)
p339
aV170
p340
aV-
aV-
aV-
aV-
aV0.3
p341
aV72.6
p342
aV1
aV-
aV6.36
p343
aa(lp344
V2012/2013
p345
aVLyon
p346
aVFL1
p347
aV10(4)
p348
aV835
p349
aV1
aV1
aV2
aV-
aV1
aV74.9
p350
aV0.4
p351
aV-
aV6.73
p352
aa(lp353
VTotal / Average
p354
aV
aV
aV146
p355
aV6676
p356
aV15
p357
aV19
p358
aV14
p359
aV3
aV1.2
p360
aV76.7
p361
aV0.5
p362
aV8
aV6.74
p363
aasS'sumary_data'
p364
(lp365
(lp366
a(lp367
V2018/2019
p368
aVLeicester
p369
aVEPL
p370
aV5(6)
p371
aV482
p372
aV1
aV-
aV2
aV-
aV1
aV78.9
p373
aV0.6
p374
aV-
aV6.51
p375
aa(lp376
V2017/2018
p377
aVMonaco
p378
aVUCL
p379
aV2(2)
p380
aV142
p381
aV-
aV-
aV-
aV1
aV0.3
p382
aV73.2
p383
aV1
aV-
aV6.23
p384
aa(lp385
V2017/2018
p386
aVMonaco
p387
aVFL1
p388
aV7(19)
p389
aV997
p390
aV2
aV3
aV3
aV1
aV1.1
p391
aV76.7
p392
aV0.3
p393
aV1
aV6.58
p394
aa(lp395
V2016/2017
p396
aVLyon
p397
aVUCL
p398
aV2(3)
p399
aV186
p400
aV-
aV1
aV1
aV-
aV1.2
p401
aV73.4
p402
aV0.4
p403
aV-
aV6.46
p404
aa(lp405
V2016/2017
p406
aVLyon
p407
aVFL1
p408
aV14(11)
p409
aV1287
p410
aV2
aV2
aV1
aV1
aV1.6
p411
aV77.8
p412
aV0.4
p413
aV1
aV6.71
p414
aa(lp415
V2016/2017
p416
aVLyon
p417
aVUEL
p418
aV3(3)
p419
aV279
p420
aV1
aV1
aV-
aV-
aV1
aV75.5
p421
aV0.3
p422
aV-
aV6.95
p423
aa(lp424
V2015/2016
p425
aVLyon
p426
aVUCL
p427
aV1(3)
p428
aV125
p429
aV-
aV1
aV-
aV-
aV0.8
p430
aV82.5
p431
aV0.5
p432
aV-
aV6.60
p433
aa(lp434
V2015/2016
p435
aVLyon
p436
aVFL1
p437
aV16(13)
p438
aV1588
p439
aV8
aV8
aV5
aV-
aV1.8
p440
aV76.2
p441
aV0.6
p442
aV6
aV7.32
p443
aa(lp444
V2014/2015
p445
aVLyon
p446
aVFL1
p447
aV6(12)
p448
aV585
p449
aV-
aV2
aV-
aV-
aV0.6
p450
aV78
p451
aV0.4
p452
aV-
aV6.47
p453
aa(lp454
V2012/2013
p455
aVLyon
p456
aVUEL
p457
aV2(2)
p458
aV170
p459
aV-
aV-
aV-
aV-
aV0.3
p460
aV72.6
p461
aV1
aV-
aV6.36
p462
aa(lp463
V2012/2013
p464
aVLyon
p465
aVFL1
p466
aV10(4)
p467
aV835
p468
aV1
aV1
aV2
aV-
aV1
aV74.9
p469
aV0.4
p470
aV-
aV6.73
p471
aa(lp472
VTotal / Average
p473
aV
aV
aV146
p474
aV6676
p475
aV15
p476
aV19
p477
aV14
p478
aV3
aV1.2
p479
aV76.7
p480
aV0.5
p481
aV8
aV6.74
p482
aasS'id'
p483
V95423
p484
sb.