(i__main__
Player
p1
(dp2
S'name'
p3
VRoberto Firmino 
p4
sS'offensive_data'
p5
(lp6
(lp7
a(lp8
V2018/2019
p9
aVLiverpool
p10
aVEPL
p11
aV15(2)
p12
aV1288
p13
aV4
aV3
aV-
aV-
aV2.2
p14
aV82.8
p15
aV0.8
p16
aV1
aV7.09
p17
aa(lp18
V2018/2019
p19
aVLiverpool
p20
aVUCL
p21
aV4(2)
p22
aV393
p23
aV2
aV-
aV-
aV-
aV1.5
p24
aV76
p25
aV0.7
p26
aV-
aV6.77
p27
aa(lp28
V2017/2018
p29
aVLiverpool
p30
aVUCL
p31
aV13
p32
aV1056
p33
aV10
p34
aV7
aV2
aV-
aV3.2
p35
aV74.6
p36
aV2.4
p37
aV1
aV7.98
p38
aa(lp39
V2017/2018
p40
aVLiverpool
p41
aVEPL
p42
aV32(5)
p43
aV2778
p44
aV15
p45
aV7
aV1
aV-
aV2.3
p46
aV72.6
p47
aV1.2
p48
aV3
aV7.39
p49
aa(lp50
V2016/2017
p51
aVLiverpool
p52
aVEPL
p53
aV34(1)
p54
aV3069
p55
aV11
p56
aV7
aV5
aV-
aV2.9
p57
aV79.4
p58
aV1.8
p59
aV5
aV7.54
p60
aa(lp61
V2018
p62
aVBrazil
p63
aVWC
p64
aV0(4)
p65
aV82
p66
aV1
aV-
aV-
aV-
aV1.8
p67
aV73.8
p68
aV0.8
p69
aV-
aV6.51
p70
aa(lp71
V2015/2016
p72
aVLiverpool
p73
aVUEL
p74
aV11(2)
p75
aV933
p76
aV1
aV2
aV2
aV-
aV1.8
p77
aV79
p78
aV1.1
p79
aV1
aV6.97
p80
aa(lp81
V2015/2016
p82
aVLiverpool
p83
aVEPL
p84
aV24(7)
p85
aV1982
p86
aV10
p87
aV7
aV1
aV-
aV2
aV76.6
p88
aV0.3
p89
aV5
aV7.19
p90
aa(lp91
V2015
p92
aVBrazil
p93
aVICA
p94
aV3(1)
p95
aV242
p96
aV1
aV-
aV1
aV-
aV1.3
p97
aV74.6
p98
aV0.8
p99
aV-
aV6.56
p100
aa(lp101
V2014/2015
p102
aVHoffenheim
p103
aVGB
p104
aV33
p105
aV2918
p106
aV7
aV10
p107
aV5
aV-
aV2.9
p108
aV72.7
p109
aV2.3
p110
aV5
aV7.79
p111
aa(lp112
V2013/2014
p113
aVHoffenheim
p114
aVGB
p115
aV33
p116
aV2916
p117
aV16
p118
aV11
p119
aV5
aV-
aV2.8
p120
aV74.7
p121
aV2.2
p122
aV9
aV7.94
p123
aa(lp124
V2012/2013
p125
aVHoffenheim
p126
aVGB
p127
aV29(4)
p128
aV2477
p129
aV5
aV2
aV9
aV-
aV2
aV72.2
p130
aV1
aV1
aV7.21
p131
aa(lp132
V2011/2012
p133
aVHoffenheim
p134
aVGB
p135
aV26(4)
p136
aV2193
p137
aV7
aV1
aV4
aV-
aV2.1
p138
aV78.5
p139
aV1.3
p140
aV5
aV7.47
p141
aa(lp142
V2010/2011
p143
aVHoffenheim
p144
aVGB
p145
aV5(6)
p146
aV475
p147
aV3
aV-
aV1
aV-
aV1.5
p148
aV74.5
p149
aV0.7
p150
aV1
aV6.98
p151
aa(lp152
VTotal / Average
p153
aV
aV
aV300
p154
aV22802
p155
aV93
p156
aV57
p157
aV36
p158
aV0
aV2.3
p159
aV75.7
p160
aV1.4
p161
aV37
p162
aV7.42
p163
aasS'url'
p164
S'https://www.whoscored.com/Players/96182/History/'
p165
sS'passing_data'
p166
(lp167
(lp168
a(lp169
V2018/2019
p170
aVLiverpool
p171
aVEPL
p172
aV15(2)
p173
aV1288
p174
aV4
aV3
aV-
aV-
aV2.2
p175
aV82.8
p176
aV0.8
p177
aV1
aV7.09
p178
aa(lp179
V2018/2019
p180
aVLiverpool
p181
aVUCL
p182
aV4(2)
p183
aV393
p184
aV2
aV-
aV-
aV-
aV1.5
p185
aV76
p186
aV0.7
p187
aV-
aV6.77
p188
aa(lp189
V2017/2018
p190
aVLiverpool
p191
aVUCL
p192
aV13
p193
aV1056
p194
aV10
p195
aV7
aV2
aV-
aV3.2
p196
aV74.6
p197
aV2.4
p198
aV1
aV7.98
p199
aa(lp200
V2017/2018
p201
aVLiverpool
p202
aVEPL
p203
aV32(5)
p204
aV2778
p205
aV15
p206
aV7
aV1
aV-
aV2.3
p207
aV72.6
p208
aV1.2
p209
aV3
aV7.39
p210
aa(lp211
V2016/2017
p212
aVLiverpool
p213
aVEPL
p214
aV34(1)
p215
aV3069
p216
aV11
p217
aV7
aV5
aV-
aV2.9
p218
aV79.4
p219
aV1.8
p220
aV5
aV7.54
p221
aa(lp222
V2018
p223
aVBrazil
p224
aVWC
p225
aV0(4)
p226
aV82
p227
aV1
aV-
aV-
aV-
aV1.8
p228
aV73.8
p229
aV0.8
p230
aV-
aV6.51
p231
aa(lp232
V2015/2016
p233
aVLiverpool
p234
aVUEL
p235
aV11(2)
p236
aV933
p237
aV1
aV2
aV2
aV-
aV1.8
p238
aV79
p239
aV1.1
p240
aV1
aV6.97
p241
aa(lp242
V2015/2016
p243
aVLiverpool
p244
aVEPL
p245
aV24(7)
p246
aV1982
p247
aV10
p248
aV7
aV1
aV-
aV2
aV76.6
p249
aV0.3
p250
aV5
aV7.19
p251
aa(lp252
V2015
p253
aVBrazil
p254
aVICA
p255
aV3(1)
p256
aV242
p257
aV1
aV-
aV1
aV-
aV1.3
p258
aV74.6
p259
aV0.8
p260
aV-
aV6.56
p261
aa(lp262
V2014/2015
p263
aVHoffenheim
p264
aVGB
p265
aV33
p266
aV2918
p267
aV7
aV10
p268
aV5
aV-
aV2.9
p269
aV72.7
p270
aV2.3
p271
aV5
aV7.79
p272
aa(lp273
V2013/2014
p274
aVHoffenheim
p275
aVGB
p276
aV33
p277
aV2916
p278
aV16
p279
aV11
p280
aV5
aV-
aV2.8
p281
aV74.7
p282
aV2.2
p283
aV9
aV7.94
p284
aa(lp285
V2012/2013
p286
aVHoffenheim
p287
aVGB
p288
aV29(4)
p289
aV2477
p290
aV5
aV2
aV9
aV-
aV2
aV72.2
p291
aV1
aV1
aV7.21
p292
aa(lp293
V2011/2012
p294
aVHoffenheim
p295
aVGB
p296
aV26(4)
p297
aV2193
p298
aV7
aV1
aV4
aV-
aV2.1
p299
aV78.5
p300
aV1.3
p301
aV5
aV7.47
p302
aa(lp303
V2010/2011
p304
aVHoffenheim
p305
aVGB
p306
aV5(6)
p307
aV475
p308
aV3
aV-
aV1
aV-
aV1.5
p309
aV74.5
p310
aV0.7
p311
aV1
aV6.98
p312
aa(lp313
VTotal / Average
p314
aV
aV
aV300
p315
aV22802
p316
aV93
p317
aV57
p318
aV36
p319
aV0
aV2.3
p320
aV75.7
p321
aV1.4
p322
aV37
p323
aV7.42
p324
aasS'defensive_data'
p325
(lp326
(lp327
a(lp328
V2018/2019
p329
aVLiverpool
p330
aVEPL
p331
aV15(2)
p332
aV1288
p333
aV4
aV3
aV-
aV-
aV2.2
p334
aV82.8
p335
aV0.8
p336
aV1
aV7.09
p337
aa(lp338
V2018/2019
p339
aVLiverpool
p340
aVUCL
p341
aV4(2)
p342
aV393
p343
aV2
aV-
aV-
aV-
aV1.5
p344
aV76
p345
aV0.7
p346
aV-
aV6.77
p347
aa(lp348
V2017/2018
p349
aVLiverpool
p350
aVUCL
p351
aV13
p352
aV1056
p353
aV10
p354
aV7
aV2
aV-
aV3.2
p355
aV74.6
p356
aV2.4
p357
aV1
aV7.98
p358
aa(lp359
V2017/2018
p360
aVLiverpool
p361
aVEPL
p362
aV32(5)
p363
aV2778
p364
aV15
p365
aV7
aV1
aV-
aV2.3
p366
aV72.6
p367
aV1.2
p368
aV3
aV7.39
p369
aa(lp370
V2016/2017
p371
aVLiverpool
p372
aVEPL
p373
aV34(1)
p374
aV3069
p375
aV11
p376
aV7
aV5
aV-
aV2.9
p377
aV79.4
p378
aV1.8
p379
aV5
aV7.54
p380
aa(lp381
V2018
p382
aVBrazil
p383
aVWC
p384
aV0(4)
p385
aV82
p386
aV1
aV-
aV-
aV-
aV1.8
p387
aV73.8
p388
aV0.8
p389
aV-
aV6.51
p390
aa(lp391
V2015/2016
p392
aVLiverpool
p393
aVUEL
p394
aV11(2)
p395
aV933
p396
aV1
aV2
aV2
aV-
aV1.8
p397
aV79
p398
aV1.1
p399
aV1
aV6.97
p400
aa(lp401
V2015/2016
p402
aVLiverpool
p403
aVEPL
p404
aV24(7)
p405
aV1982
p406
aV10
p407
aV7
aV1
aV-
aV2
aV76.6
p408
aV0.3
p409
aV5
aV7.19
p410
aa(lp411
V2015
p412
aVBrazil
p413
aVICA
p414
aV3(1)
p415
aV242
p416
aV1
aV-
aV1
aV-
aV1.3
p417
aV74.6
p418
aV0.8
p419
aV-
aV6.56
p420
aa(lp421
V2014/2015
p422
aVHoffenheim
p423
aVGB
p424
aV33
p425
aV2918
p426
aV7
aV10
p427
aV5
aV-
aV2.9
p428
aV72.7
p429
aV2.3
p430
aV5
aV7.79
p431
aa(lp432
V2013/2014
p433
aVHoffenheim
p434
aVGB
p435
aV33
p436
aV2916
p437
aV16
p438
aV11
p439
aV5
aV-
aV2.8
p440
aV74.7
p441
aV2.2
p442
aV9
aV7.94
p443
aa(lp444
V2012/2013
p445
aVHoffenheim
p446
aVGB
p447
aV29(4)
p448
aV2477
p449
aV5
aV2
aV9
aV-
aV2
aV72.2
p450
aV1
aV1
aV7.21
p451
aa(lp452
V2011/2012
p453
aVHoffenheim
p454
aVGB
p455
aV26(4)
p456
aV2193
p457
aV7
aV1
aV4
aV-
aV2.1
p458
aV78.5
p459
aV1.3
p460
aV5
aV7.47
p461
aa(lp462
V2010/2011
p463
aVHoffenheim
p464
aVGB
p465
aV5(6)
p466
aV475
p467
aV3
aV-
aV1
aV-
aV1.5
p468
aV74.5
p469
aV0.7
p470
aV1
aV6.98
p471
aa(lp472
VTotal / Average
p473
aV
aV
aV300
p474
aV22802
p475
aV93
p476
aV57
p477
aV36
p478
aV0
aV2.3
p479
aV75.7
p480
aV1.4
p481
aV37
p482
aV7.42
p483
aasS'sumary_data'
p484
(lp485
(lp486
a(lp487
V2018/2019
p488
aVLiverpool
p489
aVEPL
p490
aV15(2)
p491
aV1288
p492
aV4
aV3
aV-
aV-
aV2.2
p493
aV82.8
p494
aV0.8
p495
aV1
aV7.09
p496
aa(lp497
V2018/2019
p498
aVLiverpool
p499
aVUCL
p500
aV4(2)
p501
aV393
p502
aV2
aV-
aV-
aV-
aV1.5
p503
aV76
p504
aV0.7
p505
aV-
aV6.77
p506
aa(lp507
V2017/2018
p508
aVLiverpool
p509
aVUCL
p510
aV13
p511
aV1056
p512
aV10
p513
aV7
aV2
aV-
aV3.2
p514
aV74.6
p515
aV2.4
p516
aV1
aV7.98
p517
aa(lp518
V2017/2018
p519
aVLiverpool
p520
aVEPL
p521
aV32(5)
p522
aV2778
p523
aV15
p524
aV7
aV1
aV-
aV2.3
p525
aV72.6
p526
aV1.2
p527
aV3
aV7.39
p528
aa(lp529
V2016/2017
p530
aVLiverpool
p531
aVEPL
p532
aV34(1)
p533
aV3069
p534
aV11
p535
aV7
aV5
aV-
aV2.9
p536
aV79.4
p537
aV1.8
p538
aV5
aV7.54
p539
aa(lp540
V2018
p541
aVBrazil
p542
aVWC
p543
aV0(4)
p544
aV82
p545
aV1
aV-
aV-
aV-
aV1.8
p546
aV73.8
p547
aV0.8
p548
aV-
aV6.51
p549
aa(lp550
V2015/2016
p551
aVLiverpool
p552
aVUEL
p553
aV11(2)
p554
aV933
p555
aV1
aV2
aV2
aV-
aV1.8
p556
aV79
p557
aV1.1
p558
aV1
aV6.97
p559
aa(lp560
V2015/2016
p561
aVLiverpool
p562
aVEPL
p563
aV24(7)
p564
aV1982
p565
aV10
p566
aV7
aV1
aV-
aV2
aV76.6
p567
aV0.3
p568
aV5
aV7.19
p569
aa(lp570
V2015
p571
aVBrazil
p572
aVICA
p573
aV3(1)
p574
aV242
p575
aV1
aV-
aV1
aV-
aV1.3
p576
aV74.6
p577
aV0.8
p578
aV-
aV6.56
p579
aa(lp580
V2014/2015
p581
aVHoffenheim
p582
aVGB
p583
aV33
p584
aV2918
p585
aV7
aV10
p586
aV5
aV-
aV2.9
p587
aV72.7
p588
aV2.3
p589
aV5
aV7.79
p590
aa(lp591
V2013/2014
p592
aVHoffenheim
p593
aVGB
p594
aV33
p595
aV2916
p596
aV16
p597
aV11
p598
aV5
aV-
aV2.8
p599
aV74.7
p600
aV2.2
p601
aV9
aV7.94
p602
aa(lp603
V2012/2013
p604
aVHoffenheim
p605
aVGB
p606
aV29(4)
p607
aV2477
p608
aV5
aV2
aV9
aV-
aV2
aV72.2
p609
aV1
aV1
aV7.21
p610
aa(lp611
V2011/2012
p612
aVHoffenheim
p613
aVGB
p614
aV26(4)
p615
aV2193
p616
aV7
aV1
aV4
aV-
aV2.1
p617
aV78.5
p618
aV1.3
p619
aV5
aV7.47
p620
aa(lp621
V2010/2011
p622
aVHoffenheim
p623
aVGB
p624
aV5(6)
p625
aV475
p626
aV3
aV-
aV1
aV-
aV1.5
p627
aV74.5
p628
aV0.7
p629
aV1
aV6.98
p630
aa(lp631
VTotal / Average
p632
aV
aV
aV300
p633
aV22802
p634
aV93
p635
aV57
p636
aV36
p637
aV0
aV2.3
p638
aV75.7
p639
aV1.4
p640
aV37
p641
aV7.42
p642
aasS'id'
p643
V96182
p644
sb.