(i__main__
Player
p1
(dp2
S'name'
p3
VChristian Atsu 
p4
sS'offensive_data'
p5
(lp6
(lp7
a(lp8
V2018/2019
p9
aVNewcastle Uni..
p10
aVEPL
p11
aV4(7)
p12
aV501
p13
aV-
aV-
aV2
aV-
aV1
aV76.9
p14
aV0.3
p15
aV-
aV6.40
p16
aa(lp17
V2017/2018
p18
aVNewcastle Uni..
p19
aVEPL
p20
aV19(9)
p21
aV1782
p22
aV2
aV2
aV1
aV-
aV1.3
p23
aV77.2
p24
aV0.5
p25
aV-
aV6.50
p26
aa(lp27
V2016/2017
p28
aVNewcastle Uni..
p29
aVEC
p30
aV15(17)
p31
aV1571
p32
aV5
aV3
aV2
aV-
aV1.1
p33
aV81
p34
aV0.5
p35
aV-
aV6.64
p36
aa(lp37
V2015/2016
p38
aVMalaga
p39
aVSLL
p40
aV3(9)
p41
aV386
p42
aV2
aV-
aV-
aV-
aV0.8
p43
aV78.6
p44
aV0.3
p45
aV-
aV6.57
p46
aa(lp47
V2015
p48
aVGhana
p49
aVACoN
p50
aV6
aV533
p51
aV2
aV1
aV-
aV-
aV2
aV81
p52
aV0.2
p53
aV2
aV7.70
p54
aa(lp55
V2014/2015
p56
aVEverton
p57
aVUEL
p58
aV3(4)
p59
aV166
p60
aV-
aV-
aV-
aV-
aV0.4
p61
aV76.6
p62
aV0.3
p63
aV-
aV6.17
p64
aa(lp65
V2014/2015
p66
aVEverton
p67
aVEPL
p68
aV1(4)
p69
aV110
p70
aV-
aV1
aV-
aV-
aV0.8
p71
aV75.4
p72
aV0.4
p73
aV-
aV6.40
p74
aa(lp75
V2013/2014
p76
aVVitesse
p77
aVNE
p78
aV27(1)
p79
aV2307
p80
aV5
aV6
aV2
aV-
aV2.3
p81
aV85.7
p82
aV0.4
p83
aV-
aV7.24
p84
aa(lp85
V2014
p86
aVGhana
p87
aVWC
p88
aV3
aV239
p89
aV-
aV-
aV-
aV-
aV3
aV81.1
p90
aV1
aV-
aV6.80
p91
aa(lp92
V2012/2013
p93
aVFC Porto
p94
aVUCL
p95
aV0(8)
p96
aV135
p97
aV-
aV1
aV-
aV-
aV0.9
p98
aV91.1
p99
aV0.1
p100
aV-
aV6.40
p101
aa(lp102
VTotal / Average
p103
aV
aV
aV140
p104
aV7730
p105
aV16
p106
aV14
p107
aV7
aV0
aV1.4
p108
aV80.8
p109
aV0.4
p110
aV2
aV6.71
p111
aasS'url'
p112
S'https://www.whoscored.com/Players/96257/History/'
p113
sS'passing_data'
p114
(lp115
(lp116
a(lp117
V2018/2019
p118
aVNewcastle Uni..
p119
aVEPL
p120
aV4(7)
p121
aV501
p122
aV-
aV-
aV2
aV-
aV1
aV76.9
p123
aV0.3
p124
aV-
aV6.40
p125
aa(lp126
V2017/2018
p127
aVNewcastle Uni..
p128
aVEPL
p129
aV19(9)
p130
aV1782
p131
aV2
aV2
aV1
aV-
aV1.3
p132
aV77.2
p133
aV0.5
p134
aV-
aV6.50
p135
aa(lp136
V2016/2017
p137
aVNewcastle Uni..
p138
aVEC
p139
aV15(17)
p140
aV1571
p141
aV5
aV3
aV2
aV-
aV1.1
p142
aV81
p143
aV0.5
p144
aV-
aV6.64
p145
aa(lp146
V2015/2016
p147
aVMalaga
p148
aVSLL
p149
aV3(9)
p150
aV386
p151
aV2
aV-
aV-
aV-
aV0.8
p152
aV78.6
p153
aV0.3
p154
aV-
aV6.57
p155
aa(lp156
V2015
p157
aVGhana
p158
aVACoN
p159
aV6
aV533
p160
aV2
aV1
aV-
aV-
aV2
aV81
p161
aV0.2
p162
aV2
aV7.70
p163
aa(lp164
V2014/2015
p165
aVEverton
p166
aVUEL
p167
aV3(4)
p168
aV166
p169
aV-
aV-
aV-
aV-
aV0.4
p170
aV76.6
p171
aV0.3
p172
aV-
aV6.17
p173
aa(lp174
V2014/2015
p175
aVEverton
p176
aVEPL
p177
aV1(4)
p178
aV110
p179
aV-
aV1
aV-
aV-
aV0.8
p180
aV75.4
p181
aV0.4
p182
aV-
aV6.40
p183
aa(lp184
V2013/2014
p185
aVVitesse
p186
aVNE
p187
aV27(1)
p188
aV2307
p189
aV5
aV6
aV2
aV-
aV2.3
p190
aV85.7
p191
aV0.4
p192
aV-
aV7.24
p193
aa(lp194
V2014
p195
aVGhana
p196
aVWC
p197
aV3
aV239
p198
aV-
aV-
aV-
aV-
aV3
aV81.1
p199
aV1
aV-
aV6.80
p200
aa(lp201
V2012/2013
p202
aVFC Porto
p203
aVUCL
p204
aV0(8)
p205
aV135
p206
aV-
aV1
aV-
aV-
aV0.9
p207
aV91.1
p208
aV0.1
p209
aV-
aV6.40
p210
aa(lp211
VTotal / Average
p212
aV
aV
aV140
p213
aV7730
p214
aV16
p215
aV14
p216
aV7
aV0
aV1.4
p217
aV80.8
p218
aV0.4
p219
aV2
aV6.71
p220
aasS'defensive_data'
p221
(lp222
(lp223
a(lp224
V2018/2019
p225
aVNewcastle Uni..
p226
aVEPL
p227
aV4(7)
p228
aV501
p229
aV-
aV-
aV2
aV-
aV1
aV76.9
p230
aV0.3
p231
aV-
aV6.40
p232
aa(lp233
V2017/2018
p234
aVNewcastle Uni..
p235
aVEPL
p236
aV19(9)
p237
aV1782
p238
aV2
aV2
aV1
aV-
aV1.3
p239
aV77.2
p240
aV0.5
p241
aV-
aV6.50
p242
aa(lp243
V2016/2017
p244
aVNewcastle Uni..
p245
aVEC
p246
aV15(17)
p247
aV1571
p248
aV5
aV3
aV2
aV-
aV1.1
p249
aV81
p250
aV0.5
p251
aV-
aV6.64
p252
aa(lp253
V2015/2016
p254
aVMalaga
p255
aVSLL
p256
aV3(9)
p257
aV386
p258
aV2
aV-
aV-
aV-
aV0.8
p259
aV78.6
p260
aV0.3
p261
aV-
aV6.57
p262
aa(lp263
V2015
p264
aVGhana
p265
aVACoN
p266
aV6
aV533
p267
aV2
aV1
aV-
aV-
aV2
aV81
p268
aV0.2
p269
aV2
aV7.70
p270
aa(lp271
V2014/2015
p272
aVEverton
p273
aVUEL
p274
aV3(4)
p275
aV166
p276
aV-
aV-
aV-
aV-
aV0.4
p277
aV76.6
p278
aV0.3
p279
aV-
aV6.17
p280
aa(lp281
V2014/2015
p282
aVEverton
p283
aVEPL
p284
aV1(4)
p285
aV110
p286
aV-
aV1
aV-
aV-
aV0.8
p287
aV75.4
p288
aV0.4
p289
aV-
aV6.40
p290
aa(lp291
V2013/2014
p292
aVVitesse
p293
aVNE
p294
aV27(1)
p295
aV2307
p296
aV5
aV6
aV2
aV-
aV2.3
p297
aV85.7
p298
aV0.4
p299
aV-
aV7.24
p300
aa(lp301
V2014
p302
aVGhana
p303
aVWC
p304
aV3
aV239
p305
aV-
aV-
aV-
aV-
aV3
aV81.1
p306
aV1
aV-
aV6.80
p307
aa(lp308
V2012/2013
p309
aVFC Porto
p310
aVUCL
p311
aV0(8)
p312
aV135
p313
aV-
aV1
aV-
aV-
aV0.9
p314
aV91.1
p315
aV0.1
p316
aV-
aV6.40
p317
aa(lp318
VTotal / Average
p319
aV
aV
aV140
p320
aV7730
p321
aV16
p322
aV14
p323
aV7
aV0
aV1.4
p324
aV80.8
p325
aV0.4
p326
aV2
aV6.71
p327
aasS'sumary_data'
p328
(lp329
(lp330
a(lp331
V2018/2019
p332
aVNewcastle Uni..
p333
aVEPL
p334
aV4(7)
p335
aV501
p336
aV-
aV-
aV2
aV-
aV1
aV76.9
p337
aV0.3
p338
aV-
aV6.40
p339
aa(lp340
V2017/2018
p341
aVNewcastle Uni..
p342
aVEPL
p343
aV19(9)
p344
aV1782
p345
aV2
aV2
aV1
aV-
aV1.3
p346
aV77.2
p347
aV0.5
p348
aV-
aV6.50
p349
aa(lp350
V2016/2017
p351
aVNewcastle Uni..
p352
aVEC
p353
aV15(17)
p354
aV1571
p355
aV5
aV3
aV2
aV-
aV1.1
p356
aV81
p357
aV0.5
p358
aV-
aV6.64
p359
aa(lp360
V2015/2016
p361
aVMalaga
p362
aVSLL
p363
aV3(9)
p364
aV386
p365
aV2
aV-
aV-
aV-
aV0.8
p366
aV78.6
p367
aV0.3
p368
aV-
aV6.57
p369
aa(lp370
V2015
p371
aVGhana
p372
aVACoN
p373
aV6
aV533
p374
aV2
aV1
aV-
aV-
aV2
aV81
p375
aV0.2
p376
aV2
aV7.70
p377
aa(lp378
V2014/2015
p379
aVEverton
p380
aVUEL
p381
aV3(4)
p382
aV166
p383
aV-
aV-
aV-
aV-
aV0.4
p384
aV76.6
p385
aV0.3
p386
aV-
aV6.17
p387
aa(lp388
V2014/2015
p389
aVEverton
p390
aVEPL
p391
aV1(4)
p392
aV110
p393
aV-
aV1
aV-
aV-
aV0.8
p394
aV75.4
p395
aV0.4
p396
aV-
aV6.40
p397
aa(lp398
V2013/2014
p399
aVVitesse
p400
aVNE
p401
aV27(1)
p402
aV2307
p403
aV5
aV6
aV2
aV-
aV2.3
p404
aV85.7
p405
aV0.4
p406
aV-
aV7.24
p407
aa(lp408
V2014
p409
aVGhana
p410
aVWC
p411
aV3
aV239
p412
aV-
aV-
aV-
aV-
aV3
aV81.1
p413
aV1
aV-
aV6.80
p414
aa(lp415
V2012/2013
p416
aVFC Porto
p417
aVUCL
p418
aV0(8)
p419
aV135
p420
aV-
aV1
aV-
aV-
aV0.9
p421
aV91.1
p422
aV0.1
p423
aV-
aV6.40
p424
aa(lp425
VTotal / Average
p426
aV
aV
aV140
p427
aV7730
p428
aV16
p429
aV14
p430
aV7
aV0
aV1.4
p431
aV80.8
p432
aV0.4
p433
aV2
aV6.71
p434
aasS'id'
p435
V96257
p436
sb.