(i__main__
Player
p1
(dp2
S'name'
p3
VSteven Davis 
p4
sS'offensive_data'
p5
(lp6
(lp7
a(lp8
V2018/2019
p9
aVSouthampton
p10
aVEPL
p11
aV1(2)
p12
aV97
p13
aV-
aV1
aV-
aV-
aV-
aV94.1
p14
aV0.3
p15
aV-
aV6.45
p16
aa(lp17
V2018/2019
p18
aVN.Ireland
p19
aVUNL
p20
aV4
aV360
p21
aV-
aV-
aV-
aV-
aV2
aV75.7
p22
aV1
aV-
aV6.42
p23
aa(lp24
V2017/2018
p25
aVSouthampton
p26
aVEPL
p27
aV17(6)
p28
aV1521
p29
aV3
aV-
aV-
aV-
aV0.6
p30
aV83.6
p31
aV0.6
p32
aV-
aV6.64
p33
aa(lp34
V2016/2017
p35
aVSouthampton
p36
aVEPL
p37
aV29(3)
p38
aV2644
p39
aV-
aV3
aV3
aV-
aV1
aV86.2
p40
aV0.3
p41
aV-
aV6.68
p42
aa(lp43
V2016/2017
p44
aVSouthampton
p45
aVUEL
p46
aV1(3)
p47
aV122
p48
aV-
aV-
aV-
aV-
aV0.3
p49
aV82.9
p50
aV0.3
p51
aV-
aV6.33
p52
aa(lp53
V2015/2016
p54
aVSouthampton
p55
aVEPL
p56
aV31(3)
p57
aV2612
p58
aV5
aV3
aV4
aV-
aV0.6
p59
aV83.5
p60
aV0.4
p61
aV1
aV7.04
p62
aa(lp63
V2014/2015
p64
aVSouthampton
p65
aVEPL
p66
aV32(3)
p67
aV2651
p68
aV-
aV2
aV3
aV-
aV0.9
p69
aV85.3
p70
aV0.3
p71
aV-
aV6.81
p72
aa(lp73
V2016
p74
aVN.Ireland
p75
aVUEC
p76
aV4
aV360
p77
aV-
aV-
aV1
aV-
aV0.3
p78
aV80.3
p79
aV1.5
p80
aV-
aV6.73
p81
aa(lp82
V2013/2014
p83
aVSouthampton
p84
aVEPL
p85
aV28(6)
p86
aV2502
p87
aV2
aV7
aV3
aV-
aV0.9
p88
aV84.5
p89
aV0.4
p90
aV2
aV6.92
p91
aa(lp92
V2012/2013
p93
aVSouthampton
p94
aVEPL
p95
aV22(10)
p96
aV2073
p97
aV2
aV1
aV1
aV-
aV0.8
p98
aV85.3
p99
aV0.4
p100
aV1
aV6.66
p101
aa(lp102
V2010/2011
p103
aVRangers
p104
aVUCL
p105
aV6
aV540
p106
aV-
aV-
aV-
aV-
aV0.8
p107
aV77.2
p108
aV0.2
p109
aV-
aV6.91
p110
aa(lp111
V2009/2010
p112
aVRangers
p113
aVUCL
p114
aV6
aV540
p115
aV-
aV-
aV-
aV-
aV0.7
p116
aV83.3
p117
aV-
aV-
aV6.63
p118
aa(lp119
VTotal / Average
p120
aV
aV
aV217
p121
aV16022
p122
aV12
p123
aV17
p124
aV15
p125
aV0
aV0.8
p126
aV84.4
p127
aV0.4
p128
aV4
aV6.78
p129
aasS'url'
p130
S'https://www.whoscored.com/Players/9734/History/'
p131
sS'passing_data'
p132
(lp133
(lp134
a(lp135
V2018/2019
p136
aVSouthampton
p137
aVEPL
p138
aV1(2)
p139
aV97
p140
aV-
aV1
aV-
aV-
aV-
aV94.1
p141
aV0.3
p142
aV-
aV6.45
p143
aa(lp144
V2018/2019
p145
aVN.Ireland
p146
aVUNL
p147
aV4
aV360
p148
aV-
aV-
aV-
aV-
aV2
aV75.7
p149
aV1
aV-
aV6.42
p150
aa(lp151
V2017/2018
p152
aVSouthampton
p153
aVEPL
p154
aV17(6)
p155
aV1521
p156
aV3
aV-
aV-
aV-
aV0.6
p157
aV83.6
p158
aV0.6
p159
aV-
aV6.64
p160
aa(lp161
V2016/2017
p162
aVSouthampton
p163
aVEPL
p164
aV29(3)
p165
aV2644
p166
aV-
aV3
aV3
aV-
aV1
aV86.2
p167
aV0.3
p168
aV-
aV6.68
p169
aa(lp170
V2016/2017
p171
aVSouthampton
p172
aVUEL
p173
aV1(3)
p174
aV122
p175
aV-
aV-
aV-
aV-
aV0.3
p176
aV82.9
p177
aV0.3
p178
aV-
aV6.33
p179
aa(lp180
V2015/2016
p181
aVSouthampton
p182
aVEPL
p183
aV31(3)
p184
aV2612
p185
aV5
aV3
aV4
aV-
aV0.6
p186
aV83.5
p187
aV0.4
p188
aV1
aV7.04
p189
aa(lp190
V2014/2015
p191
aVSouthampton
p192
aVEPL
p193
aV32(3)
p194
aV2651
p195
aV-
aV2
aV3
aV-
aV0.9
p196
aV85.3
p197
aV0.3
p198
aV-
aV6.81
p199
aa(lp200
V2016
p201
aVN.Ireland
p202
aVUEC
p203
aV4
aV360
p204
aV-
aV-
aV1
aV-
aV0.3
p205
aV80.3
p206
aV1.5
p207
aV-
aV6.73
p208
aa(lp209
V2013/2014
p210
aVSouthampton
p211
aVEPL
p212
aV28(6)
p213
aV2502
p214
aV2
aV7
aV3
aV-
aV0.9
p215
aV84.5
p216
aV0.4
p217
aV2
aV6.92
p218
aa(lp219
V2012/2013
p220
aVSouthampton
p221
aVEPL
p222
aV22(10)
p223
aV2073
p224
aV2
aV1
aV1
aV-
aV0.8
p225
aV85.3
p226
aV0.4
p227
aV1
aV6.66
p228
aa(lp229
V2010/2011
p230
aVRangers
p231
aVUCL
p232
aV6
aV540
p233
aV-
aV-
aV-
aV-
aV0.8
p234
aV77.2
p235
aV0.2
p236
aV-
aV6.91
p237
aa(lp238
V2009/2010
p239
aVRangers
p240
aVUCL
p241
aV6
aV540
p242
aV-
aV-
aV-
aV-
aV0.7
p243
aV83.3
p244
aV-
aV-
aV6.63
p245
aa(lp246
VTotal / Average
p247
aV
aV
aV217
p248
aV16022
p249
aV12
p250
aV17
p251
aV15
p252
aV0
aV0.8
p253
aV84.4
p254
aV0.4
p255
aV4
aV6.78
p256
aasS'defensive_data'
p257
(lp258
(lp259
a(lp260
V2018/2019
p261
aVSouthampton
p262
aVEPL
p263
aV1(2)
p264
aV97
p265
aV-
aV1
aV-
aV-
aV-
aV94.1
p266
aV0.3
p267
aV-
aV6.45
p268
aa(lp269
V2018/2019
p270
aVN.Ireland
p271
aVUNL
p272
aV4
aV360
p273
aV-
aV-
aV-
aV-
aV2
aV75.7
p274
aV1
aV-
aV6.42
p275
aa(lp276
V2017/2018
p277
aVSouthampton
p278
aVEPL
p279
aV17(6)
p280
aV1521
p281
aV3
aV-
aV-
aV-
aV0.6
p282
aV83.6
p283
aV0.6
p284
aV-
aV6.64
p285
aa(lp286
V2016/2017
p287
aVSouthampton
p288
aVEPL
p289
aV29(3)
p290
aV2644
p291
aV-
aV3
aV3
aV-
aV1
aV86.2
p292
aV0.3
p293
aV-
aV6.68
p294
aa(lp295
V2016/2017
p296
aVSouthampton
p297
aVUEL
p298
aV1(3)
p299
aV122
p300
aV-
aV-
aV-
aV-
aV0.3
p301
aV82.9
p302
aV0.3
p303
aV-
aV6.33
p304
aa(lp305
V2015/2016
p306
aVSouthampton
p307
aVEPL
p308
aV31(3)
p309
aV2612
p310
aV5
aV3
aV4
aV-
aV0.6
p311
aV83.5
p312
aV0.4
p313
aV1
aV7.04
p314
aa(lp315
V2014/2015
p316
aVSouthampton
p317
aVEPL
p318
aV32(3)
p319
aV2651
p320
aV-
aV2
aV3
aV-
aV0.9
p321
aV85.3
p322
aV0.3
p323
aV-
aV6.81
p324
aa(lp325
V2016
p326
aVN.Ireland
p327
aVUEC
p328
aV4
aV360
p329
aV-
aV-
aV1
aV-
aV0.3
p330
aV80.3
p331
aV1.5
p332
aV-
aV6.73
p333
aa(lp334
V2013/2014
p335
aVSouthampton
p336
aVEPL
p337
aV28(6)
p338
aV2502
p339
aV2
aV7
aV3
aV-
aV0.9
p340
aV84.5
p341
aV0.4
p342
aV2
aV6.92
p343
aa(lp344
V2012/2013
p345
aVSouthampton
p346
aVEPL
p347
aV22(10)
p348
aV2073
p349
aV2
aV1
aV1
aV-
aV0.8
p350
aV85.3
p351
aV0.4
p352
aV1
aV6.66
p353
aa(lp354
V2010/2011
p355
aVRangers
p356
aVUCL
p357
aV6
aV540
p358
aV-
aV-
aV-
aV-
aV0.8
p359
aV77.2
p360
aV0.2
p361
aV-
aV6.91
p362
aa(lp363
V2009/2010
p364
aVRangers
p365
aVUCL
p366
aV6
aV540
p367
aV-
aV-
aV-
aV-
aV0.7
p368
aV83.3
p369
aV-
aV-
aV6.63
p370
aa(lp371
VTotal / Average
p372
aV
aV
aV217
p373
aV16022
p374
aV12
p375
aV17
p376
aV15
p377
aV0
aV0.8
p378
aV84.4
p379
aV0.4
p380
aV4
aV6.78
p381
aasS'sumary_data'
p382
(lp383
(lp384
a(lp385
V2018/2019
p386
aVSouthampton
p387
aVEPL
p388
aV1(2)
p389
aV97
p390
aV-
aV1
aV-
aV-
aV-
aV94.1
p391
aV0.3
p392
aV-
aV6.45
p393
aa(lp394
V2018/2019
p395
aVN.Ireland
p396
aVUNL
p397
aV4
aV360
p398
aV-
aV-
aV-
aV-
aV2
aV75.7
p399
aV1
aV-
aV6.42
p400
aa(lp401
V2017/2018
p402
aVSouthampton
p403
aVEPL
p404
aV17(6)
p405
aV1521
p406
aV3
aV-
aV-
aV-
aV0.6
p407
aV83.6
p408
aV0.6
p409
aV-
aV6.64
p410
aa(lp411
V2016/2017
p412
aVSouthampton
p413
aVEPL
p414
aV29(3)
p415
aV2644
p416
aV-
aV3
aV3
aV-
aV1
aV86.2
p417
aV0.3
p418
aV-
aV6.68
p419
aa(lp420
V2016/2017
p421
aVSouthampton
p422
aVUEL
p423
aV1(3)
p424
aV122
p425
aV-
aV-
aV-
aV-
aV0.3
p426
aV82.9
p427
aV0.3
p428
aV-
aV6.33
p429
aa(lp430
V2015/2016
p431
aVSouthampton
p432
aVEPL
p433
aV31(3)
p434
aV2612
p435
aV5
aV3
aV4
aV-
aV0.6
p436
aV83.5
p437
aV0.4
p438
aV1
aV7.04
p439
aa(lp440
V2014/2015
p441
aVSouthampton
p442
aVEPL
p443
aV32(3)
p444
aV2651
p445
aV-
aV2
aV3
aV-
aV0.9
p446
aV85.3
p447
aV0.3
p448
aV-
aV6.81
p449
aa(lp450
V2016
p451
aVN.Ireland
p452
aVUEC
p453
aV4
aV360
p454
aV-
aV-
aV1
aV-
aV0.3
p455
aV80.3
p456
aV1.5
p457
aV-
aV6.73
p458
aa(lp459
V2013/2014
p460
aVSouthampton
p461
aVEPL
p462
aV28(6)
p463
aV2502
p464
aV2
aV7
aV3
aV-
aV0.9
p465
aV84.5
p466
aV0.4
p467
aV2
aV6.92
p468
aa(lp469
V2012/2013
p470
aVSouthampton
p471
aVEPL
p472
aV22(10)
p473
aV2073
p474
aV2
aV1
aV1
aV-
aV0.8
p475
aV85.3
p476
aV0.4
p477
aV1
aV6.66
p478
aa(lp479
V2010/2011
p480
aVRangers
p481
aVUCL
p482
aV6
aV540
p483
aV-
aV-
aV-
aV-
aV0.8
p484
aV77.2
p485
aV0.2
p486
aV-
aV6.91
p487
aa(lp488
V2009/2010
p489
aVRangers
p490
aVUCL
p491
aV6
aV540
p492
aV-
aV-
aV-
aV-
aV0.7
p493
aV83.3
p494
aV-
aV-
aV6.63
p495
aa(lp496
VTotal / Average
p497
aV
aV
aV217
p498
aV16022
p499
aV12
p500
aV17
p501
aV15
p502
aV0
aV0.8
p503
aV84.4
p504
aV0.4
p505
aV4
aV6.78
p506
aasS'id'
p507
V9734
p508
sb.