(i__main__
Player
p1
(dp2
S'name'
p3
VWilly Boly 
p4
sS'offensive_data'
p5
(lp6
(lp7
a(lp8
V2018/2019
p9
aVWolverhampton..
p10
aVEPL
p11
aV17
p12
aV1530
p13
aV1
aV-
aV-
aV-
aV0.5
p14
aV81
p15
aV3.6
p16
aV2
aV7.17
p17
aa(lp18
V2017/2018
p19
aVWolverhampton..
p20
aVEC
p21
aV36
p22
aV3200
p23
aV3
aV2
aV2
aV-
aV0.5
p24
aV83
p25
aV4.1
p26
aV8
aV7.52
p27
aa(lp28
V2016/2017
p29
aVFC Porto
p30
aVPLN
p31
aV4
aV360
p32
aV-
aV-
aV-
aV-
aV0.3
p33
aV82.3
p34
aV3
aV-
aV7.05
p35
aa(lp36
V2016/2017
p37
aVBraga
p38
aVPLN
p39
aV3
aV270
p40
aV-
aV-
aV-
aV-
aV-
aV91
p41
aV1.3
p42
aV-
aV7.13
p43
aa(lp44
V2016/2017
p45
aVFC Porto
p46
aVUCL
p47
aV0(1)
p48
aV45
p49
aV-
aV-
aV-
aV-
aV-
aV95.5
p50
aV-
aV-
aV6.25
p51
aa(lp52
V2015/2016
p53
aVBraga
p54
aVUEL
p55
aV11(1)
p56
aV1054
p57
aV-
aV-
aV1
aV-
aV0.4
p58
aV86.2
p59
aV2.5
p60
aV-
aV7.13
p61
aa(lp62
V2011/2012
p63
aVAuxerre
p64
aVFL1
p65
aV32(1)
p66
aV2851
p67
aV1
aV-
aV4
aV1
aV0.4
p68
aV75.9
p69
aV2.1
p70
aV1
aV7.12
p71
aa(lp72
V2010/2011
p73
aVAuxerre
p74
aVFL1
p75
aV8
aV720
p76
aV1
aV-
aV1
aV-
aV0.5
p77
aV74.6
p78
aV1.8
p79
aV2
aV7.26
p80
aa(lp81
VTotal / Average
p82
aV
aV
aV114
p83
aV10030
p84
aV6
aV2
aV8
aV1
aV0.4
p85
aV80.7
p86
aV3
aV13
p87
aV7.25
p88
aasS'url'
p89
S'https://www.whoscored.com/Players/97587/History/'
p90
sS'passing_data'
p91
(lp92
(lp93
a(lp94
V2018/2019
p95
aVWolverhampton..
p96
aVEPL
p97
aV17
p98
aV1530
p99
aV1
aV-
aV-
aV-
aV0.5
p100
aV81
p101
aV3.6
p102
aV2
aV7.17
p103
aa(lp104
V2017/2018
p105
aVWolverhampton..
p106
aVEC
p107
aV36
p108
aV3200
p109
aV3
aV2
aV2
aV-
aV0.5
p110
aV83
p111
aV4.1
p112
aV8
aV7.52
p113
aa(lp114
V2016/2017
p115
aVFC Porto
p116
aVPLN
p117
aV4
aV360
p118
aV-
aV-
aV-
aV-
aV0.3
p119
aV82.3
p120
aV3
aV-
aV7.05
p121
aa(lp122
V2016/2017
p123
aVBraga
p124
aVPLN
p125
aV3
aV270
p126
aV-
aV-
aV-
aV-
aV-
aV91
p127
aV1.3
p128
aV-
aV7.13
p129
aa(lp130
V2016/2017
p131
aVFC Porto
p132
aVUCL
p133
aV0(1)
p134
aV45
p135
aV-
aV-
aV-
aV-
aV-
aV95.5
p136
aV-
aV-
aV6.25
p137
aa(lp138
V2015/2016
p139
aVBraga
p140
aVUEL
p141
aV11(1)
p142
aV1054
p143
aV-
aV-
aV1
aV-
aV0.4
p144
aV86.2
p145
aV2.5
p146
aV-
aV7.13
p147
aa(lp148
V2011/2012
p149
aVAuxerre
p150
aVFL1
p151
aV32(1)
p152
aV2851
p153
aV1
aV-
aV4
aV1
aV0.4
p154
aV75.9
p155
aV2.1
p156
aV1
aV7.12
p157
aa(lp158
V2010/2011
p159
aVAuxerre
p160
aVFL1
p161
aV8
aV720
p162
aV1
aV-
aV1
aV-
aV0.5
p163
aV74.6
p164
aV1.8
p165
aV2
aV7.26
p166
aa(lp167
VTotal / Average
p168
aV
aV
aV114
p169
aV10030
p170
aV6
aV2
aV8
aV1
aV0.4
p171
aV80.7
p172
aV3
aV13
p173
aV7.25
p174
aasS'defensive_data'
p175
(lp176
(lp177
a(lp178
V2018/2019
p179
aVWolverhampton..
p180
aVEPL
p181
aV17
p182
aV1530
p183
aV1
aV-
aV-
aV-
aV0.5
p184
aV81
p185
aV3.6
p186
aV2
aV7.17
p187
aa(lp188
V2017/2018
p189
aVWolverhampton..
p190
aVEC
p191
aV36
p192
aV3200
p193
aV3
aV2
aV2
aV-
aV0.5
p194
aV83
p195
aV4.1
p196
aV8
aV7.52
p197
aa(lp198
V2016/2017
p199
aVFC Porto
p200
aVPLN
p201
aV4
aV360
p202
aV-
aV-
aV-
aV-
aV0.3
p203
aV82.3
p204
aV3
aV-
aV7.05
p205
aa(lp206
V2016/2017
p207
aVBraga
p208
aVPLN
p209
aV3
aV270
p210
aV-
aV-
aV-
aV-
aV-
aV91
p211
aV1.3
p212
aV-
aV7.13
p213
aa(lp214
V2016/2017
p215
aVFC Porto
p216
aVUCL
p217
aV0(1)
p218
aV45
p219
aV-
aV-
aV-
aV-
aV-
aV95.5
p220
aV-
aV-
aV6.25
p221
aa(lp222
V2015/2016
p223
aVBraga
p224
aVUEL
p225
aV11(1)
p226
aV1054
p227
aV-
aV-
aV1
aV-
aV0.4
p228
aV86.2
p229
aV2.5
p230
aV-
aV7.13
p231
aa(lp232
V2011/2012
p233
aVAuxerre
p234
aVFL1
p235
aV32(1)
p236
aV2851
p237
aV1
aV-
aV4
aV1
aV0.4
p238
aV75.9
p239
aV2.1
p240
aV1
aV7.12
p241
aa(lp242
V2010/2011
p243
aVAuxerre
p244
aVFL1
p245
aV8
aV720
p246
aV1
aV-
aV1
aV-
aV0.5
p247
aV74.6
p248
aV1.8
p249
aV2
aV7.26
p250
aa(lp251
VTotal / Average
p252
aV
aV
aV114
p253
aV10030
p254
aV6
aV2
aV8
aV1
aV0.4
p255
aV80.7
p256
aV3
aV13
p257
aV7.25
p258
aasS'sumary_data'
p259
(lp260
(lp261
a(lp262
V2018/2019
p263
aVWolverhampton..
p264
aVEPL
p265
aV17
p266
aV1530
p267
aV1
aV-
aV-
aV-
aV0.5
p268
aV81
p269
aV3.6
p270
aV2
aV7.17
p271
aa(lp272
V2017/2018
p273
aVWolverhampton..
p274
aVEC
p275
aV36
p276
aV3200
p277
aV3
aV2
aV2
aV-
aV0.5
p278
aV83
p279
aV4.1
p280
aV8
aV7.52
p281
aa(lp282
V2016/2017
p283
aVFC Porto
p284
aVPLN
p285
aV4
aV360
p286
aV-
aV-
aV-
aV-
aV0.3
p287
aV82.3
p288
aV3
aV-
aV7.05
p289
aa(lp290
V2016/2017
p291
aVBraga
p292
aVPLN
p293
aV3
aV270
p294
aV-
aV-
aV-
aV-
aV-
aV91
p295
aV1.3
p296
aV-
aV7.13
p297
aa(lp298
V2016/2017
p299
aVFC Porto
p300
aVUCL
p301
aV0(1)
p302
aV45
p303
aV-
aV-
aV-
aV-
aV-
aV95.5
p304
aV-
aV-
aV6.25
p305
aa(lp306
V2015/2016
p307
aVBraga
p308
aVUEL
p309
aV11(1)
p310
aV1054
p311
aV-
aV-
aV1
aV-
aV0.4
p312
aV86.2
p313
aV2.5
p314
aV-
aV7.13
p315
aa(lp316
V2011/2012
p317
aVAuxerre
p318
aVFL1
p319
aV32(1)
p320
aV2851
p321
aV1
aV-
aV4
aV1
aV0.4
p322
aV75.9
p323
aV2.1
p324
aV1
aV7.12
p325
aa(lp326
V2010/2011
p327
aVAuxerre
p328
aVFL1
p329
aV8
aV720
p330
aV1
aV-
aV1
aV-
aV0.5
p331
aV74.6
p332
aV1.8
p333
aV2
aV7.26
p334
aa(lp335
VTotal / Average
p336
aV
aV
aV114
p337
aV10030
p338
aV6
aV2
aV8
aV1
aV0.4
p339
aV80.7
p340
aV3
aV13
p341
aV7.25
p342
aasS'id'
p343
V97587
p344
sb.