(i__main__
Player
p1
(dp2
S'name'
p3
VRobert Snodgrass 
p4
sS'offensive_data'
p5
(lp6
(lp7
a(lp8
V2018/2019
p9
aVWest Ham
p10
aVEPL
p11
aV11(5)
p12
aV998
p13
aV2
aV3
aV6
aV-
aV0.8
p14
aV80.8
p15
aV0.9
p16
aV3
aV6.94
p17
aa(lp18
V2017/2018
p19
aVAston Villa
p20
aVEC
p21
aV41(2)
p22
aV3429
p23
aV7
aV14
p24
aV11
p25
aV-
aV1.8
p26
aV73
p27
aV1.9
p28
aV7
aV7.38
p29
aa(lp30
V2016/2017
p31
aVHull
p32
aVEPL
p33
aV19(1)
p34
aV1712
p35
aV7
aV3
aV2
aV-
aV2
aV82.9
p36
aV0.8
p37
aV3
aV7.01
p38
aa(lp39
V2016/2017
p40
aVWest Ham
p41
aVEPL
p42
aV8(7)
p43
aV838
p44
aV-
aV2
aV-
aV-
aV0.7
p45
aV81.6
p46
aV0.5
p47
aV-
aV6.46
p48
aa(lp49
V2015/2016
p50
aVHull
p51
aVEC
p52
aV21(6)
p53
aV1897
p54
aV4
aV7
aV2
aV-
aV1.8
p55
aV79.9
p56
aV1
aV3
aV7.34
p57
aa(lp58
V2014/2015
p59
aVHull
p60
aVEPL
p61
aV1
aV40
p62
aV-
aV-
aV-
aV-
aV-
aV82.4
p63
aV-
aV-
aV6.10
p64
aa(lp65
V2013/2014
p66
aVNorwich
p67
aVEPL
p68
aV29(1)
p69
aV2573
p70
aV6
aV2
aV6
aV-
aV2.4
p71
aV75.7
p72
aV2.2
p73
aV2
aV7.13
p74
aa(lp75
V2012/2013
p76
aVNorwich
p77
aVEPL
p78
aV35(2)
p79
aV3067
p80
aV6
aV6
aV8
aV-
aV2.1
p81
aV78.9
p82
aV0.8
p83
aV5
aV7.26
p84
aa(lp85
VTotal / Average
p86
aV
aV
aV189
p87
aV14554
p88
aV32
p89
aV37
p90
aV35
p91
aV0
aV1.8
p92
aV78
p93
aV1.3
p94
aV23
p95
aV7.15
p96
aasS'url'
p97
S'https://www.whoscored.com/Players/9767/History/'
p98
sS'passing_data'
p99
(lp100
(lp101
a(lp102
V2018/2019
p103
aVWest Ham
p104
aVEPL
p105
aV11(5)
p106
aV998
p107
aV2
aV3
aV6
aV-
aV0.8
p108
aV80.8
p109
aV0.9
p110
aV3
aV6.94
p111
aa(lp112
V2017/2018
p113
aVAston Villa
p114
aVEC
p115
aV41(2)
p116
aV3429
p117
aV7
aV14
p118
aV11
p119
aV-
aV1.8
p120
aV73
p121
aV1.9
p122
aV7
aV7.38
p123
aa(lp124
V2016/2017
p125
aVHull
p126
aVEPL
p127
aV19(1)
p128
aV1712
p129
aV7
aV3
aV2
aV-
aV2
aV82.9
p130
aV0.8
p131
aV3
aV7.01
p132
aa(lp133
V2016/2017
p134
aVWest Ham
p135
aVEPL
p136
aV8(7)
p137
aV838
p138
aV-
aV2
aV-
aV-
aV0.7
p139
aV81.6
p140
aV0.5
p141
aV-
aV6.46
p142
aa(lp143
V2015/2016
p144
aVHull
p145
aVEC
p146
aV21(6)
p147
aV1897
p148
aV4
aV7
aV2
aV-
aV1.8
p149
aV79.9
p150
aV1
aV3
aV7.34
p151
aa(lp152
V2014/2015
p153
aVHull
p154
aVEPL
p155
aV1
aV40
p156
aV-
aV-
aV-
aV-
aV-
aV82.4
p157
aV-
aV-
aV6.10
p158
aa(lp159
V2013/2014
p160
aVNorwich
p161
aVEPL
p162
aV29(1)
p163
aV2573
p164
aV6
aV2
aV6
aV-
aV2.4
p165
aV75.7
p166
aV2.2
p167
aV2
aV7.13
p168
aa(lp169
V2012/2013
p170
aVNorwich
p171
aVEPL
p172
aV35(2)
p173
aV3067
p174
aV6
aV6
aV8
aV-
aV2.1
p175
aV78.9
p176
aV0.8
p177
aV5
aV7.26
p178
aa(lp179
VTotal / Average
p180
aV
aV
aV189
p181
aV14554
p182
aV32
p183
aV37
p184
aV35
p185
aV0
aV1.8
p186
aV78
p187
aV1.3
p188
aV23
p189
aV7.15
p190
aasS'defensive_data'
p191
(lp192
(lp193
a(lp194
V2018/2019
p195
aVWest Ham
p196
aVEPL
p197
aV11(5)
p198
aV998
p199
aV2
aV3
aV6
aV-
aV0.8
p200
aV80.8
p201
aV0.9
p202
aV3
aV6.94
p203
aa(lp204
V2017/2018
p205
aVAston Villa
p206
aVEC
p207
aV41(2)
p208
aV3429
p209
aV7
aV14
p210
aV11
p211
aV-
aV1.8
p212
aV73
p213
aV1.9
p214
aV7
aV7.38
p215
aa(lp216
V2016/2017
p217
aVHull
p218
aVEPL
p219
aV19(1)
p220
aV1712
p221
aV7
aV3
aV2
aV-
aV2
aV82.9
p222
aV0.8
p223
aV3
aV7.01
p224
aa(lp225
V2016/2017
p226
aVWest Ham
p227
aVEPL
p228
aV8(7)
p229
aV838
p230
aV-
aV2
aV-
aV-
aV0.7
p231
aV81.6
p232
aV0.5
p233
aV-
aV6.46
p234
aa(lp235
V2015/2016
p236
aVHull
p237
aVEC
p238
aV21(6)
p239
aV1897
p240
aV4
aV7
aV2
aV-
aV1.8
p241
aV79.9
p242
aV1
aV3
aV7.34
p243
aa(lp244
V2014/2015
p245
aVHull
p246
aVEPL
p247
aV1
aV40
p248
aV-
aV-
aV-
aV-
aV-
aV82.4
p249
aV-
aV-
aV6.10
p250
aa(lp251
V2013/2014
p252
aVNorwich
p253
aVEPL
p254
aV29(1)
p255
aV2573
p256
aV6
aV2
aV6
aV-
aV2.4
p257
aV75.7
p258
aV2.2
p259
aV2
aV7.13
p260
aa(lp261
V2012/2013
p262
aVNorwich
p263
aVEPL
p264
aV35(2)
p265
aV3067
p266
aV6
aV6
aV8
aV-
aV2.1
p267
aV78.9
p268
aV0.8
p269
aV5
aV7.26
p270
aa(lp271
VTotal / Average
p272
aV
aV
aV189
p273
aV14554
p274
aV32
p275
aV37
p276
aV35
p277
aV0
aV1.8
p278
aV78
p279
aV1.3
p280
aV23
p281
aV7.15
p282
aasS'sumary_data'
p283
(lp284
(lp285
a(lp286
V2018/2019
p287
aVWest Ham
p288
aVEPL
p289
aV11(5)
p290
aV998
p291
aV2
aV3
aV6
aV-
aV0.8
p292
aV80.8
p293
aV0.9
p294
aV3
aV6.94
p295
aa(lp296
V2017/2018
p297
aVAston Villa
p298
aVEC
p299
aV41(2)
p300
aV3429
p301
aV7
aV14
p302
aV11
p303
aV-
aV1.8
p304
aV73
p305
aV1.9
p306
aV7
aV7.38
p307
aa(lp308
V2016/2017
p309
aVHull
p310
aVEPL
p311
aV19(1)
p312
aV1712
p313
aV7
aV3
aV2
aV-
aV2
aV82.9
p314
aV0.8
p315
aV3
aV7.01
p316
aa(lp317
V2016/2017
p318
aVWest Ham
p319
aVEPL
p320
aV8(7)
p321
aV838
p322
aV-
aV2
aV-
aV-
aV0.7
p323
aV81.6
p324
aV0.5
p325
aV-
aV6.46
p326
aa(lp327
V2015/2016
p328
aVHull
p329
aVEC
p330
aV21(6)
p331
aV1897
p332
aV4
aV7
aV2
aV-
aV1.8
p333
aV79.9
p334
aV1
aV3
aV7.34
p335
aa(lp336
V2014/2015
p337
aVHull
p338
aVEPL
p339
aV1
aV40
p340
aV-
aV-
aV-
aV-
aV-
aV82.4
p341
aV-
aV-
aV6.10
p342
aa(lp343
V2013/2014
p344
aVNorwich
p345
aVEPL
p346
aV29(1)
p347
aV2573
p348
aV6
aV2
aV6
aV-
aV2.4
p349
aV75.7
p350
aV2.2
p351
aV2
aV7.13
p352
aa(lp353
V2012/2013
p354
aVNorwich
p355
aVEPL
p356
aV35(2)
p357
aV3067
p358
aV6
aV6
aV8
aV-
aV2.1
p359
aV78.9
p360
aV0.8
p361
aV5
aV7.26
p362
aa(lp363
VTotal / Average
p364
aV
aV
aV189
p365
aV14554
p366
aV32
p367
aV37
p368
aV35
p369
aV0
aV1.8
p370
aV78
p371
aV1.3
p372
aV23
p373
aV7.15
p374
aasS'id'
p375
V9767
p376
sb.