(i__main__
Player
p1
(dp2
S'name'
p3
VRaheem Sterling 
p4
sS'offensive_data'
p5
(lp6
(lp7
a(lp8
V2018/2019
p9
aVManchester Ci..
p10
aVEPL
p11
aV13(1)
p12
aV1140
p13
aV9
aV6
aV1
aV-
aV2.4
p14
aV86.1
p15
aV0.3
p16
aV4
aV7.83
p17
aa(lp18
V2018/2019
p19
aVManchester Ci..
p20
aVUCL
p21
aV6
aV511
p22
aV1
aV1
aV1
aV-
aV2
aV81.3
p23
aV0.2
p24
aV-
aV7.61
p25
aa(lp26
V2018/2019
p27
aVEngland
p28
aVUNL
p29
aV3
aV258
p30
aV2
aV-
aV1
aV-
aV1.3
p31
aV80.6
p32
aV0.7
p33
aV-
aV6.98
p34
aa(lp35
V2017/2018
p36
aVManchester Ci..
p37
aVUCL
p38
aV5(3)
p39
aV497
p40
aV4
aV1
aV1
aV-
aV1.3
p41
aV80.6
p42
aV0.3
p43
aV3
aV7.40
p44
aa(lp45
V2017/2018
p46
aVManchester Ci..
p47
aVEPL
p48
aV29(4)
p49
aV2593
p50
aV18
p51
aV11
p52
aV3
aV1
aV2.6
p53
aV84
p54
aV0.2
p55
aV4
aV7.55
p56
aa(lp57
V2016/2017
p58
aVManchester Ci..
p59
aVUCL
p60
aV7
aV577
p61
aV2
aV3
aV3
aV-
aV1.9
p62
aV84
p63
aV0.3
p64
aV-
aV7.25
p65
aa(lp66
V2016/2017
p67
aVManchester Ci..
p68
aVEPL
p69
aV29(4)
p70
aV2517
p71
aV7
aV6
aV7
aV-
aV1.9
p72
aV80.4
p73
aV0.4
p74
aV4
aV7.05
p75
aa(lp76
V2018
p77
aVEngland
p78
aVWC
p79
aV6
aV456
p80
aV-
aV1
aV-
aV-
aV1.7
p81
aV86.8
p82
aV0.5
p83
aV-
aV6.59
p84
aa(lp85
V2015/2016
p86
aVManchester Ci..
p87
aVUCL
p88
aV6(4)
p89
aV578
p90
aV3
aV2
aV-
aV-
aV2
aV82.1
p91
aV0.3
p92
aV2
aV7.19
p93
aa(lp94
V2015/2016
p95
aVManchester Ci..
p96
aVEPL
p97
aV23(8)
p98
aV1928
p99
aV6
aV2
aV1
aV-
aV1.7
p100
aV85.3
p101
aV0.3
p102
aV-
aV6.78
p103
aa(lp104
V2014/2015
p105
aVLiverpool
p106
aVUCL
p107
aV5(1)
p108
aV463
p109
aV-
aV1
aV1
aV-
aV2.2
p110
aV78.5
p111
aV-
aV1
aV6.92
p112
aa(lp113
V2014/2015
p114
aVLiverpool
p115
aVUEL
p116
aV1(1)
p117
aV133
p118
aV-
aV-
aV-
aV-
aV1
aV74.5
p119
aV-
aV-
aV6.06
p120
aa(lp121
V2014/2015
p122
aVLiverpool
p123
aVEPL
p124
aV34(1)
p125
aV3053
p126
aV7
aV7
aV5
aV-
aV2.4
p127
aV81.1
p128
aV0.1
p129
aV3
aV7.27
p130
aa(lp131
V2016
p132
aVEngland
p133
aVUEC
p134
aV3
aV193
p135
aV-
aV-
aV-
aV-
aV0.7
p136
aV77.2
p137
aV0.7
p138
aV-
aV6.55
p139
aa(lp140
V2013/2014
p141
aVLiverpool
p142
aVEPL
p143
aV24(9)
p144
aV2221
p145
aV9
aV5
aV3
aV-
aV1.4
p146
aV81.7
p147
aV0.3
p148
aV2
aV7.40
p149
aa(lp150
V2014
p151
aVEngland
p152
aVWC
p153
aV2(1)
p154
aV183
p155
aV-
aV-
aV1
aV-
aV1.3
p156
aV88.2
p157
aV0.7
p158
aV-
aV6.54
p159
aa(lp160
V2012/2013
p161
aVLiverpool
p162
aVUEL
p163
aV1(6)
p164
aV187
p165
aV-
aV-
aV-
aV-
aV0.6
p166
aV79.7
p167
aV0.3
p168
aV-
aV6.14
p169
aa(lp170
V2012/2013
p171
aVLiverpool
p172
aVEPL
p173
aV19(5)
p174
aV1749
p175
aV2
aV2
aV1
aV-
aV1.4
p176
aV84.5
p177
aV0.2
p178
aV1
aV6.97
p179
aa(lp180
V2011/2012
p181
aVLiverpool
p182
aVEPL
p183
aV0(3)
p184
aV25
p185
aV-
aV-
aV-
aV-
aV0.7
p186
aV86.7
p187
aV-
aV-
aV6.10
p188
aa(lp189
VTotal / Average
p190
aV
aV
aV267
p191
aV19262
p192
aV70
p193
aV48
p194
aV29
p195
aV1
aV1.9
p196
aV82.7
p197
aV0.3
p198
aV24
p199
aV7.15
p200
aasS'url'
p201
S'https://www.whoscored.com/Players/97692/History/'
p202
sS'passing_data'
p203
(lp204
(lp205
a(lp206
V2018/2019
p207
aVManchester Ci..
p208
aVEPL
p209
aV13(1)
p210
aV1140
p211
aV9
aV6
aV1
aV-
aV2.4
p212
aV86.1
p213
aV0.3
p214
aV4
aV7.83
p215
aa(lp216
V2018/2019
p217
aVManchester Ci..
p218
aVUCL
p219
aV6
aV511
p220
aV1
aV1
aV1
aV-
aV2
aV81.3
p221
aV0.2
p222
aV-
aV7.61
p223
aa(lp224
V2018/2019
p225
aVEngland
p226
aVUNL
p227
aV3
aV258
p228
aV2
aV-
aV1
aV-
aV1.3
p229
aV80.6
p230
aV0.7
p231
aV-
aV6.98
p232
aa(lp233
V2017/2018
p234
aVManchester Ci..
p235
aVUCL
p236
aV5(3)
p237
aV497
p238
aV4
aV1
aV1
aV-
aV1.3
p239
aV80.6
p240
aV0.3
p241
aV3
aV7.40
p242
aa(lp243
V2017/2018
p244
aVManchester Ci..
p245
aVEPL
p246
aV29(4)
p247
aV2593
p248
aV18
p249
aV11
p250
aV3
aV1
aV2.6
p251
aV84
p252
aV0.2
p253
aV4
aV7.55
p254
aa(lp255
V2016/2017
p256
aVManchester Ci..
p257
aVUCL
p258
aV7
aV577
p259
aV2
aV3
aV3
aV-
aV1.9
p260
aV84
p261
aV0.3
p262
aV-
aV7.25
p263
aa(lp264
V2016/2017
p265
aVManchester Ci..
p266
aVEPL
p267
aV29(4)
p268
aV2517
p269
aV7
aV6
aV7
aV-
aV1.9
p270
aV80.4
p271
aV0.4
p272
aV4
aV7.05
p273
aa(lp274
V2018
p275
aVEngland
p276
aVWC
p277
aV6
aV456
p278
aV-
aV1
aV-
aV-
aV1.7
p279
aV86.8
p280
aV0.5
p281
aV-
aV6.59
p282
aa(lp283
V2015/2016
p284
aVManchester Ci..
p285
aVUCL
p286
aV6(4)
p287
aV578
p288
aV3
aV2
aV-
aV-
aV2
aV82.1
p289
aV0.3
p290
aV2
aV7.19
p291
aa(lp292
V2015/2016
p293
aVManchester Ci..
p294
aVEPL
p295
aV23(8)
p296
aV1928
p297
aV6
aV2
aV1
aV-
aV1.7
p298
aV85.3
p299
aV0.3
p300
aV-
aV6.78
p301
aa(lp302
V2014/2015
p303
aVLiverpool
p304
aVUCL
p305
aV5(1)
p306
aV463
p307
aV-
aV1
aV1
aV-
aV2.2
p308
aV78.5
p309
aV-
aV1
aV6.92
p310
aa(lp311
V2014/2015
p312
aVLiverpool
p313
aVUEL
p314
aV1(1)
p315
aV133
p316
aV-
aV-
aV-
aV-
aV1
aV74.5
p317
aV-
aV-
aV6.06
p318
aa(lp319
V2014/2015
p320
aVLiverpool
p321
aVEPL
p322
aV34(1)
p323
aV3053
p324
aV7
aV7
aV5
aV-
aV2.4
p325
aV81.1
p326
aV0.1
p327
aV3
aV7.27
p328
aa(lp329
V2016
p330
aVEngland
p331
aVUEC
p332
aV3
aV193
p333
aV-
aV-
aV-
aV-
aV0.7
p334
aV77.2
p335
aV0.7
p336
aV-
aV6.55
p337
aa(lp338
V2013/2014
p339
aVLiverpool
p340
aVEPL
p341
aV24(9)
p342
aV2221
p343
aV9
aV5
aV3
aV-
aV1.4
p344
aV81.7
p345
aV0.3
p346
aV2
aV7.40
p347
aa(lp348
V2014
p349
aVEngland
p350
aVWC
p351
aV2(1)
p352
aV183
p353
aV-
aV-
aV1
aV-
aV1.3
p354
aV88.2
p355
aV0.7
p356
aV-
aV6.54
p357
aa(lp358
V2012/2013
p359
aVLiverpool
p360
aVUEL
p361
aV1(6)
p362
aV187
p363
aV-
aV-
aV-
aV-
aV0.6
p364
aV79.7
p365
aV0.3
p366
aV-
aV6.14
p367
aa(lp368
V2012/2013
p369
aVLiverpool
p370
aVEPL
p371
aV19(5)
p372
aV1749
p373
aV2
aV2
aV1
aV-
aV1.4
p374
aV84.5
p375
aV0.2
p376
aV1
aV6.97
p377
aa(lp378
V2011/2012
p379
aVLiverpool
p380
aVEPL
p381
aV0(3)
p382
aV25
p383
aV-
aV-
aV-
aV-
aV0.7
p384
aV86.7
p385
aV-
aV-
aV6.10
p386
aa(lp387
VTotal / Average
p388
aV
aV
aV267
p389
aV19262
p390
aV70
p391
aV48
p392
aV29
p393
aV1
aV1.9
p394
aV82.7
p395
aV0.3
p396
aV24
p397
aV7.15
p398
aasS'defensive_data'
p399
(lp400
(lp401
a(lp402
V2018/2019
p403
aVManchester Ci..
p404
aVEPL
p405
aV13(1)
p406
aV1140
p407
aV9
aV6
aV1
aV-
aV2.4
p408
aV86.1
p409
aV0.3
p410
aV4
aV7.83
p411
aa(lp412
V2018/2019
p413
aVManchester Ci..
p414
aVUCL
p415
aV6
aV511
p416
aV1
aV1
aV1
aV-
aV2
aV81.3
p417
aV0.2
p418
aV-
aV7.61
p419
aa(lp420
V2018/2019
p421
aVEngland
p422
aVUNL
p423
aV3
aV258
p424
aV2
aV-
aV1
aV-
aV1.3
p425
aV80.6
p426
aV0.7
p427
aV-
aV6.98
p428
aa(lp429
V2017/2018
p430
aVManchester Ci..
p431
aVUCL
p432
aV5(3)
p433
aV497
p434
aV4
aV1
aV1
aV-
aV1.3
p435
aV80.6
p436
aV0.3
p437
aV3
aV7.40
p438
aa(lp439
V2017/2018
p440
aVManchester Ci..
p441
aVEPL
p442
aV29(4)
p443
aV2593
p444
aV18
p445
aV11
p446
aV3
aV1
aV2.6
p447
aV84
p448
aV0.2
p449
aV4
aV7.55
p450
aa(lp451
V2016/2017
p452
aVManchester Ci..
p453
aVUCL
p454
aV7
aV577
p455
aV2
aV3
aV3
aV-
aV1.9
p456
aV84
p457
aV0.3
p458
aV-
aV7.25
p459
aa(lp460
V2016/2017
p461
aVManchester Ci..
p462
aVEPL
p463
aV29(4)
p464
aV2517
p465
aV7
aV6
aV7
aV-
aV1.9
p466
aV80.4
p467
aV0.4
p468
aV4
aV7.05
p469
aa(lp470
V2018
p471
aVEngland
p472
aVWC
p473
aV6
aV456
p474
aV-
aV1
aV-
aV-
aV1.7
p475
aV86.8
p476
aV0.5
p477
aV-
aV6.59
p478
aa(lp479
V2015/2016
p480
aVManchester Ci..
p481
aVUCL
p482
aV6(4)
p483
aV578
p484
aV3
aV2
aV-
aV-
aV2
aV82.1
p485
aV0.3
p486
aV2
aV7.19
p487
aa(lp488
V2015/2016
p489
aVManchester Ci..
p490
aVEPL
p491
aV23(8)
p492
aV1928
p493
aV6
aV2
aV1
aV-
aV1.7
p494
aV85.3
p495
aV0.3
p496
aV-
aV6.78
p497
aa(lp498
V2014/2015
p499
aVLiverpool
p500
aVUCL
p501
aV5(1)
p502
aV463
p503
aV-
aV1
aV1
aV-
aV2.2
p504
aV78.5
p505
aV-
aV1
aV6.92
p506
aa(lp507
V2014/2015
p508
aVLiverpool
p509
aVUEL
p510
aV1(1)
p511
aV133
p512
aV-
aV-
aV-
aV-
aV1
aV74.5
p513
aV-
aV-
aV6.06
p514
aa(lp515
V2014/2015
p516
aVLiverpool
p517
aVEPL
p518
aV34(1)
p519
aV3053
p520
aV7
aV7
aV5
aV-
aV2.4
p521
aV81.1
p522
aV0.1
p523
aV3
aV7.27
p524
aa(lp525
V2016
p526
aVEngland
p527
aVUEC
p528
aV3
aV193
p529
aV-
aV-
aV-
aV-
aV0.7
p530
aV77.2
p531
aV0.7
p532
aV-
aV6.55
p533
aa(lp534
V2013/2014
p535
aVLiverpool
p536
aVEPL
p537
aV24(9)
p538
aV2221
p539
aV9
aV5
aV3
aV-
aV1.4
p540
aV81.7
p541
aV0.3
p542
aV2
aV7.40
p543
aa(lp544
V2014
p545
aVEngland
p546
aVWC
p547
aV2(1)
p548
aV183
p549
aV-
aV-
aV1
aV-
aV1.3
p550
aV88.2
p551
aV0.7
p552
aV-
aV6.54
p553
aa(lp554
V2012/2013
p555
aVLiverpool
p556
aVUEL
p557
aV1(6)
p558
aV187
p559
aV-
aV-
aV-
aV-
aV0.6
p560
aV79.7
p561
aV0.3
p562
aV-
aV6.14
p563
aa(lp564
V2012/2013
p565
aVLiverpool
p566
aVEPL
p567
aV19(5)
p568
aV1749
p569
aV2
aV2
aV1
aV-
aV1.4
p570
aV84.5
p571
aV0.2
p572
aV1
aV6.97
p573
aa(lp574
V2011/2012
p575
aVLiverpool
p576
aVEPL
p577
aV0(3)
p578
aV25
p579
aV-
aV-
aV-
aV-
aV0.7
p580
aV86.7
p581
aV-
aV-
aV6.10
p582
aa(lp583
VTotal / Average
p584
aV
aV
aV267
p585
aV19262
p586
aV70
p587
aV48
p588
aV29
p589
aV1
aV1.9
p590
aV82.7
p591
aV0.3
p592
aV24
p593
aV7.15
p594
aasS'sumary_data'
p595
(lp596
(lp597
a(lp598
V2018/2019
p599
aVManchester Ci..
p600
aVEPL
p601
aV13(1)
p602
aV1140
p603
aV9
aV6
aV1
aV-
aV2.4
p604
aV86.1
p605
aV0.3
p606
aV4
aV7.83
p607
aa(lp608
V2018/2019
p609
aVManchester Ci..
p610
aVUCL
p611
aV6
aV511
p612
aV1
aV1
aV1
aV-
aV2
aV81.3
p613
aV0.2
p614
aV-
aV7.61
p615
aa(lp616
V2018/2019
p617
aVEngland
p618
aVUNL
p619
aV3
aV258
p620
aV2
aV-
aV1
aV-
aV1.3
p621
aV80.6
p622
aV0.7
p623
aV-
aV6.98
p624
aa(lp625
V2017/2018
p626
aVManchester Ci..
p627
aVUCL
p628
aV5(3)
p629
aV497
p630
aV4
aV1
aV1
aV-
aV1.3
p631
aV80.6
p632
aV0.3
p633
aV3
aV7.40
p634
aa(lp635
V2017/2018
p636
aVManchester Ci..
p637
aVEPL
p638
aV29(4)
p639
aV2593
p640
aV18
p641
aV11
p642
aV3
aV1
aV2.6
p643
aV84
p644
aV0.2
p645
aV4
aV7.55
p646
aa(lp647
V2016/2017
p648
aVManchester Ci..
p649
aVUCL
p650
aV7
aV577
p651
aV2
aV3
aV3
aV-
aV1.9
p652
aV84
p653
aV0.3
p654
aV-
aV7.25
p655
aa(lp656
V2016/2017
p657
aVManchester Ci..
p658
aVEPL
p659
aV29(4)
p660
aV2517
p661
aV7
aV6
aV7
aV-
aV1.9
p662
aV80.4
p663
aV0.4
p664
aV4
aV7.05
p665
aa(lp666
V2018
p667
aVEngland
p668
aVWC
p669
aV6
aV456
p670
aV-
aV1
aV-
aV-
aV1.7
p671
aV86.8
p672
aV0.5
p673
aV-
aV6.59
p674
aa(lp675
V2015/2016
p676
aVManchester Ci..
p677
aVUCL
p678
aV6(4)
p679
aV578
p680
aV3
aV2
aV-
aV-
aV2
aV82.1
p681
aV0.3
p682
aV2
aV7.19
p683
aa(lp684
V2015/2016
p685
aVManchester Ci..
p686
aVEPL
p687
aV23(8)
p688
aV1928
p689
aV6
aV2
aV1
aV-
aV1.7
p690
aV85.3
p691
aV0.3
p692
aV-
aV6.78
p693
aa(lp694
V2014/2015
p695
aVLiverpool
p696
aVUCL
p697
aV5(1)
p698
aV463
p699
aV-
aV1
aV1
aV-
aV2.2
p700
aV78.5
p701
aV-
aV1
aV6.92
p702
aa(lp703
V2014/2015
p704
aVLiverpool
p705
aVUEL
p706
aV1(1)
p707
aV133
p708
aV-
aV-
aV-
aV-
aV1
aV74.5
p709
aV-
aV-
aV6.06
p710
aa(lp711
V2014/2015
p712
aVLiverpool
p713
aVEPL
p714
aV34(1)
p715
aV3053
p716
aV7
aV7
aV5
aV-
aV2.4
p717
aV81.1
p718
aV0.1
p719
aV3
aV7.27
p720
aa(lp721
V2016
p722
aVEngland
p723
aVUEC
p724
aV3
aV193
p725
aV-
aV-
aV-
aV-
aV0.7
p726
aV77.2
p727
aV0.7
p728
aV-
aV6.55
p729
aa(lp730
V2013/2014
p731
aVLiverpool
p732
aVEPL
p733
aV24(9)
p734
aV2221
p735
aV9
aV5
aV3
aV-
aV1.4
p736
aV81.7
p737
aV0.3
p738
aV2
aV7.40
p739
aa(lp740
V2014
p741
aVEngland
p742
aVWC
p743
aV2(1)
p744
aV183
p745
aV-
aV-
aV1
aV-
aV1.3
p746
aV88.2
p747
aV0.7
p748
aV-
aV6.54
p749
aa(lp750
V2012/2013
p751
aVLiverpool
p752
aVUEL
p753
aV1(6)
p754
aV187
p755
aV-
aV-
aV-
aV-
aV0.6
p756
aV79.7
p757
aV0.3
p758
aV-
aV6.14
p759
aa(lp760
V2012/2013
p761
aVLiverpool
p762
aVEPL
p763
aV19(5)
p764
aV1749
p765
aV2
aV2
aV1
aV-
aV1.4
p766
aV84.5
p767
aV0.2
p768
aV1
aV6.97
p769
aa(lp770
V2011/2012
p771
aVLiverpool
p772
aVEPL
p773
aV0(3)
p774
aV25
p775
aV-
aV-
aV-
aV-
aV0.7
p776
aV86.7
p777
aV-
aV-
aV6.10
p778
aa(lp779
VTotal / Average
p780
aV
aV
aV267
p781
aV19262
p782
aV70
p783
aV48
p784
aV29
p785
aV1
aV1.9
p786
aV82.7
p787
aV0.3
p788
aV24
p789
aV7.15
p790
aasS'id'
p791
V97692
p792
sb.