(i__main__
Player
p1
(dp2
S'name'
p3
VConor Coady 
p4
sS'offensive_data'
p5
(lp6
(lp7
a(lp8
V2018/2019
p9
aVWolverhampton..
p10
aVEPL
p11
aV17
p12
aV1530
p13
aV-
aV-
aV4
aV-
aV-
aV84.6
p14
aV1
aV1
aV6.59
p15
aa(lp16
V2017/2018
p17
aVWolverhampton..
p18
aVEC
p19
aV45
p20
aV3975
p21
aV1
aV2
aV4
aV1
aV-
aV90.3
p22
aV0.9
p23
aV-
aV6.81
p24
aa(lp25
V2016/2017
p26
aVWolverhampton..
p27
aVEC
p28
aV35(5)
p29
aV3162
p30
aV-
aV2
aV8
aV-
aV0.5
p31
aV71.1
p32
aV1.2
p33
aV-
aV6.73
p34
aa(lp35
V2015/2016
p36
aVWolverhampton..
p37
aVEC
p38
aV33(4)
p39
aV2923
p40
aV-
aV2
aV4
aV1
aV0.6
p41
aV77.7
p42
aV0.9
p43
aV-
aV6.54
p44
aa(lp45
V2014/2015
p46
aVHuddersfield
p47
aVEC
p48
aV42(3)
p49
aV3806
p50
aV3
aV3
aV6
aV-
aV0.4
p51
aV78.9
p52
aV0.6
p53
aV1
aV6.77
p54
aa(lp55
V2012/2013
p56
aVLiverpool
p57
aVUEL
p58
aV1
aV61
p59
aV-
aV-
aV-
aV-
aV-
aV91.1
p60
aV-
aV-
aV6.24
p61
aa(lp62
V2012/2013
p63
aVLiverpool
p64
aVEPL
p65
aV0(1)
p66
aV1
aV-
aV-
aV-
aV-
aV-
aV100
p67
aV-
aV-
aV6.01
p68
aa(lp69
VTotal / Average
p70
aV
aV
aV186
p71
aV15458
p72
aV4
aV9
aV26
p73
aV2
aV0.3
p74
aV80.4
p75
aV0.9
p76
aV2
aV6.70
p77
aasS'url'
p78
S'https://www.whoscored.com/Players/97710/History/'
p79
sS'passing_data'
p80
(lp81
(lp82
a(lp83
V2018/2019
p84
aVWolverhampton..
p85
aVEPL
p86
aV17
p87
aV1530
p88
aV-
aV-
aV4
aV-
aV-
aV84.6
p89
aV1
aV1
aV6.59
p90
aa(lp91
V2017/2018
p92
aVWolverhampton..
p93
aVEC
p94
aV45
p95
aV3975
p96
aV1
aV2
aV4
aV1
aV-
aV90.3
p97
aV0.9
p98
aV-
aV6.81
p99
aa(lp100
V2016/2017
p101
aVWolverhampton..
p102
aVEC
p103
aV35(5)
p104
aV3162
p105
aV-
aV2
aV8
aV-
aV0.5
p106
aV71.1
p107
aV1.2
p108
aV-
aV6.73
p109
aa(lp110
V2015/2016
p111
aVWolverhampton..
p112
aVEC
p113
aV33(4)
p114
aV2923
p115
aV-
aV2
aV4
aV1
aV0.6
p116
aV77.7
p117
aV0.9
p118
aV-
aV6.54
p119
aa(lp120
V2014/2015
p121
aVHuddersfield
p122
aVEC
p123
aV42(3)
p124
aV3806
p125
aV3
aV3
aV6
aV-
aV0.4
p126
aV78.9
p127
aV0.6
p128
aV1
aV6.77
p129
aa(lp130
V2012/2013
p131
aVLiverpool
p132
aVUEL
p133
aV1
aV61
p134
aV-
aV-
aV-
aV-
aV-
aV91.1
p135
aV-
aV-
aV6.24
p136
aa(lp137
V2012/2013
p138
aVLiverpool
p139
aVEPL
p140
aV0(1)
p141
aV1
aV-
aV-
aV-
aV-
aV-
aV100
p142
aV-
aV-
aV6.01
p143
aa(lp144
VTotal / Average
p145
aV
aV
aV186
p146
aV15458
p147
aV4
aV9
aV26
p148
aV2
aV0.3
p149
aV80.4
p150
aV0.9
p151
aV2
aV6.70
p152
aasS'defensive_data'
p153
(lp154
(lp155
a(lp156
V2018/2019
p157
aVWolverhampton..
p158
aVEPL
p159
aV17
p160
aV1530
p161
aV-
aV-
aV4
aV-
aV-
aV84.6
p162
aV1
aV1
aV6.59
p163
aa(lp164
V2017/2018
p165
aVWolverhampton..
p166
aVEC
p167
aV45
p168
aV3975
p169
aV1
aV2
aV4
aV1
aV-
aV90.3
p170
aV0.9
p171
aV-
aV6.81
p172
aa(lp173
V2016/2017
p174
aVWolverhampton..
p175
aVEC
p176
aV35(5)
p177
aV3162
p178
aV-
aV2
aV8
aV-
aV0.5
p179
aV71.1
p180
aV1.2
p181
aV-
aV6.73
p182
aa(lp183
V2015/2016
p184
aVWolverhampton..
p185
aVEC
p186
aV33(4)
p187
aV2923
p188
aV-
aV2
aV4
aV1
aV0.6
p189
aV77.7
p190
aV0.9
p191
aV-
aV6.54
p192
aa(lp193
V2014/2015
p194
aVHuddersfield
p195
aVEC
p196
aV42(3)
p197
aV3806
p198
aV3
aV3
aV6
aV-
aV0.4
p199
aV78.9
p200
aV0.6
p201
aV1
aV6.77
p202
aa(lp203
V2012/2013
p204
aVLiverpool
p205
aVUEL
p206
aV1
aV61
p207
aV-
aV-
aV-
aV-
aV-
aV91.1
p208
aV-
aV-
aV6.24
p209
aa(lp210
V2012/2013
p211
aVLiverpool
p212
aVEPL
p213
aV0(1)
p214
aV1
aV-
aV-
aV-
aV-
aV-
aV100
p215
aV-
aV-
aV6.01
p216
aa(lp217
VTotal / Average
p218
aV
aV
aV186
p219
aV15458
p220
aV4
aV9
aV26
p221
aV2
aV0.3
p222
aV80.4
p223
aV0.9
p224
aV2
aV6.70
p225
aasS'sumary_data'
p226
(lp227
(lp228
a(lp229
V2018/2019
p230
aVWolverhampton..
p231
aVEPL
p232
aV17
p233
aV1530
p234
aV-
aV-
aV4
aV-
aV-
aV84.6
p235
aV1
aV1
aV6.59
p236
aa(lp237
V2017/2018
p238
aVWolverhampton..
p239
aVEC
p240
aV45
p241
aV3975
p242
aV1
aV2
aV4
aV1
aV-
aV90.3
p243
aV0.9
p244
aV-
aV6.81
p245
aa(lp246
V2016/2017
p247
aVWolverhampton..
p248
aVEC
p249
aV35(5)
p250
aV3162
p251
aV-
aV2
aV8
aV-
aV0.5
p252
aV71.1
p253
aV1.2
p254
aV-
aV6.73
p255
aa(lp256
V2015/2016
p257
aVWolverhampton..
p258
aVEC
p259
aV33(4)
p260
aV2923
p261
aV-
aV2
aV4
aV1
aV0.6
p262
aV77.7
p263
aV0.9
p264
aV-
aV6.54
p265
aa(lp266
V2014/2015
p267
aVHuddersfield
p268
aVEC
p269
aV42(3)
p270
aV3806
p271
aV3
aV3
aV6
aV-
aV0.4
p272
aV78.9
p273
aV0.6
p274
aV1
aV6.77
p275
aa(lp276
V2012/2013
p277
aVLiverpool
p278
aVUEL
p279
aV1
aV61
p280
aV-
aV-
aV-
aV-
aV-
aV91.1
p281
aV-
aV-
aV6.24
p282
aa(lp283
V2012/2013
p284
aVLiverpool
p285
aVEPL
p286
aV0(1)
p287
aV1
aV-
aV-
aV-
aV-
aV-
aV100
p288
aV-
aV-
aV6.01
p289
aa(lp290
VTotal / Average
p291
aV
aV
aV186
p292
aV15458
p293
aV4
aV9
aV26
p294
aV2
aV0.3
p295
aV80.4
p296
aV0.9
p297
aV2
aV6.70
p298
aasS'id'
p299
V97710
p300
sb.