(i__main__
Player
p1
(dp2
S'name'
p3
VPaul Pogba 
p4
sS'offensive_data'
p5
(lp6
(lp7
a(lp8
V2018/2019
p9
aVManchester Un..
p10
aVEPL
p11
aV13(1)
p12
aV1138
p13
aV3
aV3
aV2
aV-
aV2.9
p14
aV82.8
p15
aV1.8
p16
aV2
aV7.04
p17
aa(lp18
V2018/2019
p19
aVManchester Un..
p20
aVUCL
p21
aV5(1)
p22
aV461
p23
aV2
aV1
aV-
aV-
aV2
aV85.7
p24
aV1.2
p25
aV1
aV7.32
p26
aa(lp27
V2018/2019
p28
aVFrance
p29
aVUNL
p30
aV3
aV270
p31
aV-
aV-
aV-
aV-
aV1.7
p32
aV84
p33
aV1.3
p34
aV-
aV6.72
p35
aa(lp36
V2017/2018
p37
aVManchester Un..
p38
aVUCL
p39
aV3(2)
p40
aV279
p41
aV-
aV1
aV-
aV-
aV1
aV86
p42
aV0.6
p43
aV-
aV6.83
p44
aa(lp45
V2017/2018
p46
aVManchester Un..
p47
aVEPL
p48
aV25(2)
p49
aV2151
p50
aV6
aV10
p51
aV5
aV1
aV2.8
p52
aV85.3
p53
aV1.9
p54
aV4
aV7.48
p55
aa(lp56
V2016/2017
p57
aVManchester Un..
p58
aVEPL
p59
aV29(1)
p60
aV2610
p61
aV5
aV4
aV7
aV-
aV3.1
p62
aV85.1
p63
aV2.8
p64
aV4
aV7.72
p65
aa(lp66
V2016/2017
p67
aVManchester Un..
p68
aVUEL
p69
aV15
p70
aV1263
p71
aV3
aV1
aV2
aV-
aV3
aV83.2
p72
aV2.9
p73
aV5
aV7.74
p74
aa(lp75
V2015/2016
p76
aVJuventus
p77
aVISA
p78
aV33(2)
p79
aV3019
p80
aV8
aV12
p81
aV10
p82
aV-
aV3.5
p83
aV83.4
p84
aV1.8
p85
aV8
aV7.81
p86
aa(lp87
V2018
p88
aVFrance
p89
aVWC
p90
aV6
aV539
p91
aV1
aV-
aV1
aV-
aV1.2
p92
aV80.2
p93
aV3.3
p94
aV1
aV7.49
p95
aa(lp96
V2015/2016
p97
aVJuventus
p98
aVUCL
p99
aV8
aV750
p100
aV1
aV2
aV-
aV-
aV3
aV77.7
p101
aV2
aV1
aV7.62
p102
aa(lp103
V2014/2015
p104
aVJuventus
p105
aVISA
p106
aV24(2)
p107
aV2110
p108
aV8
aV3
aV4
aV-
aV2.2
p109
aV83.8
p110
aV1.4
p111
aV3
aV7.67
p112
aa(lp113
V2014/2015
p114
aVJuventus
p115
aVUCL
p116
aV10
p117
aV833
p118
aV1
aV3
aV3
aV-
aV1.4
p119
aV84.1
p120
aV2.1
p121
aV1
aV7.26
p122
aa(lp123
V2016
p124
aVFrance
p125
aVUEC
p126
aV6(1)
p127
aV602
p128
aV1
aV-
aV1
aV-
aV2.3
p129
aV88.3
p130
aV1.4
p131
aV1
aV7.46
p132
aa(lp133
V2013/2014
p134
aVJuventus
p135
aVISA
p136
aV33(3)
p137
aV3068
p138
aV7
aV7
aV4
aV-
aV2
aV83.8
p139
aV2.2
p140
aV6
aV7.65
p141
aa(lp142
V2013/2014
p143
aVJuventus
p144
aVUCL
p145
aV6
aV540
p146
aV-
aV1
aV-
aV-
aV2.7
p147
aV76.3
p148
aV2.3
p149
aV-
aV7.21
p150
aa(lp151
V2013/2014
p152
aVJuventus
p153
aVUEL
p154
aV6(2)
p155
aV517
p156
aV1
aV-
aV1
aV-
aV1.9
p157
aV76.3
p158
aV1.9
p159
aV-
aV7.15
p160
aa(lp161
V2014
p162
aVFrance
p163
aVWC
p164
aV4(1)
p165
aV355
p166
aV1
aV1
aV1
aV-
aV2
aV81.7
p167
aV1.4
p168
aV1
aV7.39
p169
aa(lp170
V2012/2013
p171
aVJuventus
p172
aVISA
p173
aV18(9)
p174
aV1732
p175
aV5
aV-
aV1
aV1
aV2.1
p176
aV82.9
p177
aV2.3
p178
aV4
aV7.42
p179
aa(lp180
V2012/2013
p181
aVJuventus
p182
aVUCL
p183
aV3(5)
p184
aV338
p185
aV-
aV-
aV1
aV-
aV0.8
p186
aV78.7
p187
aV1
aV-
aV6.64
p188
aa(lp189
V2011/2012
p190
aVManchester Un..
p191
aVEPL
p192
aV0(3)
p193
aV67
p194
aV-
aV-
aV-
aV-
aV1.3
p195
aV95.3
p196
aV-
aV-
aV6.56
p197
aa(lp198
VTotal / Average
p199
aV
aV
aV285
p200
aV22642
p201
aV53
p202
aV49
p203
aV43
p204
aV2
aV2.4
p205
aV83.4
p206
aV2
aV42
p207
aV7.49
p208
aasS'url'
p209
S'https://www.whoscored.com/Players/97752/History/'
p210
sS'passing_data'
p211
(lp212
(lp213
a(lp214
V2018/2019
p215
aVManchester Un..
p216
aVEPL
p217
aV13(1)
p218
aV1138
p219
aV3
aV3
aV2
aV-
aV2.9
p220
aV82.8
p221
aV1.8
p222
aV2
aV7.04
p223
aa(lp224
V2018/2019
p225
aVManchester Un..
p226
aVUCL
p227
aV5(1)
p228
aV461
p229
aV2
aV1
aV-
aV-
aV2
aV85.7
p230
aV1.2
p231
aV1
aV7.32
p232
aa(lp233
V2018/2019
p234
aVFrance
p235
aVUNL
p236
aV3
aV270
p237
aV-
aV-
aV-
aV-
aV1.7
p238
aV84
p239
aV1.3
p240
aV-
aV6.72
p241
aa(lp242
V2017/2018
p243
aVManchester Un..
p244
aVUCL
p245
aV3(2)
p246
aV279
p247
aV-
aV1
aV-
aV-
aV1
aV86
p248
aV0.6
p249
aV-
aV6.83
p250
aa(lp251
V2017/2018
p252
aVManchester Un..
p253
aVEPL
p254
aV25(2)
p255
aV2151
p256
aV6
aV10
p257
aV5
aV1
aV2.8
p258
aV85.3
p259
aV1.9
p260
aV4
aV7.48
p261
aa(lp262
V2016/2017
p263
aVManchester Un..
p264
aVEPL
p265
aV29(1)
p266
aV2610
p267
aV5
aV4
aV7
aV-
aV3.1
p268
aV85.1
p269
aV2.8
p270
aV4
aV7.72
p271
aa(lp272
V2016/2017
p273
aVManchester Un..
p274
aVUEL
p275
aV15
p276
aV1263
p277
aV3
aV1
aV2
aV-
aV3
aV83.2
p278
aV2.9
p279
aV5
aV7.74
p280
aa(lp281
V2015/2016
p282
aVJuventus
p283
aVISA
p284
aV33(2)
p285
aV3019
p286
aV8
aV12
p287
aV10
p288
aV-
aV3.5
p289
aV83.4
p290
aV1.8
p291
aV8
aV7.81
p292
aa(lp293
V2018
p294
aVFrance
p295
aVWC
p296
aV6
aV539
p297
aV1
aV-
aV1
aV-
aV1.2
p298
aV80.2
p299
aV3.3
p300
aV1
aV7.49
p301
aa(lp302
V2015/2016
p303
aVJuventus
p304
aVUCL
p305
aV8
aV750
p306
aV1
aV2
aV-
aV-
aV3
aV77.7
p307
aV2
aV1
aV7.62
p308
aa(lp309
V2014/2015
p310
aVJuventus
p311
aVISA
p312
aV24(2)
p313
aV2110
p314
aV8
aV3
aV4
aV-
aV2.2
p315
aV83.8
p316
aV1.4
p317
aV3
aV7.67
p318
aa(lp319
V2014/2015
p320
aVJuventus
p321
aVUCL
p322
aV10
p323
aV833
p324
aV1
aV3
aV3
aV-
aV1.4
p325
aV84.1
p326
aV2.1
p327
aV1
aV7.26
p328
aa(lp329
V2016
p330
aVFrance
p331
aVUEC
p332
aV6(1)
p333
aV602
p334
aV1
aV-
aV1
aV-
aV2.3
p335
aV88.3
p336
aV1.4
p337
aV1
aV7.46
p338
aa(lp339
V2013/2014
p340
aVJuventus
p341
aVISA
p342
aV33(3)
p343
aV3068
p344
aV7
aV7
aV4
aV-
aV2
aV83.8
p345
aV2.2
p346
aV6
aV7.65
p347
aa(lp348
V2013/2014
p349
aVJuventus
p350
aVUCL
p351
aV6
aV540
p352
aV-
aV1
aV-
aV-
aV2.7
p353
aV76.3
p354
aV2.3
p355
aV-
aV7.21
p356
aa(lp357
V2013/2014
p358
aVJuventus
p359
aVUEL
p360
aV6(2)
p361
aV517
p362
aV1
aV-
aV1
aV-
aV1.9
p363
aV76.3
p364
aV1.9
p365
aV-
aV7.15
p366
aa(lp367
V2014
p368
aVFrance
p369
aVWC
p370
aV4(1)
p371
aV355
p372
aV1
aV1
aV1
aV-
aV2
aV81.7
p373
aV1.4
p374
aV1
aV7.39
p375
aa(lp376
V2012/2013
p377
aVJuventus
p378
aVISA
p379
aV18(9)
p380
aV1732
p381
aV5
aV-
aV1
aV1
aV2.1
p382
aV82.9
p383
aV2.3
p384
aV4
aV7.42
p385
aa(lp386
V2012/2013
p387
aVJuventus
p388
aVUCL
p389
aV3(5)
p390
aV338
p391
aV-
aV-
aV1
aV-
aV0.8
p392
aV78.7
p393
aV1
aV-
aV6.64
p394
aa(lp395
V2011/2012
p396
aVManchester Un..
p397
aVEPL
p398
aV0(3)
p399
aV67
p400
aV-
aV-
aV-
aV-
aV1.3
p401
aV95.3
p402
aV-
aV-
aV6.56
p403
aa(lp404
VTotal / Average
p405
aV
aV
aV285
p406
aV22642
p407
aV53
p408
aV49
p409
aV43
p410
aV2
aV2.4
p411
aV83.4
p412
aV2
aV42
p413
aV7.49
p414
aasS'defensive_data'
p415
(lp416
(lp417
a(lp418
V2018/2019
p419
aVManchester Un..
p420
aVEPL
p421
aV13(1)
p422
aV1138
p423
aV3
aV3
aV2
aV-
aV2.9
p424
aV82.8
p425
aV1.8
p426
aV2
aV7.04
p427
aa(lp428
V2018/2019
p429
aVManchester Un..
p430
aVUCL
p431
aV5(1)
p432
aV461
p433
aV2
aV1
aV-
aV-
aV2
aV85.7
p434
aV1.2
p435
aV1
aV7.32
p436
aa(lp437
V2018/2019
p438
aVFrance
p439
aVUNL
p440
aV3
aV270
p441
aV-
aV-
aV-
aV-
aV1.7
p442
aV84
p443
aV1.3
p444
aV-
aV6.72
p445
aa(lp446
V2017/2018
p447
aVManchester Un..
p448
aVUCL
p449
aV3(2)
p450
aV279
p451
aV-
aV1
aV-
aV-
aV1
aV86
p452
aV0.6
p453
aV-
aV6.83
p454
aa(lp455
V2017/2018
p456
aVManchester Un..
p457
aVEPL
p458
aV25(2)
p459
aV2151
p460
aV6
aV10
p461
aV5
aV1
aV2.8
p462
aV85.3
p463
aV1.9
p464
aV4
aV7.48
p465
aa(lp466
V2016/2017
p467
aVManchester Un..
p468
aVEPL
p469
aV29(1)
p470
aV2610
p471
aV5
aV4
aV7
aV-
aV3.1
p472
aV85.1
p473
aV2.8
p474
aV4
aV7.72
p475
aa(lp476
V2016/2017
p477
aVManchester Un..
p478
aVUEL
p479
aV15
p480
aV1263
p481
aV3
aV1
aV2
aV-
aV3
aV83.2
p482
aV2.9
p483
aV5
aV7.74
p484
aa(lp485
V2015/2016
p486
aVJuventus
p487
aVISA
p488
aV33(2)
p489
aV3019
p490
aV8
aV12
p491
aV10
p492
aV-
aV3.5
p493
aV83.4
p494
aV1.8
p495
aV8
aV7.81
p496
aa(lp497
V2018
p498
aVFrance
p499
aVWC
p500
aV6
aV539
p501
aV1
aV-
aV1
aV-
aV1.2
p502
aV80.2
p503
aV3.3
p504
aV1
aV7.49
p505
aa(lp506
V2015/2016
p507
aVJuventus
p508
aVUCL
p509
aV8
aV750
p510
aV1
aV2
aV-
aV-
aV3
aV77.7
p511
aV2
aV1
aV7.62
p512
aa(lp513
V2014/2015
p514
aVJuventus
p515
aVISA
p516
aV24(2)
p517
aV2110
p518
aV8
aV3
aV4
aV-
aV2.2
p519
aV83.8
p520
aV1.4
p521
aV3
aV7.67
p522
aa(lp523
V2014/2015
p524
aVJuventus
p525
aVUCL
p526
aV10
p527
aV833
p528
aV1
aV3
aV3
aV-
aV1.4
p529
aV84.1
p530
aV2.1
p531
aV1
aV7.26
p532
aa(lp533
V2016
p534
aVFrance
p535
aVUEC
p536
aV6(1)
p537
aV602
p538
aV1
aV-
aV1
aV-
aV2.3
p539
aV88.3
p540
aV1.4
p541
aV1
aV7.46
p542
aa(lp543
V2013/2014
p544
aVJuventus
p545
aVISA
p546
aV33(3)
p547
aV3068
p548
aV7
aV7
aV4
aV-
aV2
aV83.8
p549
aV2.2
p550
aV6
aV7.65
p551
aa(lp552
V2013/2014
p553
aVJuventus
p554
aVUCL
p555
aV6
aV540
p556
aV-
aV1
aV-
aV-
aV2.7
p557
aV76.3
p558
aV2.3
p559
aV-
aV7.21
p560
aa(lp561
V2013/2014
p562
aVJuventus
p563
aVUEL
p564
aV6(2)
p565
aV517
p566
aV1
aV-
aV1
aV-
aV1.9
p567
aV76.3
p568
aV1.9
p569
aV-
aV7.15
p570
aa(lp571
V2014
p572
aVFrance
p573
aVWC
p574
aV4(1)
p575
aV355
p576
aV1
aV1
aV1
aV-
aV2
aV81.7
p577
aV1.4
p578
aV1
aV7.39
p579
aa(lp580
V2012/2013
p581
aVJuventus
p582
aVISA
p583
aV18(9)
p584
aV1732
p585
aV5
aV-
aV1
aV1
aV2.1
p586
aV82.9
p587
aV2.3
p588
aV4
aV7.42
p589
aa(lp590
V2012/2013
p591
aVJuventus
p592
aVUCL
p593
aV3(5)
p594
aV338
p595
aV-
aV-
aV1
aV-
aV0.8
p596
aV78.7
p597
aV1
aV-
aV6.64
p598
aa(lp599
V2011/2012
p600
aVManchester Un..
p601
aVEPL
p602
aV0(3)
p603
aV67
p604
aV-
aV-
aV-
aV-
aV1.3
p605
aV95.3
p606
aV-
aV-
aV6.56
p607
aa(lp608
VTotal / Average
p609
aV
aV
aV285
p610
aV22642
p611
aV53
p612
aV49
p613
aV43
p614
aV2
aV2.4
p615
aV83.4
p616
aV2
aV42
p617
aV7.49
p618
aasS'sumary_data'
p619
(lp620
(lp621
a(lp622
V2018/2019
p623
aVManchester Un..
p624
aVEPL
p625
aV13(1)
p626
aV1138
p627
aV3
aV3
aV2
aV-
aV2.9
p628
aV82.8
p629
aV1.8
p630
aV2
aV7.04
p631
aa(lp632
V2018/2019
p633
aVManchester Un..
p634
aVUCL
p635
aV5(1)
p636
aV461
p637
aV2
aV1
aV-
aV-
aV2
aV85.7
p638
aV1.2
p639
aV1
aV7.32
p640
aa(lp641
V2018/2019
p642
aVFrance
p643
aVUNL
p644
aV3
aV270
p645
aV-
aV-
aV-
aV-
aV1.7
p646
aV84
p647
aV1.3
p648
aV-
aV6.72
p649
aa(lp650
V2017/2018
p651
aVManchester Un..
p652
aVUCL
p653
aV3(2)
p654
aV279
p655
aV-
aV1
aV-
aV-
aV1
aV86
p656
aV0.6
p657
aV-
aV6.83
p658
aa(lp659
V2017/2018
p660
aVManchester Un..
p661
aVEPL
p662
aV25(2)
p663
aV2151
p664
aV6
aV10
p665
aV5
aV1
aV2.8
p666
aV85.3
p667
aV1.9
p668
aV4
aV7.48
p669
aa(lp670
V2016/2017
p671
aVManchester Un..
p672
aVEPL
p673
aV29(1)
p674
aV2610
p675
aV5
aV4
aV7
aV-
aV3.1
p676
aV85.1
p677
aV2.8
p678
aV4
aV7.72
p679
aa(lp680
V2016/2017
p681
aVManchester Un..
p682
aVUEL
p683
aV15
p684
aV1263
p685
aV3
aV1
aV2
aV-
aV3
aV83.2
p686
aV2.9
p687
aV5
aV7.74
p688
aa(lp689
V2015/2016
p690
aVJuventus
p691
aVISA
p692
aV33(2)
p693
aV3019
p694
aV8
aV12
p695
aV10
p696
aV-
aV3.5
p697
aV83.4
p698
aV1.8
p699
aV8
aV7.81
p700
aa(lp701
V2018
p702
aVFrance
p703
aVWC
p704
aV6
aV539
p705
aV1
aV-
aV1
aV-
aV1.2
p706
aV80.2
p707
aV3.3
p708
aV1
aV7.49
p709
aa(lp710
V2015/2016
p711
aVJuventus
p712
aVUCL
p713
aV8
aV750
p714
aV1
aV2
aV-
aV-
aV3
aV77.7
p715
aV2
aV1
aV7.62
p716
aa(lp717
V2014/2015
p718
aVJuventus
p719
aVISA
p720
aV24(2)
p721
aV2110
p722
aV8
aV3
aV4
aV-
aV2.2
p723
aV83.8
p724
aV1.4
p725
aV3
aV7.67
p726
aa(lp727
V2014/2015
p728
aVJuventus
p729
aVUCL
p730
aV10
p731
aV833
p732
aV1
aV3
aV3
aV-
aV1.4
p733
aV84.1
p734
aV2.1
p735
aV1
aV7.26
p736
aa(lp737
V2016
p738
aVFrance
p739
aVUEC
p740
aV6(1)
p741
aV602
p742
aV1
aV-
aV1
aV-
aV2.3
p743
aV88.3
p744
aV1.4
p745
aV1
aV7.46
p746
aa(lp747
V2013/2014
p748
aVJuventus
p749
aVISA
p750
aV33(3)
p751
aV3068
p752
aV7
aV7
aV4
aV-
aV2
aV83.8
p753
aV2.2
p754
aV6
aV7.65
p755
aa(lp756
V2013/2014
p757
aVJuventus
p758
aVUCL
p759
aV6
aV540
p760
aV-
aV1
aV-
aV-
aV2.7
p761
aV76.3
p762
aV2.3
p763
aV-
aV7.21
p764
aa(lp765
V2013/2014
p766
aVJuventus
p767
aVUEL
p768
aV6(2)
p769
aV517
p770
aV1
aV-
aV1
aV-
aV1.9
p771
aV76.3
p772
aV1.9
p773
aV-
aV7.15
p774
aa(lp775
V2014
p776
aVFrance
p777
aVWC
p778
aV4(1)
p779
aV355
p780
aV1
aV1
aV1
aV-
aV2
aV81.7
p781
aV1.4
p782
aV1
aV7.39
p783
aa(lp784
V2012/2013
p785
aVJuventus
p786
aVISA
p787
aV18(9)
p788
aV1732
p789
aV5
aV-
aV1
aV1
aV2.1
p790
aV82.9
p791
aV2.3
p792
aV4
aV7.42
p793
aa(lp794
V2012/2013
p795
aVJuventus
p796
aVUCL
p797
aV3(5)
p798
aV338
p799
aV-
aV-
aV1
aV-
aV0.8
p800
aV78.7
p801
aV1
aV-
aV6.64
p802
aa(lp803
V2011/2012
p804
aVManchester Un..
p805
aVEPL
p806
aV0(3)
p807
aV67
p808
aV-
aV-
aV-
aV-
aV1.3
p809
aV95.3
p810
aV-
aV-
aV6.56
p811
aa(lp812
VTotal / Average
p813
aV
aV
aV285
p814
aV22642
p815
aV53
p816
aV49
p817
aV43
p818
aV2
aV2.4
p819
aV83.4
p820
aV2
aV42
p821
aV7.49
p822
aasS'id'
p823
V97752
p824
sb.