(i__main__
Player
p1
(dp2
S'name'
p3
VGerard Deulofeu 
p4
sS'offensive_data'
p5
(lp6
(lp7
a(lp8
V2018/2019
p9
aVWatford
p10
aVEPL
p11
aV7(3)
p12
aV563
p13
aV2
aV2
aV1
aV-
aV1.6
p14
aV80.5
p15
aV0.2
p16
aV1
aV6.72
p17
aa(lp18
V2017/2018
p19
aVBarcelona
p20
aVSLL
p21
aV5(5)
p22
aV503
p23
aV1
aV1
aV1
aV-
aV0.8
p24
aV81.1
p25
aV0.2
p26
aV-
aV6.80
p27
aa(lp28
V2017/2018
p29
aVBarcelona
p30
aVUCL
p31
aV2(1)
p32
aV147
p33
aV-
aV-
aV-
aV-
aV1.3
p34
aV82.1
p35
aV-
aV-
aV6.67
p36
aa(lp37
V2017/2018
p38
aVWatford
p39
aVEPL
p40
aV5(2)
p41
aV438
p42
aV1
aV-
aV-
aV-
aV1.1
p43
aV74.6
p44
aV-
aV1
aV6.80
p45
aa(lp46
V2016/2017
p47
aVAC Milan
p48
aVISA
p49
aV16(1)
p50
aV1463
p51
aV4
aV3
aV4
aV-
aV2.2
p52
aV82.3
p53
aV0.1
p54
aV1
aV7.30
p55
aa(lp56
V2016/2017
p57
aVEverton
p58
aVEPL
p59
aV4(7)
p60
aV458
p61
aV-
aV-
aV1
aV-
aV0.6
p62
aV72
p63
aV-
aV-
aV6.52
p64
aa(lp65
V2015/2016
p66
aVEverton
p67
aVEPL
p68
aV16(10)
p69
aV1385
p70
aV2
aV8
aV2
aV-
aV0.3
p71
aV73.6
p72
aV-
aV-
aV6.81
p73
aa(lp74
V2014/2015
p75
aVSevilla
p76
aVSLL
p77
aV10(7)
p78
aV783
p79
aV1
aV5
aV-
aV-
aV0.9
p80
aV72.8
p81
aV0.1
p82
aV-
aV6.71
p83
aa(lp84
V2014/2015
p85
aVSevilla
p86
aVUEL
p87
aV2(3)
p88
aV202
p89
aV-
aV2
aV-
aV-
aV1.6
p90
aV77.3
p91
aV0.2
p92
aV1
aV6.95
p93
aa(lp94
V2013/2014
p95
aVEverton
p96
aVEPL
p97
aV9(16)
p98
aV895
p99
aV3
aV3
aV1
aV-
aV1.2
p100
aV78.5
p101
aV-
aV1
aV6.62
p102
aa(lp103
V2012/2013
p104
aVBarcelona
p105
aVSLL
p106
aV0(1)
p107
aV25
p108
aV-
aV-
aV-
aV-
aV-
aV90.9
p109
aV-
aV-
aV6.21
p110
aa(lp111
V2012/2013
p112
aVBarcelona
p113
aVUCL
p114
aV0(2)
p115
aV16
p116
aV-
aV-
aV-
aV-
aV0.5
p117
aV42.9
p118
aV-
aV-
aV6.08
p119
aa(lp120
V2011/2012
p121
aVBarcelona
p122
aVSLL
p123
aV0(1)
p124
aV26
p125
aV-
aV-
aV-
aV-
aV-
aV50
p126
aV-
aV-
aV6.11
p127
aa(lp128
V2011/2012
p129
aVBarcelona
p130
aVUCL
p131
aV0(1)
p132
aV20
p133
aV-
aV-
aV-
aV-
aV-
aV66.7
p134
aV-
aV-
aV6.11
p135
aa(lp136
VTotal / Average
p137
aV
aV
aV136
p138
aV6924
p139
aV14
p140
aV24
p141
aV10
p142
aV0
aV1.1
p143
aV76.2
p144
aV0.1
p145
aV5
aV6.77
p146
aasS'url'
p147
S'https://www.whoscored.com/Players/98317/History/'
p148
sS'passing_data'
p149
(lp150
(lp151
a(lp152
V2018/2019
p153
aVWatford
p154
aVEPL
p155
aV7(3)
p156
aV563
p157
aV2
aV2
aV1
aV-
aV1.6
p158
aV80.5
p159
aV0.2
p160
aV1
aV6.72
p161
aa(lp162
V2017/2018
p163
aVBarcelona
p164
aVSLL
p165
aV5(5)
p166
aV503
p167
aV1
aV1
aV1
aV-
aV0.8
p168
aV81.1
p169
aV0.2
p170
aV-
aV6.80
p171
aa(lp172
V2017/2018
p173
aVBarcelona
p174
aVUCL
p175
aV2(1)
p176
aV147
p177
aV-
aV-
aV-
aV-
aV1.3
p178
aV82.1
p179
aV-
aV-
aV6.67
p180
aa(lp181
V2017/2018
p182
aVWatford
p183
aVEPL
p184
aV5(2)
p185
aV438
p186
aV1
aV-
aV-
aV-
aV1.1
p187
aV74.6
p188
aV-
aV1
aV6.80
p189
aa(lp190
V2016/2017
p191
aVAC Milan
p192
aVISA
p193
aV16(1)
p194
aV1463
p195
aV4
aV3
aV4
aV-
aV2.2
p196
aV82.3
p197
aV0.1
p198
aV1
aV7.30
p199
aa(lp200
V2016/2017
p201
aVEverton
p202
aVEPL
p203
aV4(7)
p204
aV458
p205
aV-
aV-
aV1
aV-
aV0.6
p206
aV72
p207
aV-
aV-
aV6.52
p208
aa(lp209
V2015/2016
p210
aVEverton
p211
aVEPL
p212
aV16(10)
p213
aV1385
p214
aV2
aV8
aV2
aV-
aV0.3
p215
aV73.6
p216
aV-
aV-
aV6.81
p217
aa(lp218
V2014/2015
p219
aVSevilla
p220
aVSLL
p221
aV10(7)
p222
aV783
p223
aV1
aV5
aV-
aV-
aV0.9
p224
aV72.8
p225
aV0.1
p226
aV-
aV6.71
p227
aa(lp228
V2014/2015
p229
aVSevilla
p230
aVUEL
p231
aV2(3)
p232
aV202
p233
aV-
aV2
aV-
aV-
aV1.6
p234
aV77.3
p235
aV0.2
p236
aV1
aV6.95
p237
aa(lp238
V2013/2014
p239
aVEverton
p240
aVEPL
p241
aV9(16)
p242
aV895
p243
aV3
aV3
aV1
aV-
aV1.2
p244
aV78.5
p245
aV-
aV1
aV6.62
p246
aa(lp247
V2012/2013
p248
aVBarcelona
p249
aVSLL
p250
aV0(1)
p251
aV25
p252
aV-
aV-
aV-
aV-
aV-
aV90.9
p253
aV-
aV-
aV6.21
p254
aa(lp255
V2012/2013
p256
aVBarcelona
p257
aVUCL
p258
aV0(2)
p259
aV16
p260
aV-
aV-
aV-
aV-
aV0.5
p261
aV42.9
p262
aV-
aV-
aV6.08
p263
aa(lp264
V2011/2012
p265
aVBarcelona
p266
aVSLL
p267
aV0(1)
p268
aV26
p269
aV-
aV-
aV-
aV-
aV-
aV50
p270
aV-
aV-
aV6.11
p271
aa(lp272
V2011/2012
p273
aVBarcelona
p274
aVUCL
p275
aV0(1)
p276
aV20
p277
aV-
aV-
aV-
aV-
aV-
aV66.7
p278
aV-
aV-
aV6.11
p279
aa(lp280
VTotal / Average
p281
aV
aV
aV136
p282
aV6924
p283
aV14
p284
aV24
p285
aV10
p286
aV0
aV1.1
p287
aV76.2
p288
aV0.1
p289
aV5
aV6.77
p290
aasS'defensive_data'
p291
(lp292
(lp293
a(lp294
V2018/2019
p295
aVWatford
p296
aVEPL
p297
aV7(3)
p298
aV563
p299
aV2
aV2
aV1
aV-
aV1.6
p300
aV80.5
p301
aV0.2
p302
aV1
aV6.72
p303
aa(lp304
V2017/2018
p305
aVBarcelona
p306
aVSLL
p307
aV5(5)
p308
aV503
p309
aV1
aV1
aV1
aV-
aV0.8
p310
aV81.1
p311
aV0.2
p312
aV-
aV6.80
p313
aa(lp314
V2017/2018
p315
aVBarcelona
p316
aVUCL
p317
aV2(1)
p318
aV147
p319
aV-
aV-
aV-
aV-
aV1.3
p320
aV82.1
p321
aV-
aV-
aV6.67
p322
aa(lp323
V2017/2018
p324
aVWatford
p325
aVEPL
p326
aV5(2)
p327
aV438
p328
aV1
aV-
aV-
aV-
aV1.1
p329
aV74.6
p330
aV-
aV1
aV6.80
p331
aa(lp332
V2016/2017
p333
aVAC Milan
p334
aVISA
p335
aV16(1)
p336
aV1463
p337
aV4
aV3
aV4
aV-
aV2.2
p338
aV82.3
p339
aV0.1
p340
aV1
aV7.30
p341
aa(lp342
V2016/2017
p343
aVEverton
p344
aVEPL
p345
aV4(7)
p346
aV458
p347
aV-
aV-
aV1
aV-
aV0.6
p348
aV72
p349
aV-
aV-
aV6.52
p350
aa(lp351
V2015/2016
p352
aVEverton
p353
aVEPL
p354
aV16(10)
p355
aV1385
p356
aV2
aV8
aV2
aV-
aV0.3
p357
aV73.6
p358
aV-
aV-
aV6.81
p359
aa(lp360
V2014/2015
p361
aVSevilla
p362
aVSLL
p363
aV10(7)
p364
aV783
p365
aV1
aV5
aV-
aV-
aV0.9
p366
aV72.8
p367
aV0.1
p368
aV-
aV6.71
p369
aa(lp370
V2014/2015
p371
aVSevilla
p372
aVUEL
p373
aV2(3)
p374
aV202
p375
aV-
aV2
aV-
aV-
aV1.6
p376
aV77.3
p377
aV0.2
p378
aV1
aV6.95
p379
aa(lp380
V2013/2014
p381
aVEverton
p382
aVEPL
p383
aV9(16)
p384
aV895
p385
aV3
aV3
aV1
aV-
aV1.2
p386
aV78.5
p387
aV-
aV1
aV6.62
p388
aa(lp389
V2012/2013
p390
aVBarcelona
p391
aVSLL
p392
aV0(1)
p393
aV25
p394
aV-
aV-
aV-
aV-
aV-
aV90.9
p395
aV-
aV-
aV6.21
p396
aa(lp397
V2012/2013
p398
aVBarcelona
p399
aVUCL
p400
aV0(2)
p401
aV16
p402
aV-
aV-
aV-
aV-
aV0.5
p403
aV42.9
p404
aV-
aV-
aV6.08
p405
aa(lp406
V2011/2012
p407
aVBarcelona
p408
aVSLL
p409
aV0(1)
p410
aV26
p411
aV-
aV-
aV-
aV-
aV-
aV50
p412
aV-
aV-
aV6.11
p413
aa(lp414
V2011/2012
p415
aVBarcelona
p416
aVUCL
p417
aV0(1)
p418
aV20
p419
aV-
aV-
aV-
aV-
aV-
aV66.7
p420
aV-
aV-
aV6.11
p421
aa(lp422
VTotal / Average
p423
aV
aV
aV136
p424
aV6924
p425
aV14
p426
aV24
p427
aV10
p428
aV0
aV1.1
p429
aV76.2
p430
aV0.1
p431
aV5
aV6.77
p432
aasS'sumary_data'
p433
(lp434
(lp435
a(lp436
V2018/2019
p437
aVWatford
p438
aVEPL
p439
aV7(3)
p440
aV563
p441
aV2
aV2
aV1
aV-
aV1.6
p442
aV80.5
p443
aV0.2
p444
aV1
aV6.72
p445
aa(lp446
V2017/2018
p447
aVBarcelona
p448
aVSLL
p449
aV5(5)
p450
aV503
p451
aV1
aV1
aV1
aV-
aV0.8
p452
aV81.1
p453
aV0.2
p454
aV-
aV6.80
p455
aa(lp456
V2017/2018
p457
aVBarcelona
p458
aVUCL
p459
aV2(1)
p460
aV147
p461
aV-
aV-
aV-
aV-
aV1.3
p462
aV82.1
p463
aV-
aV-
aV6.67
p464
aa(lp465
V2017/2018
p466
aVWatford
p467
aVEPL
p468
aV5(2)
p469
aV438
p470
aV1
aV-
aV-
aV-
aV1.1
p471
aV74.6
p472
aV-
aV1
aV6.80
p473
aa(lp474
V2016/2017
p475
aVAC Milan
p476
aVISA
p477
aV16(1)
p478
aV1463
p479
aV4
aV3
aV4
aV-
aV2.2
p480
aV82.3
p481
aV0.1
p482
aV1
aV7.30
p483
aa(lp484
V2016/2017
p485
aVEverton
p486
aVEPL
p487
aV4(7)
p488
aV458
p489
aV-
aV-
aV1
aV-
aV0.6
p490
aV72
p491
aV-
aV-
aV6.52
p492
aa(lp493
V2015/2016
p494
aVEverton
p495
aVEPL
p496
aV16(10)
p497
aV1385
p498
aV2
aV8
aV2
aV-
aV0.3
p499
aV73.6
p500
aV-
aV-
aV6.81
p501
aa(lp502
V2014/2015
p503
aVSevilla
p504
aVSLL
p505
aV10(7)
p506
aV783
p507
aV1
aV5
aV-
aV-
aV0.9
p508
aV72.8
p509
aV0.1
p510
aV-
aV6.71
p511
aa(lp512
V2014/2015
p513
aVSevilla
p514
aVUEL
p515
aV2(3)
p516
aV202
p517
aV-
aV2
aV-
aV-
aV1.6
p518
aV77.3
p519
aV0.2
p520
aV1
aV6.95
p521
aa(lp522
V2013/2014
p523
aVEverton
p524
aVEPL
p525
aV9(16)
p526
aV895
p527
aV3
aV3
aV1
aV-
aV1.2
p528
aV78.5
p529
aV-
aV1
aV6.62
p530
aa(lp531
V2012/2013
p532
aVBarcelona
p533
aVSLL
p534
aV0(1)
p535
aV25
p536
aV-
aV-
aV-
aV-
aV-
aV90.9
p537
aV-
aV-
aV6.21
p538
aa(lp539
V2012/2013
p540
aVBarcelona
p541
aVUCL
p542
aV0(2)
p543
aV16
p544
aV-
aV-
aV-
aV-
aV0.5
p545
aV42.9
p546
aV-
aV-
aV6.08
p547
aa(lp548
V2011/2012
p549
aVBarcelona
p550
aVSLL
p551
aV0(1)
p552
aV26
p553
aV-
aV-
aV-
aV-
aV-
aV50
p554
aV-
aV-
aV6.11
p555
aa(lp556
V2011/2012
p557
aVBarcelona
p558
aVUCL
p559
aV0(1)
p560
aV20
p561
aV-
aV-
aV-
aV-
aV-
aV66.7
p562
aV-
aV-
aV6.11
p563
aa(lp564
VTotal / Average
p565
aV
aV
aV136
p566
aV6924
p567
aV14
p568
aV24
p569
aV10
p570
aV0
aV1.1
p571
aV76.2
p572
aV0.1
p573
aV5
aV6.77
p574
aasS'id'
p575
V98317
p576
sb.