(i__main__
Player
p1
(dp2
S'name'
p3
VHarry Maguire 
p4
sS'offensive_data'
p5
(lp6
(lp7
a(lp8
V2018/2019
p9
aVLeicester
p10
aVEPL
p11
aV12
p12
aV1017
p13
aV2
aV-
aV3
aV-
aV1
aV86.1
p14
aV3.5
p15
aV2
aV7.30
p16
aa(lp17
V2018/2019
p18
aVEngland
p19
aVUNL
p20
aV3
aV270
p21
aV-
aV-
aV1
aV-
aV0.7
p22
aV83
p23
aV2.3
p24
aV-
aV6.77
p25
aa(lp26
V2017/2018
p27
aVLeicester
p28
aVEPL
p29
aV38
p30
aV3420
p31
aV2
aV4
aV7
aV-
aV0.8
p32
aV78.4
p33
aV3.1
p34
aV1
aV7.08
p35
aa(lp36
V2016/2017
p37
aVHull
p38
aVEPL
p39
aV25(4)
p40
aV2307
p41
aV2
aV2
aV5
aV-
aV1.2
p42
aV76.2
p43
aV2.4
p44
aV3
aV7.07
p45
aa(lp46
V2018
p47
aVEngland
p48
aVWC
p49
aV6(1)
p50
aV645
p51
aV1
aV1
aV2
aV-
aV1.6
p52
aV88.8
p53
aV5.9
p54
aV1
aV7.22
p55
aa(lp56
V2015/2016
p57
aVHull
p58
aVEC
p59
aV17(7)
p60
aV1637
p61
aV-
aV-
aV4
aV-
aV1
aV77.3
p62
aV3.5
p63
aV1
aV7.00
p64
aa(lp65
V2014/2015
p66
aVWigan
p67
aVEC
p68
aV16
p69
aV1440
p70
aV1
aV1
aV4
aV-
aV0.8
p71
aV64.1
p72
aV3.9
p73
aV1
aV7.33
p74
aa(lp75
V2014/2015
p76
aVHull
p77
aVEPL
p78
aV0(3)
p79
aV92
p80
aV-
aV-
aV1
aV-
aV-
aV56.5
p81
aV3
aV-
aV6.96
p82
aa(lp83
VTotal / Average
p84
aV
aV
aV132
p85
aV10828
p86
aV8
aV8
aV27
p87
aV0
aV1
aV76.8
p88
aV3.3
p89
aV9
aV7.11
p90
aasS'url'
p91
S'https://www.whoscored.com/Players/99487/History/'
p92
sS'passing_data'
p93
(lp94
(lp95
a(lp96
V2018/2019
p97
aVLeicester
p98
aVEPL
p99
aV12
p100
aV1017
p101
aV2
aV-
aV3
aV-
aV1
aV86.1
p102
aV3.5
p103
aV2
aV7.30
p104
aa(lp105
V2018/2019
p106
aVEngland
p107
aVUNL
p108
aV3
aV270
p109
aV-
aV-
aV1
aV-
aV0.7
p110
aV83
p111
aV2.3
p112
aV-
aV6.77
p113
aa(lp114
V2017/2018
p115
aVLeicester
p116
aVEPL
p117
aV38
p118
aV3420
p119
aV2
aV4
aV7
aV-
aV0.8
p120
aV78.4
p121
aV3.1
p122
aV1
aV7.08
p123
aa(lp124
V2016/2017
p125
aVHull
p126
aVEPL
p127
aV25(4)
p128
aV2307
p129
aV2
aV2
aV5
aV-
aV1.2
p130
aV76.2
p131
aV2.4
p132
aV3
aV7.07
p133
aa(lp134
V2018
p135
aVEngland
p136
aVWC
p137
aV6(1)
p138
aV645
p139
aV1
aV1
aV2
aV-
aV1.6
p140
aV88.8
p141
aV5.9
p142
aV1
aV7.22
p143
aa(lp144
V2015/2016
p145
aVHull
p146
aVEC
p147
aV17(7)
p148
aV1637
p149
aV-
aV-
aV4
aV-
aV1
aV77.3
p150
aV3.5
p151
aV1
aV7.00
p152
aa(lp153
V2014/2015
p154
aVWigan
p155
aVEC
p156
aV16
p157
aV1440
p158
aV1
aV1
aV4
aV-
aV0.8
p159
aV64.1
p160
aV3.9
p161
aV1
aV7.33
p162
aa(lp163
V2014/2015
p164
aVHull
p165
aVEPL
p166
aV0(3)
p167
aV92
p168
aV-
aV-
aV1
aV-
aV-
aV56.5
p169
aV3
aV-
aV6.96
p170
aa(lp171
VTotal / Average
p172
aV
aV
aV132
p173
aV10828
p174
aV8
aV8
aV27
p175
aV0
aV1
aV76.8
p176
aV3.3
p177
aV9
aV7.11
p178
aasS'defensive_data'
p179
(lp180
(lp181
a(lp182
V2018/2019
p183
aVLeicester
p184
aVEPL
p185
aV12
p186
aV1017
p187
aV2
aV-
aV3
aV-
aV1
aV86.1
p188
aV3.5
p189
aV2
aV7.30
p190
aa(lp191
V2018/2019
p192
aVEngland
p193
aVUNL
p194
aV3
aV270
p195
aV-
aV-
aV1
aV-
aV0.7
p196
aV83
p197
aV2.3
p198
aV-
aV6.77
p199
aa(lp200
V2017/2018
p201
aVLeicester
p202
aVEPL
p203
aV38
p204
aV3420
p205
aV2
aV4
aV7
aV-
aV0.8
p206
aV78.4
p207
aV3.1
p208
aV1
aV7.08
p209
aa(lp210
V2016/2017
p211
aVHull
p212
aVEPL
p213
aV25(4)
p214
aV2307
p215
aV2
aV2
aV5
aV-
aV1.2
p216
aV76.2
p217
aV2.4
p218
aV3
aV7.07
p219
aa(lp220
V2018
p221
aVEngland
p222
aVWC
p223
aV6(1)
p224
aV645
p225
aV1
aV1
aV2
aV-
aV1.6
p226
aV88.8
p227
aV5.9
p228
aV1
aV7.22
p229
aa(lp230
V2015/2016
p231
aVHull
p232
aVEC
p233
aV17(7)
p234
aV1637
p235
aV-
aV-
aV4
aV-
aV1
aV77.3
p236
aV3.5
p237
aV1
aV7.00
p238
aa(lp239
V2014/2015
p240
aVWigan
p241
aVEC
p242
aV16
p243
aV1440
p244
aV1
aV1
aV4
aV-
aV0.8
p245
aV64.1
p246
aV3.9
p247
aV1
aV7.33
p248
aa(lp249
V2014/2015
p250
aVHull
p251
aVEPL
p252
aV0(3)
p253
aV92
p254
aV-
aV-
aV1
aV-
aV-
aV56.5
p255
aV3
aV-
aV6.96
p256
aa(lp257
VTotal / Average
p258
aV
aV
aV132
p259
aV10828
p260
aV8
aV8
aV27
p261
aV0
aV1
aV76.8
p262
aV3.3
p263
aV9
aV7.11
p264
aasS'sumary_data'
p265
(lp266
(lp267
a(lp268
V2018/2019
p269
aVLeicester
p270
aVEPL
p271
aV12
p272
aV1017
p273
aV2
aV-
aV3
aV-
aV1
aV86.1
p274
aV3.5
p275
aV2
aV7.30
p276
aa(lp277
V2018/2019
p278
aVEngland
p279
aVUNL
p280
aV3
aV270
p281
aV-
aV-
aV1
aV-
aV0.7
p282
aV83
p283
aV2.3
p284
aV-
aV6.77
p285
aa(lp286
V2017/2018
p287
aVLeicester
p288
aVEPL
p289
aV38
p290
aV3420
p291
aV2
aV4
aV7
aV-
aV0.8
p292
aV78.4
p293
aV3.1
p294
aV1
aV7.08
p295
aa(lp296
V2016/2017
p297
aVHull
p298
aVEPL
p299
aV25(4)
p300
aV2307
p301
aV2
aV2
aV5
aV-
aV1.2
p302
aV76.2
p303
aV2.4
p304
aV3
aV7.07
p305
aa(lp306
V2018
p307
aVEngland
p308
aVWC
p309
aV6(1)
p310
aV645
p311
aV1
aV1
aV2
aV-
aV1.6
p312
aV88.8
p313
aV5.9
p314
aV1
aV7.22
p315
aa(lp316
V2015/2016
p317
aVHull
p318
aVEC
p319
aV17(7)
p320
aV1637
p321
aV-
aV-
aV4
aV-
aV1
aV77.3
p322
aV3.5
p323
aV1
aV7.00
p324
aa(lp325
V2014/2015
p326
aVWigan
p327
aVEC
p328
aV16
p329
aV1440
p330
aV1
aV1
aV4
aV-
aV0.8
p331
aV64.1
p332
aV3.9
p333
aV1
aV7.33
p334
aa(lp335
V2014/2015
p336
aVHull
p337
aVEPL
p338
aV0(3)
p339
aV92
p340
aV-
aV-
aV1
aV-
aV-
aV56.5
p341
aV3
aV-
aV6.96
p342
aa(lp343
VTotal / Average
p344
aV
aV
aV132
p345
aV10828
p346
aV8
aV8
aV27
p347
aV0
aV1
aV76.8
p348
aV3.3
p349
aV9
aV7.11
p350
aasS'id'
p351
V99487
p352
sb.